 PhysX3CommonDEBUG_x86

 Timestamp is 64ede3af (Tue Aug 29 13:25:19 2023)

 Preferred load address is 10000000

 Start         Length     Name                   Class
 0001:00000000 0001ddc0H .text$di                CODE
 0001:0001ddc0 001e74a0H .text$mn                CODE
 0001:00205260 00002290H .text$x                 CODE
 0001:002074f0 00001012H .text$yd                CODE
 0002:00000000 00000104H .CRT$XCA                DATA
 0002:00000104 00000cfcH .CRT$XCU                DATA
 0002:00000e00 00000104H .CRT$XCZ                DATA
 0002:00000f04 00000104H .CRT$XIA                DATA
 0002:00001008 00000110H .CRT$XIC                DATA
 0002:00001118 00000104H .CRT$XIZ                DATA
 0002:0000121c 00000104H .CRT$XPA                DATA
 0002:00001320 0000010cH .CRT$XPX                DATA
 0002:0000142c 00000104H .CRT$XPXA               DATA
 0002:00001530 00000104H .CRT$XPZ                DATA
 0002:00001634 00000104H .CRT$XTA                DATA
 0002:00001738 00000108H .CRT$XTZ                DATA
 0002:00001840 00031e40H .rdata                  DATA
 0002:00033680 00000104H .rdata$CastGuardVftablesA DATA
 0002:00033784 00000104H .rdata$CastGuardVftablesC DATA
 0002:00033888 00000504H .rdata$r                DATA
 0002:00033d8c 000002d8H .rdata$sxdata           DATA
 0002:00034064 0000019cH .rdata$zzzdbg           DATA
 0002:00034200 00000104H .rtc$IAA                DATA
 0002:00034304 00000104H .rtc$IZZ                DATA
 0002:00034408 00000104H .rtc$TAA                DATA
 0002:0003450c 00000104H .rtc$TZZ                DATA
 0002:00034610 00001e80H .xdata$x                DATA
 0002:00036490 00016f4fH .edata                  DATA
 0003:00000000 0000102cH .data                   DATA
 0003:0000102c 00000418H .data$r                 DATA
 0003:00001444 000001dcH .data$rs                DATA
 0003:00001620 00005210H .bss                    DATA
 0004:00000000 000002c8H .idata$5                DATA
 0004:000002c8 00000028H .idata$2                DATA
 0004:000002f0 00000014H .idata$3                DATA
 0004:00000304 000002c8H .idata$4                DATA
 0004:000005cc 00000a03H .idata$6                DATA
 0005:00000000 00000109H .00cfg                  DATA
 0006:00000000 000001c0H .rsrc$01                DATA
 0006:000001c0 000006a9H .rsrc$02                DATA

  Address         Publics by Value              Rva+Base       Lib:Object

 0000:00000000       ___hybrid_code_map_count   00000000     <absolute>
 0000:00000000       ___guard_check_icall_a64n_fptr 00000000     <absolute>
 0000:00000000       ___x64_code_ranges_to_entry_points 00000000     <absolute>
 0000:00000000       ___guard_longjmp_count     00000000     <absolute>
 0000:00000000       ___arm64x_native_entrypoint 00000000     <absolute>
 0000:00000000       ___guard_eh_cont_count     00000000     <absolute>
 0000:00000000       ___arm64x_redirection_metadata_count 00000000     <absolute>
 0000:00000000       ___hybrid_auxiliary_iat    00000000     <absolute>
 0000:00000000       ___arm64x_redirection_metadata 00000000     <absolute>
 0000:00000000       ___enclave_config          00000000     <absolute>
 0000:00000000       ___guard_iat_count         00000000     <absolute>
 0000:00000000       ___guard_iat_table         00000000     <absolute>
 0000:00000000       ___hybrid_auxiliary_iat_copy 00000000     <absolute>
 0000:00000000       ___arm64x_extra_rfe_table  00000000     <absolute>
 0000:00000000       ___hybrid_code_map         00000000     <absolute>
 0000:00000000       __except_list              00000000     <absolute>
 0000:00000000       ___guard_fids_count        00000000     <absolute>
 0000:00000000       ___guard_longjmp_table     00000000     <absolute>
 0000:00000000       ___guard_eh_cont_table     00000000     <absolute>
 0000:00000000       ___AbsoluteZero            00000000     <absolute>
 0000:00000000       ___guard_fids_table        00000000     <absolute>
 0000:00000000       ___x64_code_ranges_to_entry_points_count 00000000     <absolute>
 0000:00000000       ___dynamic_value_reloc_table 00000000     <absolute>
 0000:00000000       ___arm64x_extra_rfe_table_size 00000000     <absolute>
 0000:00000000       ___volatile_metadata       00000000     <absolute>
 0000:00000062       ___safe_se_handler_count   00000062     <absolute>
 0000:00000100       ___guard_flags             00000100     <absolute>
 0000:00000000       ___ImageBase               10000000     <linker-defined>
 0001:0001ddc0       ?atomicExchange@shdfnd@physx@@YAHPCHH@Z 1001edc0 f   PsWindowsAtomic.obj
 0001:0001ddd0       ?atomicCompareExchange@shdfnd@physx@@YAHPCHHH@Z 1001edd0 f   PsWindowsAtomic.obj
 0001:0001ddf0       ?atomicCompareExchangePointer@shdfnd@physx@@YAPAXPAPCXPAX1@Z 1001edf0 f   PsWindowsAtomic.obj
 0001:0001de10       ?atomicIncrement@shdfnd@physx@@YAHPCH@Z 1001ee10 f   PsWindowsAtomic.obj
 0001:0001de30       ?atomicDecrement@shdfnd@physx@@YAHPCH@Z 1001ee30 f   PsWindowsAtomic.obj
 0001:0001de50       ?atomicAdd@shdfnd@physx@@YAHPCHH@Z 1001ee50 f   PsWindowsAtomic.obj
 0001:0001de80       ?atomicMax@shdfnd@physx@@YAHPCHH@Z 1001ee80 f   PsWindowsAtomic.obj
 0001:0001df00       __InlineInterlockedCompareExchangePointer 1001ef00 f i PsWindowsAtomic.obj
 0001:0001df20       ?getCpuId@Cpu@shdfnd@physx@@SAEXZ 1001ef20 f   PsWindowsCpu.obj
 0001:0001df70       ??0FPUGuard@shdfnd@physx@@QAE@XZ 1001ef70 f   PsWindowsFPU.obj
 0001:0001dfc0       ??1FPUGuard@shdfnd@physx@@QAE@XZ 1001efc0 f   PsWindowsFPU.obj
 0001:0001e020       ?enableFPExceptions@shdfnd@physx@@YAXXZ 1001f020 f   PsWindowsFPU.obj
 0001:0001e040       ?disableFPExceptions@shdfnd@physx@@YAXXZ 1001f040 f   PsWindowsFPU.obj
 0001:0001e0a0       ??4FPUGuard@shdfnd@physx@@QAEAAV012@ABV012@@Z 1001f0a0 f i PsWindowsFPU.obj
 0001:0001e0d0       ??0MemoryMappedFile@shdfnd@physx@@QAE@PBDI@Z 1001f0d0 f   PsWindowsMemoryMappedFile.obj
 0001:0001e1a0       ??1MemoryMappedFile@shdfnd@physx@@QAE@XZ 1001f1a0 f   PsWindowsMemoryMappedFile.obj
 0001:0001e200       ?getBaseAddress@MemoryMappedFile@shdfnd@physx@@QAEPAXXZ 1001f200 f   PsWindowsMemoryMappedFile.obj
 0001:0001e270       ??0Allocator@shdfnd@physx@@QAE@PBD@Z 1001f270 f i PsWindowsMemoryMappedFile.obj
 0001:0001e290       ??0PxFoundation@physx@@QAE@ABV01@@Z 1001f290 f i PsWindowsMemoryMappedFile.obj
 0001:0001e2b0       ??0PxFoundation@physx@@QAE@XZ 1001f2b0 f i PsWindowsMemoryMappedFile.obj
 0001:0001e2d0       ??1PxFoundation@physx@@MAE@XZ 1001f2d0 f i PsWindowsMemoryMappedFile.obj
 0001:0001e2f0       ??4Allocator@shdfnd@physx@@QAEAAV012@$$QAV012@@Z 1001f2f0 f i PsWindowsMemoryMappedFile.obj
 0001:0001e310       ??4Allocator@shdfnd@physx@@QAEAAV012@ABV012@@Z 1001f310 f i PsWindowsMemoryMappedFile.obj
 0001:0001e330       ??4ErrorHandler@shdfnd@physx@@QAEAAV012@ABV012@@Z 1001f330 f i PsWindowsMemoryMappedFile.obj
 0001:0001e370       ??4MutexImpl@shdfnd@physx@@QAEAAV012@ABV012@@Z 1001f370 f i PsWindowsMemoryMappedFile.obj
 0001:0001e390       ??4PAUtils@shdfnd@physx@@QAEAAV012@ABV012@@Z 1001f390 f i PsWindowsMemoryMappedFile.obj
 0001:0001e3b0       ??4PxFoundation@physx@@QAEAAV01@ABV01@@Z 1001f3b0 f i PsWindowsMemoryMappedFile.obj
 0001:0001e3d0       ??_EPxFoundation@physx@@MAEPAXI@Z 1001f3d0 f i PsWindowsMemoryMappedFile.obj
 0001:0001e470       ??_FAllocator@shdfnd@physx@@QAEXXZ 1001f470 f i PsWindowsMemoryMappedFile.obj
 0001:0001e490       ??_FNamedAllocator@shdfnd@physx@@QAEXXZ 1001f490 f i PsWindowsMemoryMappedFile.obj
 0001:0001e4b0       ??_GPxFoundation@physx@@MAEPAXI@Z 1001f4b0 f i PsWindowsMemoryMappedFile.obj
 0001:0001e4f0       ??_I@YGXPAXIIP6EX0@Z@Z     1001f4f0 f i PsWindowsMemoryMappedFile.obj
 0001:0001e550       ?getAllocator@Foundation@shdfnd@physx@@UBEAAVPxBroadcastingAllocator@3@XZ 1001f550 f i PsWindowsMemoryMappedFile.obj
 0001:0001e570       ?getCallbackCount@ErrorHandler@shdfnd@physx@@QBEIXZ 1001f570 f i PsWindowsMemoryMappedFile.obj
 0001:0001e590       ?getCheckedAllocator@Foundation@shdfnd@physx@@QAEAAVPxAllocatorCallback@3@XZ 1001f590 f i PsWindowsMemoryMappedFile.obj
 0001:0001e5b0       ?getErrorCallback@ErrorHandler@shdfnd@physx@@QBEPAVPxErrorCallback@3@H@Z 1001f5b0 f i PsWindowsMemoryMappedFile.obj
 0001:0001e5d0       ?getErrorHandler@Foundation@shdfnd@physx@@QAEAAVErrorHandler@23@XZ 1001f5d0 f i PsWindowsMemoryMappedFile.obj
 0001:0001e5f0       ?getErrorMutex@Foundation@shdfnd@physx@@QAEAAV?$MutexT@VAllocator@shdfnd@physx@@@23@XZ 1001f5f0 f i PsWindowsMemoryMappedFile.obj
 0001:0001e610       ?getMaxCallbackNum@ErrorHandler@shdfnd@physx@@QBEIXZ 1001f610 f i PsWindowsMemoryMappedFile.obj
 0001:0001e630       ?getNamedAllocMap@Foundation@shdfnd@physx@@QAEAAV?$HashMap@PBVNamedAllocator@shdfnd@physx@@PBDU?$Hash@PBVNamedAllocator@shdfnd@physx@@@23@VNonTrackingAllocator@23@@23@XZ 1001f630 f i PsWindowsMemoryMappedFile.obj
 0001:0001e650       ?getNamedAllocMutex@Foundation@shdfnd@physx@@QAEAAV?$MutexT@VAllocator@shdfnd@physx@@@23@XZ 1001f650 f i PsWindowsMemoryMappedFile.obj
 0001:0001e670       ?getPAUtils@Foundation@shdfnd@physx@@QAEAAVPAUtils@23@XZ 1001f670 f i PsWindowsMemoryMappedFile.obj
 0001:0001e690       ?getReportAllocationNames@Foundation@shdfnd@physx@@UBE_NXZ 1001f690 f i PsWindowsMemoryMappedFile.obj
 0001:0001e6b0       ?getTempAllocFreeTable@Foundation@shdfnd@physx@@QAEAAV?$Array@PATTempAllocatorChunk@shdfnd@physx@@VAllocator@23@@23@XZ 1001f6b0 f i PsWindowsMemoryMappedFile.obj
 0001:0001e6d0       ?getTempAllocMutex@Foundation@shdfnd@physx@@QAEAAV?$MutexT@VAllocator@shdfnd@physx@@@23@XZ 1001f6d0 f i PsWindowsMemoryMappedFile.obj
 0001:0001e6f0       ?setReportAllocationNames@Foundation@shdfnd@physx@@UAEX_N@Z 1001f6f0 f i PsWindowsMemoryMappedFile.obj
 0001:0001e710       ??0PsModuleUpdateLoader@shdfnd@physx@@QAE@PBD@Z 1001f710 f   PsWindowsModuleUpdateLoader.obj
 0001:0001e760       ??1PsModuleUpdateLoader@shdfnd@physx@@QAE@XZ 1001f760 f   PsWindowsModuleUpdateLoader.obj
 0001:0001e790       ?LoadModule@PsModuleUpdateLoader@shdfnd@physx@@QAEPAUHINSTANCE__@@PBD0@Z 1001f790 f   PsWindowsModuleUpdateLoader.obj
 0001:0001e820       ??4PsModuleUpdateLoader@shdfnd@physx@@QAEAAV012@ABV012@@Z 1001f820 f i PsWindowsModuleUpdateLoader.obj
 0001:0001e850       ?loadLibrary@shdfnd@physx@@YGPAUHINSTANCE__@@PBD@Z 1001f850 f i PsWindowsModuleUpdateLoader.obj
 0001:0001e870       ??0MutexImpl@shdfnd@physx@@QAE@XZ 1001f870 f   PsWindowsMutex.obj
 0001:0001e8b0       ??1MutexImpl@shdfnd@physx@@QAE@XZ 1001f8b0 f   PsWindowsMutex.obj
 0001:0001e8d0       ?lock@MutexImpl@shdfnd@physx@@QAEXXZ 1001f8d0 f   PsWindowsMutex.obj
 0001:0001e910       ?trylock@MutexImpl@shdfnd@physx@@QAE_NXZ 1001f910 f   PsWindowsMutex.obj
 0001:0001e970       ?unlock@MutexImpl@shdfnd@physx@@QAEXXZ 1001f970 f   PsWindowsMutex.obj
 0001:0001e9d0       ?getSize@MutexImpl@shdfnd@physx@@SAABIXZ 1001f9d0 f   PsWindowsMutex.obj
 0001:0001e9e0       ??0ReadWriteLock@shdfnd@physx@@QAE@XZ 1001f9e0 f   PsWindowsMutex.obj
 0001:0001ea50       ??1ReadWriteLock@shdfnd@physx@@QAE@XZ 1001fa50 f   PsWindowsMutex.obj
 0001:0001ea90       ?lockReader@ReadWriteLock@shdfnd@physx@@QAEXXZ 1001fa90 f   PsWindowsMutex.obj
 0001:0001eac0       ?lockWriter@ReadWriteLock@shdfnd@physx@@QAEXXZ 1001fac0 f   PsWindowsMutex.obj
 0001:0001eaf0       ?unlockReader@ReadWriteLock@shdfnd@physx@@QAEXXZ 1001faf0 f   PsWindowsMutex.obj
 0001:0001eb10       ?unlockWriter@ReadWriteLock@shdfnd@physx@@QAEXXZ 1001fb10 f   PsWindowsMutex.obj
 0001:0001ebf0       ??0?$MutexT@V?$ReflectionAllocator@VMutexImpl@shdfnd@physx@@@shdfnd@physx@@@shdfnd@physx@@QAE@ABV?$ReflectionAllocator@VMutexImpl@shdfnd@physx@@@12@@Z 1001fbf0 f i PsWindowsMutex.obj
 0001:0001ec60       ??0?$ReflectionAllocator@VMutexImpl@shdfnd@physx@@@shdfnd@physx@@QAE@ABV012@@Z 1001fc60 f i PsWindowsMutex.obj
 0001:0001ec80       ??0?$ReflectionAllocator@VMutexImpl@shdfnd@physx@@@shdfnd@physx@@QAE@PBD@Z 1001fc80 f i PsWindowsMutex.obj
 0001:0001eca0       ??0ReadWriteLockImpl@shdfnd@physx@@QAE@XZ 1001fca0 f i PsWindowsMutex.obj
 0001:0001ece0       ??1?$MutexT@V?$ReflectionAllocator@VMutexImpl@shdfnd@physx@@@shdfnd@physx@@@shdfnd@physx@@QAE@XZ 1001fce0 f i PsWindowsMutex.obj
 0001:0001ed20       ??1ReadWriteLockImpl@shdfnd@physx@@QAE@XZ 1001fd20 f i PsWindowsMutex.obj
 0001:0001ed40       ??2@YAPAXIPAX@Z            1001fd40 f i PsWindowsMutex.obj
 0001:0001ed50       ??4ThreadImpl@shdfnd@physx@@QAEAAV012@ABV012@@Z 1001fd50 f i PsWindowsMutex.obj
 0001:0001ed70       ??_GMutexImpl@shdfnd@physx@@QAEPAXI@Z 1001fd70 f i PsWindowsMutex.obj
 0001:0001edb0       ??_GReadWriteLockImpl@shdfnd@physx@@QAEPAXI@Z 1001fdb0 f i PsWindowsMutex.obj
 0001:0001edf0       ?__empty_global_delete@@YAXPAX@Z 1001fdf0 f i PsWindowsMutex.obj
 0001:0001ee00       ?__empty_global_delete@@YAXPAXI@Z 1001fe00 f i PsWindowsMutex.obj
 0001:0001ee10       ?__empty_global_delete@@YAXPAXIW4align_val_t@std@@@Z 1001fe10 f i PsWindowsMutex.obj
 0001:0001ee20       ?__empty_global_delete@@YAXPAXW4align_val_t@std@@@Z 1001fe20 f i PsWindowsMutex.obj
 0001:0001ee30       ?allocate@?$ReflectionAllocator@VMutexImpl@shdfnd@physx@@@shdfnd@physx@@QAEPAXIPBDH@Z 1001fe30 f i PsWindowsMutex.obj
 0001:0001eea0       ?deallocate@?$ReflectionAllocator@VMutexImpl@shdfnd@physx@@@shdfnd@physx@@QAEXPAX@Z 1001fea0 f i PsWindowsMutex.obj
 0001:0001eee0       ?getFoundation@shdfnd@physx@@YAAAVFoundation@12@XZ 1001fee0 f i PsWindowsMutex.obj
 0001:0001eef0       ?getId@?$ThreadT@V?$ReflectionAllocator@VThreadImpl@shdfnd@physx@@@shdfnd@physx@@@shdfnd@physx@@SAIXZ 1001fef0 f i PsWindowsMutex.obj
 0001:0001ef00       ?getName@?$ReflectionAllocator@VMutexImpl@shdfnd@physx@@@shdfnd@physx@@CAPBDXZ 1001ff00 f i PsWindowsMutex.obj
 0001:0001ef50       ?lock@?$MutexT@V?$ReflectionAllocator@VMutexImpl@shdfnd@physx@@@shdfnd@physx@@@shdfnd@physx@@QBEXXZ 1001ff50 f i PsWindowsMutex.obj
 0001:0001ef70       ?name@type_info@@QBEPBDXZ  1001ff70 f i PsWindowsMutex.obj
 0001:0001efa0       ?unlock@?$MutexT@V?$ReflectionAllocator@VMutexImpl@shdfnd@physx@@@shdfnd@physx@@@shdfnd@physx@@QBEXXZ 1001ffa0 f i PsWindowsMutex.obj
 0001:0001efc0       ??0PAUtils@shdfnd@physx@@QAE@XZ 1001ffc0 f   PsWindowsPAEventSrc.obj
 0001:0001efe0       ??1PAUtils@shdfnd@physx@@QAE@XZ 1001ffe0 f   PsWindowsPAEventSrc.obj
 0001:0001f020       ?isEnabled@PAUtils@shdfnd@physx@@QAE_NXZ 10020020 f   PsWindowsPAEventSrc.obj
 0001:0001f050       ?isEventEnabled@PAUtils@shdfnd@physx@@QAE_NG@Z 10020050 f   PsWindowsPAEventSrc.obj
 0001:0001f090       ?registerEvent@PAUtils@shdfnd@physx@@QAEGPBD@Z 10020090 f   PsWindowsPAEventSrc.obj
 0001:0001f110       ?startEvent@PAUtils@shdfnd@physx@@QAEXGG@Z 10020110 f   PsWindowsPAEventSrc.obj
 0001:0001f1b0       ?stopEvent@PAUtils@shdfnd@physx@@QAEXGG@Z 100201b0 f   PsWindowsPAEventSrc.obj
 0001:0001f250       ?statEvent@PAUtils@shdfnd@physx@@QAEXGI@Z 10020250 f   PsWindowsPAEventSrc.obj
 0001:0001f290       ?statEvent@PAUtils@shdfnd@physx@@QAEXGII@Z 10020290 f   PsWindowsPAEventSrc.obj
 0001:0001f2d0       ?debugEvent@PAUtils@shdfnd@physx@@QAEXGII@Z 100202d0 f   PsWindowsPAEventSrc.obj
 0001:0001f310       ?rawEvent@PAUtils@shdfnd@physx@@QAEXGIIE@Z 10020310 f   PsWindowsPAEventSrc.obj
 0001:0001f350       ?rawEventWithTimestamp@PAUtils@shdfnd@physx@@QAE_NG_KIIE@Z 10020350 f   PsWindowsPAEventSrc.obj
 0001:0001f3a0       ?lock@PAUtils@shdfnd@physx@@QAE_NXZ 100203a0 f   PsWindowsPAEventSrc.obj
 0001:0001f420       ?unlock@PAUtils@shdfnd@physx@@QAE_NXZ 10020420 f   PsWindowsPAEventSrc.obj
 0001:0001f460       ??0ConnImpl@shdfnd@physx@@QAE@XZ 10020460 f   PsWindowsPAEventSrc.obj
 0001:0001f6c0       ??1ConnImpl@shdfnd@physx@@QAE@XZ 100206c0 f   PsWindowsPAEventSrc.obj
 0001:0001f900       ??$?2V?$ReflectionAllocator@VConnImpl@shdfnd@physx@@@shdfnd@physx@@@UserAllocated@shdfnd@physx@@SAPAXIV?$ReflectionAllocator@VConnImpl@shdfnd@physx@@@12@PBDH@Z 10020900 f i PsWindowsPAEventSrc.obj
 0001:0001f920       ??0?$ReflectionAllocator@VConnImpl@shdfnd@physx@@@shdfnd@physx@@QAE@PBD@Z 10020920 f i PsWindowsPAEventSrc.obj
 0001:0001f940       ??3UserAllocated@shdfnd@physx@@SAXPAX@Z 10020940 f i PsWindowsPAEventSrc.obj
 0001:0001f970       ??_GConnImpl@shdfnd@physx@@QAEPAXI@Z 10020970 f i PsWindowsPAEventSrc.obj
 0001:0001f9d0       ?GetProcID@ConnImpl@shdfnd@physx@@QAEEXZ 100209d0 f i PsWindowsPAEventSrc.obj
 0001:0001fa00       ?GetThreadPriority@ConnImpl@shdfnd@physx@@QAEIXZ 10020a00 f i PsWindowsPAEventSrc.obj
 0001:0001fa70       ?allocate@?$ReflectionAllocator@VConnImpl@shdfnd@physx@@@shdfnd@physx@@QAEPAXIPBDH@Z 10020a70 f i PsWindowsPAEventSrc.obj
 0001:0001fae0       ?eventEnabled@ConnImpl@shdfnd@physx@@QAE_NG@Z 10020ae0 f i PsWindowsPAEventSrc.obj
 0001:0001fb30       ?eventLoggingEnabled@ConnImpl@shdfnd@physx@@QAE_NXZ 10020b30 f i PsWindowsPAEventSrc.obj
 0001:0001fb70       ?getName@?$ReflectionAllocator@VConnImpl@shdfnd@physx@@@shdfnd@physx@@CAPBDXZ 10020b70 f i PsWindowsPAEventSrc.obj
 0001:0001fbc0       ?registerEvent@ConnImpl@shdfnd@physx@@QAEGPBD@Z 10020bc0 f i PsWindowsPAEventSrc.obj
 0001:0001fc10       ?submitEvent@ConnImpl@shdfnd@physx@@QAE_NGIIE@Z 10020c10 f i PsWindowsPAEventSrc.obj
 0001:0001fc70       ?printFormatted@shdfnd@physx@@YAXPBDZZ 10020c70 f   PsWindowsPrintString.obj
 0001:0001fcc0       ?printString@shdfnd@physx@@YAXPBD@Z 10020cc0 f   PsWindowsPrintString.obj
 0001:0001fd10       ___local_stdio_printf_options 10020d10 f i PsWindowsPrintString.obj
 0001:0001fd20       __vsprintf_s_l             10020d20 f i PsWindowsPrintString.obj
 0001:0001fd80       _vsprintf_s                10020d80 f i PsWindowsPrintString.obj
 0001:0001fdb0       ??0SListImpl@shdfnd@physx@@QAE@XZ 10020db0 f   PsWindowsSList.obj
 0001:0001fde0       ??1SListImpl@shdfnd@physx@@QAE@XZ 10020de0 f   PsWindowsSList.obj
 0001:0001fdf0       ?push@SListImpl@shdfnd@physx@@QAEXPAVSListEntry@23@@Z 10020df0 f   PsWindowsSList.obj
 0001:0001fe20       ?pop@SListImpl@shdfnd@physx@@QAEPAVSListEntry@23@XZ 10020e20 f   PsWindowsSList.obj
 0001:0001fe40       ?flush@SListImpl@shdfnd@physx@@QAEPAVSListEntry@23@XZ 10020e40 f   PsWindowsSList.obj
 0001:0001fe60       ?getSize@SListImpl@shdfnd@physx@@SAABIXZ 10020e60 f   PsWindowsSList.obj
 0001:0001feb0       ??4SListImpl@shdfnd@physx@@QAEAAU012@ABU012@@Z 10020eb0 f i PsWindowsSList.obj
 0001:0001fed0       ??0Socket@shdfnd@physx@@QAE@_N@Z 10020ed0 f   PsWindowsSocket.obj
 0001:0001ffd0       ??1Socket@shdfnd@physx@@UAE@XZ 10020fd0 f   PsWindowsSocket.obj
 0001:00020050       ?connect@Socket@shdfnd@physx@@QAE_NPBDGI@Z 10021050 f   PsWindowsSocket.obj
 0001:00020080       ?listen@Socket@shdfnd@physx@@QAE_NGPAVConnection@123@@Z 10021080 f   PsWindowsSocket.obj
 0001:000200b0       ?disconnect@Socket@shdfnd@physx@@QAEXXZ 100210b0 f   PsWindowsSocket.obj
 0001:000200d0       ?isConnected@Socket@shdfnd@physx@@QBE_NXZ 100210d0 f   PsWindowsSocket.obj
 0001:000200f0       ?getHost@Socket@shdfnd@physx@@QBEPBDXZ 100210f0 f   PsWindowsSocket.obj
 0001:00020110       ?getPort@Socket@shdfnd@physx@@QBEGXZ 10021110 f   PsWindowsSocket.obj
 0001:00020130       ?flush@Socket@shdfnd@physx@@QAE_NXZ 10021130 f   PsWindowsSocket.obj
 0001:00020170       ?write@Socket@shdfnd@physx@@QAEIPBEI@Z 10021170 f   PsWindowsSocket.obj
 0001:000201c0       ?read@Socket@shdfnd@physx@@QAEIPAEI@Z 100211c0 f   PsWindowsSocket.obj
 0001:00020200       ?setBlocking@Socket@shdfnd@physx@@QAEX_N@Z 10021200 f   PsWindowsSocket.obj
 0001:00020240       ?isBlocking@Socket@shdfnd@physx@@QBE_NXZ 10021240 f   PsWindowsSocket.obj
 0001:00020270       ??0SocketImpl@shdfnd@physx@@QAE@XZ 10021270 f   PsWindowsSocket.obj
 0001:00020330       ??1SocketImpl@shdfnd@physx@@UAE@XZ 10021330 f   PsWindowsSocket.obj
 0001:00020360       ?connect@SocketImpl@shdfnd@physx@@QAE_NPBDGI@Z 10021360 f   PsWindowsSocket.obj
 0001:00020600       ?listen@SocketImpl@shdfnd@physx@@QAE_NGPAVConnection@Socket@23@@Z 10021600 f   PsWindowsSocket.obj
 0001:000206d0       ?disconnect@SocketImpl@shdfnd@physx@@QAEXXZ 100216d0 f   PsWindowsSocket.obj
 0001:00020760       ?setBlocking@SocketImpl@shdfnd@physx@@QAEX_N@Z 10021760 f   PsWindowsSocket.obj
 0001:000207c0       ?write@SocketImpl@shdfnd@physx@@UAEIPBEI@Z 100217c0 f   PsWindowsSocket.obj
 0001:00020820       ?flush@SocketImpl@shdfnd@physx@@UAE_NXZ 10021820 f   PsWindowsSocket.obj
 0001:00020830       ?read@SocketImpl@shdfnd@physx@@QAEIPAEI@Z 10021830 f   PsWindowsSocket.obj
 0001:000208f0       ?execute@SocketImpl@shdfnd@physx@@UAEXXZ 100218f0 f   PsWindowsSocket.obj
 0001:00020960       ??0BufferedSocketImpl@shdfnd@physx@@QAE@XZ 10021960 f   PsWindowsSocket.obj
 0001:00020990       ?flush@BufferedSocketImpl@shdfnd@physx@@UAE_NXZ 10021990 f   PsWindowsSocket.obj
 0001:00020a20       ?write@BufferedSocketImpl@shdfnd@physx@@UAEIPBEI@Z 10021a20 f   PsWindowsSocket.obj
 0001:00020e40       ??0?$ReflectionAllocator@VThreadImpl@shdfnd@physx@@@shdfnd@physx@@QAE@ABV012@@Z 10021e40 f i PsWindowsSocket.obj
 0001:00020e60       ??0?$ReflectionAllocator@VThreadImpl@shdfnd@physx@@@shdfnd@physx@@QAE@PBD@Z 10021e60 f i PsWindowsSocket.obj
 0001:00020e80       ??0?$ThreadT@V?$ReflectionAllocator@VThreadImpl@shdfnd@physx@@@shdfnd@physx@@@shdfnd@physx@@QAE@ABV?$ReflectionAllocator@VThreadImpl@shdfnd@physx@@@12@@Z 10021e80 f i PsWindowsSocket.obj
 0001:00020f20       ??0Runnable@shdfnd@physx@@QAE@XZ 10021f20 f i PsWindowsSocket.obj
 0001:00020f40       ??0Socket@shdfnd@physx@@QAE@ABV012@@Z 10021f40 f i PsWindowsSocket.obj
 0001:00020f70       ??1?$ThreadT@V?$ReflectionAllocator@VThreadImpl@shdfnd@physx@@@shdfnd@physx@@@shdfnd@physx@@UAE@XZ 10021f70 f i PsWindowsSocket.obj
 0001:00020fd0       ??1BufferedSocketImpl@shdfnd@physx@@UAE@XZ 10021fd0 f i PsWindowsSocket.obj
 0001:00021000       ??1Runnable@shdfnd@physx@@UAE@XZ 10022000 f i PsWindowsSocket.obj
 0001:00021020       ??2UserAllocated@shdfnd@physx@@SAPAXIPAX@Z 10022020 f i PsWindowsSocket.obj
 0001:00021030       ??4Socket@shdfnd@physx@@QAEAAV012@ABV012@@Z 10022030 f i PsWindowsSocket.obj
 0001:00021060       ??_ESocket@shdfnd@physx@@UAEPAXI@Z 10022060 f i PsWindowsSocket.obj
 0001:00021140       ??_FSocket@shdfnd@physx@@QAEXXZ 10022140 f i PsWindowsSocket.obj
 0001:00021160       ??_G?$ThreadT@V?$ReflectionAllocator@VThreadImpl@shdfnd@physx@@@shdfnd@physx@@@shdfnd@physx@@UAEPAXI@Z 10022160 f i PsWindowsSocket.obj
 0001:00021160       ??_E?$ThreadT@V?$ReflectionAllocator@VThreadImpl@shdfnd@physx@@@shdfnd@physx@@@shdfnd@physx@@UAEPAXI@Z 10022160 f i PsWindowsSocket.obj
 0001:000211c0       ??_EBufferedSocketImpl@shdfnd@physx@@UAEPAXI@Z 100221c0 f i PsWindowsSocket.obj
 0001:000211c0       ??_GBufferedSocketImpl@shdfnd@physx@@UAEPAXI@Z 100221c0 f i PsWindowsSocket.obj
 0001:00021220       ??_GRunnable@shdfnd@physx@@UAEPAXI@Z 10022220 f i PsWindowsSocket.obj
 0001:00021220       ??_ERunnable@shdfnd@physx@@UAEPAXI@Z 10022220 f i PsWindowsSocket.obj
 0001:00021260       ??_GSocket@shdfnd@physx@@UAEPAXI@Z 10022260 f i PsWindowsSocket.obj
 0001:000212c0       ??_ESocketImpl@shdfnd@physx@@UAEPAXI@Z 100222c0 f i PsWindowsSocket.obj
 0001:000212c0       ??_GSocketImpl@shdfnd@physx@@UAEPAXI@Z 100222c0 f i PsWindowsSocket.obj
 0001:00021320       ??_GThreadImpl@shdfnd@physx@@QAEPAXI@Z 10022320 f i PsWindowsSocket.obj
 0001:00021360       ??_VUserAllocated@shdfnd@physx@@SAXPAX@Z 10022360 f i PsWindowsSocket.obj
 0001:00021390       ?PxMemCopy@physx@@YAPAXPIAXPIBXI@Z 10022390 f i PsWindowsSocket.obj
 0001:000213b0       ?PxMemSet@physx@@YAPAXPIAXHI@Z 100223b0 f i PsWindowsSocket.obj
 0001:000213d0       ?__global_array_delete@@YAXPAX@Z 100223d0 f i PsWindowsSocket.obj
 0001:000213f0       ?__global_array_delete@@YAXPAXI@Z 100223f0 f i PsWindowsSocket.obj
 0001:00021410       ?__global_array_delete@@YAXPAXIW4align_val_t@std@@@Z 10022410 f i PsWindowsSocket.obj
 0001:00021430       ?__global_array_delete@@YAXPAXW4align_val_t@std@@@Z 10022430 f i PsWindowsSocket.obj
 0001:00021450       ?__global_delete@@YAXPAX@Z 10022450 f i PsWindowsSocket.obj
 0001:00021470       ?__global_delete@@YAXPAXI@Z 10022470 f i PsWindowsSocket.obj
 0001:00021490       ?__global_delete@@YAXPAXIW4align_val_t@std@@@Z 10022490 f i PsWindowsSocket.obj
 0001:000214b0       ?__global_delete@@YAXPAXW4align_val_t@std@@@Z 100224b0 f i PsWindowsSocket.obj
 0001:000214d0       ?allocate@?$ReflectionAllocator@VThreadImpl@shdfnd@physx@@@shdfnd@physx@@QAEPAXIPBDH@Z 100224d0 f i PsWindowsSocket.obj
 0001:00021540       ?deallocate@?$ReflectionAllocator@VThreadImpl@shdfnd@physx@@@shdfnd@physx@@QAEXPAX@Z 10022540 f i PsWindowsSocket.obj
 0001:00021580       ?execute@?$ThreadT@V?$ReflectionAllocator@VThreadImpl@shdfnd@physx@@@shdfnd@physx@@@shdfnd@physx@@UAEXXZ 10022580 f i PsWindowsSocket.obj
 0001:00021590       ?execute@Runnable@shdfnd@physx@@UAEXXZ 10022590 f i PsWindowsSocket.obj
 0001:000215a0       ?getDefaultStackSize@?$ThreadT@V?$ReflectionAllocator@VThreadImpl@shdfnd@physx@@@shdfnd@physx@@@shdfnd@physx@@SAIXZ 100225a0 f i PsWindowsSocket.obj
 0001:000215b0       ?getHost@SocketImpl@shdfnd@physx@@QBEPBDXZ 100225b0 f i PsWindowsSocket.obj
 0001:000215d0       ?getName@?$ReflectionAllocator@VThreadImpl@shdfnd@physx@@@shdfnd@physx@@CAPBDXZ 100225d0 f i PsWindowsSocket.obj
 0001:00021620       ?getPort@SocketImpl@shdfnd@physx@@QBEGXZ 10022620 f i PsWindowsSocket.obj
 0001:00021640       ?isBlocking@SocketImpl@shdfnd@physx@@QBE_NXZ 10022640 f i PsWindowsSocket.obj
 0001:00021660       ?isConnected@SocketImpl@shdfnd@physx@@QBE_NXZ 10022660 f i PsWindowsSocket.obj
 0001:00021680       ?memCopy@intrinsics@physx@@YAPAXPIAXPIBXI@Z 10022680 f i PsWindowsSocket.obj
 0001:000216a0       ?memSet@intrinsics@physx@@YAPAXPIAXHI@Z 100226a0 f i PsWindowsSocket.obj
 0001:000216c0       ?quit@?$ThreadT@V?$ReflectionAllocator@VThreadImpl@shdfnd@physx@@@shdfnd@physx@@@shdfnd@physx@@QAEXXZ 100226c0 f i PsWindowsSocket.obj
 0001:000216e0       ?quitIsSignalled@?$ThreadT@V?$ReflectionAllocator@VThreadImpl@shdfnd@physx@@@shdfnd@physx@@@shdfnd@physx@@QAE_NXZ 100226e0 f i PsWindowsSocket.obj
 0001:00021700       ?signalQuit@?$ThreadT@V?$ReflectionAllocator@VThreadImpl@shdfnd@physx@@@shdfnd@physx@@@shdfnd@physx@@QAEXXZ 10022700 f i PsWindowsSocket.obj
 0001:00021720       ?sleep@?$ThreadT@V?$ReflectionAllocator@VThreadImpl@shdfnd@physx@@@shdfnd@physx@@@shdfnd@physx@@SAXI@Z 10022720 f i PsWindowsSocket.obj
 0001:00021740       ?start@?$ThreadT@V?$ReflectionAllocator@VThreadImpl@shdfnd@physx@@@shdfnd@physx@@@shdfnd@physx@@QAEXI@Z 10022740 f i PsWindowsSocket.obj
 0001:00021780       ?waitForQuit@?$ThreadT@V?$ReflectionAllocator@VThreadImpl@shdfnd@physx@@@shdfnd@physx@@@shdfnd@physx@@QAE_NXZ 10022780 f i PsWindowsSocket.obj
 0001:000217a0       ??0SyncImpl@shdfnd@physx@@QAE@XZ 100227a0 f   PsWindowsSync.obj
 0001:000217e0       ??1SyncImpl@shdfnd@physx@@QAE@XZ 100227e0 f   PsWindowsSync.obj
 0001:00021800       ?wait@SyncImpl@shdfnd@physx@@QAE_NI@Z 10022800 f   PsWindowsSync.obj
 0001:00021850       ?set@SyncImpl@shdfnd@physx@@QAEXXZ 10022850 f   PsWindowsSync.obj
 0001:00021870       ?reset@SyncImpl@shdfnd@physx@@QAEXXZ 10022870 f   PsWindowsSync.obj
 0001:00021890       ?getSize@SyncImpl@shdfnd@physx@@SAABIXZ 10022890 f   PsWindowsSync.obj
 0001:000218f0       ??4SyncImpl@shdfnd@physx@@QAEAAV012@ABV012@@Z 100228f0 f i PsWindowsSync.obj
 0001:00021910       ?getDefaultStackSize@ThreadImpl@shdfnd@physx@@SAIXZ 10022910 f   PsWindowsThread.obj
 0001:00021920       ?getId@ThreadImpl@shdfnd@physx@@SAIXZ 10022920 f   PsWindowsThread.obj
 0001:00021930       ??0ThreadImpl@shdfnd@physx@@QAE@XZ 10022930 f   PsWindowsThread.obj
 0001:000219b0       ??0ThreadImpl@shdfnd@physx@@QAE@P6APAXPAX@Z0@Z 100229b0 f   PsWindowsThread.obj
 0001:00021a40       ??1ThreadImpl@shdfnd@physx@@QAE@XZ 10022a40 f   PsWindowsThread.obj
 0001:00021a80       ?start@ThreadImpl@shdfnd@physx@@QAEXIPAVRunnable@23@@Z 10022a80 f   PsWindowsThread.obj
 0001:00021b70       ?kill@ThreadImpl@shdfnd@physx@@QAEXXZ 10022b70 f   PsWindowsThread.obj
 0001:00021bc0       ?signalQuit@ThreadImpl@shdfnd@physx@@QAEXXZ 10022bc0 f   PsWindowsThread.obj
 0001:00021be0       ?waitForQuit@ThreadImpl@shdfnd@physx@@QAE_NXZ 10022be0 f   PsWindowsThread.obj
 0001:00021c20       ?quitIsSignalled@ThreadImpl@shdfnd@physx@@QAE_NXZ 10022c20 f   PsWindowsThread.obj
 0001:00021c60       ?quit@ThreadImpl@shdfnd@physx@@QAEXXZ 10022c60 f   PsWindowsThread.obj
 0001:00021c90       ?setAffinityMask@ThreadImpl@shdfnd@physx@@QAEII@Z 10022c90 f   PsWindowsThread.obj
 0001:00021cf0       ?getPriority@ThreadImpl@shdfnd@physx@@SA?AW4Enum@ThreadPriority@23@I@Z 10022cf0 f   PsWindowsThread.obj
 0001:00021d50       ?setPriority@ThreadImpl@shdfnd@physx@@QAEXW4Enum@ThreadPriority@23@@Z 10022d50 f   PsWindowsThread.obj
 0001:00021e10       ?setName@ThreadImpl@shdfnd@physx@@QAEXPBD@Z 10022e10 f   PsWindowsThread.obj
 0001:00021eb0       ?sleep@ThreadImpl@shdfnd@physx@@SAXI@Z 10022eb0 f   PsWindowsThread.obj
 0001:00021ec0       ?yield@ThreadImpl@shdfnd@physx@@SAXXZ 10022ec0 f   PsWindowsThread.obj
 0001:00021ed0       ?getNbPhysicalCores@ThreadImpl@shdfnd@physx@@SAIXZ 10022ed0 f   PsWindowsThread.obj
 0001:00022070       ?getSize@ThreadImpl@shdfnd@physx@@SAABIXZ 10023070 f   PsWindowsThread.obj
 0001:00022080       ?TlsAlloc@shdfnd@physx@@YAIXZ 10023080 f   PsWindowsThread.obj
 0001:000220e0       ?TlsFree@shdfnd@physx@@YAXI@Z 100230e0 f   PsWindowsThread.obj
 0001:000220f0       ?TlsGet@shdfnd@physx@@YAPAXI@Z 100230f0 f   PsWindowsThread.obj
 0001:00022100       ?TlsSet@shdfnd@physx@@YAIIPAX@Z 10023100 f   PsWindowsThread.obj
 0001:000223b0       ??$PX_UNUSED@K@@YAXABK@Z   100233b0 f i PsWindowsThread.obj
 0001:000223c0       ?getBootCounterFrequency@Time@shdfnd@physx@@SAABUCounterFrequencyToTensOfNanos@23@XZ 100233c0 f   PsWindowsTime.obj
 0001:000223d0       ?getCounterFrequency@Time@shdfnd@physx@@SA?AUCounterFrequencyToTensOfNanos@23@XZ 100233d0 f   PsWindowsTime.obj
 0001:00022400       ?getCurrentCounterValue@Time@shdfnd@physx@@SA_KXZ 10023400 f   PsWindowsTime.obj
 0001:00022420       ??0Time@shdfnd@physx@@QAE@XZ 10023420 f   PsWindowsTime.obj
 0001:00022450       ?getElapsedSeconds@Time@shdfnd@physx@@QAENXZ 10023450 f   PsWindowsTime.obj
 0001:000224a0       ?peekElapsedSeconds@Time@shdfnd@physx@@QAENXZ 100234a0 f   PsWindowsTime.obj
 0001:000224e0       ?getLastTime@Time@shdfnd@physx@@QBENXZ 100234e0 f   PsWindowsTime.obj
 0001:000225d0       ??0CounterFrequencyToTensOfNanos@shdfnd@physx@@QAE@_K0@Z 100235d0 f i PsWindowsTime.obj
 0001:00022610       ??4Time@shdfnd@physx@@QAEAAV012@$$QAV012@@Z 10023610 f i PsWindowsTime.obj
 0001:00022640       ??4Time@shdfnd@physx@@QAEAAV012@ABV012@@Z 10023640 f i PsWindowsTime.obj
 0001:00022670       ?getCurrentTimeInTensOfNanoSeconds@Time@shdfnd@physx@@SA_KXZ 10023670 f i PsWindowsTime.obj
 0001:000226b0       ?toTensOfNanos@CounterFrequencyToTensOfNanos@shdfnd@physx@@QBE_K_K@Z 100236b0 f i PsWindowsTime.obj
 0001:00022700       ?allocate@Allocator@shdfnd@physx@@QAEPAXIPBDH@Z 10023700 f   PsAllocator.obj
 0001:00022750       ?deallocate@Allocator@shdfnd@physx@@QAEXPAX@Z 10023750 f   PsAllocator.obj
 0001:00022790       ??0NamedAllocator@shdfnd@physx@@QAE@ABW4PxEMPTY@2@@Z 10023790 f   PsAllocator.obj
 0001:000227d0       ??0NamedAllocator@shdfnd@physx@@QAE@PBD@Z 100237d0 f   PsAllocator.obj
 0001:00022810       ??0NamedAllocator@shdfnd@physx@@QAE@ABV012@@Z 10023810 f   PsAllocator.obj
 0001:000228c0       ??1NamedAllocator@shdfnd@physx@@QAE@XZ 100238c0 f   PsAllocator.obj
 0001:00022950       ??4NamedAllocator@shdfnd@physx@@QAEAAV012@ABV012@@Z 10023950 f   PsAllocator.obj
 0001:00022a00       ?allocate@NamedAllocator@shdfnd@physx@@QAEPAXIPBDH@Z 10023a00 f   PsAllocator.obj
 0001:00022ad0       ?deallocate@NamedAllocator@shdfnd@physx@@QAEXPAX@Z 10023ad0 f   PsAllocator.obj
 0001:00022c60       ??$PX_UNUSED@_N@@YAXAB_N@Z 10023c60 f i PsAllocator.obj
 0001:00022c70       ??0?$Pair@QBVNamedAllocator@shdfnd@physx@@PBD@shdfnd@physx@@QAE@ABQBVNamedAllocator@12@ABQBD@Z 10023c70 f i PsAllocator.obj
 0001:00022ca0       ??0?$Pair@QBVNamedAllocator@shdfnd@physx@@PBD@shdfnd@physx@@QAE@ABV012@@Z 10023ca0 f i PsAllocator.obj
 0001:00022cd0       ??0ScopedLock@?$MutexT@VAllocator@shdfnd@physx@@@shdfnd@physx@@QAE@AAV123@@Z 10023cd0 f i PsAllocator.obj
 0001:00022d00       ??1ScopedLock@?$MutexT@VAllocator@shdfnd@physx@@@shdfnd@physx@@QAE@XZ 10023d00 f i PsAllocator.obj
 0001:00022d20       ??A?$HashMapBase@PBVNamedAllocator@shdfnd@physx@@PBDU?$Hash@PBVNamedAllocator@shdfnd@physx@@@23@VNonTrackingAllocator@23@@internal@shdfnd@physx@@QAEAAPBDABQBVNamedAllocator@23@@Z 10023d20 f i PsAllocator.obj
 0001:00022da0       ??R?$Hash@PBVNamedAllocator@shdfnd@physx@@@shdfnd@physx@@QBEIABQBVNamedAllocator@12@@Z 10023da0 f i PsAllocator.obj
 0001:00022dd0       ??R?$Hash@PBVNamedAllocator@shdfnd@physx@@@shdfnd@physx@@QBE_NABQBVNamedAllocator@12@0@Z 10023dd0 f i PsAllocator.obj
 0001:00022e10       ??RGetKey@?$HashMapBase@PBVNamedAllocator@shdfnd@physx@@PBDU?$Hash@PBVNamedAllocator@shdfnd@physx@@@23@VNonTrackingAllocator@23@@internal@shdfnd@physx@@QAEABQBVNamedAllocator@34@ABV?$Pair@QBVNamedAllocator@shdfnd@physx@@PBD@34@@Z 10023e10 f i PsAllocator.obj
 0001:00022e30       ?allocate@NonTrackingAllocator@shdfnd@physx@@QAEPAXIPBDH@Z 10023e30 f i PsAllocator.obj
 0001:00022e90       ?create@?$HashBase@V?$Pair@QBVNamedAllocator@shdfnd@physx@@PBD@shdfnd@physx@@PBVNamedAllocator@23@U?$Hash@PBVNamedAllocator@shdfnd@physx@@@23@UGetKey@?$HashMapBase@PBVNamedAllocator@shdfnd@physx@@PBDU?$Hash@PBVNamedAllocator@shdfnd@physx@@@23@VNonTrackingAllocator@23@@internal@23@VNonTrackingAllocator@23@$00@internal@shdfnd@physx@@QAEPAV?$Pair@QBVNamedAllocator@shdfnd@physx@@PBD@34@ABQBVNamedAllocator@34@AA_N@Z 10023e90 f i PsAllocator.obj
 0001:00023030       ?deallocate@NonTrackingAllocator@shdfnd@physx@@QAEXPAX@Z 10024030 f i PsAllocator.obj
 0001:00023080       ?erase@?$HashBase@V?$Pair@QBVNamedAllocator@shdfnd@physx@@PBD@shdfnd@physx@@PBVNamedAllocator@23@U?$Hash@PBVNamedAllocator@shdfnd@physx@@@23@UGetKey@?$HashMapBase@PBVNamedAllocator@shdfnd@physx@@PBDU?$Hash@PBVNamedAllocator@shdfnd@physx@@@23@VNonTrackingAllocator@23@@internal@23@VNonTrackingAllocator@23@$00@internal@shdfnd@physx@@QAE_NABQBVNamedAllocator@34@@Z 10024080 f i PsAllocator.obj
 0001:000231c0       ?erase@?$HashMapBase@PBVNamedAllocator@shdfnd@physx@@PBDU?$Hash@PBVNamedAllocator@shdfnd@physx@@@23@VNonTrackingAllocator@23@@internal@shdfnd@physx@@QAE_NABQBVNamedAllocator@34@@Z 100241c0 f i PsAllocator.obj
 0001:000231f0       ?find@?$HashBase@V?$Pair@QBVNamedAllocator@shdfnd@physx@@PBD@shdfnd@physx@@PBVNamedAllocator@23@U?$Hash@PBVNamedAllocator@shdfnd@physx@@@23@UGetKey@?$HashMapBase@PBVNamedAllocator@shdfnd@physx@@PBDU?$Hash@PBVNamedAllocator@shdfnd@physx@@@23@VNonTrackingAllocator@23@@internal@23@VNonTrackingAllocator@23@$00@internal@shdfnd@physx@@QBEPBV?$Pair@QBVNamedAllocator@shdfnd@physx@@PBD@34@ABQBVNamedAllocator@34@@Z 100241f0 f i PsAllocator.obj
 0001:000232c0       ?find@?$HashMapBase@PBVNamedAllocator@shdfnd@physx@@PBDU?$Hash@PBVNamedAllocator@shdfnd@physx@@@23@VNonTrackingAllocator@23@@internal@shdfnd@physx@@QBEPBV?$Pair@QBVNamedAllocator@shdfnd@physx@@PBD@34@ABQBVNamedAllocator@34@@Z 100242c0 f i PsAllocator.obj
 0001:000232f0       ?freeListAdd@?$HashBase@V?$Pair@QBVNamedAllocator@shdfnd@physx@@PBD@shdfnd@physx@@PBVNamedAllocator@23@U?$Hash@PBVNamedAllocator@shdfnd@physx@@@23@UGetKey@?$HashMapBase@PBVNamedAllocator@shdfnd@physx@@PBDU?$Hash@PBVNamedAllocator@shdfnd@physx@@@23@VNonTrackingAllocator@23@@internal@23@VNonTrackingAllocator@23@$00@internal@shdfnd@physx@@AAEXI@Z 100242f0 f i PsAllocator.obj
 0001:000233a0       ?freeListAdd@?$HashBase@V?$Pair@QBVNamedAllocator@shdfnd@physx@@PBD@shdfnd@physx@@PBVNamedAllocator@23@U?$Hash@PBVNamedAllocator@shdfnd@physx@@@23@UGetKey@?$HashMapBase@PBVNamedAllocator@shdfnd@physx@@PBDU?$Hash@PBVNamedAllocator@shdfnd@physx@@@23@VNonTrackingAllocator@23@@internal@23@VNonTrackingAllocator@23@$00@internal@shdfnd@physx@@AAEXII@Z 100243a0 f i PsAllocator.obj
 0001:00023490       ?freeListEmpty@?$HashBase@V?$Pair@QBVNamedAllocator@shdfnd@physx@@PBD@shdfnd@physx@@PBVNamedAllocator@23@U?$Hash@PBVNamedAllocator@shdfnd@physx@@@23@UGetKey@?$HashMapBase@PBVNamedAllocator@shdfnd@physx@@PBDU?$Hash@PBVNamedAllocator@shdfnd@physx@@@23@VNonTrackingAllocator@23@@internal@23@VNonTrackingAllocator@23@$00@internal@shdfnd@physx@@ABE_NXZ 10024490 f i PsAllocator.obj
 0001:00023500       ?freeListGetNext@?$HashBase@V?$Pair@QBVNamedAllocator@shdfnd@physx@@PBD@shdfnd@physx@@PBVNamedAllocator@23@U?$Hash@PBVNamedAllocator@shdfnd@physx@@@23@UGetKey@?$HashMapBase@PBVNamedAllocator@shdfnd@physx@@PBDU?$Hash@PBVNamedAllocator@shdfnd@physx@@@23@VNonTrackingAllocator@23@@internal@23@VNonTrackingAllocator@23@$00@internal@shdfnd@physx@@AAEIXZ 10024500 f i PsAllocator.obj
 0001:00023620       ?grow@?$HashBase@V?$Pair@QBVNamedAllocator@shdfnd@physx@@PBD@shdfnd@physx@@PBVNamedAllocator@23@U?$Hash@PBVNamedAllocator@shdfnd@physx@@@23@UGetKey@?$HashMapBase@PBVNamedAllocator@shdfnd@physx@@PBDU?$Hash@PBVNamedAllocator@shdfnd@physx@@@23@VNonTrackingAllocator@23@@internal@23@VNonTrackingAllocator@23@$00@internal@shdfnd@physx@@AAEXXZ 10024620 f i PsAllocator.obj
 0001:000236e0       ?hash@?$HashBase@V?$Pair@QBVNamedAllocator@shdfnd@physx@@PBD@shdfnd@physx@@PBVNamedAllocator@23@U?$Hash@PBVNamedAllocator@shdfnd@physx@@@23@UGetKey@?$HashMapBase@PBVNamedAllocator@shdfnd@physx@@PBDU?$Hash@PBVNamedAllocator@shdfnd@physx@@@23@VNonTrackingAllocator@23@@internal@23@VNonTrackingAllocator@23@$00@internal@shdfnd@physx@@ABEIABQBVNamedAllocator@34@@Z 100246e0 f i PsAllocator.obj
 0001:00023710       ?hash@?$HashBase@V?$Pair@QBVNamedAllocator@shdfnd@physx@@PBD@shdfnd@physx@@PBVNamedAllocator@23@U?$Hash@PBVNamedAllocator@shdfnd@physx@@@23@UGetKey@?$HashMapBase@PBVNamedAllocator@shdfnd@physx@@PBDU?$Hash@PBVNamedAllocator@shdfnd@physx@@@23@VNonTrackingAllocator@23@@internal@23@VNonTrackingAllocator@23@$00@internal@shdfnd@physx@@ABEIABQBVNamedAllocator@34@I@Z 10024710 f i PsAllocator.obj
 0001:00023740       ?hash@shdfnd@physx@@YAII@Z 10024740 f i PsAllocator.obj
 0001:000237c0       ?hash@shdfnd@physx@@YAIPBX@Z 100247c0 f i PsAllocator.obj
 0001:000237e0       ?insert@?$HashMapBase@PBVNamedAllocator@shdfnd@physx@@PBDU?$Hash@PBVNamedAllocator@shdfnd@physx@@@23@VNonTrackingAllocator@23@@internal@shdfnd@physx@@QAE_NQBVNamedAllocator@34@QBD@Z 100247e0 f i PsAllocator.obj
 0001:00023870       ?isPowerOfTwo@shdfnd@physx@@YA_NI@Z 10024870 f i PsAllocator.obj
 0001:000238b0       ?lock@?$MutexT@VAllocator@shdfnd@physx@@@shdfnd@physx@@QBEXXZ 100248b0 f i PsAllocator.obj
 0001:000238d0       ?nextPowerOfTwo@shdfnd@physx@@YAII@Z 100248d0 f i PsAllocator.obj
 0001:00023930       ?replaceWithLast@?$HashBase@V?$Pair@QBVNamedAllocator@shdfnd@physx@@PBD@shdfnd@physx@@PBVNamedAllocator@23@U?$Hash@PBVNamedAllocator@shdfnd@physx@@@23@UGetKey@?$HashMapBase@PBVNamedAllocator@shdfnd@physx@@PBDU?$Hash@PBVNamedAllocator@shdfnd@physx@@@23@VNonTrackingAllocator@23@@internal@23@VNonTrackingAllocator@23@$00@internal@shdfnd@physx@@AAEXI@Z 10024930 f i PsAllocator.obj
 0001:00023a70       ?reserve@?$HashBase@V?$Pair@QBVNamedAllocator@shdfnd@physx@@PBD@shdfnd@physx@@PBVNamedAllocator@23@U?$Hash@PBVNamedAllocator@shdfnd@physx@@@23@UGetKey@?$HashMapBase@PBVNamedAllocator@shdfnd@physx@@PBDU?$Hash@PBVNamedAllocator@shdfnd@physx@@@23@VNonTrackingAllocator@23@@internal@23@VNonTrackingAllocator@23@$00@internal@shdfnd@physx@@QAEXI@Z 10024a70 f i PsAllocator.obj
 0001:00023aa0       ?reserveInternal@?$HashBase@V?$Pair@QBVNamedAllocator@shdfnd@physx@@PBD@shdfnd@physx@@PBVNamedAllocator@23@U?$Hash@PBVNamedAllocator@shdfnd@physx@@@23@UGetKey@?$HashMapBase@PBVNamedAllocator@shdfnd@physx@@PBDU?$Hash@PBVNamedAllocator@shdfnd@physx@@@23@VNonTrackingAllocator@23@@internal@23@VNonTrackingAllocator@23@$00@internal@shdfnd@physx@@AAEXI@Z 10024aa0 f i PsAllocator.obj
 0001:00023f30       ?unlock@?$MutexT@VAllocator@shdfnd@physx@@@shdfnd@physx@@QBEXXZ 10024f30 f i PsAllocator.obj
 0001:00023f50       ?PxGetAssertHandler@physx@@YAAAVPxAssertHandler@1@XZ 10024f50 f   PsAssert.obj
 0001:00023f60       ?PxSetAssertHandler@physx@@YAXAAVPxAssertHandler@1@@Z 10024f60 f   PsAssert.obj
 0001:000240c0       ??1PxAssertHandler@physx@@UAE@XZ 100250c0 f i PsAssert.obj
 0001:000240e0       ??_EPxAssertHandler@physx@@UAEPAXI@Z 100250e0 f i PsAssert.obj
 0001:000240e0       ??_GPxAssertHandler@physx@@UAEPAXI@Z 100250e0 f i PsAssert.obj
 0001:00024120       __vsnprintf_l              10025120 f i PsAssert.obj
 0001:00024190       __vsprintf_l               10025190 f i PsAssert.obj
 0001:000241c0       _sprintf                   100251c0 f i PsAssert.obj
 0001:00024200       ??0ErrorHandler@shdfnd@physx@@QAE@XZ 10025200 f   PsErrorHandler.obj
 0001:00024250       ??1ErrorHandler@shdfnd@physx@@QAE@XZ 10025250 f   PsErrorHandler.obj
 0001:000242b0       ?reportError@ErrorHandler@shdfnd@physx@@QAEXW4Enum@PxErrorCode@3@PBD1H@Z 100252b0 f   PsErrorHandler.obj
 0001:00024330       ?registerErrorCallback@ErrorHandler@shdfnd@physx@@QAEHAAVPxErrorCallback@3@@Z 10025330 f   PsErrorHandler.obj
 0001:00024400       ?unRegisterErrorCallback@ErrorHandler@shdfnd@physx@@QAEXAAVPxErrorCallback@3@@Z 10025400 f   PsErrorHandler.obj
 0001:00024450       ?unRegisterErrorCallback@ErrorHandler@shdfnd@physx@@QAEXH@Z 10025450 f   PsErrorHandler.obj
 0001:00024590       ?lowestSetBit@shdfnd@physx@@YAII@Z 10025590 f i PsErrorHandler.obj
 0001:00024600       ?lowestSetBitUnsafe@shdfnd@physx@@YAII@Z 10025600 f i PsErrorHandler.obj
 0001:00024620       ?createFastIPC@shdfnd@physx@@YAPAVPxIPC@12@AAW4ErrorCode@312@W4ConnectionType@312@PBDII_N3I@Z 10025620 f   PsFastIPC.obj
 0001:00024710       ??$?2V?$ReflectionAllocator@VFastIPC@shdfnd@physx@@@shdfnd@physx@@@UserAllocated@shdfnd@physx@@SAPAXIV?$ReflectionAllocator@VFastIPC@shdfnd@physx@@@12@PBDH@Z 10025710 f i PsFastIPC.obj
 0001:00024730       ??$?2V?$ReflectionAllocator@VMemoryMappedFile@shdfnd@physx@@@shdfnd@physx@@@UserAllocated@shdfnd@physx@@SAPAXIV?$ReflectionAllocator@VMemoryMappedFile@shdfnd@physx@@@12@PBDH@Z 10025730 f i PsFastIPC.obj
 0001:00024750       ??$?2V?$ReflectionAllocator@VMultiPartData@PxRingBuffer@shdfnd@physx@@@shdfnd@physx@@@UserAllocated@shdfnd@physx@@SAPAXIV?$ReflectionAllocator@VMultiPartData@PxRingBuffer@shdfnd@physx@@@12@PBDH@Z 10025750 f i PsFastIPC.obj
 0001:00024770       ??$?2V?$ReflectionAllocator@VMultiPartPacket@PxRingBuffer@shdfnd@physx@@@shdfnd@physx@@@UserAllocated@shdfnd@physx@@SAPAXIV?$ReflectionAllocator@VMultiPartPacket@PxRingBuffer@shdfnd@physx@@@12@PBDH@Z 10025770 f i PsFastIPC.obj
 0001:00024790       ??0?$ReflectionAllocator@VFastIPC@shdfnd@physx@@@shdfnd@physx@@QAE@PBD@Z 10025790 f i PsFastIPC.obj
 0001:000247b0       ??0?$ReflectionAllocator@VMemoryMappedFile@shdfnd@physx@@@shdfnd@physx@@QAE@PBD@Z 100257b0 f i PsFastIPC.obj
 0001:000247d0       ??0?$ReflectionAllocator@VMultiPartData@PxRingBuffer@shdfnd@physx@@@shdfnd@physx@@QAE@PBD@Z 100257d0 f i PsFastIPC.obj
 0001:000247f0       ??0?$ReflectionAllocator@VMultiPartPacket@PxRingBuffer@shdfnd@physx@@@shdfnd@physx@@QAE@PBD@Z 100257f0 f i PsFastIPC.obj
 0001:00024810       ??0FastIPC@shdfnd@physx@@QAE@AAW4ErrorCode@PxIPC@12@W4ConnectionType@412@PBDII_N3I@Z 10025810 f i PsFastIPC.obj
 0001:00024d40       ??0MultiPartData@PxRingBuffer@shdfnd@physx@@QAE@PBVMultiPartPacketHeader@123@@Z 10025d40 f i PsFastIPC.obj
 0001:00024de0       ??0MultiPartPacket@PxRingBuffer@shdfnd@physx@@QAE@W4MessageType@123@PBXIIPAV123@@Z 10025de0 f i PsFastIPC.obj
 0001:00024ec0       ??0PxIPC@shdfnd@physx@@QAE@XZ 10025ec0 f i PsFastIPC.obj
 0001:00024ee0       ??0PxRingBuffer@shdfnd@physx@@QAE@XZ 10025ee0 f i PsFastIPC.obj
 0001:00024f80       ??1FastIPC@shdfnd@physx@@UAE@XZ 10025f80 f i PsFastIPC.obj
 0001:00025040       ??1MultiPartData@PxRingBuffer@shdfnd@physx@@QAE@XZ 10026040 f i PsFastIPC.obj
 0001:00025080       ??1MultiPartPacket@PxRingBuffer@shdfnd@physx@@QAE@XZ 10026080 f i PsFastIPC.obj
 0001:000250c0       ??1PxIPC@shdfnd@physx@@MAE@XZ 100260c0 f i PsFastIPC.obj
 0001:000250e0       ??1PxRingBuffer@shdfnd@physx@@QAE@XZ 100260e0 f i PsFastIPC.obj
 0001:000251b0       ??_GFastIPC@shdfnd@physx@@UAEPAXI@Z 100261b0 f i PsFastIPC.obj
 0001:000251b0       ??_EFastIPC@shdfnd@physx@@UAEPAXI@Z 100261b0 f i PsFastIPC.obj
 0001:00025210       ??_GMemoryMappedFile@shdfnd@physx@@QAEPAXI@Z 10026210 f i PsFastIPC.obj
 0001:00025270       ??_GMultiPartData@PxRingBuffer@shdfnd@physx@@QAEPAXI@Z 10026270 f i PsFastIPC.obj
 0001:000252d0       ??_GMultiPartPacket@PxRingBuffer@shdfnd@physx@@QAEPAXI@Z 100262d0 f i PsFastIPC.obj
 0001:00025330       ??_GPxIPC@shdfnd@physx@@MAEPAXI@Z 10026330 f i PsFastIPC.obj
 0001:00025330       ??_EPxIPC@shdfnd@physx@@MAEPAXI@Z 10026330 f i PsFastIPC.obj
 0001:00025370       ?acknowledgeInternal@PxRingBuffer@shdfnd@physx@@AAEXXZ 10026370 f i PsFastIPC.obj
 0001:00025440       ?allocate@?$ReflectionAllocator@VFastIPC@shdfnd@physx@@@shdfnd@physx@@QAEPAXIPBDH@Z 10026440 f i PsFastIPC.obj
 0001:000254b0       ?allocate@?$ReflectionAllocator@VMemoryMappedFile@shdfnd@physx@@@shdfnd@physx@@QAEPAXIPBDH@Z 100264b0 f i PsFastIPC.obj
 0001:00025520       ?allocate@?$ReflectionAllocator@VMultiPartData@PxRingBuffer@shdfnd@physx@@@shdfnd@physx@@QAEPAXIPBDH@Z 10026520 f i PsFastIPC.obj
 0001:00025590       ?allocate@?$ReflectionAllocator@VMultiPartPacket@PxRingBuffer@shdfnd@physx@@@shdfnd@physx@@QAEPAXIPBDH@Z 10026590 f i PsFastIPC.obj
 0001:00025600       ?canSend@FastIPC@shdfnd@physx@@UAE_NI@Z 10026600 f i PsFastIPC.obj
 0001:00025670       ?canSend@PxRingBuffer@shdfnd@physx@@QBE?AW4ErrorCode@123@I@Z 10026670 f i PsFastIPC.obj
 0001:000257c0       ?getData@MultiPartData@PxRingBuffer@shdfnd@physx@@QBEPBXXZ 100267c0 f i PsFastIPC.obj
 0001:000257e0       ?getDataLen@PacketHeader@PxRingBuffer@shdfnd@physx@@QBEIXZ 100267e0 f i PsFastIPC.obj
 0001:00025800       ?getMessageSize@MultiPartData@PxRingBuffer@shdfnd@physx@@QBEIXZ 10026800 f i PsFastIPC.obj
 0001:00025820       ?getMessageSize@MultiPartPacket@PxRingBuffer@shdfnd@physx@@QBEIXZ 10026820 f i PsFastIPC.obj
 0001:00025840       ?getMessageType@MultiPartData@PxRingBuffer@shdfnd@physx@@QBE?AW4MessageType@234@XZ 10026840 f i PsFastIPC.obj
 0001:00025860       ?getMessageType@PacketHeader@PxRingBuffer@shdfnd@physx@@QBE?AW4MessageType@234@XZ 10026860 f i PsFastIPC.obj
 0001:00025880       ?getName@?$ReflectionAllocator@VFastIPC@shdfnd@physx@@@shdfnd@physx@@CAPBDXZ 10026880 f i PsFastIPC.obj
 0001:000258d0       ?getName@?$ReflectionAllocator@VMemoryMappedFile@shdfnd@physx@@@shdfnd@physx@@CAPBDXZ 100268d0 f i PsFastIPC.obj
 0001:00025920       ?getName@?$ReflectionAllocator@VMultiPartData@PxRingBuffer@shdfnd@physx@@@shdfnd@physx@@CAPBDXZ 10026920 f i PsFastIPC.obj
 0001:00025970       ?getName@?$ReflectionAllocator@VMultiPartPacket@PxRingBuffer@shdfnd@physx@@@shdfnd@physx@@CAPBDXZ 10026970 f i PsFastIPC.obj
 0001:000259c0       ?getNext@MultiPartPacket@PxRingBuffer@shdfnd@physx@@QBEPAV1234@XZ 100269c0 f i PsFastIPC.obj
 0001:000259e0       ?getReadAddress@PxRingBuffer@shdfnd@physx@@ABEIXZ 100269e0 f i PsFastIPC.obj
 0001:00025a60       ?getWriteAddress@PxRingBuffer@shdfnd@physx@@ABEIXZ 10026a60 f i PsFastIPC.obj
 0001:00025ae0       ?haveConnection@FastIPC@shdfnd@physx@@UBE_NXZ 10026ae0 f i PsFastIPC.obj
 0001:00025b40       ?init@PacketHeader@PxRingBuffer@shdfnd@physx@@QAEXIII@Z 10026b40 f i PsFastIPC.obj
 0001:00025b90       ?init@PxRingBuffer@shdfnd@physx@@QAEXPAXI_N1IPAI2@Z 10026b90 f i PsFastIPC.obj
 0001:00025d20       ?isFinished@MultiPartData@PxRingBuffer@shdfnd@physx@@QBE_NXZ 10026d20 f i PsFastIPC.obj
 0001:00025d60       ?isPadded@PacketHeader@PxRingBuffer@shdfnd@physx@@QBE_NXZ 10026d60 f i PsFastIPC.obj
 0001:00025da0       ?isServer@FastIPC@shdfnd@physx@@UBE_NXZ 10026da0 f i PsFastIPC.obj
 0001:00025dc0       ?process@MultiPartData@PxRingBuffer@shdfnd@physx@@QAE_NPBXI@Z 10026dc0 f i PsFastIPC.obj
 0001:00025f00       ?process@MultiPartPacket@PxRingBuffer@shdfnd@physx@@QAE?AW4ErrorCode@234@XZ 10026f00 f i PsFastIPC.obj
 0001:00026040       ?pumpPendingSends@FastIPC@shdfnd@physx@@UAE_NXZ 10027040 f i PsFastIPC.obj
 0001:000260d0       ?pumpPendingSends@PxRingBuffer@shdfnd@physx@@QAE_NXZ 100270d0 f i PsFastIPC.obj
 0001:00026190       ?readData@PxRingBuffer@shdfnd@physx@@AAEPBXAAII@Z 10027190 f i PsFastIPC.obj
 0001:00026230       ?receiveAcknowledge@FastIPC@shdfnd@physx@@UAE?AW4ErrorCode@PxIPC@23@XZ 10027230 f i PsFastIPC.obj
 0001:000262f0       ?receiveAcknowledge@PxRingBuffer@shdfnd@physx@@QAE?AW4ErrorCode@123@XZ 100272f0 f i PsFastIPC.obj
 0001:000263f0       ?receiveData@FastIPC@shdfnd@physx@@UAEPBXAAI@Z 100273f0 f i PsFastIPC.obj
 0001:000264b0       ?receiveData@PxRingBuffer@shdfnd@physx@@QAE?AW4MessageType@123@AAPBXAAI@Z 100274b0 f i PsFastIPC.obj
 0001:000268f0       ?release@FastIPC@shdfnd@physx@@UAEXXZ 100278f0 f i PsFastIPC.obj
 0001:00026940       ?sendData@FastIPC@shdfnd@physx@@UAE?AW4ErrorCode@PxIPC@23@PBXI_N@Z 10027940 f i PsFastIPC.obj
 0001:00026a10       ?sendData@PxRingBuffer@shdfnd@physx@@QAE?AW4ErrorCode@123@W4MessageType@123@PBXI_N@Z 10027a10 f i PsFastIPC.obj
 0001:00026c00       ?sendDataInternal@PxRingBuffer@shdfnd@physx@@AAE?AW4ErrorCode@123@W4MessageType@123@PBXI@Z 10027c00 f i PsFastIPC.obj
 0001:00026c90       ?sendHeader@MultiPartPacket@PxRingBuffer@shdfnd@physx@@QAE?AW4ErrorCode@234@XZ 10027c90 f i PsFastIPC.obj
 0001:00026d40       ?setNext@MultiPartPacket@PxRingBuffer@shdfnd@physx@@QAEXPAV1234@@Z 10027d40 f i PsFastIPC.obj
 0001:00026d60       ?setReadAddress@PxRingBuffer@shdfnd@physx@@AAEXI@Z 10027d60 f i PsFastIPC.obj
 0001:00026e40       ?setWriteAddress@PxRingBuffer@shdfnd@physx@@AAEXI@Z 10027e40 f i PsFastIPC.obj
 0001:00026f20       ?writeData@PxRingBuffer@shdfnd@physx@@AAEXW4MessageType@123@PBXI@Z 10027f20 f i PsFastIPC.obj
 0001:00027190       ?createFastXml@shdfnd@physx@@YAPAVFastXml@12@PAVCallback@312@@Z 10028190 f   PsFastXml.obj
 0001:00029470       ??0AttributePairs@FastXml@shdfnd@physx@@QAE@HPAPBD@Z 1002a470 f i PsFastXml.obj
 0001:000294a0       ??0FastXml@shdfnd@physx@@QAE@XZ 1002a4a0 f i PsFastXml.obj
 0001:000294c0       ??1FastXml@shdfnd@physx@@MAE@XZ 1002a4c0 f i PsFastXml.obj
 0001:000294e0       ??_EFastXml@shdfnd@physx@@MAEPAXI@Z 1002a4e0 f i PsFastXml.obj
 0001:000294e0       ??_GFastXml@shdfnd@physx@@MAEPAXI@Z 1002a4e0 f i PsFastXml.obj
 0001:00029520       ?strchr@@YAPADQADH@Z       1002a520 f i PsFastXml.obj
 0001:00029540       ?strstr@@YAPADQADQBD@Z     1002a540 f i PsFastXml.obj
 0001:00029560       _PxCreateFoundation        1002a560 f   PsFoundation.obj
 0001:00029580       _PxGetFoundation           1002a580 f   PsFoundation.obj
 0001:00029590       ?getAllocator@shdfnd@physx@@YAAAVPxAllocatorCallback@2@XZ 1002a590 f   PsFoundation.obj
 0001:000295b0       ??0Foundation@shdfnd@physx@@AAE@AAVPxErrorCallback@2@AAVPxAllocatorCallback@2@@Z 1002a5b0 f   PsFoundation.obj
 0001:00029720       ??1Foundation@shdfnd@physx@@EAE@XZ 1002a720 f   PsFoundation.obj
 0001:00029810       ?release@Foundation@shdfnd@physx@@UAEXXZ 1002a810 f   PsFoundation.obj
 0001:00029820       ?createInstance@Foundation@shdfnd@physx@@SAPAV123@IAAVPxErrorCallback@3@AAVPxAllocatorCallback@3@@Z 1002a820 f   PsFoundation.obj
 0001:000299c0       ?destroyInstance@Foundation@shdfnd@physx@@SAXXZ 1002a9c0 f   PsFoundation.obj
 0001:00029a90       ?getInstance@Foundation@shdfnd@physx@@SAAAV123@XZ 1002aa90 f   PsFoundation.obj
 0001:00029ae0       ?incRefCount@Foundation@shdfnd@physx@@SAXXZ 1002aae0 f   PsFoundation.obj
 0001:00029b70       ?decRefCount@Foundation@shdfnd@physx@@SAXXZ 1002ab70 f   PsFoundation.obj
 0001:00029c00       ?getErrorCallback@Foundation@shdfnd@physx@@UBEAAVPxErrorCallback@3@XZ 1002ac00 f   PsFoundation.obj
 0001:00029c20       ?setErrorLevel@Foundation@shdfnd@physx@@UAEXW4Enum@PxErrorCode@3@@Z 1002ac20 f   PsFoundation.obj
 0001:00029c40       ?getErrorLevel@Foundation@shdfnd@physx@@UBE?AW4Enum@PxErrorCode@3@XZ 1002ac40 f   PsFoundation.obj
 0001:00029c60       ?getAllocatorCallback@Foundation@shdfnd@physx@@UBEAAVPxAllocatorCallback@3@XZ 1002ac60 f   PsFoundation.obj
 0001:00029c80       ?error@Foundation@shdfnd@physx@@QAAXW4Enum@PxErrorCode@3@PBDH1ZZ 1002ac80 f   PsFoundation.obj
 0001:00029cc0       ?errorImpl@Foundation@shdfnd@physx@@QAEXW4Enum@PxErrorCode@3@PBDH1PAD@Z 1002acc0 f   PsFoundation.obj
 0001:00029d80       ?getWarnOnceTimestamp@Foundation@shdfnd@physx@@SAIXZ 1002ad80 f   PsFoundation.obj
 0001:00029dd0       ?allocate@AlignCheckAllocator@Foundation@shdfnd@physx@@UAEPAXIPBD0H@Z 1002add0 f   PsFoundation.obj
 0001:0002a130       ??$PX_UNUSED@H@@YAXABH@Z   1002b130 f i PsFoundation.obj
 0001:0002a140       ??0?$Array@PATTempAllocatorChunk@shdfnd@physx@@VAllocator@23@@shdfnd@physx@@QAE@ABVAllocator@12@@Z 1002b140 f i PsFoundation.obj
 0001:0002a180       ??0?$HashBase@V?$Pair@QBVNamedAllocator@shdfnd@physx@@PBD@shdfnd@physx@@PBVNamedAllocator@23@U?$Hash@PBVNamedAllocator@shdfnd@physx@@@23@UGetKey@?$HashMapBase@PBVNamedAllocator@shdfnd@physx@@PBDU?$Hash@PBVNamedAllocator@shdfnd@physx@@@23@VNonTrackingAllocator@23@@internal@23@VNonTrackingAllocator@23@$00@internal@shdfnd@physx@@QAE@IM@Z 1002b180 f i PsFoundation.obj
 0001:0002a1d0       ??0?$HashMap@PBVNamedAllocator@shdfnd@physx@@PBDU?$Hash@PBVNamedAllocator@shdfnd@physx@@@23@VNonTrackingAllocator@23@@shdfnd@physx@@QAE@IM@Z 1002b1d0 f i PsFoundation.obj
 0001:0002a200       ??0?$HashMapBase@PBVNamedAllocator@shdfnd@physx@@PBDU?$Hash@PBVNamedAllocator@shdfnd@physx@@@23@VNonTrackingAllocator@23@@internal@shdfnd@physx@@QAE@IM@Z 1002b200 f i PsFoundation.obj
 0001:0002a240       ??0?$MutexT@VAllocator@shdfnd@physx@@@shdfnd@physx@@QAE@ABVAllocator@12@@Z 1002b240 f i PsFoundation.obj
 0001:0002a2a0       ??0AlignCheckAllocator@Foundation@shdfnd@physx@@QAE@AAVPxAllocatorCallback@3@@Z 1002b2a0 f i PsFoundation.obj
 0001:0002a2f0       ??0NonTrackingAllocator@shdfnd@physx@@QAE@PBD@Z 1002b2f0 f i PsFoundation.obj
 0001:0002a310       ??0PxAllocatorCallback@physx@@QAE@XZ 1002b310 f i PsFoundation.obj
 0001:0002a330       ??0PxBroadcastingAllocator@physx@@QAE@XZ 1002b330 f i PsFoundation.obj
 0001:0002a360       ??0TempAllocator@shdfnd@physx@@QAE@PBD@Z 1002b360 f i PsFoundation.obj
 0001:0002a380       ??1?$Array@PATTempAllocatorChunk@shdfnd@physx@@VAllocator@23@@shdfnd@physx@@QAE@XZ 1002b380 f i PsFoundation.obj
 0001:0002a3f0       ??1?$HashBase@V?$Pair@QBVNamedAllocator@shdfnd@physx@@PBD@shdfnd@physx@@PBVNamedAllocator@23@U?$Hash@PBVNamedAllocator@shdfnd@physx@@@23@UGetKey@?$HashMapBase@PBVNamedAllocator@shdfnd@physx@@PBDU?$Hash@PBVNamedAllocator@shdfnd@physx@@@23@VNonTrackingAllocator@23@@internal@23@VNonTrackingAllocator@23@$00@internal@shdfnd@physx@@QAE@XZ 1002b3f0 f i PsFoundation.obj
 0001:0002a430       ??1?$HashMap@PBVNamedAllocator@shdfnd@physx@@PBDU?$Hash@PBVNamedAllocator@shdfnd@physx@@@23@VNonTrackingAllocator@23@@shdfnd@physx@@QAE@XZ 1002b430 f i PsFoundation.obj
 0001:0002a450       ??1?$HashMapBase@PBVNamedAllocator@shdfnd@physx@@PBDU?$Hash@PBVNamedAllocator@shdfnd@physx@@@23@VNonTrackingAllocator@23@@internal@shdfnd@physx@@QAE@XZ 1002b450 f i PsFoundation.obj
 0001:0002a470       ??1?$MutexT@VAllocator@shdfnd@physx@@@shdfnd@physx@@QAE@XZ 1002b470 f i PsFoundation.obj
 0001:0002a4b0       ??1AlignCheckAllocator@Foundation@shdfnd@physx@@UAE@XZ 1002b4b0 f i PsFoundation.obj
 0001:0002a4d0       ??1PxAllocatorCallback@physx@@UAE@XZ 1002b4d0 f i PsFoundation.obj
 0001:0002a4f0       ??1PxBroadcastingAllocator@physx@@MAE@XZ 1002b4f0 f i PsFoundation.obj
 0001:0002a520       ??4TempAllocator@shdfnd@physx@@QAEAAV012@$$QAV012@@Z 1002b520 f i PsFoundation.obj
 0001:0002a540       ??4TempAllocator@shdfnd@physx@@QAEAAV012@ABV012@@Z 1002b540 f i PsFoundation.obj
 0001:0002a560       ??A?$Array@PATTempAllocatorChunk@shdfnd@physx@@VAllocator@23@@shdfnd@physx@@QAEAAPATTempAllocatorChunk@12@I@Z 1002b560 f i PsFoundation.obj
 0001:0002a5e0       ??_EFoundation@shdfnd@physx@@EAEPAXI@Z 1002b5e0 f i PsFoundation.obj
 0001:0002a680       ??_FTempAllocator@shdfnd@physx@@QAEXXZ 1002b680 f i PsFoundation.obj
 0001:0002a6a0       ??_EAlignCheckAllocator@Foundation@shdfnd@physx@@UAEPAXI@Z 1002b6a0 f i PsFoundation.obj
 0001:0002a6a0       ??_GAlignCheckAllocator@Foundation@shdfnd@physx@@UAEPAXI@Z 1002b6a0 f i PsFoundation.obj
 0001:0002a6e0       ??_GFoundation@shdfnd@physx@@EAEPAXI@Z 1002b6e0 f i PsFoundation.obj
 0001:0002a720       ??_GPxAllocatorCallback@physx@@UAEPAXI@Z 1002b720 f i PsFoundation.obj
 0001:0002a720       ??_EPxAllocatorCallback@physx@@UAEPAXI@Z 1002b720 f i PsFoundation.obj
 0001:0002a760       ??_EPxBroadcastingAllocator@physx@@MAEPAXI@Z 1002b760 f i PsFoundation.obj
 0001:0002a760       ??_GPxBroadcastingAllocator@physx@@MAEPAXI@Z 1002b760 f i PsFoundation.obj
 0001:0002a7a0       ?allocate@?$Array@PATTempAllocatorChunk@shdfnd@physx@@VAllocator@23@@shdfnd@physx@@IAEPAPATTempAllocatorChunk@23@I@Z 1002b7a0 f i PsFoundation.obj
 0001:0002a820       ?capacity@?$Array@PATTempAllocatorChunk@shdfnd@physx@@VAllocator@23@@shdfnd@physx@@QBEIXZ 1002b820 f i PsFoundation.obj
 0001:0002a840       ?copy@?$Array@PATTempAllocatorChunk@shdfnd@physx@@VAllocator@23@@shdfnd@physx@@KAXPAPATTempAllocatorChunk@23@0PBQAT423@@Z 1002b840 f i PsFoundation.obj
 0001:0002a8a0       ?create@?$Array@PATTempAllocatorChunk@shdfnd@physx@@VAllocator@23@@shdfnd@physx@@KAXPAPATTempAllocatorChunk@23@0ABQAT423@@Z 1002b8a0 f i PsFoundation.obj
 0001:0002a8f0       ?deallocate@?$Array@PATTempAllocatorChunk@shdfnd@physx@@VAllocator@23@@shdfnd@physx@@IAEXPAX@Z 1002b8f0 f i PsFoundation.obj
 0001:0002a910       ?deallocate@AlignCheckAllocator@Foundation@shdfnd@physx@@UAEXPAX@Z 1002b910 f i PsFoundation.obj
 0001:0002a9b0       ?deregisterAllocationListener@AlignCheckAllocator@Foundation@shdfnd@physx@@UAEXAAVPxAllocationListener@4@@Z 1002b9b0 f i PsFoundation.obj
 0001:0002aa30       ?destroy@?$Array@PATTempAllocatorChunk@shdfnd@physx@@VAllocator@23@@shdfnd@physx@@KAXPAPATTempAllocatorChunk@23@0@Z 1002ba30 f i PsFoundation.obj
 0001:0002aa50       ?destroy@?$HashBase@V?$Pair@QBVNamedAllocator@shdfnd@physx@@PBD@shdfnd@physx@@PBVNamedAllocator@23@U?$Hash@PBVNamedAllocator@shdfnd@physx@@@23@UGetKey@?$HashMapBase@PBVNamedAllocator@shdfnd@physx@@PBDU?$Hash@PBVNamedAllocator@shdfnd@physx@@@23@VNonTrackingAllocator@23@@internal@23@VNonTrackingAllocator@23@$00@internal@shdfnd@physx@@AAEXXZ 1002ba50 f i PsFoundation.obj
 0001:0002aac0       ?getBaseAllocator@AlignCheckAllocator@Foundation@shdfnd@physx@@QBEAAVPxAllocatorCallback@4@XZ 1002bac0 f i PsFoundation.obj
 0001:0002aae0       ?grow@?$Array@PATTempAllocatorChunk@shdfnd@physx@@VAllocator@23@@shdfnd@physx@@IAEXI@Z 1002bae0 f i PsFoundation.obj
 0001:0002ab60       ?init@?$HashBase@V?$Pair@QBVNamedAllocator@shdfnd@physx@@PBD@shdfnd@physx@@PBVNamedAllocator@23@U?$Hash@PBVNamedAllocator@shdfnd@physx@@@23@UGetKey@?$HashMapBase@PBVNamedAllocator@shdfnd@physx@@PBDU?$Hash@PBVNamedAllocator@shdfnd@physx@@@23@VNonTrackingAllocator@23@@internal@23@VNonTrackingAllocator@23@$00@internal@shdfnd@physx@@AAEXIM@Z 1002bb60 f i PsFoundation.obj
 0001:0002ac10       ?isInUserMemory@?$Array@PATTempAllocatorChunk@shdfnd@physx@@VAllocator@23@@shdfnd@physx@@QBEIXZ 1002bc10 f i PsFoundation.obj
 0001:0002ac30       ?recreate@?$Array@PATTempAllocatorChunk@shdfnd@physx@@VAllocator@23@@shdfnd@physx@@IAEXI@Z 1002bc30 f i PsFoundation.obj
 0001:0002ad40       ?registerAllocationListener@AlignCheckAllocator@Foundation@shdfnd@physx@@UAEXAAVPxAllocationListener@4@@Z 1002bd40 f i PsFoundation.obj
 0001:0002ade0       ?reserve@?$Array@PATTempAllocatorChunk@shdfnd@physx@@VAllocator@23@@shdfnd@physx@@QAEXI@Z 1002bde0 f i PsFoundation.obj
 0001:0002ae10       ?reset@?$Array@PATTempAllocatorChunk@shdfnd@physx@@VAllocator@23@@shdfnd@physx@@QAEXXZ 1002be10 f i PsFoundation.obj
 0001:0002ae50       ?resize@?$Array@PATTempAllocatorChunk@shdfnd@physx@@VAllocator@23@@shdfnd@physx@@QAEXIABQATTempAllocatorChunk@23@@Z 1002be50 f i PsFoundation.obj
 0001:0002aee0       ?shrink@?$Array@PATTempAllocatorChunk@shdfnd@physx@@VAllocator@23@@shdfnd@physx@@QAEXXZ 1002bee0 f i PsFoundation.obj
 0001:0002af00       ?size@?$Array@PATTempAllocatorChunk@shdfnd@physx@@VAllocator@23@@shdfnd@physx@@QBEIXZ 1002bf00 f i PsFoundation.obj
 0001:0002af20       ?sprintf_s@string@physx@@YAHPADIPBDZZ 1002bf20 f i PsFoundation.obj
 0001:0002af70       __vsnprintf                1002bf70 f i PsFoundation.obj
 0001:0002afa0       ?computeQuatFromNormal@shdfnd@physx@@YA?AVPxQuat@2@ABVPxVec3@2@@Z 1002bfa0 f   PsMathUtils.obj
 0001:0002b110       ?optimizeBoundingBox@shdfnd@physx@@YA?AVPxVec3@2@AAVPxMat33@2@@Z 1002c110 f   PsMathUtils.obj
 0001:0002b4b0       ?slerp@shdfnd@physx@@YA?AVPxQuat@2@MABV32@0@Z 1002c4b0 f   PsMathUtils.obj
 0001:0002b640       ?integrateTransform@shdfnd@physx@@YAXABVPxTransform@2@ABVPxVec3@2@1MAAV32@@Z 1002c640 f   PsMathUtils.obj
 0001:0002ba20       ??$PX_UNUSED@W4PxIDENTITY@physx@@@@YAXABW4PxIDENTITY@physx@@@Z 1002ca20 f i PsMathUtils.obj
 0001:0002ba30       ??$PxClamp@M@physx@@YAMMMM@Z 1002ca30 f i PsMathUtils.obj
 0001:0002bad0       ??$PxMax@M@physx@@YAMMM@Z  1002cad0 f i PsMathUtils.obj
 0001:0002bb00       ??$PxMin@M@physx@@YAMMM@Z  1002cb00 f i PsMathUtils.obj
 0001:0002bb30       ??$swap@I@shdfnd@physx@@YAXAAI0@Z 1002cb30 f i PsMathUtils.obj
 0001:0002bb60       ??0PxQuat@physx@@QAE@ABV01@@Z 1002cb60 f i PsMathUtils.obj
 0001:0002bbb0       ??0PxQuat@physx@@QAE@MABVPxVec3@1@@Z 1002cbb0 f i PsMathUtils.obj
 0001:0002bcf0       ??0PxQuat@physx@@QAE@MMMM@Z 1002ccf0 f i PsMathUtils.obj
 0001:0002bd50       ??0PxQuat@physx@@QAE@W4PxIDENTITY@1@@Z 1002cd50 f i PsMathUtils.obj
 0001:0002bdb0       ??0PxQuat@physx@@QAE@XZ    1002cdb0 f i PsMathUtils.obj
 0001:0002bdd0       ??0PxVec3@physx@@QAE@ABV01@@Z 1002cdd0 f i PsMathUtils.obj
 0001:0002be10       ??0PxVec3@physx@@QAE@MMM@Z 1002ce10 f i PsMathUtils.obj
 0001:0002be60       ??4PxQuat@physx@@QAEAAV01@ABV01@@Z 1002ce60 f i PsMathUtils.obj
 0001:0002beb0       ??4PxVec3@physx@@QAEAAV01@ABV01@@Z 1002ceb0 f i PsMathUtils.obj
 0001:0002bef0       ??APxMat33@physx@@QAEAAVPxVec3@1@H@Z 1002cef0 f i PsMathUtils.obj
 0001:0002bf10       ??APxVec3@physx@@QAEAAMH@Z 1002cf10 f i PsMathUtils.obj
 0001:0002bf80       ??APxVec3@physx@@QAEAAMI@Z 1002cf80 f i PsMathUtils.obj
 0001:0002bff0       ??DPxQuat@physx@@QBE?AV01@ABV01@@Z 1002cff0 f i PsMathUtils.obj
 0001:0002c1a0       ??DPxQuat@physx@@QBE?AV01@M@Z 1002d1a0 f i PsMathUtils.obj
 0001:0002c220       ??DPxVec3@physx@@QBE?AV01@M@Z 1002d220 f i PsMathUtils.obj
 0001:0002c290       ??HPxQuat@physx@@QBE?AV01@ABV01@@Z 1002d290 f i PsMathUtils.obj
 0001:0002c320       ??HPxVec3@physx@@QBE?AV01@ABV01@@Z 1002d320 f i PsMathUtils.obj
 0001:0002c390       ??XPxVec3@physx@@QAEAAV01@M@Z 1002d390 f i PsMathUtils.obj
 0001:0002c3f0       ??ZPxVec3@physx@@QAEAAV01@ABV01@@Z 1002d3f0 f i PsMathUtils.obj
 0001:0002c460       ??_0PxVec3@physx@@QAEAAV01@M@Z 1002d460 f i PsMathUtils.obj
 0001:0002c4e0       ?PxAbs@physx@@YAMM@Z       1002d4e0 f i PsMathUtils.obj
 0001:0002c500       ?PxAsin@physx@@YAMM@Z      1002d500 f i PsMathUtils.obj
 0001:0002c550       ?PxAtan2@physx@@YAMMM@Z    1002d550 f i PsMathUtils.obj
 0001:0002c580       ?PxCos@physx@@YAMM@Z       1002d580 f i PsMathUtils.obj
 0001:0002c5a0       ?PxRecipSqrt@physx@@YAMM@Z 1002d5a0 f i PsMathUtils.obj
 0001:0002c5c0       ?PxSin@physx@@YAMM@Z       1002d5c0 f i PsMathUtils.obj
 0001:0002c5e0       ?PxSqrt@physx@@YAMM@Z      1002d5e0 f i PsMathUtils.obj
 0001:0002c600       ?abs@intrinsics@physx@@YAMM@Z 1002d600 f i PsMathUtils.obj
 0001:0002c620       ?cos@intrinsics@physx@@YAMM@Z 1002d620 f i PsMathUtils.obj
 0001:0002c640       ?dot@PxQuat@physx@@QBEMABV12@@Z 1002d640 f i PsMathUtils.obj
 0001:0002c6c0       ?dot@PxVec3@physx@@QBEMABV12@@Z 1002d6c0 f i PsMathUtils.obj
 0001:0002c720       ?fsel@intrinsics@physx@@YAMMMM@Z 1002d720 f i PsMathUtils.obj
 0001:0002c760       ?magnitude@PxVec3@physx@@QBEMXZ 1002d760 f i PsMathUtils.obj
 0001:0002c790       ?magnitudeSquared@PxVec3@physx@@QBEMXZ 1002d790 f i PsMathUtils.obj
 0001:0002c7f0       ?normalize@PxVec3@physx@@QAEMXZ 1002d7f0 f i PsMathUtils.obj
 0001:0002c840       ?recipSqrt@intrinsics@physx@@YAMM@Z 1002d840 f i PsMathUtils.obj
 0001:0002c890       ?selectMax@intrinsics@physx@@YAMMM@Z 1002d890 f i PsMathUtils.obj
 0001:0002c8d0       ?selectMin@intrinsics@physx@@YAMMM@Z 1002d8d0 f i PsMathUtils.obj
 0001:0002c910       ?sin@intrinsics@physx@@YAMM@Z 1002d910 f i PsMathUtils.obj
 0001:0002c930       ?sqrt@intrinsics@physx@@YAMM@Z 1002d930 f i PsMathUtils.obj
 0001:0002c950       _asinf                     1002d950 f i PsMathUtils.obj
 0001:0002c980       _atan2f                    1002d980 f i PsMathUtils.obj
 0001:0002c9c0       _cosf                      1002d9c0 f i PsMathUtils.obj
 0001:0002c9f0       _fabsf                     1002d9f0 f i PsMathUtils.obj
 0001:0002ca20       _sinf                      1002da20 f i PsMathUtils.obj
 0001:0002ca50       _sqrtf                     1002da50 f i PsMathUtils.obj
 0001:0002ca80       ?allocate@TempAllocator@shdfnd@physx@@QAEPAXIPBDH@Z 1002da80 f   PsTempAllocator.obj
 0001:0002cc00       ?deallocate@TempAllocator@shdfnd@physx@@QAEXPAX@Z 1002dc00 f   PsTempAllocator.obj
 0001:0002cdb0       ??$PxMax@I@physx@@YAIII@Z  1002ddb0 f i PsTempAllocator.obj
 0001:0002cde0       ??$PxMin@PAPATTempAllocatorChunk@shdfnd@physx@@@physx@@YAPAPATTempAllocatorChunk@shdfnd@0@PAPAT120@0@Z 1002dde0 f i PsTempAllocator.obj
 0001:0002ce10       ?begin@?$Array@PATTempAllocatorChunk@shdfnd@physx@@VAllocator@23@@shdfnd@physx@@QAEPAPATTempAllocatorChunk@23@XZ 1002de10 f i PsTempAllocator.obj
 0001:0002ce30       ?end@?$Array@PATTempAllocatorChunk@shdfnd@physx@@VAllocator@23@@shdfnd@physx@@QAEPAPATTempAllocatorChunk@23@XZ 1002de30 f i PsTempAllocator.obj
 0001:0002ce50       ?highestSetBit@shdfnd@physx@@YAII@Z 1002de50 f i PsTempAllocator.obj
 0001:0002cec0       ?highestSetBitUnsafe@shdfnd@physx@@YAII@Z 1002dec0 f i PsTempAllocator.obj
 0001:0002cee0       ?checkValid@shdfnd@physx@@YA_NABM@Z 1002dee0 f   PsUtilities.obj
 0001:0002cf00       ?checkValid@shdfnd@physx@@YA_NABVPxVec3@2@@Z 1002df00 f   PsUtilities.obj
 0001:0002cf80       ?checkValid@shdfnd@physx@@YA_NABVPxQuat@2@@Z 1002df80 f   PsUtilities.obj
 0001:0002d010       ?checkValid@shdfnd@physx@@YA_NABVPxMat33@2@@Z 1002e010 f   PsUtilities.obj
 0001:0002d160       ?checkValid@shdfnd@physx@@YA_NABVPxTransform@2@@Z 1002e160 f   PsUtilities.obj
 0001:0002d1b0       ?checkValid@shdfnd@physx@@YA_NPBD@Z 1002e1b0 f   PsUtilities.obj
 0001:0002d2b0       ??APxMat33@physx@@QBEABVPxVec3@1@I@Z 1002e2b0 f i PsUtilities.obj
 0001:0002d2d0       ??APxVec3@physx@@QBEABMI@Z 1002e2d0 f i PsUtilities.obj
 0001:0002d340       ??RPxMat33@physx@@QBEMII@Z 1002e340 f i PsUtilities.obj
 0001:0002d380       ?PxIsFinite@physx@@YA_NM@Z 1002e380 f i PsUtilities.obj
 0001:0002d3a0       ?isFinite@intrinsics@physx@@YA_NM@Z 1002e3a0 f i PsUtilities.obj
 0001:0002d3f0       ?PxCreateCollection@@YAPAVPxCollection@physx@@XZ 1002e3f0 f   CmCollection.obj
 0001:0002d440       ?add@Collection@Cm@physx@@UAEXAAVPxBase@3@_K@Z 1002e440 f   CmCollection.obj
 0001:0002d520       ?remove@Collection@Cm@physx@@UAEXAAVPxBase@3@@Z 1002e520 f   CmCollection.obj
 0001:0002d5f0       ?contains@Collection@Cm@physx@@UBE_NAAVPxBase@3@@Z 1002e5f0 f   CmCollection.obj
 0001:0002d640       ?addId@Collection@Cm@physx@@UAEXAAVPxBase@3@_K@Z 1002e640 f   CmCollection.obj
 0001:0002d7e0       ?removeId@Collection@Cm@physx@@UAEX_K@Z 1002e7e0 f   CmCollection.obj
 0001:0002d8d0       ?find@Collection@Cm@physx@@UBEPAVPxBase@3@_K@Z 1002e8d0 f   CmCollection.obj
 0001:0002d950       ?add@Collection@Cm@physx@@UAEXAAVPxCollection@3@@Z 1002e950 f   CmCollection.obj
 0001:0002db20       ?remove@Collection@Cm@physx@@UAEXAAVPxCollection@3@@Z 1002eb20 f   CmCollection.obj
 0001:0002dbf0       ?getNbObjects@Collection@Cm@physx@@UBEIXZ 1002ebf0 f   CmCollection.obj
 0001:0002dc10       ?getObject@Collection@Cm@physx@@UBEAAVPxBase@3@I@Z 1002ec10 f   CmCollection.obj
 0001:0002dc80       ?getObjects@Collection@Cm@physx@@UBEIPAPAVPxBase@3@II@Z 1002ec80 f   CmCollection.obj
 0001:0002dd60       ?getNbIds@Collection@Cm@physx@@UBEIXZ 1002ed60 f   CmCollection.obj
 0001:0002dd80       ?getId@Collection@Cm@physx@@UBE_KABVPxBase@3@@Z 1002ed80 f   CmCollection.obj
 0001:0002dde0       ?getIds@Collection@Cm@physx@@UBEIPA_KII@Z 1002ede0 f   CmCollection.obj
 0001:0002e1c0       ??$?2V?$ReflectionAllocator@VCollection@Cm@physx@@@shdfnd@physx@@@UserAllocated@shdfnd@physx@@SAPAXIV?$ReflectionAllocator@VCollection@Cm@physx@@@12@PBDH@Z 1002f1c0 f i CmCollection.obj
 0001:0002e1e0       ??0?$CoalescedHashMap@PAVPxBase@physx@@_KU?$Hash@PAVPxBase@physx@@@shdfnd@2@VAllocator@42@@shdfnd@physx@@QAE@IM@Z 1002f1e0 f i CmCollection.obj
 0001:0002e210       ??0?$CoalescedHashMap@_KPAVPxBase@physx@@U?$Hash@_K@shdfnd@2@VAllocator@42@@shdfnd@physx@@QAE@IM@Z 1002f210 f i CmCollection.obj
 0001:0002e240       ??0?$CollectionHashMap@PAVPxBase@physx@@_KU?$Hash@PAVPxBase@physx@@@shdfnd@2@VAllocator@42@@Cm@physx@@QAE@IM@Z 1002f240 f i CmCollection.obj
 0001:0002e270       ??0?$CollectionHashMap@_KPAVPxBase@physx@@U?$Hash@_K@shdfnd@2@VAllocator@42@@Cm@physx@@QAE@IM@Z 1002f270 f i CmCollection.obj
 0001:0002e2a0       ??0?$HashBase@V?$Pair@$$CB_KPAVPxBase@physx@@@shdfnd@physx@@_KU?$Hash@_K@23@UGetKey@?$HashMapBase@_KPAVPxBase@physx@@U?$Hash@_K@shdfnd@2@VAllocator@42@@internal@23@VAllocator@23@$00@internal@shdfnd@physx@@QAE@IM@Z 1002f2a0 f i CmCollection.obj
 0001:0002e2f0       ??0?$HashBase@V?$Pair@QAVPxBase@physx@@_K@shdfnd@physx@@PAVPxBase@3@U?$Hash@PAVPxBase@physx@@@23@UGetKey@?$HashMapBase@PAVPxBase@physx@@_KU?$Hash@PAVPxBase@physx@@@shdfnd@2@VAllocator@42@@internal@23@VAllocator@23@$00@internal@shdfnd@physx@@QAE@IM@Z 1002f2f0 f i CmCollection.obj
 0001:0002e340       ??0?$HashMapBase@PAVPxBase@physx@@_KU?$Hash@PAVPxBase@physx@@@shdfnd@2@VAllocator@42@@internal@shdfnd@physx@@QAE@IM@Z 1002f340 f i CmCollection.obj
 0001:0002e380       ??0?$HashMapBase@_KPAVPxBase@physx@@U?$Hash@_K@shdfnd@2@VAllocator@42@@internal@shdfnd@physx@@QAE@IM@Z 1002f380 f i CmCollection.obj
 0001:0002e3c0       ??0?$Pair@$$CB_KPAVPxBase@physx@@@shdfnd@physx@@QAE@ABV012@@Z 1002f3c0 f i CmCollection.obj
 0001:0002e400       ??0?$Pair@$$CB_KPAVPxBase@physx@@@shdfnd@physx@@QAE@AB_KABQAVPxBase@2@@Z 1002f400 f i CmCollection.obj
 0001:0002e440       ??0?$Pair@QAVPxBase@physx@@_K@shdfnd@physx@@QAE@ABQAVPxBase@2@AB_K@Z 1002f440 f i CmCollection.obj
 0001:0002e480       ??0?$Pair@QAVPxBase@physx@@_K@shdfnd@physx@@QAE@ABV012@@Z 1002f480 f i CmCollection.obj
 0001:0002e4c0       ??0?$ReflectionAllocator@VCollection@Cm@physx@@@shdfnd@physx@@QAE@PBD@Z 1002f4c0 f i CmCollection.obj
 0001:0002e4e0       ??0Collection@Cm@physx@@QAE@XZ 1002f4e0 f i CmCollection.obj
 0001:0002e560       ??0Iter@?$HashBase@V?$Pair@$$CB_KPAVPxBase@physx@@@shdfnd@physx@@_KU?$Hash@_K@23@UGetKey@?$HashMapBase@_KPAVPxBase@physx@@U?$Hash@_K@shdfnd@2@VAllocator@42@@internal@23@VAllocator@23@$00@internal@shdfnd@physx@@QAE@AAV1234@@Z 1002f560 f i CmCollection.obj
 0001:0002e5e0       ??0PxCollection@physx@@IAE@XZ 1002f5e0 f i CmCollection.obj
 0001:0002e600       ??1?$CoalescedHashMap@PAVPxBase@physx@@_KU?$Hash@PAVPxBase@physx@@@shdfnd@2@VAllocator@42@@shdfnd@physx@@QAE@XZ 1002f600 f i CmCollection.obj
 0001:0002e620       ??1?$CoalescedHashMap@_KPAVPxBase@physx@@U?$Hash@_K@shdfnd@2@VAllocator@42@@shdfnd@physx@@QAE@XZ 1002f620 f i CmCollection.obj
 0001:0002e640       ??1?$CollectionHashMap@PAVPxBase@physx@@_KU?$Hash@PAVPxBase@physx@@@shdfnd@2@VAllocator@42@@Cm@physx@@QAE@XZ 1002f640 f i CmCollection.obj
 0001:0002e660       ??1?$CollectionHashMap@_KPAVPxBase@physx@@U?$Hash@_K@shdfnd@2@VAllocator@42@@Cm@physx@@QAE@XZ 1002f660 f i CmCollection.obj
 0001:0002e680       ??1?$HashBase@V?$Pair@$$CB_KPAVPxBase@physx@@@shdfnd@physx@@_KU?$Hash@_K@23@UGetKey@?$HashMapBase@_KPAVPxBase@physx@@U?$Hash@_K@shdfnd@2@VAllocator@42@@internal@23@VAllocator@23@$00@internal@shdfnd@physx@@QAE@XZ 1002f680 f i CmCollection.obj
 0001:0002e6c0       ??1?$HashBase@V?$Pair@QAVPxBase@physx@@_K@shdfnd@physx@@PAVPxBase@3@U?$Hash@PAVPxBase@physx@@@23@UGetKey@?$HashMapBase@PAVPxBase@physx@@_KU?$Hash@PAVPxBase@physx@@@shdfnd@2@VAllocator@42@@internal@23@VAllocator@23@$00@internal@shdfnd@physx@@QAE@XZ 1002f6c0 f i CmCollection.obj
 0001:0002e700       ??1?$HashMapBase@PAVPxBase@physx@@_KU?$Hash@PAVPxBase@physx@@@shdfnd@2@VAllocator@42@@internal@shdfnd@physx@@QAE@XZ 1002f700 f i CmCollection.obj
 0001:0002e720       ??1?$HashMapBase@_KPAVPxBase@physx@@U?$Hash@_K@shdfnd@2@VAllocator@42@@internal@shdfnd@physx@@QAE@XZ 1002f720 f i CmCollection.obj
 0001:0002e740       ??1Collection@Cm@physx@@UAE@XZ 1002f740 f i CmCollection.obj
 0001:0002e780       ??1PxCollection@physx@@MAE@XZ 1002f780 f i CmCollection.obj
 0001:0002e7a0       ??A?$HashMapBase@PAVPxBase@physx@@_KU?$Hash@PAVPxBase@physx@@@shdfnd@2@VAllocator@42@@internal@shdfnd@physx@@QAEAA_KABQAVPxBase@3@@Z 1002f7a0 f i CmCollection.obj
 0001:0002e820       ??A?$HashMapBase@_KPAVPxBase@physx@@U?$Hash@_K@shdfnd@2@VAllocator@42@@internal@shdfnd@physx@@QAEAAPAVPxBase@3@AB_K@Z 1002f820 f i CmCollection.obj
 0001:0002e8a0       ??CIter@?$HashBase@V?$Pair@$$CB_KPAVPxBase@physx@@@shdfnd@physx@@_KU?$Hash@_K@23@UGetKey@?$HashMapBase@_KPAVPxBase@physx@@U?$Hash@_K@shdfnd@2@VAllocator@42@@internal@23@VAllocator@23@$00@internal@shdfnd@physx@@QBEPAV?$Pair@$$CB_KPAVPxBase@physx@@@34@XZ 1002f8a0 f i CmCollection.obj
 0001:0002e8d0       ??EIter@?$HashBase@V?$Pair@$$CB_KPAVPxBase@physx@@@shdfnd@physx@@_KU?$Hash@_K@23@UGetKey@?$HashMapBase@_KPAVPxBase@physx@@U?$Hash@_K@shdfnd@2@VAllocator@42@@internal@23@VAllocator@23@$00@internal@shdfnd@physx@@QAE?AV01234@H@Z 1002f8d0 f i CmCollection.obj
 0001:0002e940       ??R?$Hash@PAVPxBase@physx@@@shdfnd@physx@@QBEIABQAVPxBase@2@@Z 1002f940 f i CmCollection.obj
 0001:0002e970       ??R?$Hash@PAVPxBase@physx@@@shdfnd@physx@@QBE_NABQAVPxBase@2@0@Z 1002f970 f i CmCollection.obj
 0001:0002e9b0       ??R?$Hash@_K@shdfnd@physx@@QBEIAB_K@Z 1002f9b0 f i CmCollection.obj
 0001:0002e9e0       ??R?$Hash@_K@shdfnd@physx@@QBE_NAB_K0@Z 1002f9e0 f i CmCollection.obj
 0001:0002ea40       ??RGetKey@?$HashMapBase@PAVPxBase@physx@@_KU?$Hash@PAVPxBase@physx@@@shdfnd@2@VAllocator@42@@internal@shdfnd@physx@@QAEABQAVPxBase@4@ABV?$Pair@QAVPxBase@physx@@_K@34@@Z 1002fa40 f i CmCollection.obj
 0001:0002ea60       ??RGetKey@?$HashMapBase@_KPAVPxBase@physx@@U?$Hash@_K@shdfnd@2@VAllocator@42@@internal@shdfnd@physx@@QAEAB_KABV?$Pair@$$CB_KPAVPxBase@physx@@@34@@Z 1002fa60 f i CmCollection.obj
 0001:0002ea80       ??_ECollection@Cm@physx@@UAEPAXI@Z 1002fa80 f i CmCollection.obj
 0001:0002ea80       ??_GCollection@Cm@physx@@UAEPAXI@Z 1002fa80 f i CmCollection.obj
 0001:0002eae0       ??_EPxCollection@physx@@MAEPAXI@Z 1002fae0 f i CmCollection.obj
 0001:0002eae0       ??_GPxCollection@physx@@MAEPAXI@Z 1002fae0 f i CmCollection.obj
 0001:0002eb20       ?advance@Iter@?$HashBase@V?$Pair@$$CB_KPAVPxBase@physx@@@shdfnd@physx@@_KU?$Hash@_K@23@UGetKey@?$HashMapBase@_KPAVPxBase@physx@@U?$Hash@_K@shdfnd@2@VAllocator@42@@internal@23@VAllocator@23@$00@internal@shdfnd@physx@@AAEXXZ 1002fb20 f i CmCollection.obj
 0001:0002eb60       ?allocate@?$ReflectionAllocator@VCollection@Cm@physx@@@shdfnd@physx@@QAEPAXIPBDH@Z 1002fb60 f i CmCollection.obj
 0001:0002ebd0       ?capacity@?$HashBase@V?$Pair@QAVPxBase@physx@@_K@shdfnd@physx@@PAVPxBase@3@U?$Hash@PAVPxBase@physx@@@23@UGetKey@?$HashMapBase@PAVPxBase@physx@@_KU?$Hash@PAVPxBase@physx@@@shdfnd@2@VAllocator@42@@internal@23@VAllocator@23@$00@internal@shdfnd@physx@@QBEIXZ 1002fbd0 f i CmCollection.obj
 0001:0002ebf0       ?capacity@?$HashMapBase@PAVPxBase@physx@@_KU?$Hash@PAVPxBase@physx@@@shdfnd@2@VAllocator@42@@internal@shdfnd@physx@@QBEIXZ 1002fbf0 f i CmCollection.obj
 0001:0002ec10       ?check@Iter@?$HashBase@V?$Pair@$$CB_KPAVPxBase@physx@@@shdfnd@physx@@_KU?$Hash@_K@23@UGetKey@?$HashMapBase@_KPAVPxBase@physx@@U?$Hash@_K@shdfnd@2@VAllocator@42@@internal@23@VAllocator@23@$00@internal@shdfnd@physx@@QBEXXZ 1002fc10 f i CmCollection.obj
 0001:0002ec80       ?create@?$HashBase@V?$Pair@$$CB_KPAVPxBase@physx@@@shdfnd@physx@@_KU?$Hash@_K@23@UGetKey@?$HashMapBase@_KPAVPxBase@physx@@U?$Hash@_K@shdfnd@2@VAllocator@42@@internal@23@VAllocator@23@$00@internal@shdfnd@physx@@QAEPAV?$Pair@$$CB_KPAVPxBase@physx@@@34@AB_KAA_N@Z 1002fc80 f i CmCollection.obj
 0001:0002ee20       ?create@?$HashBase@V?$Pair@QAVPxBase@physx@@_K@shdfnd@physx@@PAVPxBase@3@U?$Hash@PAVPxBase@physx@@@23@UGetKey@?$HashMapBase@PAVPxBase@physx@@_KU?$Hash@PAVPxBase@physx@@@shdfnd@2@VAllocator@42@@internal@23@VAllocator@23@$00@internal@shdfnd@physx@@QAEPAV?$Pair@QAVPxBase@physx@@_K@34@ABQAVPxBase@4@AA_N@Z 1002fe20 f i CmCollection.obj
 0001:0002efc0       ?destroy@?$HashBase@V?$Pair@$$CB_KPAVPxBase@physx@@@shdfnd@physx@@_KU?$Hash@_K@23@UGetKey@?$HashMapBase@_KPAVPxBase@physx@@U?$Hash@_K@shdfnd@2@VAllocator@42@@internal@23@VAllocator@23@$00@internal@shdfnd@physx@@AAEXXZ 1002ffc0 f i CmCollection.obj
 0001:0002f030       ?destroy@?$HashBase@V?$Pair@QAVPxBase@physx@@_K@shdfnd@physx@@PAVPxBase@3@U?$Hash@PAVPxBase@physx@@@23@UGetKey@?$HashMapBase@PAVPxBase@physx@@_KU?$Hash@PAVPxBase@physx@@@shdfnd@2@VAllocator@42@@internal@23@VAllocator@23@$00@internal@shdfnd@physx@@AAEXXZ 10030030 f i CmCollection.obj
 0001:0002f0a0       ?done@Iter@?$HashBase@V?$Pair@$$CB_KPAVPxBase@physx@@@shdfnd@physx@@_KU?$Hash@_K@23@UGetKey@?$HashMapBase@_KPAVPxBase@physx@@U?$Hash@_K@shdfnd@2@VAllocator@42@@internal@23@VAllocator@23@$00@internal@shdfnd@physx@@QBE_NXZ 100300a0 f i CmCollection.obj
 0001:0002f0e0       ?erase@?$HashBase@V?$Pair@$$CB_KPAVPxBase@physx@@@shdfnd@physx@@_KU?$Hash@_K@23@UGetKey@?$HashMapBase@_KPAVPxBase@physx@@U?$Hash@_K@shdfnd@2@VAllocator@42@@internal@23@VAllocator@23@$00@internal@shdfnd@physx@@QAE_NAB_K@Z 100300e0 f i CmCollection.obj
 0001:0002f220       ?erase@?$HashBase@V?$Pair@QAVPxBase@physx@@_K@shdfnd@physx@@PAVPxBase@3@U?$Hash@PAVPxBase@physx@@@23@UGetKey@?$HashMapBase@PAVPxBase@physx@@_KU?$Hash@PAVPxBase@physx@@@shdfnd@2@VAllocator@42@@internal@23@VAllocator@23@$00@internal@shdfnd@physx@@QAE_NABQAVPxBase@4@@Z 10030220 f i CmCollection.obj
 0001:0002f360       ?erase@?$HashMapBase@PAVPxBase@physx@@_KU?$Hash@PAVPxBase@physx@@@shdfnd@2@VAllocator@42@@internal@shdfnd@physx@@QAE_NABQAVPxBase@4@@Z 10030360 f i CmCollection.obj
 0001:0002f390       ?erase@?$HashMapBase@_KPAVPxBase@physx@@U?$Hash@_K@shdfnd@2@VAllocator@42@@internal@shdfnd@physx@@QAE_NAB_K@Z 10030390 f i CmCollection.obj
 0001:0002f3c0       ?find@?$HashBase@V?$Pair@$$CB_KPAVPxBase@physx@@@shdfnd@physx@@_KU?$Hash@_K@23@UGetKey@?$HashMapBase@_KPAVPxBase@physx@@U?$Hash@_K@shdfnd@2@VAllocator@42@@internal@23@VAllocator@23@$00@internal@shdfnd@physx@@QBEPBV?$Pair@$$CB_KPAVPxBase@physx@@@34@AB_K@Z 100303c0 f i CmCollection.obj
 0001:0002f490       ?find@?$HashBase@V?$Pair@QAVPxBase@physx@@_K@shdfnd@physx@@PAVPxBase@3@U?$Hash@PAVPxBase@physx@@@23@UGetKey@?$HashMapBase@PAVPxBase@physx@@_KU?$Hash@PAVPxBase@physx@@@shdfnd@2@VAllocator@42@@internal@23@VAllocator@23@$00@internal@shdfnd@physx@@QBEPBV?$Pair@QAVPxBase@physx@@_K@34@ABQAVPxBase@4@@Z 10030490 f i CmCollection.obj
 0001:0002f560       ?find@?$HashMapBase@PAVPxBase@physx@@_KU?$Hash@PAVPxBase@physx@@@shdfnd@2@VAllocator@42@@internal@shdfnd@physx@@QBEPBV?$Pair@QAVPxBase@physx@@_K@34@ABQAVPxBase@4@@Z 10030560 f i CmCollection.obj
 0001:0002f590       ?find@?$HashMapBase@_KPAVPxBase@physx@@U?$Hash@_K@shdfnd@2@VAllocator@42@@internal@shdfnd@physx@@QBEPBV?$Pair@$$CB_KPAVPxBase@physx@@@34@AB_K@Z 10030590 f i CmCollection.obj
 0001:0002f5c0       ?freeListAdd@?$HashBase@V?$Pair@$$CB_KPAVPxBase@physx@@@shdfnd@physx@@_KU?$Hash@_K@23@UGetKey@?$HashMapBase@_KPAVPxBase@physx@@U?$Hash@_K@shdfnd@2@VAllocator@42@@internal@23@VAllocator@23@$00@internal@shdfnd@physx@@AAEXI@Z 100305c0 f i CmCollection.obj
 0001:0002f670       ?freeListAdd@?$HashBase@V?$Pair@$$CB_KPAVPxBase@physx@@@shdfnd@physx@@_KU?$Hash@_K@23@UGetKey@?$HashMapBase@_KPAVPxBase@physx@@U?$Hash@_K@shdfnd@2@VAllocator@42@@internal@23@VAllocator@23@$00@internal@shdfnd@physx@@AAEXII@Z 10030670 f i CmCollection.obj
 0001:0002f760       ?freeListAdd@?$HashBase@V?$Pair@QAVPxBase@physx@@_K@shdfnd@physx@@PAVPxBase@3@U?$Hash@PAVPxBase@physx@@@23@UGetKey@?$HashMapBase@PAVPxBase@physx@@_KU?$Hash@PAVPxBase@physx@@@shdfnd@2@VAllocator@42@@internal@23@VAllocator@23@$00@internal@shdfnd@physx@@AAEXI@Z 10030760 f i CmCollection.obj
 0001:0002f810       ?freeListAdd@?$HashBase@V?$Pair@QAVPxBase@physx@@_K@shdfnd@physx@@PAVPxBase@3@U?$Hash@PAVPxBase@physx@@@23@UGetKey@?$HashMapBase@PAVPxBase@physx@@_KU?$Hash@PAVPxBase@physx@@@shdfnd@2@VAllocator@42@@internal@23@VAllocator@23@$00@internal@shdfnd@physx@@AAEXII@Z 10030810 f i CmCollection.obj
 0001:0002f900       ?freeListEmpty@?$HashBase@V?$Pair@$$CB_KPAVPxBase@physx@@@shdfnd@physx@@_KU?$Hash@_K@23@UGetKey@?$HashMapBase@_KPAVPxBase@physx@@U?$Hash@_K@shdfnd@2@VAllocator@42@@internal@23@VAllocator@23@$00@internal@shdfnd@physx@@ABE_NXZ 10030900 f i CmCollection.obj
 0001:0002f970       ?freeListEmpty@?$HashBase@V?$Pair@QAVPxBase@physx@@_K@shdfnd@physx@@PAVPxBase@3@U?$Hash@PAVPxBase@physx@@@23@UGetKey@?$HashMapBase@PAVPxBase@physx@@_KU?$Hash@PAVPxBase@physx@@@shdfnd@2@VAllocator@42@@internal@23@VAllocator@23@$00@internal@shdfnd@physx@@ABE_NXZ 10030970 f i CmCollection.obj
 0001:0002f9e0       ?freeListGetNext@?$HashBase@V?$Pair@$$CB_KPAVPxBase@physx@@@shdfnd@physx@@_KU?$Hash@_K@23@UGetKey@?$HashMapBase@_KPAVPxBase@physx@@U?$Hash@_K@shdfnd@2@VAllocator@42@@internal@23@VAllocator@23@$00@internal@shdfnd@physx@@AAEIXZ 100309e0 f i CmCollection.obj
 0001:0002fb00       ?freeListGetNext@?$HashBase@V?$Pair@QAVPxBase@physx@@_K@shdfnd@physx@@PAVPxBase@3@U?$Hash@PAVPxBase@physx@@@23@UGetKey@?$HashMapBase@PAVPxBase@physx@@_KU?$Hash@PAVPxBase@physx@@@shdfnd@2@VAllocator@42@@internal@23@VAllocator@23@$00@internal@shdfnd@physx@@AAEIXZ 10030b00 f i CmCollection.obj
 0001:0002fc20       ?getEntries@?$CoalescedHashMap@PAVPxBase@physx@@_KU?$Hash@PAVPxBase@physx@@@shdfnd@2@VAllocator@42@@shdfnd@physx@@QBEPBV?$Pair@QAVPxBase@physx@@_K@23@XZ 10030c20 f i CmCollection.obj
 0001:0002fc40       ?getEntries@?$HashBase@V?$Pair@QAVPxBase@physx@@_K@shdfnd@physx@@PAVPxBase@3@U?$Hash@PAVPxBase@physx@@@23@UGetKey@?$HashMapBase@PAVPxBase@physx@@_KU?$Hash@PAVPxBase@physx@@@shdfnd@2@VAllocator@42@@internal@23@VAllocator@23@$00@internal@shdfnd@physx@@QBEPBV?$Pair@QAVPxBase@physx@@_K@34@XZ 10030c40 f i CmCollection.obj
 0001:0002fc60       ?getIterator@?$HashMapBase@_KPAVPxBase@physx@@U?$Hash@_K@shdfnd@2@VAllocator@42@@internal@shdfnd@physx@@QAE?AVIter@?$HashBase@V?$Pair@$$CB_KPAVPxBase@physx@@@shdfnd@physx@@_KU?$Hash@_K@23@UGetKey@?$HashMapBase@_KPAVPxBase@physx@@U?$Hash@_K@shdfnd@2@VAllocator@42@@internal@23@VAllocator@23@$00@234@XZ 10030c60 f i CmCollection.obj
 0001:0002fc90       ?getName@?$ReflectionAllocator@VCollection@Cm@physx@@@shdfnd@physx@@CAPBDXZ 10030c90 f i CmCollection.obj
 0001:0002fce0       ?grow@?$HashBase@V?$Pair@$$CB_KPAVPxBase@physx@@@shdfnd@physx@@_KU?$Hash@_K@23@UGetKey@?$HashMapBase@_KPAVPxBase@physx@@U?$Hash@_K@shdfnd@2@VAllocator@42@@internal@23@VAllocator@23@$00@internal@shdfnd@physx@@AAEXXZ 10030ce0 f i CmCollection.obj
 0001:0002fda0       ?grow@?$HashBase@V?$Pair@QAVPxBase@physx@@_K@shdfnd@physx@@PAVPxBase@3@U?$Hash@PAVPxBase@physx@@@23@UGetKey@?$HashMapBase@PAVPxBase@physx@@_KU?$Hash@PAVPxBase@physx@@@shdfnd@2@VAllocator@42@@internal@23@VAllocator@23@$00@internal@shdfnd@physx@@AAEXXZ 10030da0 f i CmCollection.obj
 0001:0002fe60       ?hash@?$HashBase@V?$Pair@$$CB_KPAVPxBase@physx@@@shdfnd@physx@@_KU?$Hash@_K@23@UGetKey@?$HashMapBase@_KPAVPxBase@physx@@U?$Hash@_K@shdfnd@2@VAllocator@42@@internal@23@VAllocator@23@$00@internal@shdfnd@physx@@ABEIAB_K@Z 10030e60 f i CmCollection.obj
 0001:0002fe90       ?hash@?$HashBase@V?$Pair@$$CB_KPAVPxBase@physx@@@shdfnd@physx@@_KU?$Hash@_K@23@UGetKey@?$HashMapBase@_KPAVPxBase@physx@@U?$Hash@_K@shdfnd@2@VAllocator@42@@internal@23@VAllocator@23@$00@internal@shdfnd@physx@@ABEIAB_KI@Z 10030e90 f i CmCollection.obj
 0001:0002fec0       ?hash@?$HashBase@V?$Pair@QAVPxBase@physx@@_K@shdfnd@physx@@PAVPxBase@3@U?$Hash@PAVPxBase@physx@@@23@UGetKey@?$HashMapBase@PAVPxBase@physx@@_KU?$Hash@PAVPxBase@physx@@@shdfnd@2@VAllocator@42@@internal@23@VAllocator@23@$00@internal@shdfnd@physx@@ABEIABQAVPxBase@4@@Z 10030ec0 f i CmCollection.obj
 0001:0002fef0       ?hash@?$HashBase@V?$Pair@QAVPxBase@physx@@_K@shdfnd@physx@@PAVPxBase@3@U?$Hash@PAVPxBase@physx@@@23@UGetKey@?$HashMapBase@PAVPxBase@physx@@_KU?$Hash@PAVPxBase@physx@@@shdfnd@2@VAllocator@42@@internal@23@VAllocator@23@$00@internal@shdfnd@physx@@ABEIABQAVPxBase@4@I@Z 10030ef0 f i CmCollection.obj
 0001:0002ff20       ?hash@shdfnd@physx@@YAI_K@Z 10030f20 f i CmCollection.obj
 0001:00030050       ?init@?$HashBase@V?$Pair@$$CB_KPAVPxBase@physx@@@shdfnd@physx@@_KU?$Hash@_K@23@UGetKey@?$HashMapBase@_KPAVPxBase@physx@@U?$Hash@_K@shdfnd@2@VAllocator@42@@internal@23@VAllocator@23@$00@internal@shdfnd@physx@@AAEXIM@Z 10031050 f i CmCollection.obj
 0001:00030100       ?init@?$HashBase@V?$Pair@QAVPxBase@physx@@_K@shdfnd@physx@@PAVPxBase@3@U?$Hash@PAVPxBase@physx@@@23@UGetKey@?$HashMapBase@PAVPxBase@physx@@_KU?$Hash@PAVPxBase@physx@@@shdfnd@2@VAllocator@42@@internal@23@VAllocator@23@$00@internal@shdfnd@physx@@AAEXIM@Z 10031100 f i CmCollection.obj
 0001:000301b0       ?insert@?$HashMapBase@PAVPxBase@physx@@_KU?$Hash@PAVPxBase@physx@@@shdfnd@2@VAllocator@42@@internal@shdfnd@physx@@QAE_NQAVPxBase@4@_K@Z 100311b0 f i CmCollection.obj
 0001:00030240       ?insert@?$HashMapBase@_KPAVPxBase@physx@@U?$Hash@_K@shdfnd@2@VAllocator@42@@internal@shdfnd@physx@@QAE_N_KQAVPxBase@4@@Z 10031240 f i CmCollection.obj
 0001:000302d0       ?release@Collection@Cm@physx@@UAEXXZ 100312d0 f i CmCollection.obj
 0001:00030320       ?replaceWithLast@?$HashBase@V?$Pair@$$CB_KPAVPxBase@physx@@@shdfnd@physx@@_KU?$Hash@_K@23@UGetKey@?$HashMapBase@_KPAVPxBase@physx@@U?$Hash@_K@shdfnd@2@VAllocator@42@@internal@23@VAllocator@23@$00@internal@shdfnd@physx@@AAEXI@Z 10031320 f i CmCollection.obj
 0001:00030460       ?replaceWithLast@?$HashBase@V?$Pair@QAVPxBase@physx@@_K@shdfnd@physx@@PAVPxBase@3@U?$Hash@PAVPxBase@physx@@@23@UGetKey@?$HashMapBase@PAVPxBase@physx@@_KU?$Hash@PAVPxBase@physx@@@shdfnd@2@VAllocator@42@@internal@23@VAllocator@23@$00@internal@shdfnd@physx@@AAEXI@Z 10031460 f i CmCollection.obj
 0001:000305a0       ?reserve@?$HashBase@V?$Pair@$$CB_KPAVPxBase@physx@@@shdfnd@physx@@_KU?$Hash@_K@23@UGetKey@?$HashMapBase@_KPAVPxBase@physx@@U?$Hash@_K@shdfnd@2@VAllocator@42@@internal@23@VAllocator@23@$00@internal@shdfnd@physx@@QAEXI@Z 100315a0 f i CmCollection.obj
 0001:000305d0       ?reserve@?$HashBase@V?$Pair@QAVPxBase@physx@@_K@shdfnd@physx@@PAVPxBase@3@U?$Hash@PAVPxBase@physx@@@23@UGetKey@?$HashMapBase@PAVPxBase@physx@@_KU?$Hash@PAVPxBase@physx@@@shdfnd@2@VAllocator@42@@internal@23@VAllocator@23@$00@internal@shdfnd@physx@@QAEXI@Z 100315d0 f i CmCollection.obj
 0001:00030600       ?reserve@?$HashMapBase@PAVPxBase@physx@@_KU?$Hash@PAVPxBase@physx@@@shdfnd@2@VAllocator@42@@internal@shdfnd@physx@@QAEXI@Z 10031600 f i CmCollection.obj
 0001:00030630       ?reserveInternal@?$HashBase@V?$Pair@$$CB_KPAVPxBase@physx@@@shdfnd@physx@@_KU?$Hash@_K@23@UGetKey@?$HashMapBase@_KPAVPxBase@physx@@U?$Hash@_K@shdfnd@2@VAllocator@42@@internal@23@VAllocator@23@$00@internal@shdfnd@physx@@AAEXI@Z 10031630 f i CmCollection.obj
 0001:00030ac0       ?reserveInternal@?$HashBase@V?$Pair@QAVPxBase@physx@@_K@shdfnd@physx@@PAVPxBase@3@U?$Hash@PAVPxBase@physx@@@23@UGetKey@?$HashMapBase@PAVPxBase@physx@@_KU?$Hash@PAVPxBase@physx@@@shdfnd@2@VAllocator@42@@internal@23@VAllocator@23@$00@internal@shdfnd@physx@@AAEXI@Z 10031ac0 f i CmCollection.obj
 0001:00030f50       ?size@?$HashBase@V?$Pair@$$CB_KPAVPxBase@physx@@@shdfnd@physx@@_KU?$Hash@_K@23@UGetKey@?$HashMapBase@_KPAVPxBase@physx@@U?$Hash@_K@shdfnd@2@VAllocator@42@@internal@23@VAllocator@23@$00@internal@shdfnd@physx@@QBEIXZ 10031f50 f i CmCollection.obj
 0001:00030f70       ?size@?$HashBase@V?$Pair@QAVPxBase@physx@@_K@shdfnd@physx@@PAVPxBase@3@U?$Hash@PAVPxBase@physx@@@23@UGetKey@?$HashMapBase@PAVPxBase@physx@@_KU?$Hash@PAVPxBase@physx@@@shdfnd@2@VAllocator@42@@internal@23@VAllocator@23@$00@internal@shdfnd@physx@@QBEIXZ 10031f70 f i CmCollection.obj
 0001:00030f90       ?size@?$HashMapBase@PAVPxBase@physx@@_KU?$Hash@PAVPxBase@physx@@@shdfnd@2@VAllocator@42@@internal@shdfnd@physx@@QBEIXZ 10031f90 f i CmCollection.obj
 0001:00030fb0       ?size@?$HashMapBase@_KPAVPxBase@physx@@U?$Hash@_K@shdfnd@2@VAllocator@42@@internal@shdfnd@physx@@QBEIXZ 10031fb0 f i CmCollection.obj
 0001:00030fd0       ?skip@Iter@?$HashBase@V?$Pair@$$CB_KPAVPxBase@physx@@@shdfnd@physx@@_KU?$Hash@_K@23@UGetKey@?$HashMapBase@_KPAVPxBase@physx@@U?$Hash@_K@shdfnd@2@VAllocator@42@@internal@23@VAllocator@23@$00@internal@shdfnd@physx@@AAEXXZ 10031fd0 f i CmCollection.obj
 0001:00031040       ?getProfileNames@CmEventNameProvider@Cm@physx@@UBE?AUPxProfileNames@3@XZ 10032040 f   CmEventProfiler.obj
 0001:00031070       ?getStringFromId@EventProfiler@Cm@physx@@QAEPBDG@Z 10032070 f   CmEventProfiler.obj
 0001:00031090       ?enableNVTXSupport@Cm@physx@@YAX_N@Z 10032090 f   CmEventProfiler.obj
 0001:000310a0       ?isNVTXSupportEnabled@Cm@physx@@YA_NXZ 100320a0 f   CmEventProfiler.obj
 0001:000310d0       ??0?$Pair@$$CBUEventIdContextPair@nvtx@@_K@shdfnd@physx@@QAE@ABUEventIdContextPair@nvtx@@AB_K@Z 100320d0 f i CmEventProfiler.obj
 0001:00031120       ??0?$Pair@$$CBUEventIdContextPair@nvtx@@_K@shdfnd@physx@@QAE@ABV012@@Z 10032120 f i CmEventProfiler.obj
 0001:00031170       ??0?$PxProfileCompileTimeFilteredEventId@$00@physx@@QAE@G@Z 10032170 f i CmEventProfiler.obj
 0001:000311a0       ??0?$PxProfileCompileTimeFilteredEventId@$0A@@physx@@QAE@G@Z 100321a0 f i CmEventProfiler.obj
 0001:000311d0       ??0EventIdContextPair@nvtx@@QAE@_KG@Z 100321d0 f i CmEventProfiler.obj
 0001:00031210       ??0PxProfileEventId@physx@@QAE@G_N@Z 10032210 f i CmEventProfiler.obj
 0001:00031240       ??0PxProfileEventName@physx@@QAE@PBDUPxProfileEventId@1@@Z 10032240 f i CmEventProfiler.obj
 0001:00031270       ??0PxProfileNames@physx@@QAE@IPBUPxProfileEventName@1@@Z 10032270 f i CmEventProfiler.obj
 0001:000312a0       ??0ScopedLock@?$MutexT@V?$ReflectionAllocator@VMutexImpl@shdfnd@physx@@@shdfnd@physx@@@shdfnd@physx@@QAE@AAV123@@Z 100322a0 f i CmEventProfiler.obj
 0001:000312d0       ??1ScopedLock@?$MutexT@V?$ReflectionAllocator@VMutexImpl@shdfnd@physx@@@shdfnd@physx@@@shdfnd@physx@@QAE@XZ 100322d0 f i CmEventProfiler.obj
 0001:000312f0       ??8EventIdContextPair@nvtx@@QBE_NABU01@@Z 100322f0 f i CmEventProfiler.obj
 0001:00031360       ??A?$HashMapBase@UEventIdContextPair@nvtx@@_KU?$Hash@UEventIdContextPair@nvtx@@@2@VAllocator@shdfnd@physx@@@internal@shdfnd@physx@@QAEAA_KABUEventIdContextPair@nvtx@@@Z 10032360 f i CmEventProfiler.obj
 0001:000313e0       ??R?$Hash@UEventIdContextPair@nvtx@@@nvtx@@QBEIABUEventIdContextPair@1@@Z 100323e0 f i CmEventProfiler.obj
 0001:00031430       ??R?$Hash@UEventIdContextPair@nvtx@@@nvtx@@QBE_NABUEventIdContextPair@1@0@Z 10032430 f i CmEventProfiler.obj
 0001:00031450       ??RGetKey@?$HashMapBase@UEventIdContextPair@nvtx@@_KU?$Hash@UEventIdContextPair@nvtx@@@2@VAllocator@shdfnd@physx@@@internal@shdfnd@physx@@QAEABUEventIdContextPair@nvtx@@ABV?$Pair@$$CBUEventIdContextPair@nvtx@@_K@34@@Z 10032450 f i CmEventProfiler.obj
 0001:00031470       ?GetMBPPostUpdate@BroadPhase@ProfileEventId@Cm@physx@@SAABUPxProfileEventId@4@XZ 10032470 f i CmEventProfiler.obj
 0001:00031480       ?GetMBPPostUpdateSPU@BroadPhase@ProfileEventId@Cm@physx@@SAABUPxProfileEventId@4@XZ 10032480 f i CmEventProfiler.obj
 0001:00031490       ?GetMBPUpdate@BroadPhase@ProfileEventId@Cm@physx@@SAABUPxProfileEventId@4@XZ 10032490 f i CmEventProfiler.obj
 0001:000314a0       ?GetMBPUpdateSPU@BroadPhase@ProfileEventId@Cm@physx@@SAABUPxProfileEventId@4@XZ 100324a0 f i CmEventProfiler.obj
 0001:000314b0       ?GetSapPostUpdate@BroadPhase@ProfileEventId@Cm@physx@@SAABUPxProfileEventId@4@XZ 100324b0 f i CmEventProfiler.obj
 0001:000314c0       ?GetSapPostUpdateSPU@BroadPhase@ProfileEventId@Cm@physx@@SAABUPxProfileEventId@4@XZ 100324c0 f i CmEventProfiler.obj
 0001:000314d0       ?GetSapUpdate@BroadPhase@ProfileEventId@Cm@physx@@SAABUPxProfileEventId@4@XZ 100324d0 f i CmEventProfiler.obj
 0001:000314e0       ?GetSapUpdateSPU@BroadPhase@ProfileEventId@Cm@physx@@SAABUPxProfileEventId@4@XZ 100324e0 f i CmEventProfiler.obj
 0001:000314f0       ?GetaddActor@API@ProfileEventId@Cm@physx@@SAABUPxProfileEventId@4@XZ 100324f0 f i CmEventProfiler.obj
 0001:00031500       ?GetaddActorToSim@API@ProfileEventId@Cm@physx@@SAABUPxProfileEventId@4@XZ 10032500 f i CmEventProfiler.obj
 0001:00031510       ?GetaddActors@API@ProfileEventId@Cm@physx@@SAABUPxProfileEventId@4@XZ 10032510 f i CmEventProfiler.obj
 0001:00031520       ?GetaddAggregate@API@ProfileEventId@Cm@physx@@SAABUPxProfileEventId@4@XZ 10032520 f i CmEventProfiler.obj
 0001:00031530       ?GetaddArticulation@API@ProfileEventId@Cm@physx@@SAABUPxProfileEventId@4@XZ 10032530 f i CmEventProfiler.obj
 0001:00031540       ?GetaddCloth@API@ProfileEventId@Cm@physx@@SAABUPxProfileEventId@4@XZ 10032540 f i CmEventProfiler.obj
 0001:00031550       ?GetaddCollection@API@ProfileEventId@Cm@physx@@SAABUPxProfileEventId@4@XZ 10032550 f i CmEventProfiler.obj
 0001:00031560       ?GetaddParticleFluid@API@ProfileEventId@Cm@physx@@SAABUPxProfileEventId@4@XZ 10032560 f i CmEventProfiler.obj
 0001:00031570       ?GetaddParticleSystem@API@ProfileEventId@Cm@physx@@SAABUPxProfileEventId@4@XZ 10032570 f i CmEventProfiler.obj
 0001:00031580       ?GetaddShapesToSQ@API@ProfileEventId@Cm@physx@@SAABUPxProfileEventId@4@XZ 10032580 f i CmEventProfiler.obj
 0001:00031590       ?GetaddShapesToSim@API@ProfileEventId@Cm@physx@@SAABUPxProfileEventId@4@XZ 10032590 f i CmEventProfiler.obj
 0001:000315a0       ?GetapplyExternalImpulses@Articulations@ProfileEventId@Cm@physx@@SAABUPxProfileEventId@4@XZ 100325a0 f i CmEventProfiler.obj
 0001:000315b0       ?GetapplyJointDrives@Articulations@ProfileEventId@Cm@physx@@SAABUPxProfileEventId@4@XZ 100325b0 f i CmEventProfiler.obj
 0001:000315c0       ?GetbroadPhase@Basic@ProfileEventId@Cm@physx@@SAABUPxProfileEventId@4@XZ 100325c0 f i CmEventProfiler.obj
 0001:000315d0       ?GetbrokenEdgeIslands@IslandGen@ProfileEventId@Cm@physx@@SAABUPxProfileEventId@4@XZ 100325d0 f i CmEventProfiler.obj
 0001:000315e0       ?GetbuildActiveTransforms@Sim@ProfileEventId@Cm@physx@@SAABUPxProfileEventId@4@XZ 100325e0 f i CmEventProfiler.obj
 0001:000315f0       ?GetccdBroadPhase@Sim@ProfileEventId@Cm@physx@@SAABUPxProfileEventId@4@XZ 100325f0 f i CmEventProfiler.obj
 0001:00031600       ?GetccdBroadPhaseComplete@Sim@ProfileEventId@Cm@physx@@SAABUPxProfileEventId@4@XZ 10032600 f i CmEventProfiler.obj
 0001:00031610       ?GetccdIsland@Sim@ProfileEventId@Cm@physx@@SAABUPxProfileEventId@4@XZ 10032610 f i CmEventProfiler.obj
 0001:00031620       ?GetccdPair@Sim@ProfileEventId@Cm@physx@@SAABUPxProfileEventId@4@XZ 10032620 f i CmEventProfiler.obj
 0001:00031630       ?GetccdSweep@Sim@ProfileEventId@Cm@physx@@SAABUPxProfileEventId@4@XZ 10032630 f i CmEventProfiler.obj
 0001:00031640       ?GetccdSweepMerge@Sim@ProfileEventId@Cm@physx@@SAABUPxProfileEventId@4@XZ 10032640 f i CmEventProfiler.obj
 0001:00031650       ?GetcheckCollision@Basic@ProfileEventId@Cm@physx@@SAABUPxProfileEventId@4@XZ 10032650 f i CmEventProfiler.obj
 0001:00031660       ?GetcheckConstraintBreakage@Sim@ProfileEventId@Cm@physx@@SAABUPxProfileEventId@4@XZ 10032660 f i CmEventProfiler.obj
 0001:00031670       ?GetcheckResults@Basic@ProfileEventId@Cm@physx@@SAABUPxProfileEventId@4@XZ 10032670 f i CmEventProfiler.obj
 0001:00031680       ?GetcleanupEdgeEvents@IslandGen@ProfileEventId@Cm@physx@@SAABUPxProfileEventId@4@XZ 10032680 f i CmEventProfiler.obj
 0001:00031690       ?GetcollideQueueTasks@Sim@ProfileEventId@Cm@physx@@SAABUPxProfileEventId@4@XZ 10032690 f i CmEventProfiler.obj
 0001:000316a0       ?Getcollision@Basic@ProfileEventId@Cm@physx@@SAABUPxProfileEventId@4@XZ 100326a0 f i CmEventProfiler.obj
 0001:000316b0       ?GetcomputeAABBUpdateLists@BroadPhase@ProfileEventId@Cm@physx@@SAABUPxProfileEventId@4@XZ 100326b0 f i CmEventProfiler.obj
 0001:000316c0       ?GetcomputeAggAggShapePairs@BroadPhase@ProfileEventId@Cm@physx@@SAABUPxProfileEventId@4@XZ 100326c0 f i CmEventProfiler.obj
 0001:000316d0       ?GetcomputeJointDrives@Articulations@ProfileEventId@Cm@physx@@SAABUPxProfileEventId@4@XZ 100326d0 f i CmEventProfiler.obj
 0001:000316e0       ?GetcorrelatePatches@Dynamics@ProfileEventId@Cm@physx@@SAABUPxProfileEventId@4@XZ 100326e0 f i CmEventProfiler.obj
 0001:000316f0       ?GetcreateBatchQuery@API@ProfileEventId@Cm@physx@@SAABUPxProfileEventId@4@XZ 100326f0 f i CmEventProfiler.obj
 0001:00031700       ?GetcreateContactPatches@Dynamics@ProfileEventId@Cm@physx@@SAABUPxProfileEventId@4@XZ 10032700 f i CmEventProfiler.obj
 0001:00031710       ?GetcreateFinalize@Dynamics@ProfileEventId@Cm@physx@@SAABUPxProfileEventId@4@XZ 10032710 f i CmEventProfiler.obj
 0001:00031720       ?GetcreatePVDInstance@PVD@ProfileEventId@Cm@physx@@SAABUPxProfileEventId@4@XZ 10032720 f i CmEventProfiler.obj
 0001:00031730       ?GetcreatedNodes@IslandGen@ProfileEventId@Cm@physx@@SAABUPxProfileEventId@4@XZ 10032730 f i CmEventProfiler.obj
 0001:00031740       ?GetdeletedNodesEdges@IslandGen@ProfileEventId@Cm@physx@@SAABUPxProfileEventId@4@XZ 10032740 f i CmEventProfiler.obj
 0001:00031750       ?GetduplicateKinematicNodes@IslandGen@ProfileEventId@Cm@physx@@SAABUPxProfileEventId@4@XZ 10032750 f i CmEventProfiler.obj
 0001:00031760       ?Getdynamics@Basic@ProfileEventId@Cm@physx@@SAABUPxProfileEventId@4@XZ 10032760 f i CmEventProfiler.obj
 0001:00031770       ?GetemptyIslands@IslandGen@ProfileEventId@Cm@physx@@SAABUPxProfileEventId@4@XZ 10032770 f i CmEventProfiler.obj
 0001:00031780       ?GetendStep@ParticleSim@ProfileEventId@Cm@physx@@SAABUPxProfileEventId@4@XZ 10032780 f i CmEventProfiler.obj
 0001:00031790       ?Getexecute@BatchedSceneQuery@ProfileEventId@Cm@physx@@SAABUPxProfileEventId@4@XZ 10032790 f i CmEventProfiler.obj
 0001:000317a0       ?GetfetchResults@Basic@ProfileEventId@Cm@physx@@SAABUPxProfileEventId@4@XZ 100327a0 f i CmEventProfiler.obj
 0001:000317b0       ?GetfetchResults@Sim@ProfileEventId@Cm@physx@@SAABUPxProfileEventId@4@XZ 100327b0 f i CmEventProfiler.obj
 0001:000317c0       ?GetfindAndReplaceWithLast@API@ProfileEventId@Cm@physx@@SAABUPxProfileEventId@4@XZ 100327c0 f i CmEventProfiler.obj
 0001:000317d0       ?Getfinish@BroadPhase@ProfileEventId@Cm@physx@@SAABUPxProfileEventId@4@XZ 100327d0 f i CmEventProfiler.obj
 0001:000317e0       ?GetfinishModifiablePairs@Sim@ProfileEventId@Cm@physx@@SAABUPxProfileEventId@4@XZ 100327e0 f i CmEventProfiler.obj
 0001:000317f0       ?GetfireCallBacksPostSync@Sim@ProfileEventId@Cm@physx@@SAABUPxProfileEventId@4@XZ 100327f0 f i CmEventProfiler.obj
 0001:00031800       ?GetfireCallBacksPreSync@Sim@ProfileEventId@Cm@physx@@SAABUPxProfileEventId@4@XZ 10032800 f i CmEventProfiler.obj
 0001:00031810       ?GetfireCustomFilteringCallbacks@Sim@ProfileEventId@Cm@physx@@SAABUPxProfileEventId@4@XZ 10032810 f i CmEventProfiler.obj
 0001:00031820       ?GetflushQueryUpdates@API@ProfileEventId@Cm@physx@@SAABUPxProfileEventId@4@XZ 10032820 f i CmEventProfiler.obj
 0001:00031830       ?GetflushSimulation@API@ProfileEventId@Cm@physx@@SAABUPxProfileEventId@4@XZ 10032830 f i CmEventProfiler.obj
 0001:00031840       ?GetflushUpdates@SceneQuery@ProfileEventId@Cm@physx@@SAABUPxProfileEventId@4@XZ 10032840 f i CmEventProfiler.obj
 0001:00031850       ?GetforceDynamicTreeRebuild@API@ProfileEventId@Cm@physx@@SAABUPxProfileEventId@4@XZ 10032850 f i CmEventProfiler.obj
 0001:00031860       ?GetfreeBuffers@IslandGen@ProfileEventId@Cm@physx@@SAABUPxProfileEventId@4@XZ 10032860 f i CmEventProfiler.obj
 0001:00031870       ?GetgetFrictionPatch@Dynamics@ProfileEventId@Cm@physx@@SAABUPxProfileEventId@4@XZ 10032870 f i CmEventProfiler.obj
 0001:00031880       ?GetgetSimEvents@Sim@ProfileEventId@Cm@physx@@SAABUPxProfileEventId@4@XZ 10032880 f i CmEventProfiler.obj
 0001:00031890       ?GetgrowPatches@Dynamics@ProfileEventId@Cm@physx@@SAABUPxProfileEventId@4@XZ 10032890 f i CmEventProfiler.obj
 0001:000318a0       ?Getintegrate@Articulations@ProfileEventId@Cm@physx@@SAABUPxProfileEventId@4@XZ 100328a0 f i CmEventProfiler.obj
 0001:000318b0       ?GetislandGen@Basic@ProfileEventId@Cm@physx@@SAABUPxProfileEventId@4@XZ 100328b0 f i CmEventProfiler.obj
 0001:000318c0       ?GetjoinedEdges@IslandGen@ProfileEventId@Cm@physx@@SAABUPxProfileEventId@4@XZ 100328c0 f i CmEventProfiler.obj
 0001:000318d0       ?GetjointLoads@Articulations@ProfileEventId@Cm@physx@@SAABUPxProfileEventId@4@XZ 100328d0 f i CmEventProfiler.obj
 0001:000318e0       ?GetnarrowPhase@Basic@ProfileEventId@Cm@physx@@SAABUPxProfileEventId@4@XZ 100328e0 f i CmEventProfiler.obj
 0001:000318f0       ?GetnarrowPhase@Sim@ProfileEventId@Cm@physx@@SAABUPxProfileEventId@4@XZ 100328f0 f i CmEventProfiler.obj
 0001:00031900       ?GetnarrowPhaseMerge@Sim@ProfileEventId@Cm@physx@@SAABUPxProfileEventId@4@XZ 10032900 f i CmEventProfiler.obj
 0001:00031910       ?GetoriginShift@PVD@ProfileEventId@Cm@physx@@SAABUPxProfileEventId@4@XZ 10032910 f i CmEventProfiler.obj
 0001:00031920       ?GetoverlapMultiple@BatchedSceneQuery@ProfileEventId@Cm@physx@@SAABUPxProfileEventId@4@XZ 10032920 f i CmEventProfiler.obj
 0001:00031930       ?GetoverlapMultiple@SceneQuery@ProfileEventId@Cm@physx@@SAABUPxProfileEventId@4@XZ 10032930 f i CmEventProfiler.obj
 0001:00031940       ?GetparallelSolve@Dynamics@ProfileEventId@Cm@physx@@SAABUPxProfileEventId@4@XZ 10032940 f i CmEventProfiler.obj
 0001:00031950       ?GetpostIslandGenSecondPass@Sim@ProfileEventId@Cm@physx@@SAABUPxProfileEventId@4@XZ 10032950 f i CmEventProfiler.obj
 0001:00031960       ?GetpreIslandGen@Sim@ProfileEventId@Cm@physx@@SAABUPxProfileEventId@4@XZ 10032960 f i CmEventProfiler.obj
 0001:00031970       ?GetpreIslandGenSecondPass@Sim@ProfileEventId@Cm@physx@@SAABUPxProfileEventId@4@XZ 10032970 f i CmEventProfiler.obj
 0001:00031980       ?GetprepareDataBlock@Articulations@ProfileEventId@Cm@physx@@SAABUPxProfileEventId@4@XZ 10032980 f i CmEventProfiler.obj
 0001:00031990       ?GetprepareFsData@Articulations@ProfileEventId@Cm@physx@@SAABUPxProfileEventId@4@XZ 10032990 f i CmEventProfiler.obj
 0001:000319a0       ?GetprocessBPResults@BroadPhase@ProfileEventId@Cm@physx@@SAABUPxProfileEventId@4@XZ 100329a0 f i CmEventProfiler.obj
 0001:000319b0       ?GetprocessLostOverlaps@Sim@ProfileEventId@Cm@physx@@SAABUPxProfileEventId@4@XZ 100329b0 f i CmEventProfiler.obj
 0001:000319c0       ?GetprocessNewOverlaps@Sim@ProfileEventId@Cm@physx@@SAABUPxProfileEventId@4@XZ 100329c0 f i CmEventProfiler.obj
 0001:000319d0       ?GetprocessSleepingIslands@IslandGen@ProfileEventId@Cm@physx@@SAABUPxProfileEventId@4@XZ 100329d0 f i CmEventProfiler.obj
 0001:000319e0       ?GetprocessTriggers@Sim@ProfileEventId@Cm@physx@@SAABUPxProfileEventId@4@XZ 100329e0 f i CmEventProfiler.obj
 0001:000319f0       ?GetprojectConstraints@Sim@ProfileEventId@Cm@physx@@SAABUPxProfileEventId@4@XZ 100329f0 f i CmEventProfiler.obj
 0001:00031a00       ?GetprojectContacts@Sim@ProfileEventId@Cm@physx@@SAABUPxProfileEventId@4@XZ 10032a00 f i CmEventProfiler.obj
 0001:00031a10       ?GetprojectionTreeUpdates@Sim@ProfileEventId@Cm@physx@@SAABUPxProfileEventId@4@XZ 10032a10 f i CmEventProfiler.obj
 0001:00031a20       ?GetpropagateDrivenInertia@Articulations@ProfileEventId@Cm@physx@@SAABUPxProfileEventId@4@XZ 10032a20 f i CmEventProfiler.obj
 0001:00031a30       ?GetpvdFrameStart@Basic@ProfileEventId@Cm@physx@@SAABUPxProfileEventId@4@XZ 10032a30 f i CmEventProfiler.obj
 0001:00031a40       ?GetqueueNarrowPhase@Sim@ProfileEventId@Cm@physx@@SAABUPxProfileEventId@4@XZ 10032a40 f i CmEventProfiler.obj
 0001:00031a50       ?GetraycastAny@BatchedSceneQuery@ProfileEventId@Cm@physx@@SAABUPxProfileEventId@4@XZ 10032a50 f i CmEventProfiler.obj
 0001:00031a60       ?GetraycastAny@SceneQuery@ProfileEventId@Cm@physx@@SAABUPxProfileEventId@4@XZ 10032a60 f i CmEventProfiler.obj
 0001:00031a70       ?GetraycastMultiple@BatchedSceneQuery@ProfileEventId@Cm@physx@@SAABUPxProfileEventId@4@XZ 10032a70 f i CmEventProfiler.obj
 0001:00031a80       ?GetraycastMultiple@SceneQuery@ProfileEventId@Cm@physx@@SAABUPxProfileEventId@4@XZ 10032a80 f i CmEventProfiler.obj
 0001:00031a90       ?GetraycastSingle@BatchedSceneQuery@ProfileEventId@Cm@physx@@SAABUPxProfileEventId@4@XZ 10032a90 f i CmEventProfiler.obj
 0001:00031aa0       ?GetraycastSingle@SceneQuery@ProfileEventId@Cm@physx@@SAABUPxProfileEventId@4@XZ 10032aa0 f i CmEventProfiler.obj
 0001:00031ab0       ?GetreleaseBatchQuery@API@ProfileEventId@Cm@physx@@SAABUPxProfileEventId@4@XZ 10032ab0 f i CmEventProfiler.obj
 0001:00031ac0       ?GetreleasePVDInstance@PVD@ProfileEventId@Cm@physx@@SAABUPxProfileEventId@4@XZ 10032ac0 f i CmEventProfiler.obj
 0001:00031ad0       ?GetremoveActor@API@ProfileEventId@Cm@physx@@SAABUPxProfileEventId@4@XZ 10032ad0 f i CmEventProfiler.obj
 0001:00031ae0       ?GetremoveActorFromSim@API@ProfileEventId@Cm@physx@@SAABUPxProfileEventId@4@XZ 10032ae0 f i CmEventProfiler.obj
 0001:00031af0       ?GetremoveActors@API@ProfileEventId@Cm@physx@@SAABUPxProfileEventId@4@XZ 10032af0 f i CmEventProfiler.obj
 0001:00031b00       ?GetremoveAggregate@API@ProfileEventId@Cm@physx@@SAABUPxProfileEventId@4@XZ 10032b00 f i CmEventProfiler.obj
 0001:00031b10       ?GetremoveArticulation@API@ProfileEventId@Cm@physx@@SAABUPxProfileEventId@4@XZ 10032b10 f i CmEventProfiler.obj
 0001:00031b20       ?GetremoveCloth@API@ProfileEventId@Cm@physx@@SAABUPxProfileEventId@4@XZ 10032b20 f i CmEventProfiler.obj
 0001:00031b30       ?GetremoveParticleFluid@API@ProfileEventId@Cm@physx@@SAABUPxProfileEventId@4@XZ 10032b30 f i CmEventProfiler.obj
 0001:00031b40       ?GetremoveParticleSystem@API@ProfileEventId@Cm@physx@@SAABUPxProfileEventId@4@XZ 10032b40 f i CmEventProfiler.obj
 0001:00031b50       ?GetremoveShapesFromSQ@API@ProfileEventId@Cm@physx@@SAABUPxProfileEventId@4@XZ 10032b50 f i CmEventProfiler.obj
 0001:00031b60       ?GetremoveShapesFromSim@API@ProfileEventId@Cm@physx@@SAABUPxProfileEventId@4@XZ 10032b60 f i CmEventProfiler.obj
 0001:00031b70       ?GetresetDependencies@Sim@ProfileEventId@Cm@physx@@SAABUPxProfileEventId@4@XZ 10032b70 f i CmEventProfiler.obj
 0001:00031b80       ?GetresizeArrays@IslandGen@ProfileEventId@Cm@physx@@SAABUPxProfileEventId@4@XZ 10032b80 f i CmEventProfiler.obj
 0001:00031b90       ?GetresizeForKinematics@IslandGen@ProfileEventId@Cm@physx@@SAABUPxProfileEventId@4@XZ 10032b90 f i CmEventProfiler.obj
 0001:00031ba0       ?GetrigidBodySolver@Basic@ProfileEventId@Cm@physx@@SAABUPxProfileEventId@4@XZ 10032ba0 f i CmEventProfiler.obj
 0001:00031bb0       ?GetsceneFinalization@Sim@ProfileEventId@Cm@physx@@SAABUPxProfileEventId@4@XZ 10032bb0 f i CmEventProfiler.obj
 0001:00031bc0       ?GetsceneUpdate@PVD@ProfileEventId@Cm@physx@@SAABUPxProfileEventId@4@XZ 10032bc0 f i CmEventProfiler.obj
 0001:00031bd0       ?GetsendPVDArrays@PVD@ProfileEventId@Cm@physx@@SAABUPxProfileEventId@4@XZ 10032bd0 f i CmEventProfiler.obj
 0001:00031be0       ?GetsetupConstraints@Articulations@ProfileEventId@Cm@physx@@SAABUPxProfileEventId@4@XZ 10032be0 f i CmEventProfiler.obj
 0001:00031bf0       ?GetsetupDrives@Articulations@ProfileEventId@Cm@physx@@SAABUPxProfileEventId@4@XZ 10032bf0 f i CmEventProfiler.obj
 0001:00031c00       ?GetsetupFinalize@Dynamics@ProfileEventId@Cm@physx@@SAABUPxProfileEventId@4@XZ 10032c00 f i CmEventProfiler.obj
 0001:00031c10       ?GetsetupProject@Articulations@ProfileEventId@Cm@physx@@SAABUPxProfileEventId@4@XZ 10032c10 f i CmEventProfiler.obj
 0001:00031c20       ?GetshapesUpdateProcessing@ParticleSim@ProfileEventId@Cm@physx@@SAABUPxProfileEventId@4@XZ 10032c20 f i CmEventProfiler.obj
 0001:00031c30       ?GetshiftOrigin@API@ProfileEventId@Cm@physx@@SAABUPxProfileEventId@4@XZ 10032c30 f i CmEventProfiler.obj
 0001:00031c40       ?GetsimAddShapeToBroadPhase@API@ProfileEventId@Cm@physx@@SAABUPxProfileEventId@4@XZ 10032c40 f i CmEventProfiler.obj
 0001:00031c50       ?Getsimulate@Basic@ProfileEventId@Cm@physx@@SAABUPxProfileEventId@4@XZ 10032c50 f i CmEventProfiler.obj
 0001:00031c60       ?GetsolveGroup@Dynamics@ProfileEventId@Cm@physx@@SAABUPxProfileEventId@4@XZ 10032c60 f i CmEventProfiler.obj
 0001:00031c70       ?GetsolveQueueTasks@Sim@ProfileEventId@Cm@physx@@SAABUPxProfileEventId@4@XZ 10032c70 f i CmEventProfiler.obj
 0001:00031c80       ?Getsolver@Dynamics@ProfileEventId@Cm@physx@@SAABUPxProfileEventId@4@XZ 10032c80 f i CmEventProfiler.obj
 0001:00031c90       ?GetsolverMergeResults@Dynamics@ProfileEventId@Cm@physx@@SAABUPxProfileEventId@4@XZ 10032c90 f i CmEventProfiler.obj
 0001:00031ca0       ?GetsolverQueueTasks@Dynamics@ProfileEventId@Cm@physx@@SAABUPxProfileEventId@4@XZ 10032ca0 f i CmEventProfiler.obj
 0001:00031cb0       ?GetstartStep@ParticleSim@ProfileEventId@Cm@physx@@SAABUPxProfileEventId@4@XZ 10032cb0 f i CmEventProfiler.obj
 0001:00031cc0       ?GetstepSetupCollide@Sim@ProfileEventId@Cm@physx@@SAABUPxProfileEventId@4@XZ 10032cc0 f i CmEventProfiler.obj
 0001:00031cd0       ?GetstepSetupSimulate@Sim@ProfileEventId@Cm@physx@@SAABUPxProfileEventId@4@XZ 10032cd0 f i CmEventProfiler.obj
 0001:00031ce0       ?GetstepSetupSolve@Sim@ProfileEventId@Cm@physx@@SAABUPxProfileEventId@4@XZ 10032ce0 f i CmEventProfiler.obj
 0001:00031cf0       ?GetsweepAny@SceneQuery@ProfileEventId@Cm@physx@@SAABUPxProfileEventId@4@XZ 10032cf0 f i CmEventProfiler.obj
 0001:00031d00       ?GetsweepAnyList@SceneQuery@ProfileEventId@Cm@physx@@SAABUPxProfileEventId@4@XZ 10032d00 f i CmEventProfiler.obj
 0001:00031d10       ?GetsweepMultiple@BatchedSceneQuery@ProfileEventId@Cm@physx@@SAABUPxProfileEventId@4@XZ 10032d10 f i CmEventProfiler.obj
 0001:00031d20       ?GetsweepMultiple@SceneQuery@ProfileEventId@Cm@physx@@SAABUPxProfileEventId@4@XZ 10032d20 f i CmEventProfiler.obj
 0001:00031d30       ?GetsweepMultipleList@SceneQuery@ProfileEventId@Cm@physx@@SAABUPxProfileEventId@4@XZ 10032d30 f i CmEventProfiler.obj
 0001:00031d40       ?GetsweepSingle@BatchedSceneQuery@ProfileEventId@Cm@physx@@SAABUPxProfileEventId@4@XZ 10032d40 f i CmEventProfiler.obj
 0001:00031d50       ?GetsweepSingle@SceneQuery@ProfileEventId@Cm@physx@@SAABUPxProfileEventId@4@XZ 10032d50 f i CmEventProfiler.obj
 0001:00031d60       ?GetsweepSingleList@SceneQuery@ProfileEventId@Cm@physx@@SAABUPxProfileEventId@4@XZ 10032d60 f i CmEventProfiler.obj
 0001:00031d70       ?GetsyncBodiesAfterIntegration@Sim@ProfileEventId@Cm@physx@@SAABUPxProfileEventId@4@XZ 10032d70 f i CmEventProfiler.obj
 0001:00031d80       ?GetsyncBodiesAfterSolver@Sim@ProfileEventId@Cm@physx@@SAABUPxProfileEventId@4@XZ 10032d80 f i CmEventProfiler.obj
 0001:00031d90       ?GetsyncState@Sim@ProfileEventId@Cm@physx@@SAABUPxProfileEventId@4@XZ 10032d90 f i CmEventProfiler.obj
 0001:00031da0       ?GettaskFrameworkSetup@Sim@ProfileEventId@Cm@physx@@SAABUPxProfileEventId@4@XZ 10032da0 f i CmEventProfiler.obj
 0001:00031db0       ?GetupdateAggAABBs@BroadPhase@ProfileEventId@Cm@physx@@SAABUPxProfileEventId@4@XZ 10032db0 f i CmEventProfiler.obj
 0001:00031dc0       ?GetupdateAggLocalSpaceBounds@BroadPhase@ProfileEventId@Cm@physx@@SAABUPxProfileEventId@4@XZ 10032dc0 f i CmEventProfiler.obj
 0001:00031dd0       ?GetupdateBroadphase@BroadPhase@ProfileEventId@Cm@physx@@SAABUPxProfileEventId@4@XZ 10032dd0 f i CmEventProfiler.obj
 0001:00031de0       ?GetupdateCCDMultiPass@Sim@ProfileEventId@Cm@physx@@SAABUPxProfileEventId@4@XZ 10032de0 f i CmEventProfiler.obj
 0001:00031df0       ?GetupdateCCDSinglePass@Sim@ProfileEventId@Cm@physx@@SAABUPxProfileEventId@4@XZ 10032df0 f i CmEventProfiler.obj
 0001:00031e00       ?GetupdateCloths@PVD@ProfileEventId@Cm@physx@@SAABUPxProfileEventId@4@XZ 10032e00 f i CmEventProfiler.obj
 0001:00031e10       ?GetupdateCollision@ParticleSim@ProfileEventId@Cm@physx@@SAABUPxProfileEventId@4@XZ 10032e10 f i CmEventProfiler.obj
 0001:00031e20       ?GetupdateContacts@PVD@ProfileEventId@Cm@physx@@SAABUPxProfileEventId@4@XZ 10032e20 f i CmEventProfiler.obj
 0001:00031e30       ?GetupdateDirtyShaders@Sim@ProfileEventId@Cm@physx@@SAABUPxProfileEventId@4@XZ 10032e30 f i CmEventProfiler.obj
 0001:00031e40       ?GetupdateDynamicBodies@PVD@ProfileEventId@Cm@physx@@SAABUPxProfileEventId@4@XZ 10032e40 f i CmEventProfiler.obj
 0001:00031e50       ?GetupdateForces@Sim@ProfileEventId@Cm@physx@@SAABUPxProfileEventId@4@XZ 10032e50 f i CmEventProfiler.obj
 0001:00031e60       ?GetupdateIslands@Sim@ProfileEventId@Cm@physx@@SAABUPxProfileEventId@4@XZ 10032e60 f i CmEventProfiler.obj
 0001:00031e70       ?GetupdateIslandsSecondPass@Sim@ProfileEventId@Cm@physx@@SAABUPxProfileEventId@4@XZ 10032e70 f i CmEventProfiler.obj
 0001:00031e80       ?GetupdateJoints@PVD@ProfileEventId@Cm@physx@@SAABUPxProfileEventId@4@XZ 10032e80 f i CmEventProfiler.obj
 0001:00031e90       ?GetupdateKinematics@Dynamics@ProfileEventId@Cm@physx@@SAABUPxProfileEventId@4@XZ 10032e90 f i CmEventProfiler.obj
 0001:00031ea0       ?GetupdateLazyAggShapeAABBs@BroadPhase@ProfileEventId@Cm@physx@@SAABUPxProfileEventId@4@XZ 10032ea0 f i CmEventProfiler.obj
 0001:00031eb0       ?GetupdatePVDProperties@PVD@ProfileEventId@Cm@physx@@SAABUPxProfileEventId@4@XZ 10032eb0 f i CmEventProfiler.obj
 0001:00031ec0       ?GetupdatePariclesAndFluids@PVD@ProfileEventId@Cm@physx@@SAABUPxProfileEventId@4@XZ 10032ec0 f i CmEventProfiler.obj
 0001:00031ed0       ?GetupdatePositions@Dynamics@ProfileEventId@Cm@physx@@SAABUPxProfileEventId@4@XZ 10032ed0 f i CmEventProfiler.obj
 0001:00031ee0       ?GetupdatePruningTrees@Sim@ProfileEventId@Cm@physx@@SAABUPxProfileEventId@4@XZ 10032ee0 f i CmEventProfiler.obj
 0001:00031ef0       ?GetupdateShapeAABBs@BroadPhase@ProfileEventId@Cm@physx@@SAABUPxProfileEventId@4@XZ 10032ef0 f i CmEventProfiler.obj
 0001:00031f00       ?GetupdateSleeping@PVD@ProfileEventId@Cm@physx@@SAABUPxProfileEventId@4@XZ 10032f00 f i CmEventProfiler.obj
 0001:00031f10       ?GetupdateVelocities@Dynamics@ProfileEventId@Cm@physx@@SAABUPxProfileEventId@4@XZ 10032f10 f i CmEventProfiler.obj
 0001:00031f20       ?GetvisualizeEndStep@Sim@ProfileEventId@Cm@physx@@SAABUPxProfileEventId@4@XZ 10032f20 f i CmEventProfiler.obj
 0001:00031f30       ?GetvisualizeStartStep@Sim@ProfileEventId@Cm@physx@@SAABUPxProfileEventId@4@XZ 10032f30 f i CmEventProfiler.obj
 0001:00031f40       ?create@?$HashBase@V?$Pair@$$CBUEventIdContextPair@nvtx@@_K@shdfnd@physx@@UEventIdContextPair@nvtx@@U?$Hash@UEventIdContextPair@nvtx@@@5@UGetKey@?$HashMapBase@UEventIdContextPair@nvtx@@_KU?$Hash@UEventIdContextPair@nvtx@@@2@VAllocator@shdfnd@physx@@@internal@23@VAllocator@23@$00@internal@shdfnd@physx@@QAEPAV?$Pair@$$CBUEventIdContextPair@nvtx@@_K@34@ABUEventIdContextPair@nvtx@@AA_N@Z 10032f40 f i CmEventProfiler.obj
 0001:000320d0       ?freeListAdd@?$HashBase@V?$Pair@$$CBUEventIdContextPair@nvtx@@_K@shdfnd@physx@@UEventIdContextPair@nvtx@@U?$Hash@UEventIdContextPair@nvtx@@@5@UGetKey@?$HashMapBase@UEventIdContextPair@nvtx@@_KU?$Hash@UEventIdContextPair@nvtx@@@2@VAllocator@shdfnd@physx@@@internal@23@VAllocator@23@$00@internal@shdfnd@physx@@AAEXII@Z 100330d0 f i CmEventProfiler.obj
 0001:000321c0       ?freeListEmpty@?$HashBase@V?$Pair@$$CBUEventIdContextPair@nvtx@@_K@shdfnd@physx@@UEventIdContextPair@nvtx@@U?$Hash@UEventIdContextPair@nvtx@@@5@UGetKey@?$HashMapBase@UEventIdContextPair@nvtx@@_KU?$Hash@UEventIdContextPair@nvtx@@@2@VAllocator@shdfnd@physx@@@internal@23@VAllocator@23@$00@internal@shdfnd@physx@@ABE_NXZ 100331c0 f i CmEventProfiler.obj
 0001:00032230       ?freeListGetNext@?$HashBase@V?$Pair@$$CBUEventIdContextPair@nvtx@@_K@shdfnd@physx@@UEventIdContextPair@nvtx@@U?$Hash@UEventIdContextPair@nvtx@@@5@UGetKey@?$HashMapBase@UEventIdContextPair@nvtx@@_KU?$Hash@UEventIdContextPair@nvtx@@@2@VAllocator@shdfnd@physx@@@internal@23@VAllocator@23@$00@internal@shdfnd@physx@@AAEIXZ 10033230 f i CmEventProfiler.obj
 0001:00032350       ?grow@?$HashBase@V?$Pair@$$CBUEventIdContextPair@nvtx@@_K@shdfnd@physx@@UEventIdContextPair@nvtx@@U?$Hash@UEventIdContextPair@nvtx@@@5@UGetKey@?$HashMapBase@UEventIdContextPair@nvtx@@_KU?$Hash@UEventIdContextPair@nvtx@@@2@VAllocator@shdfnd@physx@@@internal@23@VAllocator@23@$00@internal@shdfnd@physx@@AAEXXZ 10033350 f i CmEventProfiler.obj
 0001:00032410       ?hash@?$HashBase@V?$Pair@$$CBUEventIdContextPair@nvtx@@_K@shdfnd@physx@@UEventIdContextPair@nvtx@@U?$Hash@UEventIdContextPair@nvtx@@@5@UGetKey@?$HashMapBase@UEventIdContextPair@nvtx@@_KU?$Hash@UEventIdContextPair@nvtx@@@2@VAllocator@shdfnd@physx@@@internal@23@VAllocator@23@$00@internal@shdfnd@physx@@ABEIABUEventIdContextPair@nvtx@@@Z 10033410 f i CmEventProfiler.obj
 0001:00032440       ?hash@?$HashBase@V?$Pair@$$CBUEventIdContextPair@nvtx@@_K@shdfnd@physx@@UEventIdContextPair@nvtx@@U?$Hash@UEventIdContextPair@nvtx@@@5@UGetKey@?$HashMapBase@UEventIdContextPair@nvtx@@_KU?$Hash@UEventIdContextPair@nvtx@@@2@VAllocator@shdfnd@physx@@@internal@23@VAllocator@23@$00@internal@shdfnd@physx@@ABEIABUEventIdContextPair@nvtx@@I@Z 10033440 f i CmEventProfiler.obj
 0001:00032470       ?reserve@?$HashBase@V?$Pair@$$CBUEventIdContextPair@nvtx@@_K@shdfnd@physx@@UEventIdContextPair@nvtx@@U?$Hash@UEventIdContextPair@nvtx@@@5@UGetKey@?$HashMapBase@UEventIdContextPair@nvtx@@_KU?$Hash@UEventIdContextPair@nvtx@@@2@VAllocator@shdfnd@physx@@@internal@23@VAllocator@23@$00@internal@shdfnd@physx@@QAEXI@Z 10033470 f i CmEventProfiler.obj
 0001:000324a0       ?reserveInternal@?$HashBase@V?$Pair@$$CBUEventIdContextPair@nvtx@@_K@shdfnd@physx@@UEventIdContextPair@nvtx@@U?$Hash@UEventIdContextPair@nvtx@@@5@UGetKey@?$HashMapBase@UEventIdContextPair@nvtx@@_KU?$Hash@UEventIdContextPair@nvtx@@@2@VAllocator@shdfnd@physx@@@internal@23@VAllocator@23@$00@internal@shdfnd@physx@@AAEXI@Z 100334a0 f i CmEventProfiler.obj
 0001:00032920       ?storeCrossEvent@EventProfiler@Cm@physx@@QAEXG_K0@Z 10033920 f i CmEventProfiler.obj
 0001:00032990       ?dumpFreeListAllocatorState@Cm@physx@@YAXAAVFreeListAllocator@12@@Z 10033990 f   CmFreeListAllocator.obj
 0001:00032ac0       ??0FreeListAllocator@Cm@physx@@QAE@AAVPxAllocatorCallback@2@@Z 10033ac0 f   CmFreeListAllocator.obj
 0001:00032b60       ??1FreeListAllocator@Cm@physx@@UAE@XZ 10033b60 f   CmFreeListAllocator.obj
 0001:00032be0       ?getQWSize@FreeListAllocator@Cm@physx@@SAII@Z 10033be0 f   CmFreeListAllocator.obj
 0001:00032c00       ?allocate@FreeListAllocator@Cm@physx@@UAEPAXIPBD0H@Z 10033c00 f   CmFreeListAllocator.obj
 0001:00032c70       ?deallocate@FreeListAllocator@Cm@physx@@UAEXPAX@Z 10033c70 f   CmFreeListAllocator.obj
 0001:00032ce0       ?findBestFit@FreeListAllocator@Cm@physx@@AAEPAVChunk@23@IAAI@Z 10033ce0 f   CmFreeListAllocator.obj
 0001:00032d50       ?pushOnFreeList@FreeListAllocator@Cm@physx@@AAEXPAVChunk@23@I@Z 10033d50 f   CmFreeListAllocator.obj
 0001:00032db0       ?popFromFreeList@FreeListAllocator@Cm@physx@@AAEPAVChunk@23@I@Z 10033db0 f   CmFreeListAllocator.obj
 0001:00032e50       ?unlinkFromFreeList@FreeListAllocator@Cm@physx@@AAEXPAVChunk@23@@Z 10033e50 f   CmFreeListAllocator.obj
 0001:00032eb0       ?allocChunk@FreeListAllocator@Cm@physx@@AAEPAXI@Z 10033eb0 f   CmFreeListAllocator.obj
 0001:00032fa0       ?freeChunk@FreeListAllocator@Cm@physx@@AAEXPAVChunk@23@@Z 10033fa0 f   CmFreeListAllocator.obj
 0001:000330c0       ?directAlloc@FreeListAllocator@Cm@physx@@AAEPAXI@Z 100340c0 f   CmFreeListAllocator.obj
 0001:00033160       ?directFree@FreeListAllocator@Cm@physx@@AAEXPAX@Z 10034160 f   CmFreeListAllocator.obj
 0001:000331e0       ?createFreeListAllocator@Cm@physx@@YAPAVFreeListAllocator@12@AAVPxAllocatorCallback@2@@Z 100341e0 f   CmFreeListAllocator.obj
 0001:00033250       ?destroyFreeListAllocator@Cm@physx@@YAXAAVFreeListAllocator@12@@Z 10034250 f   CmFreeListAllocator.obj
 0001:000334e0       ??$addAddr@VBlock@Cm@physx@@@Cm@physx@@YAPAVBlock@01@PAV201@H@Z 100344e0 f i CmFreeListAllocator.obj
 0001:000334f0       ??$addAddr@VChunk@Cm@physx@@@Cm@physx@@YAPAVChunk@01@PAV201@H@Z 100344f0 f i CmFreeListAllocator.obj
 0001:00033500       ??$addAddr@X@Cm@physx@@YAPAXPAXH@Z 10034500 f i CmFreeListAllocator.obj
 0001:00033510       ??0?$MutexT@VMutexAllocator@FreeListAllocator@Cm@physx@@@shdfnd@physx@@QAE@ABVMutexAllocator@FreeListAllocator@Cm@2@@Z 10034510 f i CmFreeListAllocator.obj
 0001:00033580       ??0FastBitMap@Cm@physx@@QAE@XZ 10034580 f i CmFreeListAllocator.obj
 0001:000335e0       ??0MutexAllocator@FreeListAllocator@Cm@physx@@QAE@AAVPxAllocatorCallback@3@@Z 100345e0 f i CmFreeListAllocator.obj
 0001:00033600       ??0ScopedLock@?$MutexT@VMutexAllocator@FreeListAllocator@Cm@physx@@@shdfnd@physx@@QAE@AAV123@@Z 10034600 f i CmFreeListAllocator.obj
 0001:00033630       ??1?$MutexT@VMutexAllocator@FreeListAllocator@Cm@physx@@@shdfnd@physx@@QAE@XZ 10034630 f i CmFreeListAllocator.obj
 0001:00033670       ??1ScopedLock@?$MutexT@VMutexAllocator@FreeListAllocator@Cm@physx@@@shdfnd@physx@@QAE@XZ 10034670 f i CmFreeListAllocator.obj
 0001:00033690       ??_EFreeListAllocator@Cm@physx@@UAEPAXI@Z 10034690 f i CmFreeListAllocator.obj
 0001:00033690       ??_GFreeListAllocator@Cm@physx@@UAEPAXI@Z 10034690 f i CmFreeListAllocator.obj
 0001:000336d0       ?acquire@Chunk@Cm@physx@@QAEXXZ 100346d0 f i CmFreeListAllocator.obj
 0001:00033700       ?allocate@MutexAllocator@FreeListAllocator@Cm@physx@@QAEPAXIPBDH@Z 10034700 f i CmFreeListAllocator.obj
 0001:00033750       ?deallocate@MutexAllocator@FreeListAllocator@Cm@physx@@QAEXPAX@Z 10034750 f i CmFreeListAllocator.obj
 0001:00033790       ?finalize@Block@Cm@physx@@QAEXAAPAV123@@Z 10034790 f i CmFreeListAllocator.obj
 0001:000337c0       ?findFirst@FastBitMap@Cm@physx@@QAEII@Z 100347c0 f i CmFreeListAllocator.obj
 0001:00033870       ?firstChunk@Block@Cm@physx@@QAEPAVChunk@23@XZ 10034870 f i CmFreeListAllocator.obj
 0001:00033890       ?fromFirstChunk@Block@Cm@physx@@SAPAV123@PAVChunk@23@@Z 10034890 f i CmFreeListAllocator.obj
 0001:000338b0       ?fromMemAddr@Chunk@Cm@physx@@SAPAV123@PAX@Z 100348b0 f i CmFreeListAllocator.obj
 0001:000338d0       ?getBaseAllocator@FreeListAllocator@Cm@physx@@QBEAAVPxAllocatorCallback@3@XZ 100348d0 f i CmFreeListAllocator.obj
 0001:000338f0       ?getNext@?$Link@VBlock@Cm@physx@@@Cm@physx@@QAEPAVBlock@23@XZ 100348f0 f i CmFreeListAllocator.obj
 0001:00033910       ?getNextInBlock@Chunk@Cm@physx@@QAEPAV123@XZ 10034910 f i CmFreeListAllocator.obj
 0001:00033970       ?getPrevChunkQWSize@Chunk@Cm@physx@@AAEIXZ 10034970 f i CmFreeListAllocator.obj
 0001:00033990       ?getPrevInBlock@Chunk@Cm@physx@@QAEPAV123@XZ 10034990 f i CmFreeListAllocator.obj
 0001:000339f0       ?getQWSize@Chunk@Cm@physx@@QBEIXZ 100349f0 f i CmFreeListAllocator.obj
 0001:00033a10       ?getQWSizeFromBytes@Chunk@Cm@physx@@SAII@Z 10034a10 f i CmFreeListAllocator.obj
 0001:00033a40       ?init@?$Link@VBlock@Cm@physx@@@Cm@physx@@QAEXXZ 10034a40 f i CmFreeListAllocator.obj
 0001:00033a70       ?init@?$Link@VChunk@Cm@physx@@@Cm@physx@@QAEXXZ 10034a70 f i CmFreeListAllocator.obj
 0001:00033aa0       ?init@Block@Cm@physx@@QAEXAAPAV123@@Z 10034aa0 f i CmFreeListAllocator.obj
 0001:00033b00       ?init@Chunk@Cm@physx@@QAEXI@Z 10034b00 f i CmFreeListAllocator.obj
 0001:00033b40       ?isUsed@Chunk@Cm@physx@@QBE_NXZ 10034b40 f i CmFreeListAllocator.obj
 0001:00033b80       ?link@?$Link@VBlock@Cm@physx@@@Cm@physx@@QAEXAAPAVBlock@23@PAV423@@Z 10034b80 f i CmFreeListAllocator.obj
 0001:00033bf0       ?link@?$Link@VChunk@Cm@physx@@@Cm@physx@@QAEXAAPAVChunk@23@PAV423@@Z 10034bf0 f i CmFreeListAllocator.obj
 0001:00033c60       ?link@Chunk@Cm@physx@@QAEXAAPAV123@@Z 10034c60 f i CmFreeListAllocator.obj
 0001:00033ca0       ?lock@?$MutexT@VMutexAllocator@FreeListAllocator@Cm@physx@@@shdfnd@physx@@QBEXXZ 10034ca0 f i CmFreeListAllocator.obj
 0001:00033cc0       ?memAddr@Chunk@Cm@physx@@QAEPAXXZ 10034cc0 f i CmFreeListAllocator.obj
 0001:00033ce0       ?merge@Chunk@Cm@physx@@QAEXAAV123@@Z 10034ce0 f i CmFreeListAllocator.obj
 0001:00033dc0       ?release@Chunk@Cm@physx@@QAEXXZ 10034dc0 f i CmFreeListAllocator.obj
 0001:00033df0       ?reset@FastBitMap@Cm@physx@@QAEXI@Z 10034df0 f i CmFreeListAllocator.obj
 0001:00033e80       ?set@FastBitMap@Cm@physx@@QAEXI@Z 10034e80 f i CmFreeListAllocator.obj
 0001:00033ef0       ?split@Chunk@Cm@physx@@QAEPAV123@I@Z 10034ef0 f i CmFreeListAllocator.obj
 0001:00034000       ?unlink@?$Link@VBlock@Cm@physx@@@Cm@physx@@QAEXAAPAVBlock@23@@Z 10035000 f i CmFreeListAllocator.obj
 0001:00034070       ?unlink@?$Link@VChunk@Cm@physx@@@Cm@physx@@QAEXAAPAVChunk@23@@Z 10035070 f i CmFreeListAllocator.obj
 0001:000340e0       ?unlink@Chunk@Cm@physx@@QAEXAAPAV123@@Z 100350e0 f i CmFreeListAllocator.obj
 0001:00034110       ?unlock@?$MutexT@VMutexAllocator@FreeListAllocator@Cm@physx@@@shdfnd@physx@@QBEXXZ 10035110 f i CmFreeListAllocator.obj
 0001:00034130       __vfprintf_l               10035130 f i CmFreeListAllocator.obj
 0001:00034170       _printf                    10035170 f i CmFreeListAllocator.obj
 0001:000341d0       ?PxShortestRotation@physx@@YA?AVPxQuat@1@ABVPxVec3@1@0@Z 100351d0 f   CmMathUtils.obj
 0001:00034330       ?PxTransformFromPlaneEquation@physx@@YA?AVPxTransform@1@ABVPxPlane@1@@Z 10035330 f   CmMathUtils.obj
 0001:00034530       ?PxTransformFromSegment@physx@@YA?AVPxTransform@1@ABVPxVec3@1@0PAM@Z 10035530 f   CmMathUtils.obj
 0001:000346a0       ?PxDiagonalize@physx@@YA?AVPxVec3@1@ABVPxMat33@1@AAVPxQuat@1@@Z 100356a0 f   CmMathUtils.obj
 0001:00034ee0       ??0PxMat33@physx@@QAE@ABVPxQuat@1@@Z 10035ee0 f i CmMathUtils.obj
 0001:00035160       ??0PxMat33@physx@@QAE@ABVPxVec3@1@00@Z 10036160 f i CmMathUtils.obj
 0001:000351d0       ??0PxMat33@physx@@QAE@XZ   100361d0 f i CmMathUtils.obj
 0001:00035210       ??0PxPlane@physx@@QAE@ABV01@@Z 10036210 f i CmMathUtils.obj
 0001:00035250       ??0PxTransform@physx@@QAE@ABVPxVec3@1@ABVPxQuat@1@@Z 10036250 f i CmMathUtils.obj
 0001:000352f0       ??0PxVec3@physx@@QAE@XZ    100362f0 f i CmMathUtils.obj
 0001:00035310       ??0PxVec4@physx@@QAE@MMMM@Z 10036310 f i CmMathUtils.obj
 0001:00035370       ??4PxMat33@physx@@QAEAAV01@ABV01@@Z 10036370 f i CmMathUtils.obj
 0001:000353c0       ??APxMat33@physx@@QAEAAVPxVec3@1@I@Z 100363c0 f i CmMathUtils.obj
 0001:000353e0       ??APxVec4@physx@@QAEAAMI@Z 100363e0 f i CmMathUtils.obj
 0001:00035450       ??DPxMat33@physx@@QBE?AV01@ABV01@@Z 10036450 f i CmMathUtils.obj
 0001:000354d0       ??GPxVec3@physx@@QBE?AV01@ABV01@@Z 100364d0 f i CmMathUtils.obj
 0001:00035540       ??GPxVec3@physx@@QBE?AV01@XZ 10036540 f i CmMathUtils.obj
 0001:000355b0       ??KPxVec3@physx@@QBE?AV01@M@Z 100365b0 f i CmMathUtils.obj
 0001:00035630       ?PxSign@physx@@YAMM@Z      10036630 f i CmMathUtils.obj
 0001:00035650       ?cross@PxVec3@physx@@QBE?AV12@ABV12@@Z 10036650 f i CmMathUtils.obj
 0001:00035710       ?getNextIndex3@shdfnd@physx@@YAII@Z 10036710 f i CmMathUtils.obj
 0001:00035730       ?getNormalized@PxQuat@physx@@QBE?AV12@XZ 10036730 f i CmMathUtils.obj
 0001:000357e0       ?getTranspose@PxMat33@physx@@QBE?AV12@XZ 100367e0 f i CmMathUtils.obj
 0001:000358d0       ?isFinite@PxQuat@physx@@QBE_NXZ 100368d0 f i CmMathUtils.obj
 0001:00035990       ?isSane@PxQuat@physx@@QBE_NXZ 10036990 f i CmMathUtils.obj
 0001:00035a20       ?magnitude@PxQuat@physx@@QBEMXZ 10036a20 f i CmMathUtils.obj
 0001:00035a50       ?magnitudeSquared@PxQuat@physx@@QBEMXZ 10036a50 f i CmMathUtils.obj
 0001:00035ad0       ?normalize@PxPlane@physx@@QAEXXZ 10036ad0 f i CmMathUtils.obj
 0001:00035b40       ?sign@intrinsics@physx@@YAMM@Z 10036b40 f i CmMathUtils.obj
 0001:00035b90       ?transform@PxMat33@physx@@QBE?AVPxVec3@2@ABV32@@Z 10036b90 f i CmMathUtils.obj
 0001:00035c60       ??0PtrTable@Cm@physx@@QAE@XZ 10036c60 f   CmPtrTable.obj
 0001:00035c90       ??1PtrTable@Cm@physx@@QAE@XZ 10036c90 f   CmPtrTable.obj
 0001:00035d60       ?add@PtrTable@Cm@physx@@QAEXPAXAAVPtrTableStorageManager@23@@Z 10036d60 f   CmPtrTable.obj
 0001:00036040       ?replaceWithLast@PtrTable@Cm@physx@@QAEXIAAVPtrTableStorageManager@23@@Z 10037040 f   CmPtrTable.obj
 0001:00036330       ?clear@PtrTable@Cm@physx@@QAEXAAVPtrTableStorageManager@23@@Z 10037330 f   CmPtrTable.obj
 0001:000363b0       ?find@PtrTable@Cm@physx@@QBEIPBX@Z 100373b0 f   CmPtrTable.obj
 0001:00036440       ?exportExtraData@PtrTable@Cm@physx@@QAEXAAVPxSerializationContext@3@@Z 10037440 f   CmPtrTable.obj
 0001:00036490       ?importExtraData@PtrTable@Cm@physx@@QAEXAAVPxDeserializationContext@3@@Z 10037490 f   CmPtrTable.obj
 0001:000364c0       ?getBinaryMetaData@PtrTable@Cm@physx@@SAXAAVPxOutputStream@3@@Z 100374c0 f   CmPtrTable.obj
 0001:000366f0       ?realloc@PtrTable@Cm@physx@@AAEXIIAAVPtrTableStorageManager@23@@Z 100376f0 f   CmPtrTable.obj
 0001:00036b20       ??$readExtraData@PAX$0BA@@PxDeserializationContext@physx@@QAEPAPAXI@Z 10037b20 f i CmPtrTable.obj
 0001:00036b50       ??$readExtraData@PAX@PxDeserializationContext@physx@@QAEPAPAXI@Z 10037b50 f i CmPtrTable.obj
 0001:00036b90       ??0PtrTable@Cm@physx@@QAE@ABW4PxEMPTY@2@@Z 10037b90 f i CmPtrTable.obj
 0001:00036bf0       ??4PtrTable@Cm@physx@@QAEAAU012@ABU012@@Z 10037bf0 f i CmPtrTable.obj
 0001:00036c20       ?alignExtraData@PxDeserializationContext@physx@@QAEXI@Z 10037c20 f i CmPtrTable.obj
 0001:00036c70       ?getCount@PtrTable@Cm@physx@@QBEIXZ 10037c70 f i CmPtrTable.obj
 0001:00036c90       ?getPtrs@PtrTable@Cm@physx@@QAEPAPAXXZ 10037c90 f i CmPtrTable.obj
 0001:00036cd0       ?getPtrs@PtrTable@Cm@physx@@QBEPBQAXXZ 10037cd0 f i CmPtrTable.obj
 0001:00036d10       ??6RenderOutput@Cm@physx@@QAEAAV012@W4Primitive@012@@Z 10037d10 f   CmRenderOutput.obj
 0001:00036d40       ??6RenderOutput@Cm@physx@@QAEAAV012@I@Z 10037d40 f   CmRenderOutput.obj
 0001:00036d60       ??6RenderOutput@Cm@physx@@QAEAAV012@ABVPxMat44@2@@Z 10037d60 f   CmRenderOutput.obj
 0001:00036d80       ??6RenderOutput@Cm@physx@@QAEAAV012@ABVPxTransform@2@@Z 10037d80 f   CmRenderOutput.obj
 0001:00036db0       ??6RenderOutput@Cm@physx@@QAEAAV012@VPxVec3@2@@Z 10037db0 f   CmRenderOutput.obj
 0001:00037020       ??6RenderOutput@Cm@physx@@QAEAAV012@ABUDebugText@12@@Z 10038020 f   CmRenderOutput.obj
 0001:000371b0       ?outputCapsule@RenderOutput@Cm@physx@@QAEAAV123@MMABVMatrix34@23@@Z 100381b0 f   CmRenderOutput.obj
 0001:00037810       ??0DebugText@Cm@physx@@QAA@ABVPxVec3@2@MPBDZZ 10038810 f   CmRenderOutput.obj
 0001:00037880       ??6Cm@physx@@YAAAVRenderOutput@01@AAV201@ABUDebugBox@01@@Z 10038880 f   CmRenderOutput.obj
 0001:00037fc0       ??6Cm@physx@@YAAAVRenderOutput@01@AAV201@ABUDebugArrow@01@@Z 10038fc0 f   CmRenderOutput.obj
 0001:000381f0       ??6Cm@physx@@YAAAVRenderOutput@01@AAV201@ABUDebugBasis@01@@Z 100391f0 f   CmRenderOutput.obj
 0001:000383b0       ??6Cm@physx@@YAAAVRenderOutput@01@AAV201@ABUDebugCircle@01@@Z 100393b0 f   CmRenderOutput.obj
 0001:000384f0       ??6Cm@physx@@YAAAVRenderOutput@01@AAV201@ABUDebugArc@01@@Z 100394f0 f   CmRenderOutput.obj
 0001:00038e70       ??$swap@VPxVec4@physx@@@shdfnd@physx@@YAXAAVPxVec4@1@0@Z 10039e70 f i CmRenderOutput.obj
 0001:00038eb0       ??0DebugArc@Cm@physx@@QAE@IMMM@Z 10039eb0 f i CmRenderOutput.obj
 0001:00038f00       ??0DebugArrow@Cm@physx@@QAE@ABVPxVec3@2@0M@Z 10039f00 f i CmRenderOutput.obj
 0001:00038f60       ??0DebugCircle@Cm@physx@@QAE@IM@Z 10039f60 f i CmRenderOutput.obj
 0001:00038f90       ??0DebugText@Cm@physx@@QAE@$$QAU012@@Z 10039f90 f i CmRenderOutput.obj
 0001:00039000       ??0DebugText@Cm@physx@@QAE@ABU012@@Z 1003a000 f i CmRenderOutput.obj
 0001:00039070       ??0PxDebugLine@physx@@QAE@ABU01@@Z 1003a070 f i CmRenderOutput.obj
 0001:000390e0       ??0PxDebugLine@physx@@QAE@ABVPxVec3@1@0ABI@Z 1003a0e0 f i CmRenderOutput.obj
 0001:00039150       ??0PxDebugPoint@physx@@QAE@ABU01@@Z 1003a150 f i CmRenderOutput.obj
 0001:00039190       ??0PxDebugPoint@physx@@QAE@ABVPxVec3@1@ABI@Z 1003a190 f i CmRenderOutput.obj
 0001:000391d0       ??0PxDebugText@physx@@QAE@ABU01@@Z 1003a1d0 f i CmRenderOutput.obj
 0001:00039230       ??0PxDebugText@physx@@QAE@ABVPxVec3@1@ABMABIPBD@Z 1003a230 f i CmRenderOutput.obj
 0001:00039290       ??0PxDebugTriangle@physx@@QAE@ABU01@@Z 1003a290 f i CmRenderOutput.obj
 0001:00039330       ??0PxDebugTriangle@physx@@QAE@ABVPxVec3@1@00ABI@Z 1003a330 f i CmRenderOutput.obj
 0001:000393c0       ??0PxMat44@physx@@QAE@ABV01@@Z 1003a3c0 f i CmRenderOutput.obj
 0001:00039450       ??0PxMat44@physx@@QAE@ABVPxMat33@1@ABVPxVec3@1@@Z 1003a450 f i CmRenderOutput.obj
 0001:00039510       ??0PxMat44@physx@@QAE@ABVPxTransform@1@@Z 1003a510 f i CmRenderOutput.obj
 0001:00039590       ??0PxMat44@physx@@QAE@W4PxIDENTITY@1@@Z 1003a590 f i CmRenderOutput.obj
 0001:000396e0       ??0PxMat44@physx@@QAE@XZ   1003a6e0 f i CmRenderOutput.obj
 0001:00039730       ??0PxVec3@physx@@QAE@M@Z   1003a730 f i CmRenderOutput.obj
 0001:00039780       ??0PxVec4@physx@@QAE@ABV01@@Z 1003a780 f i CmRenderOutput.obj
 0001:000397d0       ??0PxVec4@physx@@QAE@ABVPxVec3@1@M@Z 1003a7d0 f i CmRenderOutput.obj
 0001:00039820       ??0PxVec4@physx@@QAE@XZ    1003a820 f i CmRenderOutput.obj
 0001:00039840       ??0RenderOutput@Cm@physx@@QAE@AAVRenderBuffer@12@@Z 1003a840 f i CmRenderOutput.obj
 0001:000398e0       ??0RenderOutput@Cm@physx@@QAE@ABV012@@Z 1003a8e0 f i CmRenderOutput.obj
 0001:00039990       ??4DebugText@Cm@physx@@QAEAAU012@$$QAU012@@Z 1003a990 f i CmRenderOutput.obj
 0001:00039a20       ??4DebugText@Cm@physx@@QAEAAU012@ABU012@@Z 1003aa20 f i CmRenderOutput.obj
 0001:00039ab0       ??4PxMat44@physx@@QAEABV01@ABV01@@Z 1003aab0 f i CmRenderOutput.obj
 0001:00039b20       ??4PxVec4@physx@@QAEAAV01@ABV01@@Z 1003ab20 f i CmRenderOutput.obj
 0001:00039b70       ??A?$Array@UPxDebugText@physx@@VNamedAllocator@shdfnd@2@@shdfnd@physx@@QAEAAUPxDebugText@2@I@Z 1003ab70 f i CmRenderOutput.obj
 0001:00039bf0       ??DPxVec4@physx@@QBE?AV01@M@Z 1003abf0 f i CmRenderOutput.obj
 0001:00039c70       ??GPxVec4@physx@@QBE?AV01@XZ 1003ac70 f i CmRenderOutput.obj
 0001:00039d00       ??HPxVec4@physx@@QBE?AV01@ABV01@@Z 1003ad00 f i CmRenderOutput.obj
 0001:00039d90       ??YPxVec4@physx@@QAEAAV01@ABV01@@Z 1003ad90 f i CmRenderOutput.obj
 0001:00039e20       ?allocate@?$Array@DVNamedAllocator@shdfnd@physx@@@shdfnd@physx@@IAEPADI@Z 1003ae20 f i CmRenderOutput.obj
 0001:00039ea0       ?allocate@?$Array@UPxDebugLine@physx@@VNamedAllocator@shdfnd@2@@shdfnd@physx@@IAEPAUPxDebugLine@3@I@Z 1003aea0 f i CmRenderOutput.obj
 0001:00039f20       ?allocate@?$Array@UPxDebugPoint@physx@@VNamedAllocator@shdfnd@2@@shdfnd@physx@@IAEPAUPxDebugPoint@3@I@Z 1003af20 f i CmRenderOutput.obj
 0001:00039fa0       ?allocate@?$Array@UPxDebugText@physx@@VNamedAllocator@shdfnd@2@@shdfnd@physx@@IAEPAUPxDebugText@3@I@Z 1003afa0 f i CmRenderOutput.obj
 0001:0003a020       ?allocate@?$Array@UPxDebugTriangle@physx@@VNamedAllocator@shdfnd@2@@shdfnd@physx@@IAEPAUPxDebugTriangle@3@I@Z 1003b020 f i CmRenderOutput.obj
 0001:0003a0a0       ?begin@?$Array@DVNamedAllocator@shdfnd@physx@@@shdfnd@physx@@QAEPADXZ 1003b0a0 f i CmRenderOutput.obj
 0001:0003a0c0       ?begin@?$Array@UPxDebugLine@physx@@VNamedAllocator@shdfnd@2@@shdfnd@physx@@QAEPAUPxDebugLine@3@XZ 1003b0c0 f i CmRenderOutput.obj
 0001:0003a0e0       ?capacity@?$Array@DVNamedAllocator@shdfnd@physx@@@shdfnd@physx@@QBEIXZ 1003b0e0 f i CmRenderOutput.obj
 0001:0003a100       ?capacity@?$Array@UPxDebugLine@physx@@VNamedAllocator@shdfnd@2@@shdfnd@physx@@QBEIXZ 1003b100 f i CmRenderOutput.obj
 0001:0003a120       ?capacity@?$Array@UPxDebugPoint@physx@@VNamedAllocator@shdfnd@2@@shdfnd@physx@@QBEIXZ 1003b120 f i CmRenderOutput.obj
 0001:0003a140       ?capacity@?$Array@UPxDebugText@physx@@VNamedAllocator@shdfnd@2@@shdfnd@physx@@QBEIXZ 1003b140 f i CmRenderOutput.obj
 0001:0003a160       ?capacity@?$Array@UPxDebugTriangle@physx@@VNamedAllocator@shdfnd@2@@shdfnd@physx@@QBEIXZ 1003b160 f i CmRenderOutput.obj
 0001:0003a180       ?capacityIncrement@?$Array@DVNamedAllocator@shdfnd@physx@@@shdfnd@physx@@IBEIXZ 1003b180 f i CmRenderOutput.obj
 0001:0003a1c0       ?capacityIncrement@?$Array@UPxDebugLine@physx@@VNamedAllocator@shdfnd@2@@shdfnd@physx@@IBEIXZ 1003b1c0 f i CmRenderOutput.obj
 0001:0003a200       ?capacityIncrement@?$Array@UPxDebugPoint@physx@@VNamedAllocator@shdfnd@2@@shdfnd@physx@@IBEIXZ 1003b200 f i CmRenderOutput.obj
 0001:0003a240       ?capacityIncrement@?$Array@UPxDebugText@physx@@VNamedAllocator@shdfnd@2@@shdfnd@physx@@IBEIXZ 1003b240 f i CmRenderOutput.obj
 0001:0003a280       ?capacityIncrement@?$Array@UPxDebugTriangle@physx@@VNamedAllocator@shdfnd@2@@shdfnd@physx@@IBEIXZ 1003b280 f i CmRenderOutput.obj
 0001:0003a2c0       ?copy@?$Array@DVNamedAllocator@shdfnd@physx@@@shdfnd@physx@@KAXPAD0PBD@Z 1003b2c0 f i CmRenderOutput.obj
 0001:0003a320       ?copy@?$Array@UPxDebugLine@physx@@VNamedAllocator@shdfnd@2@@shdfnd@physx@@KAXPAUPxDebugLine@3@0PBU43@@Z 1003b320 f i CmRenderOutput.obj
 0001:0003a380       ?copy@?$Array@UPxDebugPoint@physx@@VNamedAllocator@shdfnd@2@@shdfnd@physx@@KAXPAUPxDebugPoint@3@0PBU43@@Z 1003b380 f i CmRenderOutput.obj
 0001:0003a3e0       ?copy@?$Array@UPxDebugText@physx@@VNamedAllocator@shdfnd@2@@shdfnd@physx@@KAXPAUPxDebugText@3@0PBU43@@Z 1003b3e0 f i CmRenderOutput.obj
 0001:0003a440       ?copy@?$Array@UPxDebugTriangle@physx@@VNamedAllocator@shdfnd@2@@shdfnd@physx@@KAXPAUPxDebugTriangle@3@0PBU43@@Z 1003b440 f i CmRenderOutput.obj
 0001:0003a4a0       ?deallocate@?$Array@DVNamedAllocator@shdfnd@physx@@@shdfnd@physx@@IAEXPAX@Z 1003b4a0 f i CmRenderOutput.obj
 0001:0003a4c0       ?deallocate@?$Array@UPxDebugLine@physx@@VNamedAllocator@shdfnd@2@@shdfnd@physx@@IAEXPAX@Z 1003b4c0 f i CmRenderOutput.obj
 0001:0003a4e0       ?deallocate@?$Array@UPxDebugPoint@physx@@VNamedAllocator@shdfnd@2@@shdfnd@physx@@IAEXPAX@Z 1003b4e0 f i CmRenderOutput.obj
 0001:0003a500       ?deallocate@?$Array@UPxDebugText@physx@@VNamedAllocator@shdfnd@2@@shdfnd@physx@@IAEXPAX@Z 1003b500 f i CmRenderOutput.obj
 0001:0003a520       ?deallocate@?$Array@UPxDebugTriangle@physx@@VNamedAllocator@shdfnd@2@@shdfnd@physx@@IAEXPAX@Z 1003b520 f i CmRenderOutput.obj
 0001:0003a540       ?destroy@?$Array@DVNamedAllocator@shdfnd@physx@@@shdfnd@physx@@KAXPAD0@Z 1003b540 f i CmRenderOutput.obj
 0001:0003a560       ?destroy@?$Array@UPxDebugLine@physx@@VNamedAllocator@shdfnd@2@@shdfnd@physx@@KAXPAUPxDebugLine@3@0@Z 1003b560 f i CmRenderOutput.obj
 0001:0003a580       ?destroy@?$Array@UPxDebugPoint@physx@@VNamedAllocator@shdfnd@2@@shdfnd@physx@@KAXPAUPxDebugPoint@3@0@Z 1003b580 f i CmRenderOutput.obj
 0001:0003a5a0       ?destroy@?$Array@UPxDebugText@physx@@VNamedAllocator@shdfnd@2@@shdfnd@physx@@KAXPAUPxDebugText@3@0@Z 1003b5a0 f i CmRenderOutput.obj
 0001:0003a5c0       ?destroy@?$Array@UPxDebugTriangle@physx@@VNamedAllocator@shdfnd@2@@shdfnd@physx@@KAXPAUPxDebugTriangle@3@0@Z 1003b5c0 f i CmRenderOutput.obj
 0001:0003a5e0       ?end@?$Array@DVNamedAllocator@shdfnd@physx@@@shdfnd@physx@@QAEPADXZ 1003b5e0 f i CmRenderOutput.obj
 0001:0003a600       ?getXYZ@PxVec4@physx@@QBE?AVPxVec3@2@XZ 1003b600 f i CmRenderOutput.obj
 0001:0003a660       ?grow@?$Array@DVNamedAllocator@shdfnd@physx@@@shdfnd@physx@@IAEXI@Z 1003b660 f i CmRenderOutput.obj
 0001:0003a6e0       ?grow@?$Array@UPxDebugLine@physx@@VNamedAllocator@shdfnd@2@@shdfnd@physx@@IAEXI@Z 1003b6e0 f i CmRenderOutput.obj
 0001:0003a760       ?growAndPushBack@?$Array@DVNamedAllocator@shdfnd@physx@@@shdfnd@physx@@IAEAADABD@Z 1003b760 f i CmRenderOutput.obj
 0001:0003a8c0       ?growAndPushBack@?$Array@UPxDebugLine@physx@@VNamedAllocator@shdfnd@2@@shdfnd@physx@@IAEAAUPxDebugLine@3@ABU43@@Z 1003b8c0 f i CmRenderOutput.obj
 0001:0003aa30       ?growAndPushBack@?$Array@UPxDebugPoint@physx@@VNamedAllocator@shdfnd@2@@shdfnd@physx@@IAEAAUPxDebugPoint@3@ABU43@@Z 1003ba30 f i CmRenderOutput.obj
 0001:0003aba0       ?growAndPushBack@?$Array@UPxDebugText@physx@@VNamedAllocator@shdfnd@2@@shdfnd@physx@@IAEAAUPxDebugText@3@ABU43@@Z 1003bba0 f i CmRenderOutput.obj
 0001:0003ad10       ?growAndPushBack@?$Array@UPxDebugTriangle@physx@@VNamedAllocator@shdfnd@2@@shdfnd@physx@@IAEAAUPxDebugTriangle@3@ABU43@@Z 1003bd10 f i CmRenderOutput.obj
 0001:0003ae80       ?isInUserMemory@?$Array@DVNamedAllocator@shdfnd@physx@@@shdfnd@physx@@QBEIXZ 1003be80 f i CmRenderOutput.obj
 0001:0003aea0       ?isInUserMemory@?$Array@UPxDebugLine@physx@@VNamedAllocator@shdfnd@2@@shdfnd@physx@@QBEIXZ 1003bea0 f i CmRenderOutput.obj
 0001:0003aec0       ?isInUserMemory@?$Array@UPxDebugPoint@physx@@VNamedAllocator@shdfnd@2@@shdfnd@physx@@QBEIXZ 1003bec0 f i CmRenderOutput.obj
 0001:0003aee0       ?isInUserMemory@?$Array@UPxDebugText@physx@@VNamedAllocator@shdfnd@2@@shdfnd@physx@@QBEIXZ 1003bee0 f i CmRenderOutput.obj
 0001:0003af00       ?isInUserMemory@?$Array@UPxDebugTriangle@physx@@VNamedAllocator@shdfnd@2@@shdfnd@physx@@QBEIXZ 1003bf00 f i CmRenderOutput.obj
 0001:0003af20       ?normalToTangents@shdfnd@physx@@YAXABVPxVec3@2@AAV32@1@Z 1003bf20 f i CmRenderOutput.obj
 0001:0003b030       ?outputSegment@RenderOutput@Cm@physx@@QAEXABVPxVec3@3@0@Z 1003c030 f i CmRenderOutput.obj
 0001:0003b090       ?pushBack@?$Array@DVNamedAllocator@shdfnd@physx@@@shdfnd@physx@@QAEAADABD@Z 1003c090 f i CmRenderOutput.obj
 0001:0003b120       ?pushBack@?$Array@UPxDebugLine@physx@@VNamedAllocator@shdfnd@2@@shdfnd@physx@@QAEAAUPxDebugLine@3@ABU43@@Z 1003c120 f i CmRenderOutput.obj
 0001:0003b1c0       ?pushBack@?$Array@UPxDebugPoint@physx@@VNamedAllocator@shdfnd@2@@shdfnd@physx@@QAEAAUPxDebugPoint@3@ABU43@@Z 1003c1c0 f i CmRenderOutput.obj
 0001:0003b260       ?pushBack@?$Array@UPxDebugText@physx@@VNamedAllocator@shdfnd@2@@shdfnd@physx@@QAEAAUPxDebugText@3@ABU43@@Z 1003c260 f i CmRenderOutput.obj
 0001:0003b300       ?pushBack@?$Array@UPxDebugTriangle@physx@@VNamedAllocator@shdfnd@2@@shdfnd@physx@@QAEAAUPxDebugTriangle@3@ABU43@@Z 1003c300 f i CmRenderOutput.obj
 0001:0003b3a0       ?recreate@?$Array@DVNamedAllocator@shdfnd@physx@@@shdfnd@physx@@IAEXI@Z 1003c3a0 f i CmRenderOutput.obj
 0001:0003b4a0       ?recreate@?$Array@UPxDebugLine@physx@@VNamedAllocator@shdfnd@2@@shdfnd@physx@@IAEXI@Z 1003c4a0 f i CmRenderOutput.obj
 0001:0003b5b0       ?reserve@?$Array@DVNamedAllocator@shdfnd@physx@@@shdfnd@physx@@QAEXI@Z 1003c5b0 f i CmRenderOutput.obj
 0001:0003b5e0       ?reserve@?$Array@UPxDebugLine@physx@@VNamedAllocator@shdfnd@2@@shdfnd@physx@@QAEXI@Z 1003c5e0 f i CmRenderOutput.obj
 0001:0003b610       ?reserveSegments@RenderOutput@Cm@physx@@QAEPAUPxDebugLine@3@I@Z 1003c610 f i CmRenderOutput.obj
 0001:0003b680       ?resizeUninitialized@?$Array@UPxDebugLine@physx@@VNamedAllocator@shdfnd@2@@shdfnd@physx@@QAEXI@Z 1003c680 f i CmRenderOutput.obj
 0001:0003b6b0       ?rotate@PxMat44@physx@@QBE?BVPxVec3@2@ABV32@@Z 1003c6b0 f i CmRenderOutput.obj
 0001:0003b710       ?rotate@PxMat44@physx@@QBE?BVPxVec4@2@ABV32@@Z 1003c710 f i CmRenderOutput.obj
 0001:0003b7e0       ?size@?$Array@DVNamedAllocator@shdfnd@physx@@@shdfnd@physx@@QBEIXZ 1003c7e0 f i CmRenderOutput.obj
 0001:0003b800       ?size@?$Array@UPxDebugLine@physx@@VNamedAllocator@shdfnd@2@@shdfnd@physx@@QBEIXZ 1003c800 f i CmRenderOutput.obj
 0001:0003b820       ?size@?$Array@UPxDebugText@physx@@VNamedAllocator@shdfnd@2@@shdfnd@physx@@QBEIXZ 1003c820 f i CmRenderOutput.obj
 0001:0003b840       ?transform@PxMat44@physx@@QBE?AVPxVec3@2@ABV32@@Z 1003c840 f i CmRenderOutput.obj
 0001:0003b8a0       ?transform@PxMat44@physx@@QBE?AVPxVec4@2@ABV32@@Z 1003c8a0 f i CmRenderOutput.obj
 0001:0003b9c0       _vsnprintf                 1003c9c0 f i CmRenderOutput.obj
 0001:0003ba80       ?visualizeJointFrames@Cm@physx@@YAXAAVRenderOutput@12@MABVPxTransform@2@1@Z 1003ca80 f   CmVisualization.obj
 0001:0003bb70       ?visualizeLinearLimit@Cm@physx@@YAXAAVRenderOutput@12@MABVPxTransform@2@1M_N@Z 1003cb70 f   CmVisualization.obj
 0001:0003bcd0       ?visualizeAngularLimit@Cm@physx@@YAXAAVRenderOutput@12@MABVPxTransform@2@MM_N@Z 1003ccd0 f   CmVisualization.obj
 0001:0003bf20       ?visualizeLimitCone@Cm@physx@@YAXAAVRenderOutput@12@MABVPxTransform@2@MM_N@Z 1003cf20 f   CmVisualization.obj
 0001:0003c1a0       ?visualizeDoubleCone@Cm@physx@@YAXAAVRenderOutput@12@MABVPxTransform@2@M_N@Z 1003d1a0 f   CmVisualization.obj
 0001:0003c970       ??$PX_UNUSED@W4PxZERO@physx@@@@YAXABW4PxZERO@physx@@@Z 1003d970 f i CmVisualization.obj
 0001:0003c980       ??0DebugArrow@Cm@physx@@QAE@ABVPxVec3@2@0@Z 1003d980 f i CmVisualization.obj
 0001:0003c9f0       ??0DebugBasis@Cm@physx@@QAE@ABVPxVec3@2@III@Z 1003d9f0 f i CmVisualization.obj
 0001:0003ca40       ??0PxTransform@physx@@QAE@W4PxIDENTITY@1@@Z 1003da40 f i CmVisualization.obj
 0001:0003caa0       ??0PxVec3@physx@@QAE@W4PxZERO@1@@Z 1003daa0 f i CmVisualization.obj
 0001:0003caf0       ?getBasisVector0@PxQuat@physx@@QBE?AVPxVec3@2@XZ 1003daf0 f i CmVisualization.obj
 0001:0003cbe0       ?rotate@PxQuat@physx@@QBE?BVPxVec3@2@ABV32@@Z 1003dbe0 f i CmVisualization.obj
 0001:0003ce20       ?contactCapsuleMesh@Gu@physx@@YA_NABVGeometryUnion@12@0ABVPxTransform@2@1ABMAAUCache@12@AAVContactBuffer@12@@Z 1003de20 f   GuContactCapsuleMesh.obj
 0001:0003cfd0       ?contactCapsuleHeightfield@Gu@physx@@YA_NABVGeometryUnion@12@0ABVPxTransform@2@1ABMAAUCache@12@AAVContactBuffer@12@@Z 1003dfd0 f   GuContactCapsuleMesh.obj
 0001:0003eb20       ??$PX_UNUSED@I@@YAXABI@Z   1003fb20 f i GuContactCapsuleMesh.obj
 0001:0003eb30       ??$PX_UNUSED@M@@YAXABM@Z   1003fb30 f i GuContactCapsuleMesh.obj
 0001:0003eb40       ??$PX_UNUSED@UCache@Gu@physx@@@@YAXABUCache@Gu@physx@@@Z 1003fb40 f i GuContactCapsuleMesh.obj
 0001:0003eb50       ??$PX_UNUSED@VGeometryUnion@Gu@physx@@@@YAXABVGeometryUnion@Gu@physx@@@Z 1003fb50 f i GuContactCapsuleMesh.obj
 0001:0003eb60       ??$checkType@$$CBUPxHeightFieldGeometryLL@physx@@@physx@@YAXABVGeometryUnion@Gu@0@@Z 1003fb60 f i GuContactCapsuleMesh.obj
 0001:0003ebe0       ??$checkType@$$CBUPxTriangleMeshGeometryLL@physx@@@physx@@YAXABVGeometryUnion@Gu@0@@Z 1003fbe0 f i GuContactCapsuleMesh.obj
 0001:0003ec60       ??$checkType@$$CBVPxCapsuleGeometry@physx@@@physx@@YAXABVGeometryUnion@Gu@0@@Z 1003fc60 f i GuContactCapsuleMesh.obj
 0001:0003ece0       ??$get@$$CBUPxHeightFieldGeometryLL@physx@@@GeometryUnion@Gu@physx@@QBEABUPxHeightFieldGeometryLL@2@XZ 1003fce0 f i GuContactCapsuleMesh.obj
 0001:0003ed00       ??$get@$$CBUPxTriangleMeshGeometryLL@physx@@@GeometryUnion@Gu@physx@@QBEABUPxTriangleMeshGeometryLL@2@XZ 1003fd00 f i GuContactCapsuleMesh.obj
 0001:0003ed20       ??$get@$$CBVPxCapsuleGeometry@physx@@@GeometryUnion@Gu@physx@@QBEABVPxCapsuleGeometry@2@XZ 1003fd20 f i GuContactCapsuleMesh.obj
 0001:0003ed40       ??$memFetch@E@Cm@physx@@YAEII@Z 1003fd40 f i GuContactCapsuleMesh.obj
 0001:0003ed50       ??$memFetchAsync@UIndexTriple16@MeshInterface@Gu@physx@@@Cm@physx@@YAPAUIndexTriple16@MeshInterface@Gu@1@IIAAUMemFetchSmallBuffer@01@@Z 1003fd50 f i GuContactCapsuleMesh.obj
 0001:0003ed60       ??$memFetchAsync@UIndexTriple32@MeshInterface@Gu@physx@@@Cm@physx@@YAPAUIndexTriple32@MeshInterface@Gu@1@IIAAUMemFetchSmallBuffer@01@@Z 1003fd60 f i GuContactCapsuleMesh.obj
 0001:0003ed70       ??$memFetchAsync@VPxVec3@physx@@@Cm@physx@@YAPAVPxVec3@1@IIAAUMemFetchSmallBuffer@01@@Z 1003fd70 f i GuContactCapsuleMesh.obj
 0001:0003ed80       ??$swap@M@shdfnd@physx@@YAXAAM0@Z 1003fd80 f i GuContactCapsuleMesh.obj
 0001:0003edc0       ??0?$EntityReport@I@Gu@physx@@QAE@XZ 1003fdc0 f i GuContactCapsuleMesh.obj
 0001:0003ede0       ??0?$MeshHitCallback@UPxRaycastHit@physx@@@Gu@physx@@QAE@W4Enum@CallbackMode@12@@Z 1003fde0 f i GuContactCapsuleMesh.obj
 0001:0003ee10       ??0?$PxFlags@W4Enum@PxBaseFlag@physx@@G@physx@@QAE@ABV01@@Z 1003fe10 f i GuContactCapsuleMesh.obj
 0001:0003ee40       ??0?$PxFlags@W4Enum@PxHeightFieldFlag@physx@@G@physx@@QAE@ABV01@@Z 1003fe40 f i GuContactCapsuleMesh.obj
 0001:0003ee70       ??0?$PxFlags@W4Enum@PxHeightFieldFlag@physx@@G@physx@@QAE@ABW4PxEMPTY@1@@Z 1003fe70 f i GuContactCapsuleMesh.obj
 0001:0003ee90       ??0?$PxFlags@W4Enum@PxHeightFieldFlag@physx@@G@physx@@QAE@XZ 1003fe90 f i GuContactCapsuleMesh.obj
 0001:0003eeb0       ??0Box@Gu@physx@@QAE@ABV012@@Z 1003feb0 f i GuContactCapsuleMesh.obj
 0001:0003ef20       ??0Box@Gu@physx@@QAE@ABVPxVec3@2@0ABVPxMat33@2@@Z 1003ff20 f i GuContactCapsuleMesh.obj
 0001:0003ef90       ??0Box@Gu@physx@@QAE@XZ    1003ff90 f i GuContactCapsuleMesh.obj
 0001:0003efd0       ??0Capsule@Gu@physx@@QAE@ABVSegment@12@M@Z 1003ffd0 f i GuContactCapsuleMesh.obj
 0001:0003f010       ??0FastVertex2ShapeScaling@Cm@physx@@QAE@XZ 10040010 f i GuContactCapsuleMesh.obj
 0001:0003f070       ??0GeometryUnion@Gu@physx@@QAE@ABW4PxEMPTY@2@@Z 10040070 f i GuContactCapsuleMesh.obj
 0001:0003f090       ??0GeometryUnion@Gu@physx@@QAE@XZ 10040090 f i GuContactCapsuleMesh.obj
 0001:0003f0c0       ??0HeightFieldData@Gu@physx@@QAE@$$QAU012@@Z 100400c0 f i GuContactCapsuleMesh.obj
 0001:0003f1e0       ??0HeightFieldData@Gu@physx@@QAE@ABU012@@Z 100401e0 f i GuContactCapsuleMesh.obj
 0001:0003f300       ??0HeightFieldData@Gu@physx@@QAE@ABW4PxEMPTY@2@@Z 10040300 f i GuContactCapsuleMesh.obj
 0001:0003f350       ??0HeightFieldData@Gu@physx@@QAE@XZ 10040350 f i GuContactCapsuleMesh.obj
 0001:0003f380       ??0HeightFieldUtil@Gu@physx@@QAE@ABVPxHeightFieldGeometry@2@@Z 10040380 f i GuContactCapsuleMesh.obj
 0001:0003f3c0       ??0HeightFieldUtil@Gu@physx@@QAE@ABVPxHeightFieldGeometry@2@ABVHeightField@12@@Z 100403c0 f i GuContactCapsuleMesh.obj
 0001:0003f400       ??0HeightFieldUtil@Gu@physx@@QAE@XZ 10040400 f i GuContactCapsuleMesh.obj
 0001:0003f420       ??0InvalidGeometry@Gu@physx@@QAE@XZ 10040420 f i GuContactCapsuleMesh.obj
 0001:0003f440       ??0MaterialIndicesStruct@physx@@QAE@ABW4PxEMPTY@1@@Z 10040440 f i GuContactCapsuleMesh.obj
 0001:0003f460       ??0MaterialIndicesStruct@physx@@QAE@XZ 10040460 f i GuContactCapsuleMesh.obj
 0001:0003f490       ??0Matrix34@Cm@physx@@QAE@ABVPxTransform@2@@Z 10040490 f i GuContactCapsuleMesh.obj
 0001:0003f500       ??0PxBounds3@physx@@QAE@$$QAV01@@Z 10040500 f i GuContactCapsuleMesh.obj
 0001:0003f550       ??0PxBounds3@physx@@QAE@ABV01@@Z 10040550 f i GuContactCapsuleMesh.obj
 0001:0003f5a0       ??0PxBounds3@physx@@QAE@ABVPxVec3@1@0@Z 100405a0 f i GuContactCapsuleMesh.obj
 0001:0003f5f0       ??0PxBounds3@physx@@QAE@XZ 100405f0 f i GuContactCapsuleMesh.obj
 0001:0003f620       ??0PxGeometry@physx@@IAE@W4Enum@PxGeometryType@1@@Z 10040620 f i GuContactCapsuleMesh.obj
 0001:0003f640       ??0PxMat33@physx@@QAE@ABV01@@Z 10040640 f i GuContactCapsuleMesh.obj
 0001:0003f6b0       ??0PxMat33@physx@@QAE@W4PxIDENTITY@1@@Z 100406b0 f i GuContactCapsuleMesh.obj
 0001:0003f790       ??0PxPlane@physx@@QAE@ABVPxVec3@1@00@Z 10040790 f i GuContactCapsuleMesh.obj
 0001:0003f840       ??0PxQuat@physx@@QAE@ABVPxMat33@1@@Z 10040840 f i GuContactCapsuleMesh.obj
 0001:00040130       ??0PxTriangle@physx@@QAE@XZ 10041130 f i GuContactCapsuleMesh.obj
 0001:00040160       ??0RTree@Gu@physx@@QAE@ABU012@@Z 10041160 f i GuContactCapsuleMesh.obj
 0001:00040260       ??0RTreeMidphase@Gu@physx@@QAE@ABV012@@Z 10041260 f i GuContactCapsuleMesh.obj
 0001:000402b0       ??0RTreeMidphase@Gu@physx@@QAE@ABW4PxEMPTY@2@@Z 100412b0 f i GuContactCapsuleMesh.obj
 0001:000402f0       ??0Segment@Gu@physx@@QAE@ABV012@@Z 100412f0 f i GuContactCapsuleMesh.obj
 0001:00040340       ??0Segment@Gu@physx@@QAE@ABVPxVec3@2@0@Z 10041340 f i GuContactCapsuleMesh.obj
 0001:00040390       ??0Segment@Gu@physx@@QAE@XZ 10041390 f i GuContactCapsuleMesh.obj
 0001:000403c0       ??1?$EntityReport@I@Gu@physx@@UAE@XZ 100413c0 f i GuContactCapsuleMesh.obj
 0001:000403e0       ??1?$MeshHitCallback@UPxRaycastHit@physx@@@Gu@physx@@UAE@XZ 100413e0 f i GuContactCapsuleMesh.obj
 0001:00040400       ??1Box@Gu@physx@@QAE@XZ    10041400 f i GuContactCapsuleMesh.obj
 0001:00040410       ??1Capsule@Gu@physx@@QAE@XZ 10041410 f i GuContactCapsuleMesh.obj
 0001:00040430       ??1MaterialIndicesStruct@physx@@QAE@XZ 10041430 f i GuContactCapsuleMesh.obj
 0001:00040440       ??1PxBase@physx@@MAE@XZ    10041440 f i GuContactCapsuleMesh.obj
 0001:00040460       ??1PxHeightField@physx@@MAE@XZ 10041460 f i GuContactCapsuleMesh.obj
 0001:00040490       ??1PxTriangle@physx@@QAE@XZ 10041490 f i GuContactCapsuleMesh.obj
 0001:000404a0       ??1PxTriangleMesh@physx@@MAE@XZ 100414a0 f i GuContactCapsuleMesh.obj
 0001:000404d0       ??1RTree@Gu@physx@@QAE@XZ  100414d0 f i GuContactCapsuleMesh.obj
 0001:000404f0       ??1Segment@Gu@physx@@QAE@XZ 100414f0 f i GuContactCapsuleMesh.obj
 0001:00040500       ??4?$PxFlags@W4Enum@PxHeightFieldFlag@physx@@G@physx@@QAEAAV01@ABV01@@Z 10041500 f i GuContactCapsuleMesh.obj
 0001:00040530       ??4Box@Gu@physx@@QAEABV012@ABV012@@Z 10041530 f i GuContactCapsuleMesh.obj
 0001:00040580       ??4GeometryUnion@Gu@physx@@QAEAAV012@$$QAV012@@Z 10041580 f i GuContactCapsuleMesh.obj
 0001:000405b0       ??4GeometryUnion@Gu@physx@@QAEAAV012@ABV012@@Z 100415b0 f i GuContactCapsuleMesh.obj
 0001:000405e0       ??4HeightFieldData@Gu@physx@@QAEAAU012@$$QAU012@@Z 100415e0 f i GuContactCapsuleMesh.obj
 0001:000406f0       ??4HeightFieldData@Gu@physx@@QAEAAU012@ABU012@@Z 100416f0 f i GuContactCapsuleMesh.obj
 0001:00040800       ??4HeightFieldUtil@Gu@physx@@QAEAAV012@$$QAV012@@Z 10041800 f i GuContactCapsuleMesh.obj
 0001:00040860       ??4HeightFieldUtil@Gu@physx@@QAEAAV012@ABV012@@Z 10041860 f i GuContactCapsuleMesh.obj
 0001:000408a0       ??4MaterialIndicesStruct@physx@@QAEAAU01@ABU01@@Z 100418a0 f i GuContactCapsuleMesh.obj
 0001:000408d0       ??4MeshInterface@Gu@physx@@QAEAAV012@ABV012@@Z 100418d0 f i GuContactCapsuleMesh.obj
 0001:00040910       ??4PxBounds3@physx@@QAEAAV01@$$QAV01@@Z 10041910 f i GuContactCapsuleMesh.obj
 0001:00040950       ??4PxBounds3@physx@@QAEAAV01@ABV01@@Z 10041950 f i GuContactCapsuleMesh.obj
 0001:00040990       ??4RTree@Gu@physx@@QAEAAU012@ABU012@@Z 10041990 f i GuContactCapsuleMesh.obj
 0001:00040a70       ??4RTreeMidphase@Gu@physx@@QAEAAV012@ABV012@@Z 10041a70 f i GuContactCapsuleMesh.obj
 0001:00040ac0       ??APxMat33@physx@@QBEABVPxVec3@1@H@Z 10041ac0 f i GuContactCapsuleMesh.obj
 0001:00040ae0       ??APxVec3@physx@@QBEABMH@Z 10041ae0 f i GuContactCapsuleMesh.obj
 0001:00040b50       ??B?$PxBitAndDataT@E$0IA@@physx@@QBEEXZ 10041b50 f i GuContactCapsuleMesh.obj
 0001:00040b70       ??B?$PxFlags@W4Enum@PxBaseFlag@physx@@G@physx@@QBE_NXZ 10041b70 f i GuContactCapsuleMesh.obj
 0001:00040ba0       ??B?$PxFlags@W4Enum@PxHeightFieldFlag@physx@@G@physx@@QBE_NXZ 10041ba0 f i GuContactCapsuleMesh.obj
 0001:00040bd0       ??DFastVertex2ShapeScaling@Cm@physx@@QBE?AVPxVec3@2@ABV32@@Z 10041bd0 f i GuContactCapsuleMesh.obj
 0001:00040c10       ??DPxMat33@physx@@QBE?AVPxVec3@1@ABV21@@Z 10041c10 f i GuContactCapsuleMesh.obj
 0001:00040c40       ??I?$PxFlags@W4Enum@PxBaseFlag@physx@@G@physx@@QBE?AV01@W4Enum@PxBaseFlag@1@@Z 10041c40 f i GuContactCapsuleMesh.obj
 0001:00040c90       ??I?$PxFlags@W4Enum@PxHeightFieldFlag@physx@@G@physx@@QBE?AV01@W4Enum@PxHeightFieldFlag@1@@Z 10041c90 f i GuContactCapsuleMesh.obj
 0001:00040ce0       ??YPxVec3@physx@@QAEAAV01@ABV01@@Z 10041ce0 f i GuContactCapsuleMesh.obj
 0001:00040d50       ??_EPxHeightField@physx@@MAEPAXI@Z 10041d50 f i GuContactCapsuleMesh.obj
 0001:00040df0       ??_EPxTriangleMesh@physx@@MAEPAXI@Z 10041df0 f i GuContactCapsuleMesh.obj
 0001:00040e90       ??_E?$EntityReport@I@Gu@physx@@UAEPAXI@Z 10041e90 f i GuContactCapsuleMesh.obj
 0001:00040e90       ??_G?$EntityReport@I@Gu@physx@@UAEPAXI@Z 10041e90 f i GuContactCapsuleMesh.obj
 0001:00040ed0       ??_G?$MeshHitCallback@UPxRaycastHit@physx@@@Gu@physx@@UAEPAXI@Z 10041ed0 f i GuContactCapsuleMesh.obj
 0001:00040ed0       ??_E?$MeshHitCallback@UPxRaycastHit@physx@@@Gu@physx@@UAEPAXI@Z 10041ed0 f i GuContactCapsuleMesh.obj
 0001:00040f10       ??_GPxBase@physx@@MAEPAXI@Z 10041f10 f i GuContactCapsuleMesh.obj
 0001:00040f10       ??_EPxBase@physx@@MAEPAXI@Z 10041f10 f i GuContactCapsuleMesh.obj
 0001:00040f50       ??_H@YGXPAXIIP6EPAX0@Z@Z   10041f50 f i GuContactCapsuleMesh.obj
 0001:00040fa0       ?FLoad@aos@shdfnd@physx@@YA?AT__m128@@M@Z 10041fa0 f i GuContactCapsuleMesh.obj
 0001:00040fe0       ?GetMeshInterface@RTreeMidphase@Gu@physx@@QBEPBVMeshInterface@23@XZ 10041fe0 f i GuContactCapsuleMesh.obj
 0001:00041000       ?GetNbTriangles@MeshInterface@Gu@physx@@QBEIXZ 10042000 f i GuContactCapsuleMesh.obj
 0001:00041020       ?GetNbVertices@MeshInterface@Gu@physx@@QBEIXZ 10042020 f i GuContactCapsuleMesh.obj
 0001:00041040       ?GetTriangle@MeshInterface@Gu@physx@@QBEXAAUVertexPointers@23@I@Z 10042040 f i GuContactCapsuleMesh.obj
 0001:000411a0       ?GetTriangleVerts@MeshInterface@Gu@physx@@SAXIIIIAAVPxVec3@3@00@Z 100421a0 f i GuContactCapsuleMesh.obj
 0001:00041340       ?GetTriangleVerts@MeshInterface@Gu@physx@@SAXIIIIAAVPxVec3@3@00AAI11@Z 10042340 f i GuContactCapsuleMesh.obj
 0001:00041500       ?GetTris@MeshInterface@Gu@physx@@QBEPBXXZ 10042500 f i GuContactCapsuleMesh.obj
 0001:00041520       ?GetVerts@MeshInterface@Gu@physx@@QBEPBVPxVec3@3@XZ 10042520 f i GuContactCapsuleMesh.obj
 0001:00041540       ?PxCeil@physx@@YAMM@Z      10042540 f i GuContactCapsuleMesh.obj
 0001:00041560       ?PxFloor@physx@@YAMM@Z     10042560 f i GuContactCapsuleMesh.obj
 0001:00041580       ?SetMeshInterface@RTreeMidphase@Gu@physx@@QAEXPBVMeshInterface@23@@Z 10042580 f i GuContactCapsuleMesh.obj
 0001:000415a0       ?SetNbTriangles@MeshInterface@Gu@physx@@QAEXI@Z 100425a0 f i GuContactCapsuleMesh.obj
 0001:000415c0       ?SetNbVertices@MeshInterface@Gu@physx@@QAEXI@Z 100425c0 f i GuContactCapsuleMesh.obj
 0001:000415e0       ?V3Load@aos@shdfnd@physx@@YA?AT__m128@@M@Z 100425e0 f i GuContactCapsuleMesh.obj
 0001:00041640       ?V4Load@aos@shdfnd@physx@@YA?AT__m128@@M@Z 10042640 f i GuContactCapsuleMesh.obj
 0001:00041680       ?allocate@MaterialIndicesStruct@physx@@QAEXG@Z 10042680 f i GuContactCapsuleMesh.obj
 0001:000416e0       ?basisExtent@PxBounds3@physx@@SA?AV12@ABVPxVec3@2@ABVPxMat33@2@0@Z 100426e0 f i GuContactCapsuleMesh.obj
 0001:00041960       ?ceilUp@HeightFieldUtil@Gu@physx@@SAMM@Z 10042960 f i GuContactCapsuleMesh.obj
 0001:000419d0       ?clipShapeNormalToVertexVoronoi@HeightFieldUtil@Gu@physx@@QBE_NAAVPxVec3@3@III@Z 100429d0 f i GuContactCapsuleMesh.obj
 0001:00042010       ?computeAABBExtent@Box@Gu@physx@@QBE?AVPxVec3@3@XZ 10043010 f i GuContactCapsuleMesh.obj
 0001:00042340       ?computeBarycentricPoint@shdfnd@physx@@YA?AVPxVec3@2@ABV32@00MM@Z 10043340 f i GuContactCapsuleMesh.obj
 0001:00042440       ?computeBounds@GeometryUnion@Gu@physx@@QBE?AVPxBounds3@3@ABVPxTransform@3@@Z 10043440 f i GuContactCapsuleMesh.obj
 0001:000424a0       ?computeBoxPoints@Box@Gu@physx@@QBEXPIAVPxVec3@3@@Z 100434a0 f i GuContactCapsuleMesh.obj
 0001:000424f0       ?computeCenter@Segment@Gu@physx@@QBE?AVPxVec3@3@XZ 100434f0 f i GuContactCapsuleMesh.obj
 0001:00042550       ?computeDirection@Segment@Gu@physx@@QBE?AVPxVec3@3@XZ 10043550 f i GuContactCapsuleMesh.obj
 0001:00042590       ?computePointNormal@HeightFieldUtil@Gu@physx@@QBE?AVPxVec3@3@IABV43@ABVPxTransform@3@MMMMAAM@Z 10043590 f i GuContactCapsuleMesh.obj
 0001:00042690       ?contact@ContactBuffer@Gu@physx@@QAE_NABVPxVec3@3@0MII@Z 10043690 f i GuContactCapsuleMesh.obj
 0001:000427d0       ?createDiagonal@PxMat33@physx@@SA?AV12@ABVPxVec3@2@@Z 100437d0 f i GuContactCapsuleMesh.obj
 0001:000428a0       ?createIdentity@PxMat33@physx@@SA?AV12@XZ 100438a0 f i GuContactCapsuleMesh.obj
 0001:000428c0       ?deallocate@MaterialIndicesStruct@physx@@QAEXXZ 100438c0 f i GuContactCapsuleMesh.obj
 0001:00042910       ?denormalizedNormal@PxTriangle@physx@@QBEXAAVPxVec3@2@@Z 10043910 f i GuContactCapsuleMesh.obj
 0001:000429b0       ?distance@PxPlane@physx@@QBEMABVPxVec3@2@@Z 100439b0 f i GuContactCapsuleMesh.obj
 0001:000429f0       ?distanceSegmentTriangleSquared@Gu@physx@@YAMABVSegment@12@ABVPxVec3@2@11PAM22@Z 100439f0 f i GuContactCapsuleMesh.obj
 0001:00042a40       ?floorDown@HeightFieldUtil@Gu@physx@@SAMM@Z 10043a40 f i GuContactCapsuleMesh.obj
 0001:00042ab0       ?get64BitBasePage@RTree@Gu@physx@@IBEPAURTreePage@23@XZ 10043ab0 f i GuContactCapsuleMesh.obj
 0001:00042ad0       ?getCapsuleSegment@Gu@physx@@YAXABVPxTransform@2@ABVPxCapsuleGeometry@2@AAVSegment@12@@Z 10043ad0 f i GuContactCapsuleMesh.obj
 0001:00042b80       ?getCenter@PxBounds3@physx@@QBE?AVPxVec3@2@XZ 10043b80 f i GuContactCapsuleMesh.obj
 0001:00042c40       ?getConcreteTypeName@PxBase@physx@@UBEPBDXZ 10043c40 f i GuContactCapsuleMesh.obj
 0001:00042c50       ?getConcreteTypeName@PxHeightField@physx@@UBEPBDXZ 10043c50 f i GuContactCapsuleMesh.obj
 0001:00042c70       ?getConcreteTypeName@PxTriangleMesh@physx@@UBEPBDXZ 10043c70 f i GuContactCapsuleMesh.obj
 0001:00042c90       ?getConjugate@PxQuat@physx@@QBE?AV12@XZ 10043c90 f i GuContactCapsuleMesh.obj
 0001:00042d10       ?getConvexEdgeThreshold@HeightField@Gu@physx@@UBEMXZ 10043d10 f i GuContactCapsuleMesh.obj
 0001:00042d30       ?getData@HeightField@Gu@physx@@QBEABUHeightFieldData@23@XZ 10043d30 f i GuContactCapsuleMesh.obj
 0001:00042d50       ?getDeterminant@PxMat33@physx@@QBEMXZ 10043d50 f i GuContactCapsuleMesh.obj
 0001:00042da0       ?getDimensions@PxBounds3@physx@@QBE?AVPxVec3@2@XZ 10043da0 f i GuContactCapsuleMesh.obj
 0001:00042e30       ?getEdgeDirection@HeightFieldUtil@Gu@physx@@QBE?AVPxVec3@3@II@Z 10043e30 f i GuContactCapsuleMesh.obj
 0001:000431f0       ?getExtents@PxBounds3@physx@@QBE?AVPxVec3@2@XZ 100441f0 f i GuContactCapsuleMesh.obj
 0001:000432a0       ?getFeatureIndex@HeightFieldUtil@Gu@physx@@SAII@Z 100442a0 f i GuContactCapsuleMesh.obj
 0001:000432b0       ?getFeatureType@HeightFieldUtil@Gu@physx@@SA?AW4Feature@123@I@Z 100442b0 f i GuContactCapsuleMesh.obj
 0001:000432c0       ?getFlags@HeightField@Gu@physx@@UBE?AV?$PxFlags@W4Enum@PxHeightFieldFlag@physx@@G@3@XZ 100442c0 f i GuContactCapsuleMesh.obj
 0001:000432f0       ?getFormat@HeightField@Gu@physx@@UBE?AW4Enum@PxHeightFieldFormat@3@XZ 100442f0 f i GuContactCapsuleMesh.obj
 0001:00043310       ?getGeometry@GeometryUnion@Gu@physx@@QBEABVPxGeometry@3@XZ 10044310 f i GuContactCapsuleMesh.obj
 0001:00043330       ?getHeight@HeightField@Gu@physx@@QBEMI@Z 10044330 f i GuContactCapsuleMesh.obj
 0001:00043360       ?getHeight@HeightField@Gu@physx@@UBEMMM@Z 10044360 f i GuContactCapsuleMesh.obj
 0001:000433a0       ?getHeightAtShapePoint2@HeightFieldUtil@Gu@physx@@QBEMIMM@Z 100443a0 f i GuContactCapsuleMesh.obj
 0001:00043410       ?getHeightAtShapePoint@HeightFieldUtil@Gu@physx@@QBEMMM@Z 10044410 f i GuContactCapsuleMesh.obj
 0001:00043490       ?getHeightField@HeightFieldUtil@Gu@physx@@QBEABVHeightField@23@XZ 10044490 f i GuContactCapsuleMesh.obj
 0001:000434b0       ?getHeightFieldGeometry@HeightFieldUtil@Gu@physx@@QBEABVPxHeightFieldGeometry@3@XZ 100444b0 f i GuContactCapsuleMesh.obj
 0001:000434d0       ?getHeightInternal2@HeightField@Gu@physx@@QBEMIMM@Z 100444d0 f i GuContactCapsuleMesh.obj
 0001:00043720       ?getHeightInternal@HeightField@Gu@physx@@QBEMMM@Z 10044720 f i GuContactCapsuleMesh.obj
 0001:00043790       ?getInverse@PxMat33@physx@@QBE?AV12@XZ 10044790 f i GuContactCapsuleMesh.obj
 0001:00043f20       ?getMaterialIndex0@HeightField@Gu@physx@@QBEGI@Z 10044f20 f i GuContactCapsuleMesh.obj
 0001:00043f50       ?getMaterialIndex1@HeightField@Gu@physx@@QBEGI@Z 10044f50 f i GuContactCapsuleMesh.obj
 0001:00043f80       ?getNbColumns@HeightField@Gu@physx@@UBEIXZ 10044f80 f i GuContactCapsuleMesh.obj
 0001:00043fa0       ?getNbColumnsFast@HeightField@Gu@physx@@QBEIXZ 10044fa0 f i GuContactCapsuleMesh.obj
 0001:00043fc0       ?getNbRows@HeightField@Gu@physx@@UBEIXZ 10044fc0 f i GuContactCapsuleMesh.obj
 0001:00043fe0       ?getNbRowsFast@HeightField@Gu@physx@@QBEIXZ 10044fe0 f i GuContactCapsuleMesh.obj
 0001:00044000       ?getNodeIdxFromNodeHandle@RTree@Gu@physx@@IBEII@Z 10045000 f i GuContactCapsuleMesh.obj
 0001:00044020       ?getNormalAtShapePoint2@HeightFieldUtil@Gu@physx@@QBE?AVPxVec3@3@IMM@Z 10045020 f i GuContactCapsuleMesh.obj
 0001:000440b0       ?getNormalAtShapePoint@HeightFieldUtil@Gu@physx@@QBE?AVPxVec3@3@MM@Z 100450b0 f i GuContactCapsuleMesh.obj
 0001:00044150       ?getNormal_2@HeightField@Gu@physx@@QBE?AVPxVec3@3@IMMMMM@Z 10045150 f i GuContactCapsuleMesh.obj
 0001:00044460       ?getNormal_@HeightField@Gu@physx@@QBE?AVPxVec3@3@MMMMM@Z 10045460 f i GuContactCapsuleMesh.obj
 0001:00044510       ?getNormalized@PxVec3@physx@@QBE?AV12@XZ 10045510 f i GuContactCapsuleMesh.obj
 0001:000445c0       ?getOneOverColumnScale@HeightFieldUtil@Gu@physx@@QBEMXZ 100455c0 f i GuContactCapsuleMesh.obj
 0001:000445e0       ?getOneOverHeightScale@HeightFieldUtil@Gu@physx@@QBEMXZ 100455e0 f i GuContactCapsuleMesh.obj
 0001:00044600       ?getOneOverRowScale@HeightFieldUtil@Gu@physx@@QBEMXZ 10045600 f i GuContactCapsuleMesh.obj
 0001:00044620       ?getPageFromNodeHandle@RTree@Gu@physx@@IBEPAURTreePage@23@I@Z 10045620 f i GuContactCapsuleMesh.obj
 0001:00044650       ?getPointAt@Segment@Gu@physx@@QBE?AVPxVec3@3@M@Z 10045650 f i GuContactCapsuleMesh.obj
 0001:000446c0       ?getRTreeMidphaseData@RTreeMidphase@Gu@physx@@QBEXAAURTreeMidphaseData@23@@Z 100456c0 f i GuContactCapsuleMesh.obj
 0001:00044700       ?getSample@HeightField@Gu@physx@@QBEABUPxHeightFieldSample@3@I@Z 10045700 f i GuContactCapsuleMesh.obj
 0001:00044780       ?getSampleStride@HeightField@Gu@physx@@UBEIXZ 10045780 f i GuContactCapsuleMesh.obj
 0001:000447a0       ?getThickness@HeightField@Gu@physx@@UBEMXZ 100457a0 f i GuContactCapsuleMesh.obj
 0001:000447c0       ?getTransform@Box@Gu@physx@@QBE?AVPxTransform@3@XZ 100457c0 f i GuContactCapsuleMesh.obj
 0001:00044800       ?getTriangleMaterial@HeightField@Gu@physx@@QBEGI@Z 10045800 f i GuContactCapsuleMesh.obj
 0001:00044860       ?getTriangleMaterialIndex@HeightField@Gu@physx@@UBEGI@Z 10045860 f i GuContactCapsuleMesh.obj
 0001:00044880       ?getTriangleNormal@HeightField@Gu@physx@@UBE?AVPxVec3@3@I@Z 10045880 f i GuContactCapsuleMesh.obj
 0001:000448b0       ?getTriangleNormalInternal@HeightField@Gu@physx@@QBE?AVPxVec3@3@I@Z 100458b0 f i GuContactCapsuleMesh.obj
 0001:00044b20       ?getTriangleVertexIndices@HeightField@Gu@physx@@QBEXIAAI00@Z 10045b20 f i GuContactCapsuleMesh.obj
 0001:00044c50       ?getType@GeometryUnion@Gu@physx@@QBE?AW4Enum@PxGeometryType@3@XZ 10045c50 f i GuContactCapsuleMesh.obj
 0001:00044c70       ?getType@PxGeometry@physx@@QBE?AW4Enum@PxGeometryType@2@XZ 10045c70 f i GuContactCapsuleMesh.obj
 0001:00044c90       ?getVertexNormal@HeightFieldUtil@Gu@physx@@QBE?AVPxVec3@3@I@Z 10045c90 f i GuContactCapsuleMesh.obj
 0001:00044d00       ?has16BitIndices@MeshInterface@Gu@physx@@QBEIXZ 10045d00 f i GuContactCapsuleMesh.obj
 0001:00044d20       ?hf2shapen@HeightFieldUtil@Gu@physx@@QBE?AVPxVec3@3@ABV43@@Z 10045d20 f i GuContactCapsuleMesh.obj
 0001:00044d90       ?hf2shapep@HeightFieldUtil@Gu@physx@@QBE?AVPxVec3@3@ABV43@@Z 10045d90 f i GuContactCapsuleMesh.obj
 0001:00044e10       ?hf2worldn@HeightFieldUtil@Gu@physx@@QBE?AVPxVec3@3@ABVPxTransform@3@ABV43@@Z 10045e10 f i GuContactCapsuleMesh.obj
 0001:00044e60       ?hf2worldp@HeightFieldUtil@Gu@physx@@QBE?AVPxVec3@3@ABVPxTransform@3@ABV43@@Z 10045e60 f i GuContactCapsuleMesh.obj
 0001:00044ea0       ?init@FastVertex2ShapeScaling@Cm@physx@@QAEXABVPxMeshScale@3@@Z 10045ea0 f i GuContactCapsuleMesh.obj
 0001:00044ed0       ?init@FastVertex2ShapeScaling@Cm@physx@@QAEXABVPxVec3@3@ABVPxQuat@3@@Z 10045ed0 f i GuContactCapsuleMesh.obj
 0001:00044fb0       ?initialize@HeightFieldUtil@Gu@physx@@AAEXXZ 10045fb0 f i GuContactCapsuleMesh.obj
 0001:00045190       ?initialize@HeightFieldUtil@Gu@physx@@QAEXABVPxHeightFieldGeometry@3@ABVHeightField@23@@Z 10046190 f i GuContactCapsuleMesh.obj
 0001:000451c0       ?isAlmostZero@shdfnd@physx@@YA_NABVPxVec3@2@@Z 100461c0 f i GuContactCapsuleMesh.obj
 0001:00045270       ?isBitSet@?$PxBitAndDataT@E$0IA@@physx@@QBEEXZ 10046270 f i GuContactCapsuleMesh.obj
 0001:00045290       ?isCollisionVertex@HeightField@Gu@physx@@QBE_NIIIG@Z 10046290 f i GuContactCapsuleMesh.obj
 0001:000452e0       ?isCollisionVertex@HeightFieldUtil@Gu@physx@@QBE_NIII@Z 100462e0 f i GuContactCapsuleMesh.obj
 0001:00045320       ?isFinite@PxBounds3@physx@@QBE_NXZ 10046320 f i GuContactCapsuleMesh.obj
 0001:00045380       ?isFinite@PxTransform@physx@@QBE_NXZ 10046380 f i GuContactCapsuleMesh.obj
 0001:000453e0       ?isFinite@PxVec3@physx@@QBE_NXZ 100463e0 f i GuContactCapsuleMesh.obj
 0001:00045480       ?isFirstTriangle@HeightField@Gu@physx@@QBE_NI@Z 10046480 f i GuContactCapsuleMesh.obj
 0001:000454c0       ?isIdentity@PxMeshScale@physx@@QBE_NXZ 100464c0 f i GuContactCapsuleMesh.obj
 0001:00045540       ?isKindOf@PxBase@physx@@MBE_NPBD@Z 10046540 f i GuContactCapsuleMesh.obj
 0001:00045590       ?isKindOf@PxHeightField@physx@@MBE_NPBD@Z 10046590 f i GuContactCapsuleMesh.obj
 0001:000455f0       ?isKindOf@PxTriangleMesh@physx@@MBE_NPBD@Z 100465f0 f i GuContactCapsuleMesh.obj
 0001:00045650       ?isQueryVertex@HeightFieldUtil@Gu@physx@@QBE_NIII@Z 10046650 f i GuContactCapsuleMesh.obj
 0001:00045780       ?isReleasable@PxBase@physx@@UBE_NXZ 10046780 f i GuContactCapsuleMesh.obj
 0001:000457c0       ?isSane@PxTransform@physx@@QBE_NXZ 100467c0 f i GuContactCapsuleMesh.obj
 0001:00045810       ?isShapePointOnHeightField@HeightFieldUtil@Gu@physx@@QBE_NMM@Z 10046810 f i GuContactCapsuleMesh.obj
 0001:000458e0       ?isValid@Box@Gu@physx@@QBE_NXZ 100468e0 f i GuContactCapsuleMesh.obj
 0001:00045930       ?isValid@PxBounds3@physx@@QBE_NXZ 10046930 f i GuContactCapsuleMesh.obj
 0001:00045a50       ?isValidVertex@HeightField@Gu@physx@@QBE_NI@Z 10046a50 f i GuContactCapsuleMesh.obj
 0001:00045aa0       ?isZerothVertexShared@HeightField@Gu@physx@@QBE_NI@Z 10046aa0 f i GuContactCapsuleMesh.obj
 0001:00045af0       ?makeFatEdge@shdfnd@physx@@YAXAAVPxVec3@2@0M@Z 10046af0 f i GuContactCapsuleMesh.obj
 0001:00045b70       ?makeFeatureCode@HeightFieldUtil@Gu@physx@@SAIIW4Feature@123@@Z 10046b70 f i GuContactCapsuleMesh.obj
 0001:00045b90       ?memFetchWait@Cm@physx@@YAXI@Z 10046b90 f i GuContactCapsuleMesh.obj
 0001:00045ba0       ?normal@PxTriangle@physx@@QBEXAAVPxVec3@2@@Z 10046ba0 f i GuContactCapsuleMesh.obj
 0001:00045c50       ?pagePtrFrom32Bits@RTree@Gu@physx@@KAPAURTreePage@23@I@Z 10046c50 f i GuContactCapsuleMesh.obj
 0001:00045c60       ?pagePtrTo32Bits@RTree@Gu@physx@@KAIPBURTreePage@23@@Z 10046c60 f i GuContactCapsuleMesh.obj
 0001:00045c70       ?rotate@Box@Gu@physx@@QBE?AVPxVec3@3@ABV43@@Z 10046c70 f i GuContactCapsuleMesh.obj
 0001:00045cb0       ?rotate@Matrix34@Cm@physx@@QBE?AVPxVec3@3@ABV43@@Z 10046cb0 f i GuContactCapsuleMesh.obj
 0001:00045d80       ?rotate@PxTransform@physx@@QBE?AVPxVec3@2@ABV32@@Z 10046d80 f i GuContactCapsuleMesh.obj
 0001:00045e10       ?rotateInv@Box@Gu@physx@@QBE?AVPxVec3@3@ABV43@@Z 10046e10 f i GuContactCapsuleMesh.obj
 0001:00045e50       ?rotateInv@PxQuat@physx@@QBE?BVPxVec3@2@ABV32@@Z 10046e50 f i GuContactCapsuleMesh.obj
 0001:00046040       ?set@Matrix34@Cm@physx@@QAEXABVPxQuat@3@@Z 10047040 f i GuContactCapsuleMesh.obj
 0001:00046280       ?setAxes@Box@Gu@physx@@QAEXABVPxVec3@3@00@Z 10047280 f i GuContactCapsuleMesh.obj
 0001:000462d0       ?setEmpty@Box@Gu@physx@@QAEXXZ 100472d0 f i GuContactCapsuleMesh.obj
 0001:00046370       ?shape2hfp@HeightFieldUtil@Gu@physx@@QBE?AVPxVec3@3@ABV43@@Z 10047370 f i GuContactCapsuleMesh.obj
 0001:000463e0       ?tessFlag@PxHeightFieldSample@physx@@QBEEXZ 100473e0 f i GuContactCapsuleMesh.obj
 0001:00046420       ?transform@Box@Gu@physx@@QBE?AVPxVec3@3@ABV43@@Z 10047420 f i GuContactCapsuleMesh.obj
 0001:00046470       ?transform@Matrix34@Cm@physx@@QBE?AVPxVec3@3@ABV43@@Z 10047470 f i GuContactCapsuleMesh.obj
 0001:00046560       ?transform@PxTransform@physx@@QBE?AVPxVec3@2@ABV32@@Z 10047560 f i GuContactCapsuleMesh.obj
 0001:00046610       ?transformFast@PxBounds3@physx@@SA?AV12@ABVPxTransform@2@ABV12@@Z 10047610 f i GuContactCapsuleMesh.obj
 0001:000466e0       ?transformInv@PxTransform@physx@@QBE?AV12@ABV12@@Z 100476e0 f i GuContactCapsuleMesh.obj
 0001:00046830       ?transformInv@PxTransform@physx@@QBE?AVPxVec3@2@ABV32@@Z 10047830 f i GuContactCapsuleMesh.obj
 0001:000468d0       ?transformQueryBounds@FastVertex2ShapeScaling@Cm@physx@@QBEXAAVPxVec3@3@0AAVPxMat33@3@@Z 100478d0 f i GuContactCapsuleMesh.obj
 0001:00046a30       ?transformTranspose@PxMat33@physx@@QBE?AVPxVec3@2@ABV32@@Z 10047a30 f i GuContactCapsuleMesh.obj
 0001:00046ad0       _ceilf                     10047ad0 f i GuContactCapsuleMesh.obj
 0001:00046b00       _floorf                    10047b00 f i GuContactCapsuleMesh.obj
 0001:00046b30       ?contactConvexMesh@Gu@physx@@YA_NABVGeometryUnion@12@0ABVPxTransform@2@1ABMAAUCache@12@AAVContactBuffer@12@@Z 10047b30 f   GuContactConvexMesh.obj
 0001:00046c10       ?contactBoxMesh@Gu@physx@@YA_NABVGeometryUnion@12@0ABVPxTransform@2@1ABMAAUCache@12@AAVContactBuffer@12@@Z 10047c10 f   GuContactConvexMesh.obj
 0001:00046d10       ?contactConvexHeightfield@Gu@physx@@YA_NABVGeometryUnion@12@0ABVPxTransform@2@1ABMAAUCache@12@AAVContactBuffer@12@@Z 10047d10 f   GuContactConvexMesh.obj
 0001:00046de0       ?contactBoxHeightfield@Gu@physx@@YA_NABVGeometryUnion@12@0ABVPxTransform@2@1ABMAAUCache@12@AAVContactBuffer@12@@Z 10047de0 f   GuContactConvexMesh.obj
 0001:0004a7b0       ??$PxMin@I@physx@@YAIII@Z  1004b7b0 f i GuContactConvexMesh.obj
 0001:0004a7e0       ??$checkType@$$CBVPxBoxGeometry@physx@@@physx@@YAXABVGeometryUnion@Gu@0@@Z 1004b7e0 f i GuContactConvexMesh.obj
 0001:0004a860       ??$get@$$CBVPxBoxGeometry@physx@@@GeometryUnion@Gu@physx@@QBEABVPxBoxGeometry@2@XZ 1004b860 f i GuContactConvexMesh.obj
 0001:0004a880       ??0?$CacheMap@UCachedEdge@Gu@physx@@$0IA@@Gu@physx@@QAE@XZ 1004b880 f i GuContactConvexMesh.obj
 0001:0004a900       ??0?$CacheMap@UCachedVertex@Gu@physx@@$0IA@@Gu@physx@@QAE@XZ 1004b900 f i GuContactConvexMesh.obj
 0001:0004a980       ??0CachedEdge@Gu@physx@@QAE@II@Z 1004b980 f i GuContactConvexMesh.obj
 0001:0004a9d0       ??0CachedEdge@Gu@physx@@QAE@XZ 1004b9d0 f i GuContactConvexMesh.obj
 0001:0004a9f0       ??0CachedVertex@Gu@physx@@QAE@I@Z 1004b9f0 f i GuContactConvexMesh.obj
 0001:0004aa10       ??0CachedVertex@Gu@physx@@QAE@XZ 1004ba10 f i GuContactConvexMesh.obj
 0001:0004aa30       ??0ConvexMeshContactGenerationCallback@@QAE@AAVContainer@Gu@physx@@ABVPxTransform@3@1ABUPolygonalData@23@ABVMatrix34@Cm@3@3PBUInternalTriangleMeshData@23@PIBEABVFastVertex2ShapeScaling@73@6M_N7M11AAVContactBuffer@23@ABVBox@23@@Z 1004ba30 f i GuContactConvexMesh.obj
 0001:0004ab20       ??0HullPolygonData@Gu@physx@@QAE@ABU012@@Z 1004bb20 f i GuContactConvexMesh.obj
 0001:0004ab80       ??0Matrix34@Cm@physx@@QAE@ABV012@@Z 1004bb80 f i GuContactConvexMesh.obj
 0001:0004ac20       ??0PolygonalBox@Gu@physx@@QAE@ABV012@@Z 1004bc20 f i GuContactConvexMesh.obj
 0001:0004ac90       ??0PolygonalData@Gu@physx@@QAE@XZ 1004bc90 f i GuContactConvexMesh.obj
 0001:0004acb0       ??0PxPlane@physx@@QAE@ABVPxVec3@1@M@Z 1004bcb0 f i GuContactConvexMesh.obj
 0001:0004acf0       ??0PxPlane@physx@@QAE@XZ   1004bcf0 f i GuContactConvexMesh.obj
 0001:0004ad10       ??0PxTransform@physx@@QAE@ABV01@@Z 1004bd10 f i GuContactConvexMesh.obj
 0001:0004ad60       ??0SeparatingAxes@Gu@physx@@QAE@$$QAV012@@Z 1004bd60 f i GuContactConvexMesh.obj
 0001:0004adb0       ??0SeparatingAxes@Gu@physx@@QAE@ABV012@@Z 1004bdb0 f i GuContactConvexMesh.obj
 0001:0004ae00       ??0SeparatingAxes@Gu@physx@@QAE@XZ 1004be00 f i GuContactConvexMesh.obj
 0001:0004ae40       ??1ConvexMeshContactGenerationCallback@@UAE@XZ 1004be40 f i GuContactConvexMesh.obj
 0001:0004ae60       ??4SeparatingAxes@Gu@physx@@QAEAAV012@$$QAV012@@Z 1004be60 f i GuContactConvexMesh.obj
 0001:0004aed0       ??4SeparatingAxes@Gu@physx@@QAEAAV012@ABV012@@Z 1004bed0 f i GuContactConvexMesh.obj
 0001:0004af40       ??8CachedEdge@Gu@physx@@QBE_NABU012@@Z 1004bf40 f i GuContactConvexMesh.obj
 0001:0004af90       ??8CachedVertex@Gu@physx@@QBE_NABU012@@Z 1004bf90 f i GuContactConvexMesh.obj
 0001:0004afd0       ??AContainer@Gu@physx@@QAEAAII@Z 1004bfd0 f i GuContactConvexMesh.obj
 0001:0004b050       ??AContainer@Gu@physx@@QBEII@Z 1004c050 f i GuContactConvexMesh.obj
 0001:0004b0d0       ??LFastVertex2ShapeScaling@Cm@physx@@QBE?AVPxVec3@2@ABV32@@Z 1004c0d0 f i GuContactConvexMesh.obj
 0001:0004b110       ??_GConvexMeshContactGenerationCallback@@UAEPAXI@Z 1004c110 f i GuContactConvexMesh.obj
 0001:0004b110       ??_EConvexMeshContactGenerationCallback@@UAEPAXI@Z 1004c110 f i GuContactConvexMesh.obj
 0001:0004b150       ??__G@YGXPAX0IIP6EPAX00@Z@Z 1004c150 f i GuContactConvexMesh.obj
 0001:0004b1b0       ?Add@Container@Gu@physx@@QAEAAV123@ABV123@@Z 1004c1b0 f i GuContactConvexMesh.obj
 0001:0004b200       ?Add@Container@Gu@physx@@QAEAAV123@I@Z 1004c200 f i GuContactConvexMesh.obj
 0001:0004b260       ?Add@Container@Gu@physx@@QAEAAV123@M@Z 1004c260 f i GuContactConvexMesh.obj
 0001:0004b2d0       ?Add@Container@Gu@physx@@QAEAAV123@PBII@Z 1004c2d0 f i GuContactConvexMesh.obj
 0001:0004b360       ?Add@Container@Gu@physx@@QAEAAV123@PBMI@Z 1004c360 f i GuContactConvexMesh.obj
 0001:0004b3e0       ?AddUnique@Container@Gu@physx@@QAEAAV123@I@Z 1004c3e0 f i GuContactConvexMesh.obj
 0001:0004b420       ?DeleteIndex@Container@Gu@physx@@QAEXI@Z 1004c420 f i GuContactConvexMesh.obj
 0001:0004b490       ?DeleteLastEntry@Container@Gu@physx@@QAEXXZ 1004c490 f i GuContactConvexMesh.obj
 0001:0004b4c0       ?ForceSize@Container@Gu@physx@@QAEXI@Z 1004c4c0 f i GuContactConvexMesh.obj
 0001:0004b4e0       ?GetEntries@Container@Gu@physx@@QBEPAIXZ 1004c4e0 f i GuContactConvexMesh.obj
 0001:0004b500       ?GetEntry@Container@Gu@physx@@QBEII@Z 1004c500 f i GuContactConvexMesh.obj
 0001:0004b520       ?GetFirst@Container@Gu@physx@@QBEIXZ 1004c520 f i GuContactConvexMesh.obj
 0001:0004b550       ?GetGrowthFactor@Container@Gu@physx@@QBEMXZ 1004c550 f i GuContactConvexMesh.obj
 0001:0004b570       ?GetLast@Container@Gu@physx@@QBEIXZ 1004c570 f i GuContactConvexMesh.obj
 0001:0004b5a0       ?GetMaxNbEntries@Container@Gu@physx@@QBEIXZ 1004c5a0 f i GuContactConvexMesh.obj
 0001:0004b5c0       ?GetNbEntries@Container@Gu@physx@@QBEIXZ 1004c5c0 f i GuContactConvexMesh.obj
 0001:0004b5e0       ?IsFull@Container@Gu@physx@@QBE_NXZ 1004c5e0 f i GuContactConvexMesh.obj
 0001:0004b620       ?IsNotEmpty@Container@Gu@physx@@QBEHXZ 1004c620 f i GuContactConvexMesh.obj
 0001:0004b640       ?Reserve@Container@Gu@physx@@QAEPAII@Z 1004c640 f i GuContactConvexMesh.obj
 0001:0004b6c0       ?Reset@Container@Gu@physx@@QAEXXZ 1004c6c0 f i GuContactConvexMesh.obj
 0001:0004b6f0       ?SetGrowthFactor@Container@Gu@physx@@QAEXM@Z 1004c6f0 f i GuContactConvexMesh.obj
 0001:0004b730       ?addData@?$CacheMap@UCachedEdge@Gu@physx@@$0IA@@Gu@physx@@QAE_NABUCachedEdge@23@@Z 1004c730 f i GuContactConvexMesh.obj
 0001:0004b8c0       ?addData@?$CacheMap@UCachedVertex@Gu@physx@@$0IA@@Gu@physx@@QAE_NABUCachedVertex@23@@Z 1004c8c0 f i GuContactConvexMesh.obj
 0001:0004ba40       ?contains@?$CacheMap@UCachedEdge@Gu@physx@@$0IA@@Gu@physx@@QBE_NABUCachedEdge@23@@Z 1004ca40 f i GuContactConvexMesh.obj
 0001:0004bae0       ?contains@?$CacheMap@UCachedVertex@Gu@physx@@$0IA@@Gu@physx@@QBE_NABUCachedVertex@23@@Z 1004cae0 f i GuContactConvexMesh.obj
 0001:0004bb80       ?copyPlane@Gu@physx@@YAXPIAVPxPlane@2@PIBUHullPolygonData@12@@Z 1004cb80 f i GuContactConvexMesh.obj
 0001:0004bbc0       ?getAxes@SeparatingAxes@Gu@physx@@QBEPBVPxVec3@3@XZ 1004cbc0 f i GuContactConvexMesh.obj
 0001:0004bbe0       ?getHashCode@CachedEdge@Gu@physx@@QBEIXZ 1004cbe0 f i GuContactConvexMesh.obj
 0001:0004bc10       ?getHashCode@CachedVertex@Gu@physx@@QBEIXZ 1004cc10 f i GuContactConvexMesh.obj
 0001:0004bc30       ?getMax@HullPolygonData@Gu@physx@@QBEMXZ 1004cc30 f i GuContactConvexMesh.obj
 0001:0004bc60       ?getMin@HullPolygonData@Gu@physx@@QBEMPIBVPxVec3@3@@Z 1004cc60 f i GuContactConvexMesh.obj
 0001:0004bca0       ?getNumAxes@SeparatingAxes@Gu@physx@@QBEIXZ 1004cca0 f i GuContactConvexMesh.obj
 0001:0004bcc0       ?getPolygonVertexRefs@PolygonalData@Gu@physx@@QBEPBEABUHullPolygonData@23@@Z 1004ccc0 f i GuContactConvexMesh.obj
 0001:0004bce0       ?invalidateCache@shdfnd@physx@@YAXPIAXH@Z 1004cce0 f i GuContactConvexMesh.obj
 0001:0004bcf0       ?processHit@ConvexMeshContactGenerationCallback@@UAE_NABUPxRaycastHit@physx@@ABVPxVec3@3@11AAMPBI@Z 1004ccf0 f i GuContactConvexMesh.obj
 0001:0004bf10       ?reset@SeparatingAxes@Gu@physx@@QAEXXZ 1004cf10 f i GuContactConvexMesh.obj
 0001:0004bf30       ?rotateTranspose@Matrix34@Cm@physx@@QBE?AVPxVec3@3@ABV43@@Z 1004cf30 f i GuContactConvexMesh.obj
 0001:0004bfd0       ?to8@shdfnd@physx@@YAEI@Z  1004cfd0 f i GuContactConvexMesh.obj
 0001:0004c030       ?transformPlaneToShapeSpace@FastVertex2ShapeScaling@Cm@physx@@QBEXABVPxVec3@3@MAAV43@AAM@Z 1004d030 f i GuContactConvexMesh.obj
 0001:0004c120       ?findRotationMatrixFromZ@Gu@physx@@YA?AVPxMat33@2@ABVPxVec3@2@@Z 1004d120 f   GuContactPolygonPolygon.obj
 0001:0004c750       ?contactPolygonPolygonExt@Gu@physx@@YA_NIPBVPxVec3@2@PBEABVMatrix34@Cm@2@ABVPxPlane@2@ABVPxMat33@2@I01234ABV32@22IIAAVContactBuffer@12@_N5M@Z 1004d750 f   GuContactPolygonPolygon.obj
 0001:0004e7d0       ??0Matrix34@Cm@physx@@QAE@ABVPxVec3@2@000@Z 1004f7d0 f i GuContactPolygonPolygon.obj
 0001:0004e850       ??4ContactPoint@Gu@physx@@QAEAAU012@ABU012@@Z 1004f850 f i GuContactPolygonPolygon.obj
 0001:0004e910       ??RPxMat33@physx@@QAEAAMII@Z 1004f910 f i GuContactPolygonPolygon.obj
 0001:0004e950       ?EdgeEdgeContactSpecial@@YA_NABVPxVec3@physx@@ABVPxPlane@2@00000AAMAAV12@IIM@Z 1004f950 f i GuContactPolygonPolygon.obj
 0001:0004ebd0       ?PxMemZero@physx@@YAPAXPIAXI@Z 1004fbd0 f i GuContactPolygonPolygon.obj
 0001:0004ebf0       ?closestAxis@shdfnd@physx@@YAIABVPxVec3@2@AAI1@Z 1004fbf0 f i GuContactPolygonPolygon.obj
 0001:0004ecf0       ?contact@ContactBuffer@Gu@physx@@QAEPAUContactPoint@23@XZ 1004fcf0 f i GuContactPolygonPolygon.obj
 0001:0004ed50       ?cross001@shdfnd@physx@@YA?AVPxVec3@2@ABV32@@Z 1004fd50 f i GuContactPolygonPolygon.obj
 0001:0004eda0       ?degToRad@shdfnd@physx@@YAMM@Z 1004fda0 f i GuContactPolygonPolygon.obj
 0001:0004edd0       ?memZero@intrinsics@physx@@YAPAXPIAXI@Z 1004fdd0 f i GuContactPolygonPolygon.obj
 0001:0004edf0       ?pointInTriangle2D@@YA_NMMMMMMMM@Z 1004fdf0 f i GuContactPolygonPolygon.obj
 0001:0004efa0       ?transform2D@@YAXAAM0ABVPxVec3@physx@@ABVMatrix34@Cm@2@@Z 1004ffa0 f i GuContactPolygonPolygon.obj
 0001:0004f060       ?transform2DT@@YAXAAM0ABVPxVec3@physx@@ABVPxMat33@2@@Z 10050060 f i GuContactPolygonPolygon.obj
 0001:0004f0b0       ?transformTranspose@@YA?AVMatrix34@Cm@physx@@ABVPxMat33@3@ABV123@@Z 100500b0 f i GuContactPolygonPolygon.obj
 0001:0004f150       ?transformZ@@YAMABVPxVec3@physx@@ABVMatrix34@Cm@2@@Z 10050150 f i GuContactPolygonPolygon.obj
 0001:0004f210       ?contactSphereMesh@Gu@physx@@YA_NABVGeometryUnion@12@0ABVPxTransform@2@1ABMAAUCache@12@AAVContactBuffer@12@@Z 10050210 f   GuContactSphereMesh.obj
 0001:0004f440       ?contactSphereHeightField@Gu@physx@@YA_NABVGeometryUnion@12@0ABVPxTransform@2@1ABMAAUCache@12@AAVContactBuffer@12@@Z 10050440 f   GuContactSphereMesh.obj
 0001:00050f90       ??$checkType@$$CBVPxSphereGeometry@physx@@@physx@@YAXABVGeometryUnion@Gu@0@@Z 10051f90 f i GuContactSphereMesh.obj
 0001:00051000       ??$get@$$CBVPxSphereGeometry@physx@@@GeometryUnion@Gu@physx@@QBEABVPxSphereGeometry@2@XZ 10052000 f i GuContactSphereMesh.obj
 0001:00051020       ??$median3@USortKey@@$$CBU?$Less@USortKey@@@shdfnd@physx@@@internal@shdfnd@physx@@YAXPAUSortKey@@HHABU?$Less@USortKey@@@12@@Z 10052020 f i GuContactSphereMesh.obj
 0001:00051150       ??$partition@USortKey@@$$CBU?$Less@USortKey@@@shdfnd@physx@@@internal@shdfnd@physx@@YAHPAUSortKey@@HHABU?$Less@USortKey@@@12@@Z 10052150 f i GuContactSphereMesh.obj
 0001:00051330       ??$smallSort@USortKey@@$$CBU?$Less@USortKey@@@shdfnd@physx@@@internal@shdfnd@physx@@YAXPAUSortKey@@HHABU?$Less@USortKey@@@12@@Z 10052330 f i GuContactSphereMesh.obj
 0001:000516d0       ??$swap@USortKey@@@shdfnd@physx@@YAXAAUSortKey@@0@Z 100526d0 f i GuContactSphereMesh.obj
 0001:00051720       ??0?$ScopedPointer@HVTempAllocator@shdfnd@physx@@@shdfnd@physx@@QAE@XZ 10052720 f i GuContactSphereMesh.obj
 0001:00051740       ??0FastVertex2ShapeScaling@Cm@physx@@QAE@ABVPxMeshScale@2@@Z 10052740 f i GuContactSphereMesh.obj
 0001:00051780       ??0TriangleData@@QAE@XZ    10052780 f i GuContactSphereMesh.obj
 0001:000517a0       ??1?$ScopedPointer@HVTempAllocator@shdfnd@physx@@@shdfnd@physx@@QAE@XZ 100527a0 f i GuContactSphereMesh.obj
 0001:000517d0       ??B?$ScopedPointer@HVTempAllocator@shdfnd@physx@@@shdfnd@physx@@QBEPAHXZ 100527d0 f i GuContactSphereMesh.obj
 0001:000517f0       ??MSortKey@@QBE_NABU0@@Z   100527f0 f i GuContactSphereMesh.obj
 0001:00051830       ??R?$Less@USortKey@@@shdfnd@physx@@QBE_NABUSortKey@@0@Z 10052830 f i GuContactSphereMesh.obj
 0001:00051850       ?selectNormal@Gu@physx@@YA_NEMM@Z 10052850 f   GuFeatureCode.obj
 0001:00051a50       ?barycentricCoordinates@Gu@physx@@YAXABT__m128@@00AAT3@@Z 10052a50 f   GuBarycentricCoordinates.obj
 0001:00051b00       ?barycentricCoordinates@Gu@physx@@YAXABT__m128@@000AAT3@1@Z 10052b00 f   GuBarycentricCoordinates.obj
 0001:00051d70       ?barycentricCoordinates@Gu@physx@@YAXABT__m128@@00AAT3@1@Z 10052d70 f   GuBarycentricCoordinates.obj
 0001:00052040       ?FAdd@aos@shdfnd@physx@@YA?AT__m128@@T4@0@Z 10053040 f i GuBarycentricCoordinates.obj
 0001:00052090       ?FDiv@aos@shdfnd@physx@@YA?AT__m128@@T4@0@Z 10053090 f i GuBarycentricCoordinates.obj
 0001:000520e0       ?FIsEq@aos@shdfnd@physx@@YA?AT__m128@@T4@0@Z 100530e0 f i GuBarycentricCoordinates.obj
 0001:00052130       ?FMul@aos@shdfnd@physx@@YA?AT__m128@@T4@0@Z 10053130 f i GuBarycentricCoordinates.obj
 0001:00052180       ?FOne@aos@shdfnd@physx@@YA?AT__m128@@XZ 10053180 f i GuBarycentricCoordinates.obj
 0001:000521d0       ?FRecip@aos@shdfnd@physx@@YA?AT__m128@@T4@@Z 100531d0 f i GuBarycentricCoordinates.obj
 0001:00052220       ?FSel@aos@shdfnd@physx@@YA?AT__m128@@T4@00@Z 10053220 f i GuBarycentricCoordinates.obj
 0001:00052290       ?FSub@aos@shdfnd@physx@@YA?AT__m128@@T4@0@Z 10053290 f i GuBarycentricCoordinates.obj
 0001:000522e0       ?FZero@aos@shdfnd@physx@@YA?AT__m128@@XZ 100532e0 f i GuBarycentricCoordinates.obj
 0001:00052320       ?V3Cross@aos@shdfnd@physx@@YA?AT__m128@@ABUVecCrossV@123@0@Z 10053320 f i GuBarycentricCoordinates.obj
 0001:00052390       ?V3Cross@aos@shdfnd@physx@@YA?AT__m128@@T4@0@Z 10053390 f i GuBarycentricCoordinates.obj
 0001:00052490       ?V3Dot@aos@shdfnd@physx@@YA?AT__m128@@T4@0@Z 10053490 f i GuBarycentricCoordinates.obj
 0001:00052570       ?V3Neg@aos@shdfnd@physx@@YA?AT__m128@@T4@@Z 10053570 f i GuBarycentricCoordinates.obj
 0001:000525c0       ?V3PrepareCross@aos@shdfnd@physx@@YA?AUVecCrossV@123@T__m128@@@Z 100535c0 f i GuBarycentricCoordinates.obj
 0001:00052640       ?V3Sub@aos@shdfnd@physx@@YA?AT__m128@@T4@0@Z 10053640 f i GuBarycentricCoordinates.obj
 0001:00052690       ?addAxis@SeparatingAxes@Gu@physx@@QAE_NABVPxVec3@3@@Z 10053690 f   GuSeparatingAxes.obj
 0001:00052770       ??0BigConvexData@physx@@QAE@XZ 10053770 f   GuBigConvexData.obj
 0001:000527d0       ??1BigConvexData@physx@@QAE@XZ 100537d0 f   GuBigConvexData.obj
 0001:00052870       ?Load@BigConvexData@physx@@QAE_NAAVPxInputStream@2@@Z 10053870 f   GuBigConvexData.obj
 0001:00052990       ?ComputeOffset@BigConvexData@physx@@QBEIABVPxVec3@2@@Z 10053990 f   GuBigConvexData.obj
 0001:000529b0       ?ComputeNearestOffset@BigConvexData@physx@@QBEIABVPxVec3@2@@Z 100539b0 f   GuBigConvexData.obj
 0001:000529d0       ?exportExtraData@BigConvexData@physx@@QAEXAAVPxSerializationContext@2@@Z 100539d0 f   GuBigConvexData.obj
 0001:00052a80       ?importExtraData@BigConvexData@physx@@QAEXAAVPxDeserializationContext@2@@Z 10053a80 f   GuBigConvexData.obj
 0001:00052b00       ?CreateOffsets@BigConvexData@physx@@IAEXXZ 10053b00 f   GuBigConvexData.obj
 0001:00052b70       ?VLoad@BigConvexData@physx@@IAE_NAAVPxInputStream@2@@Z 10053b70 f   GuBigConvexData.obj
 0001:00052f40       ??$readExtraData@E$0BA@@PxDeserializationContext@physx@@QAEPAEI@Z 10053f40 f i GuBigConvexData.obj
 0001:00052f70       ??$readExtraData@E@PxDeserializationContext@physx@@QAEPAEI@Z 10053f70 f i GuBigConvexData.obj
 0001:00052fb0       ??$readExtraData@UValency@Gu@physx@@@PxDeserializationContext@physx@@QAEPAUValency@Gu@1@I@Z 10053fb0 f i GuBigConvexData.obj
 0001:00052ff0       ??0BigConvexData@physx@@QAE@ABW4PxEMPTY@1@@Z 10053ff0 f i GuBigConvexData.obj
 0001:00053010       ??4BigConvexData@physx@@QAEAAV01@ABV01@@Z 10054010 f i GuBigConvexData.obj
 0001:00053040       ?ComputeCubemapNearestOffset@physx@@YAIABVPxVec3@1@I@Z 10054040 f i GuBigConvexData.obj
 0001:00053150       ?ComputeCubemapOffset@physx@@YAIABVPxVec3@1@I@Z 10054150 f i GuBigConvexData.obj
 0001:00053250       ?GetAdjacentVerts@BigConvexData@physx@@QBEPBEXZ 10054250 f i GuBigConvexData.obj
 0001:00053270       ?GetNbNeighbors@BigConvexData@physx@@QBEGI@Z 10054270 f i GuBigConvexData.obj
 0001:00053290       ?GetNbSamples@BigConvexData@physx@@QBEIXZ 10054290 f i GuBigConvexData.obj
 0001:000532b0       ?GetNbVerts@BigConvexData@physx@@QBEIXZ 100542b0 f i GuBigConvexData.obj
 0001:000532d0       ?GetNeighbors@BigConvexData@physx@@QBEPBEI@Z 100542d0 f i GuBigConvexData.obj
 0001:00053300       ?GetOffset@BigConvexData@physx@@QBEGI@Z 10054300 f i GuBigConvexData.obj
 0001:00053330       ?GetSubdiv@BigConvexData@physx@@QBEIXZ 10054330 f i GuBigConvexData.obj
 0001:00053350       ?GetValencies@BigConvexData@physx@@QBEPBUValency@Gu@2@XZ 10054350 f i GuBigConvexData.obj
 0001:00053370       ?GetValency@BigConvexData@physx@@QBEGI@Z 10054370 f i GuBigConvexData.obj
 0001:00053390       ?to16@shdfnd@physx@@YAGI@Z 10054390 f i GuBigConvexData.obj
 0001:000533f0       ?getScaledConvex@Gu@physx@@YAXAAPAVPxVec3@2@AAPAEPAV32@PAE_NPBV32@PBEIABVFastVertex2ShapeScaling@Cm@2@@Z 100543f0 f   GuConvexHelper.obj
 0001:00053490       ?getConvexData@Gu@physx@@YA_NABVGeometryUnion@12@AAVFastVertex2ShapeScaling@Cm@2@AAVPxBounds3@2@AAUPolygonalData@12@@Z 10054490 f   GuConvexHelper.obj
 0001:00053570       ?findUniqueConvexEdges@Gu@physx@@YAIIPIAUConvexEdge@12@IPIBUHullPolygonData@12@PIBE@Z 10054570 f   GuConvexHelper.obj
 0001:00053810       ??$checkType@$$CBUPxConvexMeshGeometryLL@physx@@@physx@@YAXABVGeometryUnion@Gu@0@@Z 10054810 f i GuConvexHelper.obj
 0001:00053890       ??$get@$$CBUPxConvexMeshGeometryLL@physx@@@GeometryUnion@Gu@physx@@QBEABUPxConvexMeshGeometryLL@2@XZ 10054890 f i GuConvexHelper.obj
 0001:000538b0       ?getVertex2ShapeSkew@FastVertex2ShapeScaling@Cm@physx@@QBEABVPxMat33@3@XZ 100548b0 f i GuConvexHelper.obj
 0001:000538d0       ?isEmpty@PxBounds3@physx@@QBE_NXZ 100548d0 f i GuConvexHelper.obj
 0001:00053970       ?reset@InternalObjectsData@Gu@physx@@QAEXXZ 10054970 f i GuConvexHelper.obj
 0001:000539e0       ?transformFast@PxBounds3@physx@@SA?AV12@ABVPxMat33@2@ABV12@@Z 100549e0 f i GuConvexHelper.obj
 0001:00053aa0       ?exportExtraData@ConvexMesh@Gu@physx@@UAEXAAVPxSerializationContext@3@@Z 10054aa0 f   GuConvexMesh.obj
 0001:00053b50       ?importExtraData@ConvexMesh@Gu@physx@@QAEXAAVPxDeserializationContext@3@@Z 10054b50 f   GuConvexMesh.obj
 0001:00053c00       ?onRefCountZero@ConvexMesh@Gu@physx@@UAEXXZ 10054c00 f   GuConvexMesh.obj
 0001:00053c90       ?createObject@ConvexMesh@Gu@physx@@SAPAV123@AAPAEAAVPxDeserializationContext@3@@Z 10054c90 f   GuConvexMesh.obj
 0001:00053d10       ??0ConvexMesh@Gu@physx@@QAE@XZ 10054d10 f   GuConvexMesh.obj
 0001:00053dc0       ?load@ConvexMesh@Gu@physx@@QAE_NAAVPxInputStream@3@@Z 10054dc0 f   GuConvexMesh.obj
 0001:00054160       ?release@ConvexMesh@Gu@physx@@UAEXXZ 10055160 f   GuConvexMesh.obj
 0001:000541b0       ?getPolygonData@ConvexMesh@Gu@physx@@UBE_NIAAUPxHullPolygon@3@@Z 100551b0 f   GuConvexMesh.obj
 0001:00054250       ?getReferenceCount@ConvexMesh@Gu@physx@@UBEIXZ 10055250 f   GuConvexMesh.obj
 0001:00054270       ?getMassInformation@ConvexMesh@Gu@physx@@UBEXAAMAAVPxMat33@3@AAVPxVec3@3@@Z 10055270 f   GuConvexMesh.obj
 0001:000542b0       ??1ConvexMesh@Gu@physx@@UAE@XZ 100552b0 f   GuConvexMesh.obj
 0001:00054370       ?debugVisualize@ConvexMesh@Gu@physx@@QBEXAAVRenderOutput@Cm@3@ABVMatrix34@53@ABVPxBounds3@3@_KMI@Z 10055370 f   GuConvexMesh.obj
 0001:00054e50       ??$PX_UNUSED@G@@YAXABG@Z   10055e50 f i GuConvexMesh.obj
 0001:00054e60       ??$deletePxBase@VConvexMesh@Gu@physx@@@Cm@physx@@YAXPAVConvexMesh@Gu@1@@Z 10055e60 f i GuConvexMesh.obj
 0001:00054f00       ??$readExtraData@VBigConvexData@physx@@$0BA@@PxDeserializationContext@physx@@QAEPAVBigConvexData@1@I@Z 10055f00 f i GuConvexMesh.obj
 0001:00054f30       ??$readExtraData@VBigConvexData@physx@@@PxDeserializationContext@physx@@QAEPAVBigConvexData@1@I@Z 10055f30 f i GuConvexMesh.obj
 0001:00054f70       ??0?$Array@PAVGuMeshFactoryListener@physx@@VNamedAllocator@shdfnd@2@@shdfnd@physx@@QAE@ABVNamedAllocator@12@@Z 10055f70 f i GuConvexMesh.obj
 0001:00054fc0       ??0?$CoalescedHashSet@PAVConvexMesh@Gu@physx@@U?$Hash@PAVConvexMesh@Gu@physx@@@shdfnd@3@VAllocator@53@@shdfnd@physx@@QAE@IM@Z 10055fc0 f i GuConvexMesh.obj
 0001:00054ff0       ??0?$CoalescedHashSet@PAVHeightField@Gu@physx@@U?$Hash@PAVHeightField@Gu@physx@@@shdfnd@3@VAllocator@53@@shdfnd@physx@@QAE@IM@Z 10055ff0 f i GuConvexMesh.obj
 0001:00055020       ??0?$CoalescedHashSet@PAVTriangleMesh@Gu@physx@@U?$Hash@PAVTriangleMesh@Gu@physx@@@shdfnd@3@VAllocator@53@@shdfnd@physx@@QAE@IM@Z 10056020 f i GuConvexMesh.obj
 0001:00055050       ??0?$HashBase@PAVConvexMesh@Gu@physx@@PAV123@U?$Hash@PAVConvexMesh@Gu@physx@@@shdfnd@3@UGetKey@?$HashSetBase@PAVConvexMesh@Gu@physx@@U?$Hash@PAVConvexMesh@Gu@physx@@@shdfnd@3@VAllocator@53@$00@internal@53@VAllocator@53@$00@internal@shdfnd@physx@@QAE@IM@Z 10056050 f i GuConvexMesh.obj
 0001:000550a0       ??0?$HashBase@PAVHeightField@Gu@physx@@PAV123@U?$Hash@PAVHeightField@Gu@physx@@@shdfnd@3@UGetKey@?$HashSetBase@PAVHeightField@Gu@physx@@U?$Hash@PAVHeightField@Gu@physx@@@shdfnd@3@VAllocator@53@$00@internal@53@VAllocator@53@$00@internal@shdfnd@physx@@QAE@IM@Z 100560a0 f i GuConvexMesh.obj
 0001:000550f0       ??0?$HashBase@PAVTriangleMesh@Gu@physx@@PAV123@U?$Hash@PAVTriangleMesh@Gu@physx@@@shdfnd@3@UGetKey@?$HashSetBase@PAVTriangleMesh@Gu@physx@@U?$Hash@PAVTriangleMesh@Gu@physx@@@shdfnd@3@VAllocator@53@$00@internal@53@VAllocator@53@$00@internal@shdfnd@physx@@QAE@IM@Z 100560f0 f i GuConvexMesh.obj
 0001:00055140       ??0?$HashSetBase@PAVConvexMesh@Gu@physx@@U?$Hash@PAVConvexMesh@Gu@physx@@@shdfnd@3@VAllocator@53@$00@internal@shdfnd@physx@@QAE@IM@Z 10056140 f i GuConvexMesh.obj
 0001:00055180       ??0?$HashSetBase@PAVHeightField@Gu@physx@@U?$Hash@PAVHeightField@Gu@physx@@@shdfnd@3@VAllocator@53@$00@internal@shdfnd@physx@@QAE@IM@Z 10056180 f i GuConvexMesh.obj
 0001:000551c0       ??0?$HashSetBase@PAVTriangleMesh@Gu@physx@@U?$Hash@PAVTriangleMesh@Gu@physx@@@shdfnd@3@VAllocator@53@$00@internal@shdfnd@physx@@QAE@IM@Z 100561c0 f i GuConvexMesh.obj
 0001:00055200       ??0?$PxBitAndDataT@I$0IAAAAAAA@@physx@@QAE@ABW4PxEMPTY@1@@Z 10056200 f i GuConvexMesh.obj
 0001:00055220       ??0?$PxBitAndDataT@I$0IAAAAAAA@@physx@@QAE@I_N@Z 10056220 f i GuConvexMesh.obj
 0001:00055270       ??0?$PxFlags@W4Enum@PxBaseFlag@physx@@G@physx@@QAE@W4Enum@PxBaseFlag@1@@Z 10056270 f i GuConvexMesh.obj
 0001:00055290       ??0?$PxFlags@W4Enum@PxBaseFlag@physx@@G@physx@@QAE@XZ 10056290 f i GuConvexMesh.obj
 0001:000552b0       ??0?$ReflectionAllocator@VBigConvexData@physx@@@shdfnd@physx@@QAE@PBD@Z 100562b0 f i GuConvexMesh.obj
 0001:000552d0       ??0ConvexHullData@Gu@physx@@QAE@XZ 100562d0 f i GuConvexMesh.obj
 0001:00055300       ??0ConvexMesh@Gu@physx@@QAE@V?$PxFlags@W4Enum@PxBaseFlag@physx@@G@2@@Z 10056300 f i GuConvexMesh.obj
 0001:000553c0       ??0GuMeshFactory@physx@@QAE@XZ 100563c0 f i GuConvexMesh.obj
 0001:000554b0       ??0PxBase@physx@@IAE@GV?$PxFlags@W4Enum@PxBaseFlag@physx@@G@1@@Z 100564b0 f i GuConvexMesh.obj
 0001:00055500       ??0PxBase@physx@@IAE@V?$PxFlags@W4Enum@PxBaseFlag@physx@@G@1@@Z 10056500 f i GuConvexMesh.obj
 0001:00055540       ??0PxConvexMesh@physx@@IAE@GV?$PxFlags@W4Enum@PxBaseFlag@physx@@G@1@@Z 10056540 f i GuConvexMesh.obj
 0001:00055580       ??0PxConvexMesh@physx@@IAE@V?$PxFlags@W4Enum@PxBaseFlag@physx@@G@1@@Z 10056580 f i GuConvexMesh.obj
 0001:000555c0       ??0RefCountable@Cm@physx@@QAE@ABW4PxEMPTY@2@@Z 100565c0 f i GuConvexMesh.obj
 0001:000555f0       ??0RefCountable@Cm@physx@@QAE@I@Z 100565f0 f i GuConvexMesh.obj
 0001:00055670       ??1PxConvexMesh@physx@@MAE@XZ 10056670 f i GuConvexMesh.obj
 0001:000556a0       ??1RefCountable@Cm@physx@@UAE@XZ 100566a0 f i GuConvexMesh.obj
 0001:000556c0       ??B?$PxBitAndDataT@I$0IAAAAAAA@@physx@@QBEIXZ 100566c0 f i GuConvexMesh.obj
 0001:000556e0       ??R?$Hash@PAVConvexMesh@Gu@physx@@@shdfnd@physx@@QBEIABQAVConvexMesh@Gu@2@@Z 100566e0 f i GuConvexMesh.obj
 0001:00055710       ??R?$Hash@PAVHeightField@Gu@physx@@@shdfnd@physx@@QBEIABQAVHeightField@Gu@2@@Z 10056710 f i GuConvexMesh.obj
 0001:00055740       ??R?$Hash@PAVTriangleMesh@Gu@physx@@@shdfnd@physx@@QBEIABQAVTriangleMesh@Gu@2@@Z 10056740 f i GuConvexMesh.obj
 0001:00055770       ??RGetKey@?$HashSetBase@PAVConvexMesh@Gu@physx@@U?$Hash@PAVConvexMesh@Gu@physx@@@shdfnd@3@VAllocator@53@$00@internal@shdfnd@physx@@QAEABQAVConvexMesh@Gu@4@ABQAV564@@Z 10056770 f i GuConvexMesh.obj
 0001:00055790       ??RGetKey@?$HashSetBase@PAVHeightField@Gu@physx@@U?$Hash@PAVHeightField@Gu@physx@@@shdfnd@3@VAllocator@53@$00@internal@shdfnd@physx@@QAEABQAVHeightField@Gu@4@ABQAV564@@Z 10056790 f i GuConvexMesh.obj
 0001:000557b0       ??RGetKey@?$HashSetBase@PAVTriangleMesh@Gu@physx@@U?$Hash@PAVTriangleMesh@Gu@physx@@@shdfnd@3@VAllocator@53@$00@internal@shdfnd@physx@@QAEABQAVTriangleMesh@Gu@4@ABQAV564@@Z 100567b0 f i GuConvexMesh.obj
 0001:000557d0       ??S?$PxFlags@W4Enum@PxBaseFlag@physx@@G@physx@@QBE?AV01@XZ 100567d0 f i GuConvexMesh.obj
 0001:00055810       ??Sphysx@@YA?AV?$PxFlags@W4Enum@PxBaseFlag@physx@@G@0@W4Enum@PxBaseFlag@0@@Z 10056810 f i GuConvexMesh.obj
 0001:00055850       ??Uphysx@@YA?AV?$PxFlags@W4Enum@PxBaseFlag@physx@@G@0@W4Enum@PxBaseFlag@0@0@Z 10056850 f i GuConvexMesh.obj
 0001:00055890       ??_4?$PxFlags@W4Enum@PxBaseFlag@physx@@G@physx@@QAEAAV01@ABV01@@Z 10056890 f i GuConvexMesh.obj
 0001:000558c0       ??_5?$PxFlags@W4Enum@PxBaseFlag@physx@@G@physx@@QAEAAV01@W4Enum@PxBaseFlag@1@@Z 100568c0 f i GuConvexMesh.obj
 0001:000558f0       ??_EConvexMesh@Gu@physx@@UAEPAXI@Z 100568f0 f i GuConvexMesh.obj
 0001:000559cf       ??_EConvexMesh@Gu@physx@@W7AEPAXI@Z 100569cf f i GuConvexMesh.obj
 0001:000559e0       ??_EGuMeshFactory@physx@@MAEPAXI@Z 100569e0 f i GuConvexMesh.obj
 0001:00055ac0       ??_EPxConvexMesh@physx@@MAEPAXI@Z 10056ac0 f i GuConvexMesh.obj
 0001:00055b60       ??_GBigConvexData@physx@@QAEPAXI@Z 10056b60 f i GuConvexMesh.obj
 0001:00055bc0       ??_GGuMeshFactory@physx@@MAEPAXI@Z 10056bc0 f i GuConvexMesh.obj
 0001:00055c20       ??_ERefCountable@Cm@physx@@UAEPAXI@Z 10056c20 f i GuConvexMesh.obj
 0001:00055c20       ??_GRefCountable@Cm@physx@@UAEPAXI@Z 10056c20 f i GuConvexMesh.obj
 0001:00055c60       ?ReadDwordBuffer@physx@@YA_NPAII_NAAVPxInputStream@1@@Z 10056c60 f i GuConvexMesh.obj
 0001:00055c90       ?allocate@?$ReflectionAllocator@VBigConvexData@physx@@@shdfnd@physx@@QAEPAXIPBDH@Z 10056c90 f i GuConvexMesh.obj
 0001:00055d00       ?computeBufferSize@Gu@physx@@YAIABUConvexHullData@12@I@Z 10056d00 f i GuConvexMesh.obj
 0001:00055da0       ?contains@PxBounds3@physx@@QBE_NABVPxVec3@2@@Z 10056da0 f i GuConvexMesh.obj
 0001:00055ea0       ?decRefCount@RefCountable@Cm@physx@@QAEXXZ 10056ea0 f i GuConvexMesh.obj
 0001:00055f30       ?flip@physx@@YAXAAG@Z      10056f30 f i GuConvexMesh.obj
 0001:00055fa0       ?flip@physx@@YAXAAM@Z      10056fa0 f i GuConvexMesh.obj
 0001:00056050       ?flipData@Gu@physx@@YAXAAUHullPolygonData@12@@Z 10057050 f i GuConvexMesh.obj
 0001:000560b0       ?freeListAdd@?$HashBase@PAVConvexMesh@Gu@physx@@PAV123@U?$Hash@PAVConvexMesh@Gu@physx@@@shdfnd@3@UGetKey@?$HashSetBase@PAVConvexMesh@Gu@physx@@U?$Hash@PAVConvexMesh@Gu@physx@@@shdfnd@3@VAllocator@53@$00@internal@53@VAllocator@53@$00@internal@shdfnd@physx@@AAEXII@Z 100570b0 f i GuConvexMesh.obj
 0001:000561a0       ?freeListAdd@?$HashBase@PAVHeightField@Gu@physx@@PAV123@U?$Hash@PAVHeightField@Gu@physx@@@shdfnd@3@UGetKey@?$HashSetBase@PAVHeightField@Gu@physx@@U?$Hash@PAVHeightField@Gu@physx@@@shdfnd@3@VAllocator@53@$00@internal@53@VAllocator@53@$00@internal@shdfnd@physx@@AAEXII@Z 100571a0 f i GuConvexMesh.obj
 0001:00056290       ?freeListAdd@?$HashBase@PAVTriangleMesh@Gu@physx@@PAV123@U?$Hash@PAVTriangleMesh@Gu@physx@@@shdfnd@3@UGetKey@?$HashSetBase@PAVTriangleMesh@Gu@physx@@U?$Hash@PAVTriangleMesh@Gu@physx@@@shdfnd@3@VAllocator@53@$00@internal@53@VAllocator@53@$00@internal@shdfnd@physx@@AAEXII@Z 10057290 f i GuConvexMesh.obj
 0001:00056380       ?getBaseFlags@PxBase@physx@@QBE?AV?$PxFlags@W4Enum@PxBaseFlag@physx@@G@2@XZ 10057380 f i GuConvexMesh.obj
 0001:000563b0       ?getBufferSize@ConvexMesh@Gu@physx@@QBEIXZ 100573b0 f i GuConvexMesh.obj
 0001:000563e0       ?getConcreteTypeName@PxConvexMesh@physx@@UBEPBDXZ 100573e0 f i GuConvexMesh.obj
 0001:00056400       ?getHull@ConvexMesh@Gu@physx@@QBEABUConvexHullData@23@XZ 10057400 f i GuConvexMesh.obj
 0001:00056420       ?getHullVertices@ConvexHullData@Gu@physx@@QBEPBVPxVec3@3@XZ 10057420 f i GuConvexMesh.obj
 0001:00056460       ?getIndexBuffer@ConvexMesh@Gu@physx@@UBEPBEXZ 10057460 f i GuConvexMesh.obj
 0001:00056480       ?getInertia@ConvexMesh@Gu@physx@@QBEABVPxMat33@3@XZ 10057480 f i GuConvexMesh.obj
 0001:000564a0       ?getLocalBounds@ConvexMesh@Gu@physx@@UBE?AVPxBounds3@3@XZ 100574a0 f i GuConvexMesh.obj
 0001:00056530       ?getMass@ConvexMesh@Gu@physx@@QBEMXZ 10057530 f i GuConvexMesh.obj
 0001:00056550       ?getName@?$ReflectionAllocator@VBigConvexData@physx@@@shdfnd@physx@@CAPBDXZ 10057550 f i GuConvexMesh.obj
 0001:000565a0       ?getNb@ConvexMesh@Gu@physx@@ABEIXZ 100575a0 f i GuConvexMesh.obj
 0001:000565c0       ?getNbPolygons@ConvexMesh@Gu@physx@@UBEIXZ 100575c0 f i GuConvexMesh.obj
 0001:000565e0       ?getNbPolygonsFast@ConvexMesh@Gu@physx@@QBEIXZ 100575e0 f i GuConvexMesh.obj
 0001:00056600       ?getNbVertices@ConvexMesh@Gu@physx@@UBEIXZ 10057600 f i GuConvexMesh.obj
 0001:00056620       ?getRefCount@RefCountable@Cm@physx@@QBEIXZ 10057620 f i GuConvexMesh.obj
 0001:00056640       ?getVertexData8@ConvexHullData@Gu@physx@@QBEPBEXZ 10057640 f i GuConvexMesh.obj
 0001:000566b0       ?getVertices@ConvexMesh@Gu@physx@@UBEPBVPxVec3@3@XZ 100576b0 f i GuConvexMesh.obj
 0001:000566d0       ?hash@?$HashBase@PAVConvexMesh@Gu@physx@@PAV123@U?$Hash@PAVConvexMesh@Gu@physx@@@shdfnd@3@UGetKey@?$HashSetBase@PAVConvexMesh@Gu@physx@@U?$Hash@PAVConvexMesh@Gu@physx@@@shdfnd@3@VAllocator@53@$00@internal@53@VAllocator@53@$00@internal@shdfnd@physx@@ABEIABQAVConvexMesh@Gu@4@I@Z 100576d0 f i GuConvexMesh.obj
 0001:00056700       ?hash@?$HashBase@PAVHeightField@Gu@physx@@PAV123@U?$Hash@PAVHeightField@Gu@physx@@@shdfnd@3@UGetKey@?$HashSetBase@PAVHeightField@Gu@physx@@U?$Hash@PAVHeightField@Gu@physx@@@shdfnd@3@VAllocator@53@$00@internal@53@VAllocator@53@$00@internal@shdfnd@physx@@ABEIABQAVHeightField@Gu@4@I@Z 10057700 f i GuConvexMesh.obj
 0001:00056730       ?hash@?$HashBase@PAVTriangleMesh@Gu@physx@@PAV123@U?$Hash@PAVTriangleMesh@Gu@physx@@@shdfnd@3@UGetKey@?$HashSetBase@PAVTriangleMesh@Gu@physx@@U?$Hash@PAVTriangleMesh@Gu@physx@@@shdfnd@3@VAllocator@53@$00@internal@53@VAllocator@53@$00@internal@shdfnd@physx@@ABEIABQAVTriangleMesh@Gu@4@I@Z 10057730 f i GuConvexMesh.obj
 0001:00056760       ?init@?$HashBase@PAVConvexMesh@Gu@physx@@PAV123@U?$Hash@PAVConvexMesh@Gu@physx@@@shdfnd@3@UGetKey@?$HashSetBase@PAVConvexMesh@Gu@physx@@U?$Hash@PAVConvexMesh@Gu@physx@@@shdfnd@3@VAllocator@53@$00@internal@53@VAllocator@53@$00@internal@shdfnd@physx@@AAEXIM@Z 10057760 f i GuConvexMesh.obj
 0001:00056810       ?init@?$HashBase@PAVHeightField@Gu@physx@@PAV123@U?$Hash@PAVHeightField@Gu@physx@@@shdfnd@3@UGetKey@?$HashSetBase@PAVHeightField@Gu@physx@@U?$Hash@PAVHeightField@Gu@physx@@@shdfnd@3@VAllocator@53@$00@internal@53@VAllocator@53@$00@internal@shdfnd@physx@@AAEXIM@Z 10057810 f i GuConvexMesh.obj
 0001:000568c0       ?init@?$HashBase@PAVTriangleMesh@Gu@physx@@PAV123@U?$Hash@PAVTriangleMesh@Gu@physx@@@shdfnd@3@UGetKey@?$HashSetBase@PAVTriangleMesh@Gu@physx@@U?$Hash@PAVTriangleMesh@Gu@physx@@@shdfnd@3@VAllocator@53@$00@internal@53@VAllocator@53@$00@internal@shdfnd@physx@@AAEXIM@Z 100578c0 f i GuConvexMesh.obj
 0001:00056970       ?isKindOf@PxConvexMesh@physx@@MBE_NPBD@Z 10057970 f i GuConvexMesh.obj
 0001:000569d0       ?markSerializedMem@Cm@physx@@YAXPAXI@Z 100579d0 f i GuConvexMesh.obj
 0001:00056a10       ?onRefCountZero@RefCountable@Cm@physx@@UAEXXZ 10057a10 f i GuConvexMesh.obj
 0001:00056a60       ?requires@ConvexMesh@Gu@physx@@UAEXAAVPxProcessPxBaseCallback@3@@Z 10057a60 f i GuConvexMesh.obj
 0001:00056a70       ?reserveInternal@?$HashBase@PAVConvexMesh@Gu@physx@@PAV123@U?$Hash@PAVConvexMesh@Gu@physx@@@shdfnd@3@UGetKey@?$HashSetBase@PAVConvexMesh@Gu@physx@@U?$Hash@PAVConvexMesh@Gu@physx@@@shdfnd@3@VAllocator@53@$00@internal@53@VAllocator@53@$00@internal@shdfnd@physx@@AAEXI@Z 10057a70 f i GuConvexMesh.obj
 0001:00056ef0       ?reserveInternal@?$HashBase@PAVHeightField@Gu@physx@@PAV123@U?$Hash@PAVHeightField@Gu@physx@@@shdfnd@3@UGetKey@?$HashSetBase@PAVHeightField@Gu@physx@@U?$Hash@PAVHeightField@Gu@physx@@@shdfnd@3@VAllocator@53@$00@internal@53@VAllocator@53@$00@internal@shdfnd@physx@@AAEXI@Z 10057ef0 f i GuConvexMesh.obj
 0001:00057370       ?reserveInternal@?$HashBase@PAVTriangleMesh@Gu@physx@@PAV123@U?$Hash@PAVTriangleMesh@Gu@physx@@@shdfnd@3@UGetKey@?$HashSetBase@PAVTriangleMesh@Gu@physx@@U?$Hash@PAVTriangleMesh@Gu@physx@@@shdfnd@3@VAllocator@53@$00@internal@53@VAllocator@53@$00@internal@shdfnd@physx@@AAEXI@Z 10058370 f i GuConvexMesh.obj
 0001:000577f0       ?resolveReferences@ConvexMesh@Gu@physx@@QAEXAAVPxDeserializationContext@3@@Z 100587f0 f i GuConvexMesh.obj
 0001:00057800       ?setBit@?$PxBitAndDataT@I$0IAAAAAAA@@physx@@QAEXXZ 10058800 f i GuConvexMesh.obj
 0001:00057830       ?setEmpty@PxBounds3@physx@@QAEXXZ 10058830 f i GuConvexMesh.obj
 0001:000578a0       ?BFFFF@aos@shdfnd@physx@@YA?AT__m128@@XZ 100588a0 f i GuConvexSupportTable.obj
 0001:000578e0       ?BFFTF@aos@shdfnd@physx@@YA?AT__m128@@XZ 100588e0 f i GuConvexSupportTable.obj
 0001:00057930       ?BFTFF@aos@shdfnd@physx@@YA?AT__m128@@XZ 10058930 f i GuConvexSupportTable.obj
 0001:00057980       ?BFTTF@aos@shdfnd@physx@@YA?AT__m128@@XZ 10058980 f i GuConvexSupportTable.obj
 0001:000579d0       ?BTFFF@aos@shdfnd@physx@@YA?AT__m128@@XZ 100589d0 f i GuConvexSupportTable.obj
 0001:00057a20       ?BTFTF@aos@shdfnd@physx@@YA?AT__m128@@XZ 10058a20 f i GuConvexSupportTable.obj
 0001:00057a70       ?BTTFF@aos@shdfnd@physx@@YA?AT__m128@@XZ 10058a70 f i GuConvexSupportTable.obj
 0001:00057ac0       ?BTTTF@aos@shdfnd@physx@@YA?AT__m128@@XZ 10058ac0 f i GuConvexSupportTable.obj
 0001:00057b10       ?m128_I2F@internalWindowsSimd@aos@shdfnd@physx@@YA?AT__m128@@T__m128i@@@Z 10058b10 f i GuConvexSupportTable.obj
 0001:00057b50       ?computeHullOBB@Gu@physx@@YAXAAVBox@12@ABVPxBounds3@2@MABVPxTransform@2@ABVMatrix34@Cm@2@3ABVFastVertex2ShapeScaling@72@_N@Z 10058b50 f   GuConvexUtilsInternal.obj
 0001:00057cc0       ?computeVertexSpaceOBB@Gu@physx@@YAXAAVBox@12@ABV312@ABVPxTransform@2@ABVPxMeshScale@2@@Z 10058cc0 f   GuConvexUtilsInternal.obj
 0001:00057d80       ?computeOBBAroundConvex@Gu@physx@@YAXAAVBox@12@ABVPxConvexMeshGeometry@2@PBVPxConvexMesh@2@ABVPxTransform@2@@Z 10058d80 f   GuConvexUtilsInternal.obj
 0001:00057fc0       ??0Matrix34@Cm@physx@@QAE@ABVPxMat33@2@ABVPxVec3@2@@Z 10058fc0 f i GuConvexUtilsInternal.obj
 0001:00058050       ??0Matrix34@Cm@physx@@QAE@XZ 10059050 f i GuConvexUtilsInternal.obj
 0001:000580a0       ??4Matrix34@Cm@physx@@QAEABV012@ABV012@@Z 100590a0 f i GuConvexUtilsInternal.obj
 0001:00058110       ?getInverse@physx@@YAXAAVPxMat33@1@AAVPxVec3@1@ABV21@ABV31@@Z 10059110 f i GuConvexUtilsInternal.obj
 0001:00058170       ?getLocalBoundsFast@ConvexMesh@Gu@physx@@QBEABVPxBounds3@3@XZ 10059170 f i GuConvexUtilsInternal.obj
 0001:00058190       ?rotate@physx@@YAXABVBox@Gu@1@ABVMatrix34@Cm@1@AAV231@@Z 10059190 f i GuConvexUtilsInternal.obj
 0001:00058220       ?toMat33@PxMeshScale@physx@@QBE?AVPxMat33@2@XZ 10059220 f i GuConvexUtilsInternal.obj
 0001:000582f0       ?transform@physx@@YA?AVBox@Gu@1@ABVMatrix34@Cm@1@ABV231@@Z 100592f0 f i GuConvexUtilsInternal.obj
 0001:00058460       ?transformTranspose@Matrix34@Cm@physx@@QBE?AVPxVec3@3@ABV43@@Z 10059460 f i GuConvexUtilsInternal.obj
 0001:000584a0       ?CubemapLookup@physx@@YA?AW4CubeIndex@1@ABVPxVec3@1@AAM1@Z 100594a0 f   GuCubeIndex.obj
 0001:00058660       ?localSearch@physx@@YAXAAIABVPxVec3@1@PBV21@PBUBigConvexRawData@Gu@1@@Z 10059660 f   GuHillClimbing.obj
 0001:000589b0       ??0PolygonalBox@Gu@physx@@QAE@ABVPxVec3@2@@Z 100599b0 f   GuShapeConvex.obj
 0001:000591f0       ?getPolygonalData@PolygonalBox@Gu@physx@@QBEXPIAUPolygonalData@23@@Z 1005a1f0 f   GuShapeConvex.obj
 0001:000592f0       ?getPolygonalData_Convex@Gu@physx@@YAXPIAUPolygonalData@12@PIBUConvexHullData@12@ABVFastVertex2ShapeScaling@Cm@2@@Z 1005a2f0 f   GuShapeConvex.obj
 0001:0005a250       ??$PX_UNUSED@PIBVPxVec3@physx@@@@YAXABQIBVPxVec3@physx@@@Z 1005b250 f i GuShapeConvex.obj
 0001:0005a260       ??$PX_UNUSED@VFastVertex2ShapeScaling@Cm@physx@@@@YAXABVFastVertex2ShapeScaling@Cm@physx@@@Z 1005b260 f i GuShapeConvex.obj
 0001:0005a270       ??0HullPolygonData@Gu@physx@@QAE@XZ 1005b270 f i GuShapeConvex.obj
 0001:0005a290       ?getFacesByEdges8@ConvexHullData@Gu@physx@@QBEPBEXZ 1005b290 f i GuShapeConvex.obj
 0001:0005a2e0       ?getSamples2@BigConvexRawData@Gu@physx@@QBEPBEXZ 1005b2e0 f i GuShapeConvex.obj
 0001:0005a300       ?pointsOnDir@Projection@Gu@physx@@SAXABVPxVec3@3@PBV43@IAAM2@Z 1005b300 f i GuShapeConvex.obj
 0001:0005a3e0       ?selectClosestPolygon@@YAIAAMIPBUHullPolygonData@Gu@physx@@ABVPxVec3@3@@Z 1005b3e0 f i GuShapeConvex.obj
 0001:0005a490       ?distancePointBoxSquared@Gu@physx@@YAMABVPxVec3@2@00ABVPxMat33@2@PAV32@@Z 1005b490 f   GuDistancePointBox.obj
 0001:0005a750       ?distancePointSegmentSquared@Gu@physx@@YAMABVPxVec3@2@00PAM@Z 1005b750 f   GuDistancePointSegment.obj
 0001:0005a8b0       ?closestPtPointTriangle@Gu@physx@@YA?AVPxVec3@2@ABV32@000AAM1@Z 1005b8b0 f   GuDistancePointTriangle.obj
 0001:0005ad10       ?distancePointTriangleSquared@Gu@physx@@YA?AT__m128@@ABT3@000AAT3@11@Z 1005bd10 f   GuDistancePointTriangle.obj
 0001:0005ba70       ?BAllEq@aos@shdfnd@physx@@YAIT__m128@@0@Z 1005ca70 f i GuDistancePointTriangle.obj
 0001:0005baf0       ?BAllTrue4_R@internalWindowsSimd@aos@shdfnd@physx@@YAIT__m128@@@Z 1005caf0 f i GuDistancePointTriangle.obj
 0001:0005bb50       ?BAnd@aos@shdfnd@physx@@YA?AT__m128@@T4@0@Z 1005cb50 f i GuDistancePointTriangle.obj
 0001:0005bba0       ?BTTTT@aos@shdfnd@physx@@YA?AT__m128@@XZ 1005cba0 f i GuDistancePointTriangle.obj
 0001:0005bbf0       ?FIsGrtr@aos@shdfnd@physx@@YA?AT__m128@@T4@0@Z 1005cbf0 f i GuDistancePointTriangle.obj
 0001:0005bc40       ?FIsGrtrOrEq@aos@shdfnd@physx@@YA?AT__m128@@T4@0@Z 1005cc40 f i GuDistancePointTriangle.obj
 0001:0005bc90       ?V3Add@aos@shdfnd@physx@@YA?AT__m128@@T4@0@Z 1005cc90 f i GuDistancePointTriangle.obj
 0001:0005bce0       ?V3Scale@aos@shdfnd@physx@@YA?AT__m128@@T4@0@Z 1005cce0 f i GuDistancePointTriangle.obj
 0001:0005bd30       ?m128_F2I@internalWindowsSimd@aos@shdfnd@physx@@YA?AT__m128i@@T__m128@@@Z 1005cd30 f i GuDistancePointTriangle.obj
 0001:0005bd70       ?distanceSegmentBoxSquared@Gu@physx@@YAMABVPxVec3@2@000ABVPxMat33@2@PAMPAV32@@Z 1005cd70 f   GuDistanceSegmentBox.obj
 0001:0005f530       ?distanceSegmentSegmentSquaredOLD@Gu@physx@@YAMABVPxVec3@2@000PAM1@Z 10060530 f   GuDistanceSegmentSegment.obj
 0001:0005f5b0       ?distanceSegmentSegmentSquared2@Gu@physx@@YAMABVSegment@12@0PAM1@Z 100605b0 f   GuDistanceSegmentSegment.obj
 0001:0005f7d0       ?distanceSegmentSegmentSquared@Gu@physx@@YA?AT__m128@@ABT3@000AAT3@1@Z 100607d0 f   GuDistanceSegmentSegment.obj
 0001:0005fb90       ?distanceSegmentSegmentSquared4@Gu@physx@@YA?AT__m128@@ABT3@000000000AAT3@1@Z 10060b90 f   GuDistanceSegmentSegment.obj
 0001:00060500       ?distanceSegmentSegmentSquared4@Gu@physx@@YA?AT__m128@@ABT3@000000AAT3@1PAT3@@Z 10061500 f   GuDistanceSegmentSegment.obj
 0001:00062c70       ?FClamp@aos@shdfnd@physx@@YA?AT__m128@@T4@00@Z 10063c70 f i GuDistanceSegmentSegment.obj
 0001:00062ce0       ?FEps@aos@shdfnd@physx@@YA?AT__m128@@XZ 10063ce0 f i GuDistanceSegmentSegment.obj
 0001:00062d30       ?FHalf@aos@shdfnd@physx@@YA?AT__m128@@XZ 10063d30 f i GuDistanceSegmentSegment.obj
 0001:00062d80       ?FMax@aos@shdfnd@physx@@YA?AT__m128@@T4@0@Z 10063d80 f i GuDistanceSegmentSegment.obj
 0001:00062dd0       ?FMin@aos@shdfnd@physx@@YA?AT__m128@@T4@0@Z 10063dd0 f i GuDistanceSegmentSegment.obj
 0001:00062e20       ?FScaleAdd@aos@shdfnd@physx@@YA?AT__m128@@T4@00@Z 10063e20 f i GuDistanceSegmentSegment.obj
 0001:00062e90       ?V3Dot4@aos@shdfnd@physx@@YA?AT__m128@@ABT4@0000000@Z 10063e90 f i GuDistanceSegmentSegment.obj
 0001:000630f0       ?V3GetX@aos@shdfnd@physx@@YA?AT__m128@@T4@@Z 100640f0 f i GuDistanceSegmentSegment.obj
 0001:00063140       ?V3GetY@aos@shdfnd@physx@@YA?AT__m128@@T4@@Z 10064140 f i GuDistanceSegmentSegment.obj
 0001:00063190       ?V3GetZ@aos@shdfnd@physx@@YA?AT__m128@@T4@@Z 10064190 f i GuDistanceSegmentSegment.obj
 0001:000631e0       ?V3Mul@aos@shdfnd@physx@@YA?AT__m128@@T4@0@Z 100641e0 f i GuDistanceSegmentSegment.obj
 0001:00063230       ?V3ScaleAdd@aos@shdfnd@physx@@YA?AT__m128@@T4@00@Z 10064230 f i GuDistanceSegmentSegment.obj
 0001:000632a0       ?V4Abs@aos@shdfnd@physx@@YA?AT__m128@@T4@@Z 100642a0 f i GuDistanceSegmentSegment.obj
 0001:00063300       ?V4Add@aos@shdfnd@physx@@YA?AT__m128@@T4@0@Z 10064300 f i GuDistanceSegmentSegment.obj
 0001:00063350       ?V4Clamp@aos@shdfnd@physx@@YA?AT__m128@@T4@00@Z 10064350 f i GuDistanceSegmentSegment.obj
 0001:000633c0       ?V4ClearW@aos@shdfnd@physx@@YA?AT__m128@@T4@@Z 100643c0 f i GuDistanceSegmentSegment.obj
 0001:00063410       ?V4Div@aos@shdfnd@physx@@YA?AT__m128@@T4@0@Z 10064410 f i GuDistanceSegmentSegment.obj
 0001:00063460       ?V4Eps@aos@shdfnd@physx@@YA?AT__m128@@XZ 10064460 f i GuDistanceSegmentSegment.obj
 0001:000634b0       ?V4GetW@aos@shdfnd@physx@@YA?AT__m128@@T4@@Z 100644b0 f i GuDistanceSegmentSegment.obj
 0001:00063500       ?V4GetX@aos@shdfnd@physx@@YA?AT__m128@@T4@@Z 10064500 f i GuDistanceSegmentSegment.obj
 0001:00063550       ?V4GetY@aos@shdfnd@physx@@YA?AT__m128@@T4@@Z 10064550 f i GuDistanceSegmentSegment.obj
 0001:000635a0       ?V4GetZ@aos@shdfnd@physx@@YA?AT__m128@@T4@@Z 100645a0 f i GuDistanceSegmentSegment.obj
 0001:000635f0       ?V4IsGrtr@aos@shdfnd@physx@@YA?AT__m128@@T4@0@Z 100645f0 f i GuDistanceSegmentSegment.obj
 0001:00063640       ?V4IsGrtrOrEq@aos@shdfnd@physx@@YA?AT__m128@@T4@0@Z 10064640 f i GuDistanceSegmentSegment.obj
 0001:00063690       ?V4Max@aos@shdfnd@physx@@YA?AT__m128@@T4@0@Z 10064690 f i GuDistanceSegmentSegment.obj
 0001:000636e0       ?V4Min@aos@shdfnd@physx@@YA?AT__m128@@T4@0@Z 100646e0 f i GuDistanceSegmentSegment.obj
 0001:00063730       ?V4Mul@aos@shdfnd@physx@@YA?AT__m128@@T4@0@Z 10064730 f i GuDistanceSegmentSegment.obj
 0001:00063780       ?V4MulAdd@aos@shdfnd@physx@@YA?AT__m128@@T4@00@Z 10064780 f i GuDistanceSegmentSegment.obj
 0001:000637f0       ?V4Neg@aos@shdfnd@physx@@YA?AT__m128@@T4@@Z 100647f0 f i GuDistanceSegmentSegment.obj
 0001:00063840       ?V4One@aos@shdfnd@physx@@YA?AT__m128@@XZ 10064840 f i GuDistanceSegmentSegment.obj
 0001:00063890       ?V4Recip@aos@shdfnd@physx@@YA?AT__m128@@T4@@Z 10064890 f i GuDistanceSegmentSegment.obj
 0001:000638e0       ?V4Sel@aos@shdfnd@physx@@YA?AT__m128@@T4@00@Z 100648e0 f i GuDistanceSegmentSegment.obj
 0001:00063950       ?V4Splat@aos@shdfnd@physx@@YA?AT__m128@@T4@@Z 10064950 f i GuDistanceSegmentSegment.obj
 0001:00063990       ?V4Sub@aos@shdfnd@physx@@YA?AT__m128@@T4@0@Z 10064990 f i GuDistanceSegmentSegment.obj
 0001:000639e0       ?V4UnpackXY@aos@shdfnd@physx@@YA?AT__m128@@ABT4@0@Z 100649e0 f i GuDistanceSegmentSegment.obj
 0001:00063a30       ?V4UnpackZW@aos@shdfnd@physx@@YA?AT__m128@@ABT4@0@Z 10064a30 f i GuDistanceSegmentSegment.obj
 0001:00063a80       ?V4Zero@aos@shdfnd@physx@@YA?AT__m128@@XZ 10064a80 f i GuDistanceSegmentSegment.obj
 0001:00063ac0       ?Vec3V_From_Vec4V@aos@shdfnd@physx@@YA?AT__m128@@T4@@Z 10064ac0 f i GuDistanceSegmentSegment.obj
 0001:00063b10       ?Vec4V_From_Vec3V@aos@shdfnd@physx@@YA?AT__m128@@T4@@Z 10064b10 f i GuDistanceSegmentSegment.obj
 0001:00063b50       ?distanceSegmentTriangleSquared@Gu@physx@@YAMABVPxVec3@2@0000PAM11@Z 10064b50 f   GuDistanceSegmentTriangle.obj
 0001:00065310       ?distanceSegmentTriangleSquared@Gu@physx@@YA?AT__m128@@ABT3@0000AAT3@1@Z 10066310 f   GuDistanceSegmentTriangle.obj
 0001:000667f0       ?FNeg@aos@shdfnd@physx@@YA?AT__m128@@T4@@Z 100677f0 f i GuDistanceSegmentTriangle.obj
 0001:00066840       ?V3NegScaleSub@aos@shdfnd@physx@@YA?AT__m128@@T4@00@Z 10067840 f i GuDistanceSegmentTriangle.obj
 0001:000668b0       ?V3Normalize@aos@shdfnd@physx@@YA?AT__m128@@T4@@Z 100678b0 f i GuDistanceSegmentTriangle.obj
 0001:00066920       ?V3ScaleInv@aos@shdfnd@physx@@YA?AT__m128@@T4@0@Z 10067920 f i GuDistanceSegmentTriangle.obj
 0001:00066970       ?V3Sel@aos@shdfnd@physx@@YA?AT__m128@@T4@00@Z 10067970 f i GuDistanceSegmentTriangle.obj
 0001:000669e0       ?distancePointTriangleSquared@Gu@physx@@YAMABVPxVec3@2@000PAM1@Z 100679e0 f i GuDistanceSegmentTriangle.obj
 0001:00066a90       ?isValidTriangleBarycentricCoord@Gu@physx@@YA?AT__m128@@ABT3@0@Z 10067a90 f i GuDistanceSegmentTriangle.obj
 0001:00066c30       ?sweepBoxBox@Gu@physx@@YA_NABVBox@12@0ABVPxVec3@2@MAAV42@2AAMV?$PxFlags@W4Enum@PxHitFlag@physx@@G@2@@Z 10067c30 f   GuSweepBoxBox.obj
 0001:00067660       ??0?$PxFlags@W4Enum@PxHitFlag@physx@@G@physx@@QAE@ABV01@@Z 10068660 f i GuSweepBoxBox.obj
 0001:00067690       ??0?$PxFlags@W4Enum@PxTriangleMeshFlag@physx@@E@physx@@QAE@E@Z 10068690 f i GuSweepBoxBox.obj
 0001:000676b0       ??0InternalTriangleMesh@physx@@QAE@ABV01@@Z 100686b0 f i GuSweepBoxBox.obj
 0001:000677a0       ??0InternalTriangleMesh@physx@@QAE@ABW4PxEMPTY@1@@Z 100687a0 f i GuSweepBoxBox.obj
 0001:00067800       ??0InternalTriangleMeshData@Gu@physx@@QAE@ABU012@@Z 10068800 f i GuSweepBoxBox.obj
 0001:000678c0       ??0InternalTriangleMeshData@Gu@physx@@QAE@ABW4PxEMPTY@2@@Z 100688c0 f i GuSweepBoxBox.obj
 0001:00067910       ??0PxTriangleMesh@physx@@IAE@V?$PxFlags@W4Enum@PxBaseFlag@physx@@G@1@@Z 10068910 f i GuSweepBoxBox.obj
 0001:00067950       ??0TriangleMesh@Gu@physx@@QAE@V?$PxFlags@W4Enum@PxBaseFlag@physx@@G@2@@Z 10068950 f i GuSweepBoxBox.obj
 0001:000679e0       ??4InternalTriangleMesh@physx@@QAEAAV01@ABV01@@Z 100689e0 f i GuSweepBoxBox.obj
 0001:00067ad0       ??4InternalTriangleMeshData@Gu@physx@@QAEAAU012@ABU012@@Z 10068ad0 f i GuSweepBoxBox.obj
 0001:00067b80       ??B?$PxFlags@W4Enum@PxHitFlag@physx@@G@physx@@QBE_NXZ 10068b80 f i GuSweepBoxBox.obj
 0001:00067bb0       ??I?$PxFlags@W4Enum@PxHitFlag@physx@@G@physx@@QBE?AV01@W4Enum@PxHitFlag@1@@Z 10068bb0 f i GuSweepBoxBox.obj
 0001:00067c00       ??_ETriangleMesh@Gu@physx@@UAEPAXI@Z 10068c00 f i GuSweepBoxBox.obj
 0001:00067ce4       ??_ETriangleMesh@Gu@physx@@W7AEPAXI@Z 10068ce4 f i GuSweepBoxBox.obj
 0001:00067cf0       ?buildMatrixFromBox@physx@@YAXAAVMatrix34@Cm@1@ABVBox@Gu@1@@Z 10068cf0 f i GuSweepBoxBox.obj
 0001:00067d50       ?computeWorldToBoxMatrix@physx@@YAXAAVMatrix34@Cm@1@ABVBox@Gu@1@@Z 10068d50 f i GuSweepBoxBox.obj
 0001:00067da0       ?getAdjacencies@InternalTriangleMesh@physx@@QBEPBIXZ 10068da0 f i GuSweepBoxBox.obj
 0001:00067dc0       ?getCollisionModel@InternalTriangleMesh@physx@@QBEABVRTreeMidphase@Gu@2@XZ 10068dc0 f i GuSweepBoxBox.obj
 0001:00067de0       ?getConvexEdgeThreshold@InternalTriangleMesh@physx@@QBEMXZ 10068de0 f i GuSweepBoxBox.obj
 0001:00067e00       ?getFaceRemap@InternalTriangleMesh@physx@@QBEPBIXZ 10068e00 f i GuSweepBoxBox.obj
 0001:00067e20       ?getInverseRT@Matrix34@Cm@physx@@QBE?AV123@XZ 10068e20 f i GuSweepBoxBox.obj
 0001:00067eb0       ?getLocalBounds@TriangleMesh@Gu@physx@@UBE?AVPxBounds3@3@XZ 10068eb0 f i GuSweepBoxBox.obj
 0001:00067f40       ?getMaterials@InternalTriangleMesh@physx@@QBEPBGXZ 10068f40 f i GuSweepBoxBox.obj
 0001:00067f60       ?getMeshInterface@InternalTriangleMesh@physx@@QBEABVMeshInterface@Gu@2@XZ 10068f60 f i GuSweepBoxBox.obj
 0001:00067f80       ?getNbTriangles@TriangleMesh@Gu@physx@@UBEIXZ 10068f80 f i GuSweepBoxBox.obj
 0001:00067fa0       ?getNbVertices@TriangleMesh@Gu@physx@@UBEIXZ 10068fa0 f i GuSweepBoxBox.obj
 0001:00067fc0       ?getNumTriangles@InternalTriangleMesh@physx@@QBEIXZ 10068fc0 f i GuSweepBoxBox.obj
 0001:00067fe0       ?getNumVertices@InternalTriangleMesh@physx@@QBEIXZ 10068fe0 f i GuSweepBoxBox.obj
 0001:00068000       ?getTriangleMaterialIndex@TriangleMesh@Gu@physx@@UBEGI@Z 10069000 f i GuSweepBoxBox.obj
 0001:00068060       ?getTriangleMeshFlags@InternalTriangleMesh@physx@@QBE?AV?$PxFlags@W4Enum@PxTriangleMeshFlag@physx@@E@2@XZ 10069060 f i GuSweepBoxBox.obj
 0001:00068090       ?getTriangleMeshFlags@TriangleMesh@Gu@physx@@UBE?AV?$PxFlags@W4Enum@PxTriangleMeshFlag@physx@@E@3@XZ 10069090 f i GuSweepBoxBox.obj
 0001:000680c0       ?getTriangles@InternalTriangleMesh@physx@@QBEPBXXZ 100690c0 f i GuSweepBoxBox.obj
 0001:000680e0       ?getTriangles@TriangleMesh@Gu@physx@@UBEPBXXZ 100690e0 f i GuSweepBoxBox.obj
 0001:00068100       ?getTrianglesRemap@TriangleMesh@Gu@physx@@UBEPBIXZ 10069100 f i GuSweepBoxBox.obj
 0001:00068120       ?getTrigSharedEdgeFlagsFromData@InternalTriangleMesh@physx@@QBEII@Z 10069120 f i GuSweepBoxBox.obj
 0001:000681a0       ?getVertices@InternalTriangleMesh@physx@@QBEPBVPxVec3@2@XZ 100691a0 f i GuSweepBoxBox.obj
 0001:000681c0       ?getVertices@TriangleMesh@Gu@physx@@UBEPBVPxVec3@3@XZ 100691c0 f i GuSweepBoxBox.obj
 0001:000681e0       ?has16BitIndices@InternalTriangleMesh@physx@@QBE_NXZ 100691e0 f i GuSweepBoxBox.obj
 0001:00068220       ?hasPerTriangleMaterials@TriangleMesh@Gu@physx@@QBE_NXZ 10069220 f i GuSweepBoxBox.obj
 0001:00068260       ?requires@TriangleMesh@Gu@physx@@UAEXAAVPxProcessPxBaseCallback@3@@Z 10069260 f i GuSweepBoxBox.obj
 0001:00068270       ?setTriangleAdjacency@InternalTriangleMesh@physx@@QAEXIII@Z 10069270 f i GuSweepBoxBox.obj
 0001:000682f0       ?setTrigSharedEdgeFlag@InternalTriangleMesh@physx@@QAEXII@Z 100692f0 f i GuSweepBoxBox.obj
 0001:00068390       ?sweepBoxSphere@Gu@physx@@YA_NABVBox@12@MABVPxVec3@2@1MAAMAAV42@V?$PxFlags@W4Enum@PxHitFlag@physx@@G@2@@Z 10069390 f   GuSweepBoxSphere.obj
 0001:00068a30       ??0Capsule@Gu@physx@@QAE@ABVPxVec3@2@0M@Z 10069a30 f i GuSweepBoxSphere.obj
 0001:00068a70       ??0Sphere@Gu@physx@@QAE@ABVPxVec3@2@M@Z 10069a70 f i GuSweepBoxSphere.obj
 0001:00068ab0       ??1Sphere@Gu@physx@@QAE@XZ 10069ab0 f i GuSweepBoxSphere.obj
 0001:00068ac0       ?computePoint@Segment@Gu@physx@@QBEXAAVPxVec3@3@M@Z 10069ac0 f i GuSweepBoxSphere.obj
 0001:00068b40       ?distancePointSegmentSquared@Gu@physx@@YAMABVSegment@12@ABVPxVec3@2@PAM@Z 10069b40 f i GuSweepBoxSphere.obj
 0001:00068b70       ?sweepBoxTriangle@Gu@physx@@YA_NABVPxTriangle@2@ABVPxBounds3@2@ABVPxVec3@2@2AAV52@3AAM@Z 10069b70 f   GuSweepBoxTriangle_FeatureBased.obj
 0001:0006a320       ??0PxTriangle@physx@@QAE@ABV01@@Z 1006b320 f i GuSweepBoxTriangle_FeatureBased.obj
 0001:0006a3c0       ?triBoxSweepTestBoxSpace@Gu@physx@@YAHABVPxTriangle@2@ABVPxVec3@2@11MAAM_N@Z 1006b3c0 f   GuSweepBoxTriangle_SAT.obj
 0001:0006aed0       ?cross010@shdfnd@physx@@YA?AVPxVec3@2@ABV32@@Z 1006bed0 f i GuSweepBoxTriangle_SAT.obj
 0001:0006af20       ?cross100@shdfnd@physx@@YA?AVPxVec3@2@ABV32@@Z 1006bf20 f i GuSweepBoxTriangle_SAT.obj
 0001:0006af70       ?sweepCapsuleBox@Gu@physx@@YA_NABVCapsule@12@ABVPxTransform@2@ABVPxVec3@2@2MAAV52@AAM3V?$PxFlags@W4Enum@PxHitFlag@physx@@G@2@@Z 1006bf70 f   GuSweepCapsuleBox.obj
 0001:0006bf20       ??0?$PxFlags@W4Enum@PxHitFlag@physx@@G@physx@@QAE@XZ 1006cf20 f i GuSweepCapsuleBox.obj
 0001:0006bf40       ??0?$ScopedPointer@VPxTriangle@physx@@VTempAllocator@shdfnd@2@@shdfnd@physx@@QAE@XZ 1006cf40 f i GuSweepCapsuleBox.obj
 0001:0006bf60       ??1?$ScopedPointer@VPxTriangle@physx@@VTempAllocator@shdfnd@2@@shdfnd@physx@@QAE@XZ 1006cf60 f i GuSweepCapsuleBox.obj
 0001:0006bf90       ??B?$ScopedPointer@VPxTriangle@physx@@VTempAllocator@shdfnd@2@@shdfnd@physx@@QBEPAVPxTriangle@2@XZ 1006cf90 f i GuSweepCapsuleBox.obj
 0001:0006c000       ?sweepCapsuleCapsule@Gu@physx@@YA_NABVCapsule@12@0ABVPxVec3@2@MAAMAAV42@3IAAG@Z 1006d000 f   GuSweepCapsuleCapsule.obj
 0001:0006d1f0       ??0?$PxFlags@W4Enum@PxHitFlag@physx@@G@physx@@QAE@W4Enum@PxHitFlag@1@@Z 1006e1f0 f i GuSweepCapsuleCapsule.obj
 0001:0006d210       ??0Capsule@Gu@physx@@QAE@XZ 1006e210 f i GuSweepCapsuleCapsule.obj
 0001:0006d230       ??0PxTriangle@physx@@QAE@ABVPxVec3@1@00@Z 1006e230 f i GuSweepCapsuleCapsule.obj
 0001:0006d2b0       ??4Capsule@Gu@physx@@QAEAAV012@ABV012@@Z 1006e2b0 f i GuSweepCapsuleCapsule.obj
 0001:0006d2f0       ??4Segment@Gu@physx@@QAEAAV012@ABV012@@Z 1006e2f0 f i GuSweepCapsuleCapsule.obj
 0001:0006d330       ??8PxVec3@physx@@QBE_NABV01@@Z 1006e330 f i GuSweepCapsuleCapsule.obj
 0001:0006d3b0       ??B?$PxFlags@W4Enum@PxHitFlag@physx@@G@physx@@QBEGXZ 1006e3b0 f i GuSweepCapsuleCapsule.obj
 0001:0006d3d0       ??B?$PxFlags@W4Enum@PxHitFlag@physx@@G@physx@@QBEIXZ 1006e3d0 f i GuSweepCapsuleCapsule.obj
 0001:0006d3f0       ??Uphysx@@YA?AV?$PxFlags@W4Enum@PxHitFlag@physx@@G@0@W4Enum@PxHitFlag@0@0@Z 1006e3f0 f i GuSweepCapsuleCapsule.obj
 0001:0006d430       ??_5?$PxFlags@W4Enum@PxHitFlag@physx@@G@physx@@QAEAAV01@W4Enum@PxHitFlag@1@@Z 1006e430 f i GuSweepCapsuleCapsule.obj
 0001:0006d4b0       ?sweepCapsuleTriangles@Gu@physx@@YA_NIPIBVPxTriangle@2@ABVCapsule@12@ABVPxVec3@2@MPIBIAAV?$PxFlags@W4Enum@PxHitFlag@physx@@G@2@AAMAAV52@6AAI6V62@_NPBVBox@12@@Z 1006e4b0 f   GuSweepCapsuleTriangle.obj
 0001:0006ec90       ??$PX_UNUSED@VPxVec3@physx@@@@YAXABVPxVec3@physx@@@Z 1006fc90 f i GuSweepCapsuleTriangle.obj
 0001:0006eca0       ??4?$PxFlags@W4Enum@PxHitFlag@physx@@G@physx@@QAEAAV01@ABV01@@Z 1006fca0 f i GuSweepCapsuleTriangle.obj
 0001:0006ecd0       ??4PxTriangle@physx@@QAEAAV01@ABV01@@Z 1006fcd0 f i GuSweepCapsuleTriangle.obj
 0001:0006ed20       ??U?$PxFlags@W4Enum@PxHitFlag@physx@@G@physx@@QBE?AV01@W4Enum@PxHitFlag@1@@Z 1006fd20 f i GuSweepCapsuleTriangle.obj
 0001:0006ed70       ?V3LoadU@aos@shdfnd@physx@@YA?AT__m128@@ABVPxVec3@3@@Z 1006fd70 f i GuSweepCapsuleTriangle.obj
 0001:0006edd0       ?V3StoreU@aos@shdfnd@physx@@YAXT__m128@@AAVPxVec3@3@@Z 1006fdd0 f i GuSweepCapsuleTriangle.obj
 0001:0006ee70       ?coarseCulling@Gu@physx@@YA_NABVPxVec3@2@0MMABVPxTriangle@2@@Z 1006fe70 f i GuSweepCapsuleTriangle.obj
 0001:0006f060       ?computeAlignmentValue@Gu@physx@@YAMABVPxVec3@2@0@Z 10070060 f i GuSweepCapsuleTriangle.obj
 0001:0006f0b0       ?cullTriangle@Gu@physx@@YA_NABVPxTriangle@2@ABVPxVec3@2@MMM@Z 100700b0 f i GuSweepCapsuleTriangle.obj
 0001:0006f1f0       ?getInitIndex@Gu@physx@@YAIPIBII@Z 100701f0 f i GuSweepCapsuleTriangle.obj
 0001:0006f280       ?getTriangleIndex@physx@@YAIII@Z 10070280 f i GuSweepCapsuleTriangle.obj
 0001:0006f2c0       ?keepTriangle@Gu@physx@@YA_NMMMMM@Z 100702c0 f i GuSweepCapsuleTriangle.obj
 0001:0006f380       ?rejectTriangle@Gu@physx@@YA_NABVPxVec3@2@0MMABVPxTriangle@2@M@Z 10070380 f i GuSweepCapsuleTriangle.obj
 0001:0006f420       ?shouldFlipNormal@Gu@physx@@YA_NABVPxVec3@2@_N100@Z 10070420 f i GuSweepCapsuleTriangle.obj
 0001:0006f500       ?squareDistance@Gu@physx@@YAMABVPxVec3@2@0M0@Z 10070500 f i GuSweepCapsuleTriangle.obj
 0001:0006f610       ?sweepSphereCapsule@Gu@physx@@YA_NABVSphere@12@ABVCapsule@12@ABVPxVec3@2@MAAMAAV52@4V?$PxFlags@W4Enum@PxHitFlag@physx@@G@2@@Z 10070610 f   GuSweepSphereCapsule.obj
 0001:0006fa70       ?sweepSphereSphere@Gu@physx@@YA_NABVPxVec3@2@M0M0AAMAAV32@@Z 10070a70 f   GuSweepSphereSphere.obj
 0001:0006fef0       ?sweepTriSphere@Gu@physx@@YA_NABVPxTriangle@2@ABVPxVec3@2@1M1AAM@Z 10070ef0 f   GuSweepSphereTriangle.obj
 0001:00070580       ?sweepSphereTriangles@Gu@physx@@YA_NIPIBVPxTriangle@2@ABVPxVec3@2@M1MPIBIAAV42@3AAMAAIAAV?$PxFlags@W4Enum@PxHitFlag@physx@@G@2@3_N7@Z 10071580 f   GuSweepSphereTriangle.obj
 0001:00070f00       ?computeSphereTriImpactData@Gu@physx@@YAXAAVPxVec3@2@0ABV32@1MABVPxTriangle@2@@Z 10071f00 f   GuSweepTriangleUtils.obj
 0001:00070fd0       ?computeBoxTriImpactData@Gu@physx@@YAXAAVPxVec3@2@0ABV32@111ABVPxTriangle@2@@Z 10071fd0 f   GuSweepTriangleUtils.obj
 0001:00071140       ?computeEdgeEdgeNormal@Gu@physx@@YAXAAVPxVec3@2@ABV32@1111M@Z 10072140 f   GuSweepTriangleUtils.obj
 0001:000718c0       ??0BoxV@Gu@physx@@QAE@ABT__m128@@0000@Z 100728c0 f i GuSweepTriangleUtils.obj
 0001:00071960       ??0ConvexV@Gu@physx@@QAE@I@Z 10072960 f i GuSweepTriangleUtils.obj
 0001:000719f0       ??0ConvexV@Gu@physx@@QAE@IABT__m128@@@Z 100729f0 f i GuSweepTriangleUtils.obj
 0001:00071a90       ??0Mat33V@aos@shdfnd@physx@@QAE@XZ 10072a90 f i GuSweepTriangleUtils.obj
 0001:00071ab0       ??0TriangleV@Gu@physx@@QAE@ABT__m128@@00@Z 10072ab0 f i GuSweepTriangleUtils.obj
 0001:00071c10       ??1BoxV@Gu@physx@@QAE@XZ   10072c10 f i GuSweepTriangleUtils.obj
 0001:00071c30       ??1ConvexV@Gu@physx@@IAE@XZ 10072c30 f i GuSweepTriangleUtils.obj
 0001:00071c40       ??1TriangleV@Gu@physx@@QAE@XZ 10072c40 f i GuSweepTriangleUtils.obj
 0001:00071c60       ?CalculateBoxMargin@Gu@physx@@YAXABT__m128@@AAT3@1@Z 10072c60 f i GuSweepTriangleUtils.obj
 0001:00071d20       ?FMax@aos@shdfnd@physx@@YA?AT__m128@@XZ 10072d20 f i GuSweepTriangleUtils.obj
 0001:00071d70       ?V3ExtractMin@aos@shdfnd@physx@@YA?AT__m128@@T4@@Z 10072d70 f i GuSweepTriangleUtils.obj
 0001:00071e20       ?epaPenetration@Gu@physx@@YAIABVConvexV@12@0PAVEPASupportMapPair@12@PIAE2EAAT__m128@@333_N@Z 10072e20 f   GuEPA.obj
 0001:000722b0       ?silhouette@Facet@Gu@physx@@QAEXABT__m128@@PIBT4@1AAVEdgeBuffer@23@AAV?$InlineDeferredIDPool@$0EA@@Cm@3@@Z 100732b0 f   GuEPA.obj
 0001:00072320       ?PenetrationDepth@EPA@Gu@physx@@QAEIABVConvexV@23@0PAVEPASupportMapPair@23@PIBT__m128@@22HAAT6@333_N@Z 10073320 f   GuEPA.obj
 0001:00073160       ?expandPoint@EPA@Gu@physx@@QAE_NPAVEPASupportMapPair@23@AAHABT__m128@@2@Z 10074160 f   GuEPA.obj
 0001:000731e0       ?expandSegment@EPA@Gu@physx@@QAE_NPAVEPASupportMapPair@23@AAHABT__m128@@2@Z 100741e0 f   GuEPA.obj
 0001:00073480       ?expandTriangle@EPA@Gu@physx@@QAE_NAAHABT__m128@@1@Z 10074480 f   GuEPA.obj
 0001:00073520       ?addFacet@EPA@Gu@physx@@QAEPAVFacet@23@IIIABT__m128@@0@Z 10074520 f   GuEPA.obj
 0001:000741b0       ??0?$DeferredIDPoolBase@V?$InlineFixedArray@I$0EA@@Cm@physx@@@Cm@physx@@QAE@XZ 100751b0 f i GuEPA.obj
 0001:000741e0       ??0?$IDPoolBase@V?$InlineFixedArray@I$0EA@@Cm@physx@@@Cm@physx@@QAE@XZ 100751e0 f i GuEPA.obj
 0001:00074210       ??0?$InlineDeferredIDPool@$0EA@@Cm@physx@@QAE@XZ 10075210 f i GuEPA.obj
 0001:00074230       ??0?$InlineFixedArray@I$0EA@@Cm@physx@@QAE@XZ 10075230 f i GuEPA.obj
 0001:00074260       ??0?$PriorityQueue@PAVFacet@Gu@physx@@$0EA@UFacetDistanceComparator@23@@Gu@physx@@QAE@ABUFacetDistanceComparator@12@@Z 10075260 f i GuEPA.obj
 0001:00074280       ??0EPA@Gu@physx@@QAE@XZ    10075280 f i GuEPA.obj
 0001:000742f0       ??0Edge@Gu@physx@@QAE@PIAVFacet@12@I@Z 100752f0 f i GuEPA.obj
 0001:00074320       ??0Edge@Gu@physx@@QAE@XZ   10075320 f i GuEPA.obj
 0001:00074340       ??0EdgeBuffer@Gu@physx@@QAE@XZ 10075340 f i GuEPA.obj
 0001:00074380       ??0Facet@Gu@physx@@QAE@III@Z 10075380 f i GuEPA.obj
 0001:00074490       ??0Facet@Gu@physx@@QAE@XZ  10075490 f i GuEPA.obj
 0001:000744b0       ??1?$DeferredIDPoolBase@V?$InlineFixedArray@I$0EA@@Cm@physx@@@Cm@physx@@QAE@XZ 100754b0 f i GuEPA.obj
 0001:000744e0       ??1?$IDPoolBase@V?$InlineFixedArray@I$0EA@@Cm@physx@@@Cm@physx@@QAE@XZ 100754e0 f i GuEPA.obj
 0001:00074500       ??1?$InlineDeferredIDPool@$0EA@@Cm@physx@@QAE@XZ 10075500 f i GuEPA.obj
 0001:00074520       ??1?$InlineFixedArray@I$0EA@@Cm@physx@@QAE@XZ 10075520 f i GuEPA.obj
 0001:00074530       ??1?$PriorityQueue@PAVFacet@Gu@physx@@$0EA@UFacetDistanceComparator@23@@Gu@physx@@QAE@XZ 10075530 f i GuEPA.obj
 0001:00074540       ??1EPA@Gu@physx@@QAE@XZ    10075540 f i GuEPA.obj
 0001:00074570       ??4Edge@Gu@physx@@QAEAAV012@ABV012@@Z 10075570 f i GuEPA.obj
 0001:000745a0       ??A?$InlineFixedArray@I$0EA@@Cm@physx@@QAEAAII@Z 100755a0 f i GuEPA.obj
 0001:00074610       ??AFacet@Gu@physx@@QBEII@Z 10075610 f i GuEPA.obj
 0001:00074630       ??MFacet@Gu@physx@@QBE_NABV012@@Z 10075630 f i GuEPA.obj
 0001:00074670       ??RFacetDistanceComparator@Gu@physx@@QBE_NPBVFacet@12@0@Z 10075670 f i GuEPA.obj
 0001:00074690       ?FAbs@aos@shdfnd@physx@@YA?AT__m128@@T4@@Z 10075690 f i GuEPA.obj
 0001:000746e0       ?FAllGrtr@aos@shdfnd@physx@@YAIT__m128@@0@Z 100756e0 f i GuEPA.obj
 0001:00074730       ?FAllGrtrOrEq@aos@shdfnd@physx@@YAIT__m128@@0@Z 10075730 f i GuEPA.obj
 0001:00074780       ?FNegScaleSub@aos@shdfnd@physx@@YA?AT__m128@@T4@00@Z 10075780 f i GuEPA.obj
 0001:000747f0       ?FRsqrt@aos@shdfnd@physx@@YA?AT__m128@@T4@@Z 100757f0 f i GuEPA.obj
 0001:00074850       ?FStore@aos@shdfnd@physx@@YAXT__m128@@PIAM@Z 10075850 f i GuEPA.obj
 0001:00074890       ?GJKCPairDoSimplex@Gu@physx@@YA?AT__m128@@PIAT3@00ABT3@AAI@Z 10075890 f i GuEPA.obj
 0001:000749d0       ?Get@EdgeBuffer@Gu@physx@@QAEPAVEdge@23@I@Z 100759d0 f i GuEPA.obj
 0001:00074a50       ?Insert@EdgeBuffer@Gu@physx@@QAEPAVEdge@23@PIAVFacet@23@I@Z 10075a50 f i GuEPA.obj
 0001:00074b10       ?IsEmpty@EdgeBuffer@Gu@physx@@QAE_NXZ 10075b10 f i GuEPA.obj
 0001:00074b50       ?MakeEmpty@EdgeBuffer@Gu@physx@@QAEXXZ 10075b50 f i GuEPA.obj
 0001:00074b70       ?QuatRotate@aos@shdfnd@physx@@YA?AT__m128@@T4@0@Z 10075b70 f i GuEPA.obj
 0001:00074ce0       ?Size@EdgeBuffer@Gu@physx@@QAEIXZ 10075ce0 f i GuEPA.obj
 0001:00074d00       ?V3Splat@aos@shdfnd@physx@@YA?AT__m128@@T4@@Z 10075d00 f i GuEPA.obj
 0001:00074d70       ?V3UnitX@aos@shdfnd@physx@@YA?AT__m128@@XZ 10075d70 f i GuEPA.obj
 0001:00074de0       ?V3Zero@aos@shdfnd@physx@@YA?AT__m128@@XZ 10075de0 f i GuEPA.obj
 0001:00074e20       ?V4SetW@aos@shdfnd@physx@@YA?AT__m128@@T4@0@Z 10075e20 f i GuEPA.obj
 0001:00074e80       ?Valid@Facet@Gu@physx@@QAE_NXZ 10075e80 f i GuEPA.obj
 0001:00074f20       ?clear@?$InlineFixedArray@I$0EA@@Cm@physx@@QAEXXZ 10075f20 f i GuEPA.obj
 0001:00074f40       ?clear@?$PriorityQueue@PAVFacet@Gu@physx@@$0EA@UFacetDistanceComparator@23@@Gu@physx@@QAEXXZ 10075f40 f i GuEPA.obj
 0001:00074f60       ?closestPtPointSegment@Gu@physx@@YA?AT__m128@@PIAT3@AAI@Z 10075f60 f i GuEPA.obj
 0001:00075100       ?closestPtPointTriangle@Gu@physx@@YA?AT__m128@@PIAT3@PAT3@1AAI@Z 10076100 f i GuEPA.obj
 0001:00075410       ?closestPtPointTriangleBaryCentric@Gu@physx@@YA?AT__m128@@ABT3@00PIAIAAI@Z 10076410 f i GuEPA.obj
 0001:00075f00       ?compare@?$PriorityQueue@PAVFacet@Gu@physx@@$0EA@UFacetDistanceComparator@23@@Gu@physx@@ABE_NABQAVFacet@23@0@Z 10076f00 f i GuEPA.obj
 0001:00075f30       ?deferredFreeID@?$DeferredIDPoolBase@V?$InlineFixedArray@I$0EA@@Cm@physx@@@Cm@physx@@QAEXI@Z 10076f30 f i GuEPA.obj
 0001:00075f60       ?empty@?$PriorityQueue@PAVFacet@Gu@physx@@$0EA@UFacetDistanceComparator@23@@Gu@physx@@QBE_NXZ 10076f60 f i GuEPA.obj
 0001:00075fa0       ?freeID@?$IDPoolBase@V?$InlineFixedArray@I$0EA@@Cm@physx@@@Cm@physx@@QAEXI@Z 10076fa0 f i GuEPA.obj
 0001:00075ff0       ?getCenter@ConvexV@Gu@physx@@QBE?AT__m128@@XZ 10076ff0 f i GuEPA.obj
 0001:00076020       ?getClosestPoint@Facet@Gu@physx@@QBEXPIBT__m128@@0AAT4@1@Z 10077020 f i GuEPA.obj
 0001:000764f0       ?getFacet@Edge@Gu@physx@@QBEPAVFacet@23@XZ 100774f0 f i GuEPA.obj
 0001:00076510       ?getIndex@Edge@Gu@physx@@QBEIXZ 10077510 f i GuEPA.obj
 0001:00076530       ?getMargin@ConvexV@Gu@physx@@QBE?AT__m128@@XZ 10077530 f i GuEPA.obj
 0001:00076560       ?getMinMargin@ConvexV@Gu@physx@@QBE?AT__m128@@XZ 10077560 f i GuEPA.obj
 0001:00076590       ?getNewID@?$IDPoolBase@V?$InlineFixedArray@I$0EA@@Cm@physx@@@Cm@physx@@QAEIXZ 10077590 f i GuEPA.obj
 0001:000765f0       ?getNumRemainingIDs@?$InlineDeferredIDPool@$0EA@@Cm@physx@@QAEIXZ 100775f0 f i GuEPA.obj
 0001:00076620       ?getNumUsedID@?$IDPoolBase@V?$InlineFixedArray@I$0EA@@Cm@physx@@@Cm@physx@@QAEIXZ 10077620 f i GuEPA.obj
 0001:00076650       ?getPlaneDist@Facet@Gu@physx@@QBE?AT__m128@@ABT4@PIBT4@1@Z 10077650 f i GuEPA.obj
 0001:00076720       ?getPlaneDist@Facet@Gu@physx@@QBE?AT__m128@@XZ 10077720 f i GuEPA.obj
 0001:00076760       ?getPlaneNormal@Facet@Gu@physx@@QBE?AT__m128@@XZ 10077760 f i GuEPA.obj
 0001:00076790       ?getSource@Edge@Gu@physx@@QBEIXZ 10077790 f i GuEPA.obj
 0001:00076810       ?getTarget@Edge@Gu@physx@@QBEIXZ 10077810 f i GuEPA.obj
 0001:000768b0       ?incMod3@Gu@physx@@YAII@Z  100778b0 f i GuEPA.obj
 0001:000768d0       ?isMarginEqRadius@ConvexV@Gu@physx@@QBE?AT__m128@@XZ 100778d0 f i GuEPA.obj
 0001:00076900       ?isObsolete@Facet@Gu@physx@@QBE_NXZ 10077900 f i GuEPA.obj
 0001:00076920       ?isValid2@Facet@Gu@physx@@QAE?AT__m128@@IIIPIBT4@0ABT4@1@Z 10077920 f i GuEPA.obj
 0001:00076c90       ?left@?$PriorityQueue@PAVFacet@Gu@physx@@$0EA@UFacetDistanceComparator@23@@Gu@physx@@CAII@Z 10077c90 f i GuEPA.obj
 0001:00076ca0       ?link@Facet@Gu@physx@@QAE_NIPIAV123@I@Z 10077ca0 f i GuEPA.obj
 0001:00076d80       ?parent@?$PriorityQueue@PAVFacet@Gu@physx@@$0EA@UFacetDistanceComparator@23@@Gu@physx@@CAII@Z 10077d80 f i GuEPA.obj
 0001:00076d90       ?pop@?$PriorityQueue@PAVFacet@Gu@physx@@$0EA@UFacetDistanceComparator@23@@Gu@physx@@QAEPAVFacet@23@XZ 10077d90 f i GuEPA.obj
 0001:00077020       ?popBack@?$InlineFixedArray@I$0EA@@Cm@physx@@QAEIXZ 10078020 f i GuEPA.obj
 0001:000770b0       ?prefetchLine@shdfnd@physx@@YAXPBXI@Z 100780b0 f i GuEPA.obj
 0001:000770d0       ?processDeferredIds@?$DeferredIDPoolBase@V?$InlineFixedArray@I$0EA@@Cm@physx@@@Cm@physx@@QAEXXZ 100780d0 f i GuEPA.obj
 0001:00077160       ?push@?$PriorityQueue@PAVFacet@Gu@physx@@$0EA@UFacetDistanceComparator@23@@Gu@physx@@QAEXABQAVFacet@23@@Z 10078160 f i GuEPA.obj
 0001:000772c0       ?pushBack@?$InlineFixedArray@I$0EA@@Cm@physx@@QAEXABI@Z 100782c0 f i GuEPA.obj
 0001:00077360       ?silhouette@Facet@Gu@physx@@QAEXIABT__m128@@PIBT4@1AAVEdgeBuffer@23@AAV?$InlineDeferredIDPool@$0EA@@Cm@3@@Z 10078360 f i GuEPA.obj
 0001:00077630       ?size@?$InlineFixedArray@I$0EA@@Cm@physx@@QBEIXZ 10078630 f i GuEPA.obj
 0001:00077650       ?size@?$PriorityQueue@PAVFacet@Gu@physx@@$0EA@UFacetDistanceComparator@23@@Gu@physx@@QBEIXZ 10078650 f i GuEPA.obj
 0001:00077670       ?toI8@shdfnd@physx@@YACI@Z 10078670 f i GuEPA.obj
 0001:000776d0       ?top@?$PriorityQueue@PAVFacet@Gu@physx@@$0EA@UFacetDistanceComparator@23@@Gu@physx@@QAEPAVFacet@23@XZ 100786d0 f i GuEPA.obj
 0001:000776f0       ?valid@?$PriorityQueue@PAVFacet@Gu@physx@@$0EA@UFacetDistanceComparator@23@@Gu@physx@@QBE_NXZ 100786f0 f i GuEPA.obj
 0001:00077770       ?EPALocalPenetration@Gu@physx@@YAIABVCapsuleV@12@ABVBoxV@12@AAT__m128@@222PIAE3AAE_N@Z 10078770 f   GuEPAPenetrationWrapper.obj
 0001:000777d0       ?EPALocalPenetration@Gu@physx@@YAIABVCapsuleV@12@ABVConvexHullV@12@AAT__m128@@222PIAE3AAE_N@Z 100787d0 f   GuEPAPenetrationWrapper.obj
 0001:00077830       ?EPALocalPenetration@Gu@physx@@YAIABVTriangleV@12@ABVBoxV@12@AAT__m128@@222PIAE3AAE_N@Z 10078830 f   GuEPAPenetrationWrapper.obj
 0001:00077890       ?EPALocalPenetration@Gu@physx@@YAIABVTriangleV@12@ABVConvexHullV@12@AAT__m128@@222PIAE3AAE_N@Z 10078890 f   GuEPAPenetrationWrapper.obj
 0001:000778f0       ?EPARelativePenetration@Gu@physx@@YAIABVBoxV@12@0ABVPsMatTransformV@aos@shdfnd@2@AAT__m128@@222PIAE3AAE_N@Z 100788f0 f   GuEPAPenetrationWrapper.obj
 0001:00077960       ?EPARelativePenetration@Gu@physx@@YAIABVBoxV@12@ABVConvexHullV@12@ABVPsMatTransformV@aos@shdfnd@2@AAT__m128@@333PIAE4AAE_N@Z 10078960 f   GuEPAPenetrationWrapper.obj
 0001:000779d0       ?EPARelativePenetration@Gu@physx@@YAIABVConvexHullV@12@0ABVPsMatTransformV@aos@shdfnd@2@AAT__m128@@222PIAE3AAE_N@Z 100789d0 f   GuEPAPenetrationWrapper.obj
 0001:00077a40       ?EPARelativePenetration@Gu@physx@@YAIABVConvexHullNoScaleV@12@0ABVPsMatTransformV@aos@shdfnd@2@AAT__m128@@222PIAE3AAE_N@Z 10078a40 f   GuEPAPenetrationWrapper.obj
 0001:00077ab0       ?EPARelativePenetration@Gu@physx@@YAIABVConvexHullNoScaleV@12@ABVConvexHullV@12@ABVPsMatTransformV@aos@shdfnd@2@AAT__m128@@333PIAE4AAE_N@Z 10078ab0 f   GuEPAPenetrationWrapper.obj
 0001:00077b20       ?EPARelativePenetration@Gu@physx@@YAIABVConvexHullV@12@ABVConvexHullNoScaleV@12@ABVPsMatTransformV@aos@shdfnd@2@AAT__m128@@333PIAE4AAE_N@Z 10078b20 f   GuEPAPenetrationWrapper.obj
 0001:00077c90       ??0?$EPASupportMapPairLocalImpl@VCapsuleV@Gu@physx@@VBoxV@23@@Gu@physx@@QAE@ABVCapsuleV@12@ABVBoxV@12@@Z 10078c90 f i GuEPAPenetrationWrapper.obj
 0001:00077cd0       ??0?$EPASupportMapPairLocalImpl@VCapsuleV@Gu@physx@@VConvexHullV@23@@Gu@physx@@QAE@ABVCapsuleV@12@ABVConvexHullV@12@@Z 10078cd0 f i GuEPAPenetrationWrapper.obj
 0001:00077d10       ??0?$EPASupportMapPairLocalImpl@VTriangleV@Gu@physx@@VBoxV@23@@Gu@physx@@QAE@ABVTriangleV@12@ABVBoxV@12@@Z 10078d10 f i GuEPAPenetrationWrapper.obj
 0001:00077d50       ??0?$EPASupportMapPairLocalImpl@VTriangleV@Gu@physx@@VConvexHullV@23@@Gu@physx@@QAE@ABVTriangleV@12@ABVConvexHullV@12@@Z 10078d50 f i GuEPAPenetrationWrapper.obj
 0001:00077d90       ??0?$EPASupportMapPairRelativeImpl@VBoxV@Gu@physx@@V123@@Gu@physx@@QAE@ABVBoxV@12@0ABVPsMatTransformV@aos@shdfnd@2@@Z 10078d90 f i GuEPAPenetrationWrapper.obj
 0001:00077de0       ??0?$EPASupportMapPairRelativeImpl@VBoxV@Gu@physx@@VConvexHullV@23@@Gu@physx@@QAE@ABVBoxV@12@ABVConvexHullV@12@ABVPsMatTransformV@aos@shdfnd@2@@Z 10078de0 f i GuEPAPenetrationWrapper.obj
 0001:00077e30       ??0?$EPASupportMapPairRelativeImpl@VConvexHullNoScaleV@Gu@physx@@V123@@Gu@physx@@QAE@ABVConvexHullNoScaleV@12@0ABVPsMatTransformV@aos@shdfnd@2@@Z 10078e30 f i GuEPAPenetrationWrapper.obj
 0001:00077e80       ??0?$EPASupportMapPairRelativeImpl@VConvexHullNoScaleV@Gu@physx@@VConvexHullV@23@@Gu@physx@@QAE@ABVConvexHullNoScaleV@12@ABVConvexHullV@12@ABVPsMatTransformV@aos@shdfnd@2@@Z 10078e80 f i GuEPAPenetrationWrapper.obj
 0001:00077ed0       ??0?$EPASupportMapPairRelativeImpl@VConvexHullV@Gu@physx@@V123@@Gu@physx@@QAE@ABVConvexHullV@12@0ABVPsMatTransformV@aos@shdfnd@2@@Z 10078ed0 f i GuEPAPenetrationWrapper.obj
 0001:00077f20       ??0?$EPASupportMapPairRelativeImpl@VConvexHullV@Gu@physx@@VConvexHullNoScaleV@23@@Gu@physx@@QAE@ABVConvexHullV@12@ABVConvexHullNoScaleV@12@ABVPsMatTransformV@aos@shdfnd@2@@Z 10078f20 f i GuEPAPenetrationWrapper.obj
 0001:00077f70       ??0EPASupportMapPair@Gu@physx@@QAE@XZ 10078f70 f i GuEPAPenetrationWrapper.obj
 0001:00077f90       ??1?$EPASupportMapPairLocalImpl@VCapsuleV@Gu@physx@@VBoxV@23@@Gu@physx@@UAE@XZ 10078f90 f i GuEPAPenetrationWrapper.obj
 0001:00077fb0       ??1?$EPASupportMapPairLocalImpl@VCapsuleV@Gu@physx@@VConvexHullV@23@@Gu@physx@@UAE@XZ 10078fb0 f i GuEPAPenetrationWrapper.obj
 0001:00077fd0       ??1?$EPASupportMapPairLocalImpl@VTriangleV@Gu@physx@@VBoxV@23@@Gu@physx@@UAE@XZ 10078fd0 f i GuEPAPenetrationWrapper.obj
 0001:00077ff0       ??1?$EPASupportMapPairLocalImpl@VTriangleV@Gu@physx@@VConvexHullV@23@@Gu@physx@@UAE@XZ 10078ff0 f i GuEPAPenetrationWrapper.obj
 0001:00078010       ??1?$EPASupportMapPairRelativeImpl@VBoxV@Gu@physx@@V123@@Gu@physx@@UAE@XZ 10079010 f i GuEPAPenetrationWrapper.obj
 0001:00078030       ??1?$EPASupportMapPairRelativeImpl@VBoxV@Gu@physx@@VConvexHullV@23@@Gu@physx@@UAE@XZ 10079030 f i GuEPAPenetrationWrapper.obj
 0001:00078050       ??1?$EPASupportMapPairRelativeImpl@VConvexHullNoScaleV@Gu@physx@@V123@@Gu@physx@@UAE@XZ 10079050 f i GuEPAPenetrationWrapper.obj
 0001:00078070       ??1?$EPASupportMapPairRelativeImpl@VConvexHullNoScaleV@Gu@physx@@VConvexHullV@23@@Gu@physx@@UAE@XZ 10079070 f i GuEPAPenetrationWrapper.obj
 0001:00078090       ??1?$EPASupportMapPairRelativeImpl@VConvexHullV@Gu@physx@@V123@@Gu@physx@@UAE@XZ 10079090 f i GuEPAPenetrationWrapper.obj
 0001:000780b0       ??1?$EPASupportMapPairRelativeImpl@VConvexHullV@Gu@physx@@VConvexHullNoScaleV@23@@Gu@physx@@UAE@XZ 100790b0 f i GuEPAPenetrationWrapper.obj
 0001:000780d0       ??1EPASupportMapPair@Gu@physx@@UAE@XZ 100790d0 f i GuEPAPenetrationWrapper.obj
 0001:000780f0       ??_E?$EPASupportMapPairLocalImpl@VCapsuleV@Gu@physx@@VBoxV@23@@Gu@physx@@UAEPAXI@Z 100790f0 f i GuEPAPenetrationWrapper.obj
 0001:000780f0       ??_G?$EPASupportMapPairLocalImpl@VCapsuleV@Gu@physx@@VBoxV@23@@Gu@physx@@UAEPAXI@Z 100790f0 f i GuEPAPenetrationWrapper.obj
 0001:00078130       ??_E?$EPASupportMapPairLocalImpl@VCapsuleV@Gu@physx@@VConvexHullV@23@@Gu@physx@@UAEPAXI@Z 10079130 f i GuEPAPenetrationWrapper.obj
 0001:00078130       ??_G?$EPASupportMapPairLocalImpl@VCapsuleV@Gu@physx@@VConvexHullV@23@@Gu@physx@@UAEPAXI@Z 10079130 f i GuEPAPenetrationWrapper.obj
 0001:00078170       ??_E?$EPASupportMapPairLocalImpl@VTriangleV@Gu@physx@@VBoxV@23@@Gu@physx@@UAEPAXI@Z 10079170 f i GuEPAPenetrationWrapper.obj
 0001:00078170       ??_G?$EPASupportMapPairLocalImpl@VTriangleV@Gu@physx@@VBoxV@23@@Gu@physx@@UAEPAXI@Z 10079170 f i GuEPAPenetrationWrapper.obj
 0001:000781b0       ??_E?$EPASupportMapPairLocalImpl@VTriangleV@Gu@physx@@VConvexHullV@23@@Gu@physx@@UAEPAXI@Z 100791b0 f i GuEPAPenetrationWrapper.obj
 0001:000781b0       ??_G?$EPASupportMapPairLocalImpl@VTriangleV@Gu@physx@@VConvexHullV@23@@Gu@physx@@UAEPAXI@Z 100791b0 f i GuEPAPenetrationWrapper.obj
 0001:000781f0       ??_E?$EPASupportMapPairRelativeImpl@VBoxV@Gu@physx@@V123@@Gu@physx@@UAEPAXI@Z 100791f0 f i GuEPAPenetrationWrapper.obj
 0001:000781f0       ??_G?$EPASupportMapPairRelativeImpl@VBoxV@Gu@physx@@V123@@Gu@physx@@UAEPAXI@Z 100791f0 f i GuEPAPenetrationWrapper.obj
 0001:00078230       ??_G?$EPASupportMapPairRelativeImpl@VBoxV@Gu@physx@@VConvexHullV@23@@Gu@physx@@UAEPAXI@Z 10079230 f i GuEPAPenetrationWrapper.obj
 0001:00078230       ??_E?$EPASupportMapPairRelativeImpl@VBoxV@Gu@physx@@VConvexHullV@23@@Gu@physx@@UAEPAXI@Z 10079230 f i GuEPAPenetrationWrapper.obj
 0001:00078270       ??_G?$EPASupportMapPairRelativeImpl@VConvexHullNoScaleV@Gu@physx@@V123@@Gu@physx@@UAEPAXI@Z 10079270 f i GuEPAPenetrationWrapper.obj
 0001:00078270       ??_E?$EPASupportMapPairRelativeImpl@VConvexHullNoScaleV@Gu@physx@@V123@@Gu@physx@@UAEPAXI@Z 10079270 f i GuEPAPenetrationWrapper.obj
 0001:000782b0       ??_E?$EPASupportMapPairRelativeImpl@VConvexHullNoScaleV@Gu@physx@@VConvexHullV@23@@Gu@physx@@UAEPAXI@Z 100792b0 f i GuEPAPenetrationWrapper.obj
 0001:000782b0       ??_G?$EPASupportMapPairRelativeImpl@VConvexHullNoScaleV@Gu@physx@@VConvexHullV@23@@Gu@physx@@UAEPAXI@Z 100792b0 f i GuEPAPenetrationWrapper.obj
 0001:000782f0       ??_E?$EPASupportMapPairRelativeImpl@VConvexHullV@Gu@physx@@V123@@Gu@physx@@UAEPAXI@Z 100792f0 f i GuEPAPenetrationWrapper.obj
 0001:000782f0       ??_G?$EPASupportMapPairRelativeImpl@VConvexHullV@Gu@physx@@V123@@Gu@physx@@UAEPAXI@Z 100792f0 f i GuEPAPenetrationWrapper.obj
 0001:00078330       ??_G?$EPASupportMapPairRelativeImpl@VConvexHullV@Gu@physx@@VConvexHullNoScaleV@23@@Gu@physx@@UAEPAXI@Z 10079330 f i GuEPAPenetrationWrapper.obj
 0001:00078330       ??_E?$EPASupportMapPairRelativeImpl@VConvexHullV@Gu@physx@@VConvexHullNoScaleV@23@@Gu@physx@@UAEPAXI@Z 10079330 f i GuEPAPenetrationWrapper.obj
 0001:00078370       ??_GEPASupportMapPair@Gu@physx@@UAEPAXI@Z 10079370 f i GuEPAPenetrationWrapper.obj
 0001:00078370       ??_EEPASupportMapPair@Gu@physx@@UAEPAXI@Z 10079370 f i GuEPAPenetrationWrapper.obj
 0001:000783b0       ?BruteForceSearch@ConvexHullV@Gu@physx@@QBEIABT__m128@@@Z 100793b0 f i GuEPAPenetrationWrapper.obj
 0001:000784f0       ?HillClimbing@ConvexHullV@Gu@physx@@QBEIABT__m128@@@Z 100794f0 f i GuEPAPenetrationWrapper.obj
 0001:00078770       ?M33MulV3@aos@shdfnd@physx@@YA?AT__m128@@ABUMat33V@123@T4@@Z 10079770 f i GuEPAPenetrationWrapper.obj
 0001:00078860       ?M33TrnspsMulV3@aos@shdfnd@physx@@YA?AT__m128@@ABUMat33V@123@T4@@Z 10079860 f i GuEPAPenetrationWrapper.obj
 0001:00078940       ?V3IsGrtr@aos@shdfnd@physx@@YA?AT__m128@@T4@0@Z 10079940 f i GuEPAPenetrationWrapper.obj
 0001:00078990       ?V3Transpose@aos@shdfnd@physx@@YAXAAT__m128@@00@Z 10079990 f i GuEPAPenetrationWrapper.obj
 0001:00078ad0       ?doSupport@?$EPASupportMapPairLocalImpl@VCapsuleV@Gu@physx@@VBoxV@23@@Gu@physx@@UBEXABT__m128@@AAT4@11@Z 10079ad0 f i GuEPAPenetrationWrapper.obj
 0001:00078b90       ?doSupport@?$EPASupportMapPairLocalImpl@VCapsuleV@Gu@physx@@VConvexHullV@23@@Gu@physx@@UBEXABT__m128@@AAT4@11@Z 10079b90 f i GuEPAPenetrationWrapper.obj
 0001:00078c50       ?doSupport@?$EPASupportMapPairLocalImpl@VTriangleV@Gu@physx@@VBoxV@23@@Gu@physx@@UBEXABT__m128@@AAT4@11@Z 10079c50 f i GuEPAPenetrationWrapper.obj
 0001:00078d10       ?doSupport@?$EPASupportMapPairLocalImpl@VTriangleV@Gu@physx@@VConvexHullV@23@@Gu@physx@@UBEXABT__m128@@AAT4@11@Z 10079d10 f i GuEPAPenetrationWrapper.obj
 0001:00078dd0       ?doSupport@?$EPASupportMapPairRelativeImpl@VBoxV@Gu@physx@@V123@@Gu@physx@@UBEXABT__m128@@AAT4@11@Z 10079dd0 f i GuEPAPenetrationWrapper.obj
 0001:00078ea0       ?doSupport@?$EPASupportMapPairRelativeImpl@VBoxV@Gu@physx@@VConvexHullV@23@@Gu@physx@@UBEXABT__m128@@AAT4@11@Z 10079ea0 f i GuEPAPenetrationWrapper.obj
 0001:00078f70       ?doSupport@?$EPASupportMapPairRelativeImpl@VConvexHullNoScaleV@Gu@physx@@V123@@Gu@physx@@UBEXABT__m128@@AAT4@11@Z 10079f70 f i GuEPAPenetrationWrapper.obj
 0001:00079040       ?doSupport@?$EPASupportMapPairRelativeImpl@VConvexHullNoScaleV@Gu@physx@@VConvexHullV@23@@Gu@physx@@UBEXABT__m128@@AAT4@11@Z 1007a040 f i GuEPAPenetrationWrapper.obj
 0001:00079110       ?doSupport@?$EPASupportMapPairRelativeImpl@VConvexHullV@Gu@physx@@V123@@Gu@physx@@UBEXABT__m128@@AAT4@11@Z 1007a110 f i GuEPAPenetrationWrapper.obj
 0001:000791e0       ?doSupport@?$EPASupportMapPairRelativeImpl@VConvexHullV@Gu@physx@@VConvexHullNoScaleV@23@@Gu@physx@@UBEXABT__m128@@AAT4@11@Z 1007a1e0 f i GuEPAPenetrationWrapper.obj
 0001:000792b0       ?doWarmStartSupport@?$EPASupportMapPairLocalImpl@VCapsuleV@Gu@physx@@VBoxV@23@@Gu@physx@@UBEXHHAAT__m128@@00@Z 1007a2b0 f i GuEPAPenetrationWrapper.obj
 0001:00079360       ?doWarmStartSupport@?$EPASupportMapPairLocalImpl@VCapsuleV@Gu@physx@@VConvexHullV@23@@Gu@physx@@UBEXHHAAT__m128@@00@Z 1007a360 f i GuEPAPenetrationWrapper.obj
 0001:00079410       ?doWarmStartSupport@?$EPASupportMapPairLocalImpl@VTriangleV@Gu@physx@@VBoxV@23@@Gu@physx@@UBEXHHAAT__m128@@00@Z 1007a410 f i GuEPAPenetrationWrapper.obj
 0001:000794c0       ?doWarmStartSupport@?$EPASupportMapPairLocalImpl@VTriangleV@Gu@physx@@VConvexHullV@23@@Gu@physx@@UBEXHHAAT__m128@@00@Z 1007a4c0 f i GuEPAPenetrationWrapper.obj
 0001:00079570       ?doWarmStartSupport@?$EPASupportMapPairRelativeImpl@VBoxV@Gu@physx@@V123@@Gu@physx@@UBEXHHAAT__m128@@00@Z 1007a570 f i GuEPAPenetrationWrapper.obj
 0001:00079640       ?doWarmStartSupport@?$EPASupportMapPairRelativeImpl@VBoxV@Gu@physx@@VConvexHullV@23@@Gu@physx@@UBEXHHAAT__m128@@00@Z 1007a640 f i GuEPAPenetrationWrapper.obj
 0001:00079710       ?doWarmStartSupport@?$EPASupportMapPairRelativeImpl@VConvexHullNoScaleV@Gu@physx@@V123@@Gu@physx@@UBEXHHAAT__m128@@00@Z 1007a710 f i GuEPAPenetrationWrapper.obj
 0001:000797e0       ?doWarmStartSupport@?$EPASupportMapPairRelativeImpl@VConvexHullNoScaleV@Gu@physx@@VConvexHullV@23@@Gu@physx@@UBEXHHAAT__m128@@00@Z 1007a7e0 f i GuEPAPenetrationWrapper.obj
 0001:000798b0       ?doWarmStartSupport@?$EPASupportMapPairRelativeImpl@VConvexHullV@Gu@physx@@V123@@Gu@physx@@UBEXHHAAT__m128@@00@Z 1007a8b0 f i GuEPAPenetrationWrapper.obj
 0001:00079980       ?doWarmStartSupport@?$EPASupportMapPairRelativeImpl@VConvexHullV@Gu@physx@@VConvexHullNoScaleV@23@@Gu@physx@@UBEXHHAAT__m128@@00@Z 1007a980 f i GuEPAPenetrationWrapper.obj
 0001:00079a50       ?getDir@?$EPASupportMapPairLocalImpl@VCapsuleV@Gu@physx@@VBoxV@23@@Gu@physx@@UBE?AT__m128@@XZ 1007aa50 f i GuEPAPenetrationWrapper.obj
 0001:00079ae0       ?getDir@?$EPASupportMapPairLocalImpl@VCapsuleV@Gu@physx@@VConvexHullV@23@@Gu@physx@@UBE?AT__m128@@XZ 1007aae0 f i GuEPAPenetrationWrapper.obj
 0001:00079b70       ?getDir@?$EPASupportMapPairLocalImpl@VTriangleV@Gu@physx@@VBoxV@23@@Gu@physx@@UBE?AT__m128@@XZ 1007ab70 f i GuEPAPenetrationWrapper.obj
 0001:00079c00       ?getDir@?$EPASupportMapPairLocalImpl@VTriangleV@Gu@physx@@VConvexHullV@23@@Gu@physx@@UBE?AT__m128@@XZ 1007ac00 f i GuEPAPenetrationWrapper.obj
 0001:00079c90       ?getDir@?$EPASupportMapPairRelativeImpl@VBoxV@Gu@physx@@V123@@Gu@physx@@UBE?AT__m128@@XZ 1007ac90 f i GuEPAPenetrationWrapper.obj
 0001:00079cc0       ?getDir@?$EPASupportMapPairRelativeImpl@VBoxV@Gu@physx@@VConvexHullV@23@@Gu@physx@@UBE?AT__m128@@XZ 1007acc0 f i GuEPAPenetrationWrapper.obj
 0001:00079cf0       ?getDir@?$EPASupportMapPairRelativeImpl@VConvexHullNoScaleV@Gu@physx@@V123@@Gu@physx@@UBE?AT__m128@@XZ 1007acf0 f i GuEPAPenetrationWrapper.obj
 0001:00079d20       ?getDir@?$EPASupportMapPairRelativeImpl@VConvexHullNoScaleV@Gu@physx@@VConvexHullV@23@@Gu@physx@@UBE?AT__m128@@XZ 1007ad20 f i GuEPAPenetrationWrapper.obj
 0001:00079d50       ?getDir@?$EPASupportMapPairRelativeImpl@VConvexHullV@Gu@physx@@V123@@Gu@physx@@UBE?AT__m128@@XZ 1007ad50 f i GuEPAPenetrationWrapper.obj
 0001:00079d80       ?getDir@?$EPASupportMapPairRelativeImpl@VConvexHullV@Gu@physx@@VConvexHullNoScaleV@23@@Gu@physx@@UBE?AT__m128@@XZ 1007ad80 f i GuEPAPenetrationWrapper.obj
 0001:00079db0       ?rotateInv@PsMatTransformV@aos@shdfnd@physx@@QBE?AT__m128@@ABT5@@Z 1007adb0 f i GuEPAPenetrationWrapper.obj
 0001:00079df0       ?supportLocal@BoxV@Gu@physx@@QBE?AT__m128@@ABT4@@Z 1007adf0 f i GuEPAPenetrationWrapper.obj
 0001:00079ea0       ?supportLocal@CapsuleV@Gu@physx@@QBE?AT__m128@@ABT4@@Z 1007aea0 f i GuEPAPenetrationWrapper.obj
 0001:00079f60       ?supportLocal@ConvexHullNoScaleV@Gu@physx@@QBE?AT__m128@@ABT4@@Z 1007af60 f i GuEPAPenetrationWrapper.obj
 0001:00079fb0       ?supportLocal@ConvexHullV@Gu@physx@@QBE?AT__m128@@ABT4@@Z 1007afb0 f i GuEPAPenetrationWrapper.obj
 0001:0007a060       ?supportLocal@TriangleV@Gu@physx@@QBE?AT__m128@@ABT4@@Z 1007b060 f i GuEPAPenetrationWrapper.obj
 0001:0007a1d0       ?supportPoint@BoxV@Gu@physx@@QBE?AT__m128@@H@Z 1007b1d0 f i GuEPAPenetrationWrapper.obj
 0001:0007a260       ?supportPoint@CapsuleV@Gu@physx@@QBE?AT__m128@@H@Z 1007b260 f i GuEPAPenetrationWrapper.obj
 0001:0007a2a0       ?supportPoint@ConvexHullNoScaleV@Gu@physx@@QBE?AT__m128@@H@Z 1007b2a0 f i GuEPAPenetrationWrapper.obj
 0001:0007a2e0       ?supportPoint@ConvexHullV@Gu@physx@@QBE?AT__m128@@H@Z 1007b2e0 f i GuEPAPenetrationWrapper.obj
 0001:0007a360       ?supportPoint@TriangleV@Gu@physx@@QBE?AT__m128@@H@Z 1007b360 f i GuEPAPenetrationWrapper.obj
 0001:0007a390       ?supportRelative@BoxV@Gu@physx@@QBE?AT__m128@@ABT4@ABVPsMatTransformV@aos@shdfnd@3@@Z 1007b390 f i GuEPAPenetrationWrapper.obj
 0001:0007a400       ?supportRelative@ConvexHullNoScaleV@Gu@physx@@QBE?AT__m128@@ABT4@ABVPsMatTransformV@aos@shdfnd@3@@Z 1007b400 f i GuEPAPenetrationWrapper.obj
 0001:0007a470       ?supportRelative@ConvexHullV@Gu@physx@@QBE?AT__m128@@ABT4@ABVPsMatTransformV@aos@shdfnd@3@@Z 1007b470 f i GuEPAPenetrationWrapper.obj
 0001:0007a4e0       ?supportVertexIndex@ConvexHullV@Gu@physx@@QBEIABT__m128@@@Z 1007b4e0 f i GuEPAPenetrationWrapper.obj
 0001:0007a530       ?transform@PsMatTransformV@aos@shdfnd@physx@@QBE?AT__m128@@ABT5@@Z 1007b530 f i GuEPAPenetrationWrapper.obj
 0001:0007a5a0       ?gjkRelativeFallback@Gu@physx@@YAIABVConvexV@12@0PAVSupportMap@12@1ABT__m128@@AAT5@333@Z 1007b5a0 f   GuGJKFallBack.obj
 0001:0007aaf0       ?doSupportMappingPair@Gu@physx@@YA?AT__m128@@ABVConvexV@12@0PAVSupportMap@12@1T3@PAT3@33IAAUSimplexStack@12@@Z 1007baf0 f   GuGJKFallBack.obj
 0001:0007b0b0       ?GJKCPairDoSimplexTesselation@Gu@physx@@YA?AT__m128@@PIAT3@00ABT3@11AAIAAT3@3@Z 1007c0b0 f i GuGJKFallBack.obj
 0001:0007b290       ?V3Abs@aos@shdfnd@physx@@YA?AT__m128@@T4@@Z 1007c290 f i GuGJKFallBack.obj
 0001:0007b2f0       ?V3Max@aos@shdfnd@physx@@YA?AT__m128@@T4@0@Z 1007c2f0 f i GuGJKFallBack.obj
 0001:0007b340       ?Vec3V_From_FloatV@aos@shdfnd@physx@@YA?AT__m128@@T4@@Z 1007c340 f i GuGJKFallBack.obj
 0001:0007b3a0       ?Vec4V_From_FloatV@aos@shdfnd@physx@@YA?AT__m128@@T4@@Z 1007c3a0 f i GuGJKFallBack.obj
 0001:0007b3e0       ?pushSimplex@SimplexStack@Gu@physx@@QAEXPAT__m128@@00I@Z 1007c3e0 f i GuGJKFallBack.obj
 0001:0007b540       ?GJKLocalPenetration@Gu@physx@@YAIABVCapsuleV@12@ABVBoxV@12@ABT__m128@@AAT5@333PIAE4AAE_N@Z 1007c540 f   GuGJKPenetrationWrapper.obj
 0001:0007b580       ?GJKLocalPenetration@Gu@physx@@YAIABVCapsuleV@12@ABVShrunkBoxV@12@ABT__m128@@AAT5@333PIAE4AAE_N@Z 1007c580 f   GuGJKPenetrationWrapper.obj
 0001:0007b5c0       ?GJKLocalPenetration@Gu@physx@@YAIABVCapsuleV@12@ABVConvexHullV@12@ABT__m128@@AAT5@333PIAE4AAE_N@Z 1007c5c0 f   GuGJKPenetrationWrapper.obj
 0001:0007b600       ?GJKLocalPenetration@Gu@physx@@YAIABVCapsuleV@12@ABVConvexHullNoScaleV@12@ABT__m128@@AAT5@333PIAE4AAE_N@Z 1007c600 f   GuGJKPenetrationWrapper.obj
 0001:0007b640       ?GJKLocalPenetration@Gu@physx@@YAIABVCapsuleV@12@ABVShrunkConvexHullV@12@ABT__m128@@AAT5@333PIAE4AAE_N@Z 1007c640 f   GuGJKPenetrationWrapper.obj
 0001:0007b680       ?GJKLocalPenetration@Gu@physx@@YAIABVCapsuleV@12@ABVShrunkConvexHullNoScaleV@12@ABT__m128@@AAT5@333PIAE4AAE_N@Z 1007c680 f   GuGJKPenetrationWrapper.obj
 0001:0007b6c0       ?GJKLocalPenetration@Gu@physx@@YAIABVTriangleV@12@ABVBoxV@12@ABT__m128@@AAT5@333PIAE4AAE_N@Z 1007c6c0 f   GuGJKPenetrationWrapper.obj
 0001:0007b700       ?GJKLocalPenetration@Gu@physx@@YAIABVTriangleV@12@ABVConvexHullV@12@ABT__m128@@AAT5@333PIAE4AAE_N@Z 1007c700 f   GuGJKPenetrationWrapper.obj
 0001:0007b740       ?GJKLocalPenetration@Gu@physx@@YAIABVTriangleV@12@ABVConvexHullNoScaleV@12@ABT__m128@@AAT5@333PIAE4AAE_N@Z 1007c740 f   GuGJKPenetrationWrapper.obj
 0001:0007b780       ?GJKLocalPenetration@Gu@physx@@YAIABVTriangleV@12@0ABT__m128@@AAT4@222PIAE3AAE_N@Z 1007c780 f   GuGJKPenetrationWrapper.obj
 0001:0007b7c0       ?GJKRelativePenetration@Gu@physx@@YAIABVBoxV@12@0ABVPsMatTransformV@aos@shdfnd@2@ABT__m128@@AAT7@333PIAE4AAE@Z 1007c7c0 f   GuGJKPenetrationWrapper.obj
 0001:0007b800       ?GJKRelativePenetration@Gu@physx@@YAIABVBoxV@12@ABVConvexHullV@12@ABVPsMatTransformV@aos@shdfnd@2@ABT__m128@@AAT8@444PIAE5AAE@Z 1007c800 f   GuGJKPenetrationWrapper.obj
 0001:0007b840       ?GJKRelativePenetration@Gu@physx@@YAIABVShrunkBoxV@12@0ABVPsMatTransformV@aos@shdfnd@2@ABT__m128@@AAT7@333PIAE4AAE@Z 1007c840 f   GuGJKPenetrationWrapper.obj
 0001:0007b880       ?GJKRelativePenetration@Gu@physx@@YAIABVShrunkBoxV@12@ABVShrunkConvexHullV@12@ABVPsMatTransformV@aos@shdfnd@2@ABT__m128@@AAT8@444PIAE5AAE@Z 1007c880 f   GuGJKPenetrationWrapper.obj
 0001:0007b8c0       ?GJKRelativePenetration@Gu@physx@@YAIABVShrunkBoxV@12@ABVShrunkConvexHullNoScaleV@12@ABVPsMatTransformV@aos@shdfnd@2@ABT__m128@@AAT8@444PIAE5AAE@Z 1007c8c0 f   GuGJKPenetrationWrapper.obj
 0001:0007b900       ?GJKRelativePenetration@Gu@physx@@YAIABVConvexHullV@12@0ABVPsMatTransformV@aos@shdfnd@2@ABT__m128@@AAT7@333PIAE4AAE@Z 1007c900 f   GuGJKPenetrationWrapper.obj
 0001:0007b940       ?GJKRelativePenetration@Gu@physx@@YAIABVShrunkConvexHullV@12@0ABVPsMatTransformV@aos@shdfnd@2@ABT__m128@@AAT7@333PIAE4AAE@Z 1007c940 f   GuGJKPenetrationWrapper.obj
 0001:0007b980       ?GJKRelativePenetration@Gu@physx@@YAIABVShrunkConvexHullNoScaleV@12@0ABVPsMatTransformV@aos@shdfnd@2@ABT__m128@@AAT7@333PIAE4AAE@Z 1007c980 f   GuGJKPenetrationWrapper.obj
 0001:0007b9c0       ?GJKRelativePenetration@Gu@physx@@YAIABVShrunkConvexHullNoScaleV@12@ABVShrunkConvexHullV@12@ABVPsMatTransformV@aos@shdfnd@2@ABT__m128@@AAT8@444PIAE5AAE@Z 1007c9c0 f   GuGJKPenetrationWrapper.obj
 0001:0007ba00       ?GJKRelativePenetration@Gu@physx@@YAIABVShrunkConvexHullV@12@ABVShrunkConvexHullNoScaleV@12@ABVPsMatTransformV@aos@shdfnd@2@ABT__m128@@AAT8@444PIAE5AAE@Z 1007ca00 f   GuGJKPenetrationWrapper.obj
 0001:0007ba40       ?GJKRelativePenetration@Gu@physx@@YAIABVTriangleV@12@ABVBoxV@12@ABVPsMatTransformV@aos@shdfnd@2@ABT__m128@@AAT8@444@Z 1007ca40 f   GuGJKPenetrationWrapper.obj
 0001:0007ba80       ?GJKRelativePenetration@Gu@physx@@YAIABVTriangleV@12@ABVCapsuleV@12@ABVPsMatTransformV@aos@shdfnd@2@ABT__m128@@AAT8@444@Z 1007ca80 f   GuGJKPenetrationWrapper.obj
 0001:0007bac0       ?GJKRelativePenetration@Gu@physx@@YAIABVTriangleV@12@ABVConvexHullV@12@ABVPsMatTransformV@aos@shdfnd@2@ABT__m128@@AAT8@444@Z 1007cac0 f   GuGJKPenetrationWrapper.obj
 0001:0007bb00       ?GJKRelativePenetration@Gu@physx@@YAIABVCapsuleV@12@0ABVPsMatTransformV@aos@shdfnd@2@ABT__m128@@AAT7@333@Z 1007cb00 f   GuGJKPenetrationWrapper.obj
 0001:0007bb40       ?GJKRelativePenetration@Gu@physx@@YAIABVCapsuleV@12@ABVBoxV@12@ABVPsMatTransformV@aos@shdfnd@2@ABT__m128@@AAT8@444@Z 1007cb40 f   GuGJKPenetrationWrapper.obj
 0001:0007bb80       ?GJKRelativePenetration@Gu@physx@@YAIABVCapsuleV@12@ABVConvexHullV@12@ABVPsMatTransformV@aos@shdfnd@2@ABT__m128@@AAT8@444@Z 1007cb80 f   GuGJKPenetrationWrapper.obj
 0001:0007bbc0       ?GJKRelativePenetration@Gu@physx@@YAIABVBoxV@12@0ABVPsMatTransformV@aos@shdfnd@2@ABT__m128@@AAT7@333@Z 1007cbc0 f   GuGJKPenetrationWrapper.obj
 0001:0007bc00       ?GJKRelativePenetration@Gu@physx@@YAIABVBoxV@12@ABVConvexHullV@12@ABVPsMatTransformV@aos@shdfnd@2@ABT__m128@@AAT8@444@Z 1007cc00 f   GuGJKPenetrationWrapper.obj
 0001:0007bc40       ?GJKRelativePenetration@Gu@physx@@YAIABVConvexHullV@12@0ABVPsMatTransformV@aos@shdfnd@2@ABT__m128@@AAT7@333@Z 1007cc40 f   GuGJKPenetrationWrapper.obj
 0001:0007bc80       ?GJKRelativePenetration@Gu@physx@@YAIABVShrunkConvexHullV@12@0ABVPsMatTransformV@aos@shdfnd@2@ABT__m128@@AAT7@333@Z 1007cc80 f   GuGJKPenetrationWrapper.obj
 0001:0007bea0       ??$gjkLocalPenetration@VCapsuleV@Gu@physx@@VBoxV@23@@Gu@physx@@YAIABVCapsuleV@01@ABVBoxV@01@ABT__m128@@AAT4@333PIAE4AAE_N@Z 1007cea0 f i GuGJKPenetrationWrapper.obj
 0001:0007cfa0       ??$gjkLocalPenetration@VCapsuleV@Gu@physx@@VConvexHullNoScaleV@23@@Gu@physx@@YAIABVCapsuleV@01@ABVConvexHullNoScaleV@01@ABT__m128@@AAT4@333PIAE4AAE_N@Z 1007dfa0 f i GuGJKPenetrationWrapper.obj
 0001:0007e0a0       ??$gjkLocalPenetration@VCapsuleV@Gu@physx@@VConvexHullV@23@@Gu@physx@@YAIABVCapsuleV@01@ABVConvexHullV@01@ABT__m128@@AAT4@333PIAE4AAE_N@Z 1007f0a0 f i GuGJKPenetrationWrapper.obj
 0001:0007f1a0       ??$gjkLocalPenetration@VCapsuleV@Gu@physx@@VShrunkBoxV@23@@Gu@physx@@YAIABVCapsuleV@01@ABVShrunkBoxV@01@ABT__m128@@AAT4@333PIAE4AAE_N@Z 100801a0 f i GuGJKPenetrationWrapper.obj
 0001:000802a0       ??$gjkLocalPenetration@VCapsuleV@Gu@physx@@VShrunkConvexHullNoScaleV@23@@Gu@physx@@YAIABVCapsuleV@01@ABVShrunkConvexHullNoScaleV@01@ABT__m128@@AAT4@333PIAE4AAE_N@Z 100812a0 f i GuGJKPenetrationWrapper.obj
 0001:000813a0       ??$gjkLocalPenetration@VCapsuleV@Gu@physx@@VShrunkConvexHullV@23@@Gu@physx@@YAIABVCapsuleV@01@ABVShrunkConvexHullV@01@ABT__m128@@AAT4@333PIAE4AAE_N@Z 100823a0 f i GuGJKPenetrationWrapper.obj
 0001:000824a0       ??$gjkLocalPenetration@VTriangleV@Gu@physx@@V123@@Gu@physx@@YAIABVTriangleV@01@0ABT__m128@@AAT3@222PIAE3AAE_N@Z 100834a0 f i GuGJKPenetrationWrapper.obj
 0001:000835a0       ??$gjkLocalPenetration@VTriangleV@Gu@physx@@VBoxV@23@@Gu@physx@@YAIABVTriangleV@01@ABVBoxV@01@ABT__m128@@AAT4@333PIAE4AAE_N@Z 100845a0 f i GuGJKPenetrationWrapper.obj
 0001:000846a0       ??$gjkLocalPenetration@VTriangleV@Gu@physx@@VConvexHullNoScaleV@23@@Gu@physx@@YAIABVTriangleV@01@ABVConvexHullNoScaleV@01@ABT__m128@@AAT4@333PIAE4AAE_N@Z 100856a0 f i GuGJKPenetrationWrapper.obj
 0001:000857a0       ??$gjkLocalPenetration@VTriangleV@Gu@physx@@VConvexHullV@23@@Gu@physx@@YAIABVTriangleV@01@ABVConvexHullV@01@ABT__m128@@AAT4@333PIAE4AAE_N@Z 100867a0 f i GuGJKPenetrationWrapper.obj
 0001:000868a0       ??$gjkRelativePenetration@VBoxV@Gu@physx@@V123@@Gu@physx@@YAIABVBoxV@01@0ABVPsMatTransformV@aos@shdfnd@1@ABT__m128@@AAT6@333PIAE4AAE@Z 100878a0 f i GuGJKPenetrationWrapper.obj
 0001:000875f0       ??$gjkRelativePenetration@VBoxV@Gu@physx@@VConvexHullV@23@@Gu@physx@@YAIABVBoxV@01@ABVConvexHullV@01@ABVPsMatTransformV@aos@shdfnd@1@ABT__m128@@AAT7@444PIAE5AAE@Z 100885f0 f i GuGJKPenetrationWrapper.obj
 0001:00088340       ??$gjkRelativePenetration@VCapsuleV@Gu@physx@@V123@@Gu@physx@@YAIABVCapsuleV@01@0ABVPsMatTransformV@aos@shdfnd@1@ABT__m128@@AAT6@333PIAE4AAE@Z 10089340 f i GuGJKPenetrationWrapper.obj
 0001:00089090       ??$gjkRelativePenetration@VCapsuleV@Gu@physx@@VBoxV@23@@Gu@physx@@YAIABVCapsuleV@01@ABVBoxV@01@ABVPsMatTransformV@aos@shdfnd@1@ABT__m128@@AAT7@444PIAE5AAE@Z 1008a090 f i GuGJKPenetrationWrapper.obj
 0001:00089de0       ??$gjkRelativePenetration@VCapsuleV@Gu@physx@@VConvexHullV@23@@Gu@physx@@YAIABVCapsuleV@01@ABVConvexHullV@01@ABVPsMatTransformV@aos@shdfnd@1@ABT__m128@@AAT7@444PIAE5AAE@Z 1008ade0 f i GuGJKPenetrationWrapper.obj
 0001:0008ab30       ??$gjkRelativePenetration@VConvexHullV@Gu@physx@@V123@@Gu@physx@@YAIABVConvexHullV@01@0ABVPsMatTransformV@aos@shdfnd@1@ABT__m128@@AAT6@333PIAE4AAE@Z 1008bb30 f i GuGJKPenetrationWrapper.obj
 0001:0008b880       ??$gjkRelativePenetration@VShrunkBoxV@Gu@physx@@V123@@Gu@physx@@YAIABVShrunkBoxV@01@0ABVPsMatTransformV@aos@shdfnd@1@ABT__m128@@AAT6@333PIAE4AAE@Z 1008c880 f i GuGJKPenetrationWrapper.obj
 0001:0008c5d0       ??$gjkRelativePenetration@VShrunkBoxV@Gu@physx@@VShrunkConvexHullNoScaleV@23@@Gu@physx@@YAIABVShrunkBoxV@01@ABVShrunkConvexHullNoScaleV@01@ABVPsMatTransformV@aos@shdfnd@1@ABT__m128@@AAT7@444PIAE5AAE@Z 1008d5d0 f i GuGJKPenetrationWrapper.obj
 0001:0008d320       ??$gjkRelativePenetration@VShrunkBoxV@Gu@physx@@VShrunkConvexHullV@23@@Gu@physx@@YAIABVShrunkBoxV@01@ABVShrunkConvexHullV@01@ABVPsMatTransformV@aos@shdfnd@1@ABT__m128@@AAT7@444PIAE5AAE@Z 1008e320 f i GuGJKPenetrationWrapper.obj
 0001:0008e070       ??$gjkRelativePenetration@VShrunkConvexHullNoScaleV@Gu@physx@@V123@@Gu@physx@@YAIABVShrunkConvexHullNoScaleV@01@0ABVPsMatTransformV@aos@shdfnd@1@ABT__m128@@AAT6@333PIAE4AAE@Z 1008f070 f i GuGJKPenetrationWrapper.obj
 0001:0008edc0       ??$gjkRelativePenetration@VShrunkConvexHullNoScaleV@Gu@physx@@VShrunkConvexHullV@23@@Gu@physx@@YAIABVShrunkConvexHullNoScaleV@01@ABVShrunkConvexHullV@01@ABVPsMatTransformV@aos@shdfnd@1@ABT__m128@@AAT7@444PIAE5AAE@Z 1008fdc0 f i GuGJKPenetrationWrapper.obj
 0001:0008fb10       ??$gjkRelativePenetration@VShrunkConvexHullV@Gu@physx@@V123@@Gu@physx@@YAIABVShrunkConvexHullV@01@0ABVPsMatTransformV@aos@shdfnd@1@ABT__m128@@AAT6@333PIAE4AAE@Z 10090b10 f i GuGJKPenetrationWrapper.obj
 0001:00090860       ??$gjkRelativePenetration@VShrunkConvexHullV@Gu@physx@@VShrunkConvexHullNoScaleV@23@@Gu@physx@@YAIABVShrunkConvexHullV@01@ABVShrunkConvexHullNoScaleV@01@ABVPsMatTransformV@aos@shdfnd@1@ABT__m128@@AAT7@444PIAE5AAE@Z 10091860 f i GuGJKPenetrationWrapper.obj
 0001:000915b0       ??$gjkRelativePenetration@VTriangleV@Gu@physx@@VBoxV@23@@Gu@physx@@YAIABVTriangleV@01@ABVBoxV@01@ABVPsMatTransformV@aos@shdfnd@1@ABT__m128@@AAT7@444PIAE5AAE@Z 100925b0 f i GuGJKPenetrationWrapper.obj
 0001:00092300       ??$gjkRelativePenetration@VTriangleV@Gu@physx@@VCapsuleV@23@@Gu@physx@@YAIABVTriangleV@01@ABVCapsuleV@01@ABVPsMatTransformV@aos@shdfnd@1@ABT__m128@@AAT7@444PIAE5AAE@Z 10093300 f i GuGJKPenetrationWrapper.obj
 0001:00093050       ??$gjkRelativePenetration@VTriangleV@Gu@physx@@VConvexHullV@23@@Gu@physx@@YAIABVTriangleV@01@ABVConvexHullV@01@ABVPsMatTransformV@aos@shdfnd@1@ABT__m128@@AAT7@444PIAE5AAE@Z 10094050 f i GuGJKPenetrationWrapper.obj
 0001:00093da0       ?BGetBitMask@aos@shdfnd@physx@@YAIT__m128@@@Z 10094da0 f i GuGJKPenetrationWrapper.obj
 0001:00093de0       ?BOr@aos@shdfnd@physx@@YA?AT__m128@@T4@0@Z 10094de0 f i GuGJKPenetrationWrapper.obj
 0001:00093e30       ?FSqrt@aos@shdfnd@physx@@YA?AT__m128@@T4@@Z 10094e30 f i GuGJKPenetrationWrapper.obj
 0001:00093e70       ?GJKCPairDoSimplex@Gu@physx@@YA?AT__m128@@PIAT3@00PIAH1ABT3@AAI@Z 10094e70 f i GuGJKPenetrationWrapper.obj
 0001:00093fd0       ?I4Load@aos@shdfnd@physx@@YA?AT__m128@@H@Z 10094fd0 f i GuGJKPenetrationWrapper.obj
 0001:00094010       ?PxI32_From_VecI32V@aos@shdfnd@physx@@YAXABT__m128@@PAH@Z 10095010 f i GuGJKPenetrationWrapper.obj
 0001:00094030       ?V3Length@aos@shdfnd@physx@@YA?AT__m128@@T4@@Z 10095030 f i GuGJKPenetrationWrapper.obj
 0001:00094090       ?VecI32V_And@aos@shdfnd@physx@@YA?AT__m128@@ABT4@0@Z 10095090 f i GuGJKPenetrationWrapper.obj
 0001:000940e0       ?VecI32V_From_BoolV@aos@shdfnd@physx@@YA?AT__m128@@ABT4@@Z 100950e0 f i GuGJKPenetrationWrapper.obj
 0001:000940f0       ?VecI32V_One@aos@shdfnd@physx@@YA?AT__m128@@XZ 100950f0 f i GuGJKPenetrationWrapper.obj
 0001:00094130       ?VecI32V_Sel@aos@shdfnd@physx@@YA?AT__m128@@T4@ABT4@1@Z 10095130 f i GuGJKPenetrationWrapper.obj
 0001:000941a0       ?VecI32V_Two@aos@shdfnd@physx@@YA?AT__m128@@XZ 100951a0 f i GuGJKPenetrationWrapper.obj
 0001:000941e0       ?VecI32V_Zero@aos@shdfnd@physx@@YA?AT__m128@@XZ 100951e0 f i GuGJKPenetrationWrapper.obj
 0001:00094220       ?assignWarmStartValue@Gu@physx@@YAXPIAE0AAEPIAH2I@Z 10095220 f i GuGJKPenetrationWrapper.obj
 0001:00094300       ?closestPtPointTriangle@Gu@physx@@YA?AT__m128@@PIAT3@PAT3@1PIAH2AAI@Z 10095300 f i GuGJKPenetrationWrapper.obj
 0001:000946d0       ?getClosestPoint@Gu@physx@@YAXPIBT__m128@@00ABT3@AAT3@2I@Z 100956d0 f i GuGJKPenetrationWrapper.obj
 0001:00094a90       ?getFacesByVertices8@ConvexHullData@Gu@physx@@QBEPBEXZ 10095a90 f i GuGJKPenetrationWrapper.obj
 0001:00094af0       ?getIndex@BoxV@Gu@physx@@QBEXT__m128@@AAH@Z 10095af0 f i GuGJKPenetrationWrapper.obj
 0001:00094b40       ?getIndex@CapsuleV@Gu@physx@@QBEXT__m128@@AAH@Z 10095b40 f i GuGJKPenetrationWrapper.obj
 0001:00094bc0       ?getMarginDif@ConvexV@Gu@physx@@QBE?AT__m128@@XZ 10095bc0 f i GuGJKPenetrationWrapper.obj
 0001:00094bf0       ?intersectPlanes@Gu@physx@@YA?AT__m128@@ABT3@00000@Z 10095bf0 f i GuGJKPenetrationWrapper.obj
 0001:00094ce0       ?planeShift@ShrunkConvexHullNoScaleV@Gu@physx@@QBE?AT__m128@@IABT4@@Z 10095ce0 f i GuGJKPenetrationWrapper.obj
 0001:00094f70       ?planeShift@ShrunkConvexHullV@Gu@physx@@QBE?AT__m128@@IABT4@@Z 10095f70 f i GuGJKPenetrationWrapper.obj
 0001:000952e0       ?supportLocal@BoxV@Gu@physx@@QBE?AT__m128@@ABT4@AAT4@AAH@Z 100962e0 f i GuGJKPenetrationWrapper.obj
 0001:000953a0       ?supportLocal@CapsuleV@Gu@physx@@QBE?AT__m128@@ABT4@AAH@Z 100963a0 f i GuGJKPenetrationWrapper.obj
 0001:00095460       ?supportLocal@CapsuleV@Gu@physx@@QBE?AT__m128@@ABT4@AAT4@AAH@Z 10096460 f i GuGJKPenetrationWrapper.obj
 0001:000954d0       ?supportLocal@ConvexHullNoScaleV@Gu@physx@@QBE?AT__m128@@ABT4@AAT4@AAH@Z 100964d0 f i GuGJKPenetrationWrapper.obj
 0001:00095560       ?supportLocal@ConvexHullV@Gu@physx@@QBE?AT__m128@@ABT4@AAT4@AAH@Z 10096560 f i GuGJKPenetrationWrapper.obj
 0001:00095630       ?supportLocal@ShrunkBoxV@Gu@physx@@QBE?AT__m128@@ABT4@AAT4@AAH@Z 10096630 f i GuGJKPenetrationWrapper.obj
 0001:00095710       ?supportLocal@ShrunkConvexHullNoScaleV@Gu@physx@@QBE?AT__m128@@ABT4@AAT4@AAH@Z 10096710 f i GuGJKPenetrationWrapper.obj
 0001:000957a0       ?supportLocal@ShrunkConvexHullV@Gu@physx@@QBE?AT__m128@@ABT4@AAT4@AAH@Z 100967a0 f i GuGJKPenetrationWrapper.obj
 0001:00095850       ?supportLocal@TriangleV@Gu@physx@@QBE?AT__m128@@ABT4@AAH@Z 10096850 f i GuGJKPenetrationWrapper.obj
 0001:00095a60       ?supportLocal@TriangleV@Gu@physx@@QBE?AT__m128@@ABT4@AAT4@AAH@Z 10096a60 f i GuGJKPenetrationWrapper.obj
 0001:00095ad0       ?supportPoint@ShrunkBoxV@Gu@physx@@QBE?AT__m128@@H@Z 10096ad0 f i GuGJKPenetrationWrapper.obj
 0001:00095b80       ?supportPoint@ShrunkConvexHullNoScaleV@Gu@physx@@QBE?AT__m128@@H@Z 10096b80 f i GuGJKPenetrationWrapper.obj
 0001:00095bb0       ?supportPoint@ShrunkConvexHullV@Gu@physx@@QBE?AT__m128@@H@Z 10096bb0 f i GuGJKPenetrationWrapper.obj
 0001:00095be0       ?supportRelative@BoxV@Gu@physx@@QBE?AT__m128@@ABT4@ABVPsMatTransformV@aos@shdfnd@3@AAT4@AAH@Z 10096be0 f i GuGJKPenetrationWrapper.obj
 0001:00095cd0       ?supportRelative@CapsuleV@Gu@physx@@QBE?AT__m128@@ABT4@ABVPsMatTransformV@aos@shdfnd@3@AAH@Z 10096cd0 f i GuGJKPenetrationWrapper.obj
 0001:00095d50       ?supportRelative@CapsuleV@Gu@physx@@QBE?AT__m128@@ABT4@ABVPsMatTransformV@aos@shdfnd@3@AAT4@AAH@Z 10096d50 f i GuGJKPenetrationWrapper.obj
 0001:00095dc0       ?supportRelative@ConvexHullV@Gu@physx@@QBE?AT__m128@@ABT4@ABVPsMatTransformV@aos@shdfnd@3@AAT4@AAH@Z 10096dc0 f i GuGJKPenetrationWrapper.obj
 0001:00095e60       ?supportRelative@ShrunkBoxV@Gu@physx@@QBE?AT__m128@@ABT4@ABVPsMatTransformV@aos@shdfnd@3@AAT4@AAH@Z 10096e60 f i GuGJKPenetrationWrapper.obj
 0001:00095f70       ?supportRelative@ShrunkConvexHullNoScaleV@Gu@physx@@QBE?AT__m128@@ABT4@ABVPsMatTransformV@aos@shdfnd@3@AAT4@AAH@Z 10096f70 f i GuGJKPenetrationWrapper.obj
 0001:00096010       ?supportRelative@ShrunkConvexHullV@Gu@physx@@QBE?AT__m128@@ABT4@ABVPsMatTransformV@aos@shdfnd@3@AAT4@AAH@Z 10097010 f i GuGJKPenetrationWrapper.obj
 0001:000960b0       ?supportRelative@TriangleV@Gu@physx@@QBE?AT__m128@@ABT4@ABVPsMatTransformV@aos@shdfnd@3@AAT4@AAH@Z 100970b0 f i GuGJKPenetrationWrapper.obj
 0001:00096140       ?to8@shdfnd@physx@@YAEH@Z  10097140 f i GuGJKPenetrationWrapper.obj
 0001:000961f0       ?closestPtPointTetrahedron@Gu@physx@@YA?AT__m128@@PIAT3@00AAI@Z 100971f0 f   GuGJKSimplex.obj
 0001:00096590       ?closestPtPointTetrahedron@Gu@physx@@YA?AT__m128@@PIAT3@00PIAH1AAI@Z 10097590 f   GuGJKSimplex.obj
 0001:00097200       ?BGetW@aos@shdfnd@physx@@YA?AT__m128@@T4@@Z 10098200 f i GuGJKSimplex.obj
 0001:00097250       ?BGetX@aos@shdfnd@physx@@YA?AT__m128@@T4@@Z 10098250 f i GuGJKSimplex.obj
 0001:000972a0       ?BGetY@aos@shdfnd@physx@@YA?AT__m128@@T4@@Z 100982a0 f i GuGJKSimplex.obj
 0001:000972f0       ?BGetZ@aos@shdfnd@physx@@YA?AT__m128@@T4@@Z 100982f0 f i GuGJKSimplex.obj
 0001:00097340       ?PointOutsideOfPlane4@Gu@physx@@YA?AT__m128@@ABT3@000@Z 10098340 f i GuGJKSimplex.obj
 0001:00097610       ?V4Merge@aos@shdfnd@physx@@YA?AT__m128@@ABT4@000@Z 10098610 f i GuGJKSimplex.obj
 0001:000976a0       ?closestPtPointSegmentTesselation@Gu@physx@@YA?AT__m128@@ABT3@00000AAIAAT3@2@Z 100986a0 f   GuGJKSimplexTesselation.obj
 0001:000978f0       ?closestPtPointTetrahedronTesselation@Gu@physx@@YA?AT__m128@@PIAT3@00AAIAAT3@2@Z 100988f0 f   GuGJKSimplexTesselation.obj
 0001:00098290       ?closestPtPointTriangleTesselation@Gu@physx@@YA?AT__m128@@PIAT3@00PIAIAAIAAT3@3@Z 10099290 f   GuGJKSimplexTesselation.obj
 0001:00099f20       ?BAllTrue3_R@internalWindowsSimd@aos@shdfnd@physx@@YAIT__m128@@@Z 1009af20 f i GuGJKSimplexTesselation.obj
 0001:00099f80       ?V3AllEq@aos@shdfnd@physx@@YAIT__m128@@0@Z 1009af80 f i GuGJKSimplexTesselation.obj
 0001:00099fe0       ?V4IsEq@aos@shdfnd@physx@@YA?AT__m128@@T4@0@Z 1009afe0 f i GuGJKSimplexTesselation.obj
 0001:0009a030       ?closestPtPointSegment@Gu@physx@@YA?AT__m128@@ABT3@00000AAIAAT3@2@Z 1009b030 f i GuGJKSimplexTesselation.obj
 0001:0009a280       ?closestPtPointSegment@Gu@physx@@YA?AT__m128@@ABT3@0@Z 1009b280 f i GuGJKSimplexTesselation.obj
 0001:0009a3e0       ?GJKRelative@Gu@physx@@YAIABVCapsuleV@12@ABVConvexHullV@12@ABVPsMatTransformV@aos@shdfnd@2@AAT__m128@@333@Z 1009b3e0 f   GuGJKWrapper.obj
 0001:0009a410       ?GJKRelative@Gu@physx@@YAIABVCapsuleV@12@ABVBoxV@12@ABVPsMatTransformV@aos@shdfnd@2@AAT__m128@@333@Z 1009b410 f   GuGJKWrapper.obj
 0001:0009a440       ?GJKRelative@Gu@physx@@YAIABVBoxV@12@0ABVPsMatTransformV@aos@shdfnd@2@AAT__m128@@222@Z 1009b440 f   GuGJKWrapper.obj
 0001:0009a470       ?GJKRelative@Gu@physx@@YAIABVBoxV@12@ABVConvexHullV@12@ABVPsMatTransformV@aos@shdfnd@2@AAT__m128@@333@Z 1009b470 f   GuGJKWrapper.obj
 0001:0009a4a0       ?GJKRelative@Gu@physx@@YAIABVConvexHullV@12@0ABVPsMatTransformV@aos@shdfnd@2@AAT__m128@@222@Z 1009b4a0 f   GuGJKWrapper.obj
 0001:0009a4d0       ?GJKRelative@Gu@physx@@YAIABVTriangleV@12@ABVBoxV@12@ABVPsMatTransformV@aos@shdfnd@2@AAT__m128@@333@Z 1009b4d0 f   GuGJKWrapper.obj
 0001:0009a500       ?GJKRelative@Gu@physx@@YAIABVTriangleV@12@ABVConvexHullV@12@ABVPsMatTransformV@aos@shdfnd@2@AAT__m128@@333@Z 1009b500 f   GuGJKWrapper.obj
 0001:0009a530       ?GJKLocal@Gu@physx@@YAIABVCapsuleV@12@ABVConvexHullV@12@AAT__m128@@222@Z 1009b530 f   GuGJKWrapper.obj
 0001:0009a560       ?GJKLocal@Gu@physx@@YAIABVTriangleV@12@ABVBoxV@12@AAT__m128@@222@Z 1009b560 f   GuGJKWrapper.obj
 0001:0009a590       ?GJKLocal@Gu@physx@@YAIABVTriangleV@12@ABVConvexHullV@12@AAT__m128@@222@Z 1009b590 f   GuGJKWrapper.obj
 0001:0009a5c0       ?GJKRelativeTesselation@Gu@physx@@YAIABVBoxV@12@ABVConvexHullV@12@ABVPsMatTransformV@aos@shdfnd@2@ABT__m128@@AAT8@444@Z 1009b5c0 f   GuGJKWrapper.obj
 0001:0009a5f0       ?GJKRelativeTesselation@Gu@physx@@YAIABVConvexHullV@12@0ABVPsMatTransformV@aos@shdfnd@2@ABT__m128@@AAT7@333@Z 1009b5f0 f   GuGJKWrapper.obj
 0001:0009a620       ?GJKLocalRayCast@Gu@physx@@YA_NAAVTriangleV@12@AAVCapsuleV@12@ABT__m128@@22AAT5@33M_N@Z 1009b620 f   GuGJKWrapper.obj
 0001:0009a660       ?GJKLocalRayCast@Gu@physx@@YA_NAAVTriangleV@12@AAVBoxV@12@ABT__m128@@22AAT5@33M_N@Z 1009b660 f   GuGJKWrapper.obj
 0001:0009a6a0       ?GJKLocalRayCast@Gu@physx@@YA_NAAVTriangleV@12@AAVConvexHullV@12@ABT__m128@@22AAT5@33M_N@Z 1009b6a0 f   GuGJKWrapper.obj
 0001:0009a6e0       ?GJKLocalRayCast@Gu@physx@@YA_NAAVCapsuleV@12@AAVBoxV@12@ABT__m128@@22AAT5@33M_N@Z 1009b6e0 f   GuGJKWrapper.obj
 0001:0009a720       ?GJKLocalRayCast@Gu@physx@@YA_NAAVCapsuleV@12@AAVConvexHullV@12@ABT__m128@@22AAT5@33M_N@Z 1009b720 f   GuGJKWrapper.obj
 0001:0009a760       ?GJKRelativeRayCast@Gu@physx@@YA_NAAVTriangleV@12@AAVBoxV@12@ABVPsMatTransformV@aos@shdfnd@2@ABT__m128@@33AAT8@44M_N@Z 1009b760 f   GuGJKWrapper.obj
 0001:0009a7b0       ?GJKRelativeRayCast@Gu@physx@@YA_NAAVTriangleV@12@AAVCapsuleV@12@ABVPsMatTransformV@aos@shdfnd@2@ABT__m128@@33AAT8@44M_N@Z 1009b7b0 f   GuGJKWrapper.obj
 0001:0009a800       ?GJKRelativeRayCast@Gu@physx@@YA_NAAVTriangleV@12@AAVConvexHullV@12@ABVPsMatTransformV@aos@shdfnd@2@ABT__m128@@33AAT8@44M_N@Z 1009b800 f   GuGJKWrapper.obj
 0001:0009a850       ?GJKRelativeRayCast@Gu@physx@@YA_NAAVCapsuleV@12@0ABVPsMatTransformV@aos@shdfnd@2@ABT__m128@@22AAT7@33M_N@Z 1009b850 f   GuGJKWrapper.obj
 0001:0009a8a0       ?GJKRelativeRayCast@Gu@physx@@YA_NAAVCapsuleV@12@AAVBoxV@12@ABVPsMatTransformV@aos@shdfnd@2@ABT__m128@@33AAT8@44M_N@Z 1009b8a0 f   GuGJKWrapper.obj
 0001:0009a8f0       ?GJKRelativeRayCast@Gu@physx@@YA_NAAVCapsuleV@12@AAVConvexHullV@12@ABVPsMatTransformV@aos@shdfnd@2@ABT__m128@@33AAT8@44M_N@Z 1009b8f0 f   GuGJKWrapper.obj
 0001:0009a940       ?GJKRelativeRayCast@Gu@physx@@YA_NAAVBoxV@12@0ABVPsMatTransformV@aos@shdfnd@2@ABT__m128@@22AAT7@33M_N@Z 1009b940 f   GuGJKWrapper.obj
 0001:0009a990       ?GJKRelativeRayCast@Gu@physx@@YA_NAAVBoxV@12@AAVConvexHullV@12@ABVPsMatTransformV@aos@shdfnd@2@ABT__m128@@33AAT8@44M_N@Z 1009b990 f   GuGJKWrapper.obj
 0001:0009a9e0       ?GJKRelativeRayCast@Gu@physx@@YA_NAAVConvexHullV@12@0ABVPsMatTransformV@aos@shdfnd@2@ABT__m128@@22AAT7@33M_N@Z 1009b9e0 f   GuGJKWrapper.obj
 0001:0009abc0       ??$PX_UNUSED@T__m128@@@@YAXABT__m128@@@Z 1009bbc0 f i GuGJKWrapper.obj
 0001:0009abd0       ??$_gjkLocalRayCast@VCapsuleV@Gu@physx@@VBoxV@23@@Gu@physx@@YA_NAAVCapsuleV@01@AAVBoxV@01@ABT__m128@@22AAT4@33M@Z 1009bbd0 f i GuGJKWrapper.obj
 0001:0009b970       ??$_gjkLocalRayCast@VCapsuleV@Gu@physx@@VConvexHullV@23@@Gu@physx@@YA_NAAVCapsuleV@01@AAVConvexHullV@01@ABT__m128@@22AAT4@33M@Z 1009c970 f i GuGJKWrapper.obj
 0001:0009c710       ??$_gjkLocalRayCast@VTriangleV@Gu@physx@@VBoxV@23@@Gu@physx@@YA_NAAVTriangleV@01@AAVBoxV@01@ABT__m128@@22AAT4@33M@Z 1009d710 f i GuGJKWrapper.obj
 0001:0009d4b0       ??$_gjkLocalRayCast@VTriangleV@Gu@physx@@VCapsuleV@23@@Gu@physx@@YA_NAAVTriangleV@01@AAVCapsuleV@01@ABT__m128@@22AAT4@33M@Z 1009e4b0 f i GuGJKWrapper.obj
 0001:0009e250       ??$_gjkLocalRayCast@VTriangleV@Gu@physx@@VConvexHullV@23@@Gu@physx@@YA_NAAVTriangleV@01@AAVConvexHullV@01@ABT__m128@@22AAT4@33M@Z 1009f250 f i GuGJKWrapper.obj
 0001:0009eff0       ??$_gjkRelativeRayCast@VBoxV@Gu@physx@@V123@@Gu@physx@@YA_NAAVBoxV@01@0ABVPsMatTransformV@aos@shdfnd@1@ABT__m128@@22AAT6@33M@Z 1009fff0 f i GuGJKWrapper.obj
 0001:0009fd50       ??$_gjkRelativeRayCast@VBoxV@Gu@physx@@VConvexHullV@23@@Gu@physx@@YA_NAAVBoxV@01@AAVConvexHullV@01@ABVPsMatTransformV@aos@shdfnd@1@ABT__m128@@33AAT7@44M@Z 100a0d50 f i GuGJKWrapper.obj
 0001:000a0ab0       ??$_gjkRelativeRayCast@VCapsuleV@Gu@physx@@V123@@Gu@physx@@YA_NAAVCapsuleV@01@0ABVPsMatTransformV@aos@shdfnd@1@ABT__m128@@22AAT6@33M@Z 100a1ab0 f i GuGJKWrapper.obj
 0001:000a1810       ??$_gjkRelativeRayCast@VCapsuleV@Gu@physx@@VBoxV@23@@Gu@physx@@YA_NAAVCapsuleV@01@AAVBoxV@01@ABVPsMatTransformV@aos@shdfnd@1@ABT__m128@@33AAT7@44M@Z 100a2810 f i GuGJKWrapper.obj
 0001:000a2570       ??$_gjkRelativeRayCast@VCapsuleV@Gu@physx@@VConvexHullV@23@@Gu@physx@@YA_NAAVCapsuleV@01@AAVConvexHullV@01@ABVPsMatTransformV@aos@shdfnd@1@ABT__m128@@33AAT7@44M@Z 100a3570 f i GuGJKWrapper.obj
 0001:000a32d0       ??$_gjkRelativeRayCast@VConvexHullV@Gu@physx@@V123@@Gu@physx@@YA_NAAVConvexHullV@01@0ABVPsMatTransformV@aos@shdfnd@1@ABT__m128@@22AAT6@33M@Z 100a42d0 f i GuGJKWrapper.obj
 0001:000a4030       ??$_gjkRelativeRayCast@VTriangleV@Gu@physx@@VBoxV@23@@Gu@physx@@YA_NAAVTriangleV@01@AAVBoxV@01@ABVPsMatTransformV@aos@shdfnd@1@ABT__m128@@33AAT7@44M@Z 100a5030 f i GuGJKWrapper.obj
 0001:000a4d90       ??$_gjkRelativeRayCast@VTriangleV@Gu@physx@@VCapsuleV@23@@Gu@physx@@YA_NAAVTriangleV@01@AAVCapsuleV@01@ABVPsMatTransformV@aos@shdfnd@1@ABT__m128@@33AAT7@44M@Z 100a5d90 f i GuGJKWrapper.obj
 0001:000a5af0       ??$_gjkRelativeRayCast@VTriangleV@Gu@physx@@VConvexHullV@23@@Gu@physx@@YA_NAAVTriangleV@01@AAVConvexHullV@01@ABVPsMatTransformV@aos@shdfnd@1@ABT__m128@@33AAT7@44M@Z 100a6af0 f i GuGJKWrapper.obj
 0001:000a6850       ??$gjkLocal@VCapsuleV@Gu@physx@@VConvexHullV@23@@Gu@physx@@YAIABVCapsuleV@01@ABVConvexHullV@01@AAT__m128@@222@Z 100a7850 f i GuGJKWrapper.obj
 0001:000a6eb0       ??$gjkLocal@VTriangleV@Gu@physx@@VBoxV@23@@Gu@physx@@YAIABVTriangleV@01@ABVBoxV@01@AAT__m128@@222@Z 100a7eb0 f i GuGJKWrapper.obj
 0001:000a7510       ??$gjkLocal@VTriangleV@Gu@physx@@VConvexHullV@23@@Gu@physx@@YAIABVTriangleV@01@ABVConvexHullV@01@AAT__m128@@222@Z 100a8510 f i GuGJKWrapper.obj
 0001:000a7b70       ??$gjkLocalPenetration@VTriangleV@Gu@physx@@VCapsuleV@23@@Gu@physx@@YAIABVTriangleV@01@ABVCapsuleV@01@ABT__m128@@AAT4@333PIAE4AAE_N@Z 100a8b70 f i GuGJKWrapper.obj
 0001:000a8c70       ??$gjkLocalPenetration@VTriangleV@Gu@physx@@VShrunkBoxV@23@@Gu@physx@@YAIABVTriangleV@01@ABVShrunkBoxV@01@ABT__m128@@AAT4@333PIAE4AAE_N@Z 100a9c70 f i GuGJKWrapper.obj
 0001:000a9d70       ??$gjkLocalPenetration@VTriangleV@Gu@physx@@VShrunkConvexHullV@23@@Gu@physx@@YAIABVTriangleV@01@ABVShrunkConvexHullV@01@ABT__m128@@AAT4@333PIAE4AAE_N@Z 100aad70 f i GuGJKWrapper.obj
 0001:000aae70       ??$gjkLocalRayCast@VCapsuleV@Gu@physx@@VBoxV@23@V123@VShrunkBoxV@23@@Gu@physx@@YA_NAAVCapsuleV@01@AAVBoxV@01@ABT__m128@@22AAT4@33M_N@Z 100abe70 f i GuGJKWrapper.obj
 0001:000ab130       ??$gjkLocalRayCast@VCapsuleV@Gu@physx@@VConvexHullV@23@V123@VShrunkConvexHullV@23@@Gu@physx@@YA_NAAVCapsuleV@01@AAVConvexHullV@01@ABT__m128@@22AAT4@33M_N@Z 100ac130 f i GuGJKWrapper.obj
 0001:000ab3f0       ??$gjkLocalRayCast@VTriangleV@Gu@physx@@VBoxV@23@V123@VShrunkBoxV@23@@Gu@physx@@YA_NAAVTriangleV@01@AAVBoxV@01@ABT__m128@@22AAT4@33M_N@Z 100ac3f0 f i GuGJKWrapper.obj
 0001:000ab6b0       ??$gjkLocalRayCast@VTriangleV@Gu@physx@@VCapsuleV@23@V123@V423@@Gu@physx@@YA_NAAVTriangleV@01@AAVCapsuleV@01@ABT__m128@@22AAT4@33M_N@Z 100ac6b0 f i GuGJKWrapper.obj
 0001:000ab970       ??$gjkLocalRayCast@VTriangleV@Gu@physx@@VConvexHullV@23@V123@VShrunkConvexHullV@23@@Gu@physx@@YA_NAAVTriangleV@01@AAVConvexHullV@01@ABT__m128@@22AAT4@33M_N@Z 100ac970 f i GuGJKWrapper.obj
 0001:000abc30       ??$gjkRelative@VBoxV@Gu@physx@@V123@@Gu@physx@@YAIABVBoxV@01@0ABVPsMatTransformV@aos@shdfnd@1@AAT__m128@@222@Z 100acc30 f i GuGJKWrapper.obj
 0001:000ac250       ??$gjkRelative@VBoxV@Gu@physx@@VConvexHullV@23@@Gu@physx@@YAIABVBoxV@01@ABVConvexHullV@01@ABVPsMatTransformV@aos@shdfnd@1@AAT__m128@@333@Z 100ad250 f i GuGJKWrapper.obj
 0001:000ac870       ??$gjkRelative@VCapsuleV@Gu@physx@@VBoxV@23@@Gu@physx@@YAIABVCapsuleV@01@ABVBoxV@01@ABVPsMatTransformV@aos@shdfnd@1@AAT__m128@@333@Z 100ad870 f i GuGJKWrapper.obj
 0001:000ace90       ??$gjkRelative@VCapsuleV@Gu@physx@@VConvexHullV@23@@Gu@physx@@YAIABVCapsuleV@01@ABVConvexHullV@01@ABVPsMatTransformV@aos@shdfnd@1@AAT__m128@@333@Z 100ade90 f i GuGJKWrapper.obj
 0001:000ad4b0       ??$gjkRelative@VConvexHullV@Gu@physx@@V123@@Gu@physx@@YAIABVConvexHullV@01@0ABVPsMatTransformV@aos@shdfnd@1@AAT__m128@@222@Z 100ae4b0 f i GuGJKWrapper.obj
 0001:000adad0       ??$gjkRelative@VTriangleV@Gu@physx@@VBoxV@23@@Gu@physx@@YAIABVTriangleV@01@ABVBoxV@01@ABVPsMatTransformV@aos@shdfnd@1@AAT__m128@@333@Z 100aead0 f i GuGJKWrapper.obj
 0001:000ae0f0       ??$gjkRelative@VTriangleV@Gu@physx@@VConvexHullV@23@@Gu@physx@@YAIABVTriangleV@01@ABVConvexHullV@01@ABVPsMatTransformV@aos@shdfnd@1@AAT__m128@@333@Z 100af0f0 f i GuGJKWrapper.obj
 0001:000ae710       ??$gjkRelativePenetration@VCapsuleV@Gu@physx@@VShrunkBoxV@23@@Gu@physx@@YAIABVCapsuleV@01@ABVShrunkBoxV@01@ABVPsMatTransformV@aos@shdfnd@1@ABT__m128@@AAT7@444PIAE5AAE@Z 100af710 f i GuGJKWrapper.obj
 0001:000af460       ??$gjkRelativePenetration@VCapsuleV@Gu@physx@@VShrunkConvexHullV@23@@Gu@physx@@YAIABVCapsuleV@01@ABVShrunkConvexHullV@01@ABVPsMatTransformV@aos@shdfnd@1@ABT__m128@@AAT7@444PIAE5AAE@Z 100b0460 f i GuGJKWrapper.obj
 0001:000b01b0       ??$gjkRelativePenetration@VTriangleV@Gu@physx@@VShrunkBoxV@23@@Gu@physx@@YAIABVTriangleV@01@ABVShrunkBoxV@01@ABVPsMatTransformV@aos@shdfnd@1@ABT__m128@@AAT7@444PIAE5AAE@Z 100b11b0 f i GuGJKWrapper.obj
 0001:000b0f00       ??$gjkRelativePenetration@VTriangleV@Gu@physx@@VShrunkConvexHullV@23@@Gu@physx@@YAIABVTriangleV@01@ABVShrunkConvexHullV@01@ABVPsMatTransformV@aos@shdfnd@1@ABT__m128@@AAT7@444PIAE5AAE@Z 100b1f00 f i GuGJKWrapper.obj
 0001:000b1c50       ??$gjkRelativeRayCast@VBoxV@Gu@physx@@V123@VShrunkBoxV@23@V423@@Gu@physx@@YA_NAAVBoxV@01@0ABVPsMatTransformV@aos@shdfnd@1@ABT__m128@@22AAT6@33M_N@Z 100b2c50 f i GuGJKWrapper.obj
 0001:000b1f10       ??$gjkRelativeRayCast@VBoxV@Gu@physx@@VConvexHullV@23@VShrunkBoxV@23@VShrunkConvexHullV@23@@Gu@physx@@YA_NAAVBoxV@01@AAVConvexHullV@01@ABVPsMatTransformV@aos@shdfnd@1@ABT__m128@@33AAT7@44M_N@Z 100b2f10 f i GuGJKWrapper.obj
 0001:000b21d0       ??$gjkRelativeRayCast@VCapsuleV@Gu@physx@@V123@V123@V123@@Gu@physx@@YA_NAAVCapsuleV@01@0ABVPsMatTransformV@aos@shdfnd@1@ABT__m128@@22AAT6@33M_N@Z 100b31d0 f i GuGJKWrapper.obj
 0001:000b2490       ??$gjkRelativeRayCast@VCapsuleV@Gu@physx@@VBoxV@23@V123@VShrunkBoxV@23@@Gu@physx@@YA_NAAVCapsuleV@01@AAVBoxV@01@ABVPsMatTransformV@aos@shdfnd@1@ABT__m128@@33AAT7@44M_N@Z 100b3490 f i GuGJKWrapper.obj
 0001:000b2750       ??$gjkRelativeRayCast@VCapsuleV@Gu@physx@@VConvexHullV@23@V123@VShrunkConvexHullV@23@@Gu@physx@@YA_NAAVCapsuleV@01@AAVConvexHullV@01@ABVPsMatTransformV@aos@shdfnd@1@ABT__m128@@33AAT7@44M_N@Z 100b3750 f i GuGJKWrapper.obj
 0001:000b2a10       ??$gjkRelativeRayCast@VConvexHullV@Gu@physx@@V123@VShrunkConvexHullV@23@V423@@Gu@physx@@YA_NAAVConvexHullV@01@0ABVPsMatTransformV@aos@shdfnd@1@ABT__m128@@22AAT6@33M_N@Z 100b3a10 f i GuGJKWrapper.obj
 0001:000b2cd0       ??$gjkRelativeRayCast@VTriangleV@Gu@physx@@VBoxV@23@V123@VShrunkBoxV@23@@Gu@physx@@YA_NAAVTriangleV@01@AAVBoxV@01@ABVPsMatTransformV@aos@shdfnd@1@ABT__m128@@33AAT7@44M_N@Z 100b3cd0 f i GuGJKWrapper.obj
 0001:000b2f90       ??$gjkRelativeRayCast@VTriangleV@Gu@physx@@VCapsuleV@23@V123@V423@@Gu@physx@@YA_NAAVTriangleV@01@AAVCapsuleV@01@ABVPsMatTransformV@aos@shdfnd@1@ABT__m128@@33AAT7@44M_N@Z 100b3f90 f i GuGJKWrapper.obj
 0001:000b3250       ??$gjkRelativeRayCast@VTriangleV@Gu@physx@@VConvexHullV@23@V123@VShrunkConvexHullV@23@@Gu@physx@@YA_NAAVTriangleV@01@AAVConvexHullV@01@ABVPsMatTransformV@aos@shdfnd@1@ABT__m128@@33AAT7@44M_N@Z 100b4250 f i GuGJKWrapper.obj
 0001:000b3510       ??$gjkRelativeTesselation@VBoxV@Gu@physx@@VConvexHullV@23@@Gu@physx@@YAIABVBoxV@01@ABVConvexHullV@01@ABVPsMatTransformV@aos@shdfnd@1@ABT__m128@@AAT7@444@Z 100b4510 f i GuGJKWrapper.obj
 0001:000b3670       ??$gjkRelativeTesselation@VConvexHullV@Gu@physx@@V123@@Gu@physx@@YAIABVConvexHullV@01@0ABVPsMatTransformV@aos@shdfnd@1@ABT__m128@@AAT6@333@Z 100b4670 f i GuGJKWrapper.obj
 0001:000b37d0       ??0?$EPASupportMapPairLocalImpl@VTriangleV@Gu@physx@@VCapsuleV@23@@Gu@physx@@QAE@ABVTriangleV@12@ABVCapsuleV@12@@Z 100b47d0 f i GuGJKWrapper.obj
 0001:000b3810       ??0?$EPASupportMapPairRelativeImpl@VCapsuleV@Gu@physx@@V123@@Gu@physx@@QAE@ABVCapsuleV@12@0ABVPsMatTransformV@aos@shdfnd@2@@Z 100b4810 f i GuGJKWrapper.obj
 0001:000b3860       ??0?$EPASupportMapPairRelativeImpl@VCapsuleV@Gu@physx@@VBoxV@23@@Gu@physx@@QAE@ABVCapsuleV@12@ABVBoxV@12@ABVPsMatTransformV@aos@shdfnd@2@@Z 100b4860 f i GuGJKWrapper.obj
 0001:000b38b0       ??0?$EPASupportMapPairRelativeImpl@VCapsuleV@Gu@physx@@VConvexHullV@23@@Gu@physx@@QAE@ABVCapsuleV@12@ABVConvexHullV@12@ABVPsMatTransformV@aos@shdfnd@2@@Z 100b48b0 f i GuGJKWrapper.obj
 0001:000b3900       ??0?$EPASupportMapPairRelativeImpl@VTriangleV@Gu@physx@@VBoxV@23@@Gu@physx@@QAE@ABVTriangleV@12@ABVBoxV@12@ABVPsMatTransformV@aos@shdfnd@2@@Z 100b4900 f i GuGJKWrapper.obj
 0001:000b3950       ??0?$EPASupportMapPairRelativeImpl@VTriangleV@Gu@physx@@VCapsuleV@23@@Gu@physx@@QAE@ABVTriangleV@12@ABVCapsuleV@12@ABVPsMatTransformV@aos@shdfnd@2@@Z 100b4950 f i GuGJKWrapper.obj
 0001:000b39a0       ??0?$EPASupportMapPairRelativeImpl@VTriangleV@Gu@physx@@VConvexHullV@23@@Gu@physx@@QAE@ABVTriangleV@12@ABVConvexHullV@12@ABVPsMatTransformV@aos@shdfnd@2@@Z 100b49a0 f i GuGJKWrapper.obj
 0001:000b39f0       ??0?$SupportMapLocalImpl@VConvexHullV@Gu@physx@@@Gu@physx@@QAE@ABVConvexHullV@12@@Z 100b49f0 f i GuGJKWrapper.obj
 0001:000b3a30       ??0?$SupportMapRelativeImpl@VBoxV@Gu@physx@@@Gu@physx@@QAE@ABVBoxV@12@ABVPsMatTransformV@aos@shdfnd@2@@Z 100b4a30 f i GuGJKWrapper.obj
 0001:000b3a70       ??0?$SupportMapRelativeImpl@VConvexHullV@Gu@physx@@@Gu@physx@@QAE@ABVConvexHullV@12@ABVPsMatTransformV@aos@shdfnd@2@@Z 100b4a70 f i GuGJKWrapper.obj
 0001:000b3ab0       ??0SIMDGuard@shdfnd@physx@@QAE@XZ 100b4ab0 f i GuGJKWrapper.obj
 0001:000b3ae0       ??0SupportMap@Gu@physx@@QAE@XZ 100b4ae0 f i GuGJKWrapper.obj
 0001:000b3b00       ??1?$EPASupportMapPairLocalImpl@VTriangleV@Gu@physx@@VCapsuleV@23@@Gu@physx@@UAE@XZ 100b4b00 f i GuGJKWrapper.obj
 0001:000b3b20       ??1?$EPASupportMapPairRelativeImpl@VCapsuleV@Gu@physx@@V123@@Gu@physx@@UAE@XZ 100b4b20 f i GuGJKWrapper.obj
 0001:000b3b40       ??1?$EPASupportMapPairRelativeImpl@VCapsuleV@Gu@physx@@VBoxV@23@@Gu@physx@@UAE@XZ 100b4b40 f i GuGJKWrapper.obj
 0001:000b3b60       ??1?$EPASupportMapPairRelativeImpl@VCapsuleV@Gu@physx@@VConvexHullV@23@@Gu@physx@@UAE@XZ 100b4b60 f i GuGJKWrapper.obj
 0001:000b3b80       ??1?$EPASupportMapPairRelativeImpl@VTriangleV@Gu@physx@@VBoxV@23@@Gu@physx@@UAE@XZ 100b4b80 f i GuGJKWrapper.obj
 0001:000b3ba0       ??1?$EPASupportMapPairRelativeImpl@VTriangleV@Gu@physx@@VCapsuleV@23@@Gu@physx@@UAE@XZ 100b4ba0 f i GuGJKWrapper.obj
 0001:000b3bc0       ??1?$EPASupportMapPairRelativeImpl@VTriangleV@Gu@physx@@VConvexHullV@23@@Gu@physx@@UAE@XZ 100b4bc0 f i GuGJKWrapper.obj
 0001:000b3be0       ??1?$SupportMapLocalImpl@VConvexHullV@Gu@physx@@@Gu@physx@@UAE@XZ 100b4be0 f i GuGJKWrapper.obj
 0001:000b3c00       ??1?$SupportMapRelativeImpl@VBoxV@Gu@physx@@@Gu@physx@@UAE@XZ 100b4c00 f i GuGJKWrapper.obj
 0001:000b3c20       ??1?$SupportMapRelativeImpl@VConvexHullV@Gu@physx@@@Gu@physx@@UAE@XZ 100b4c20 f i GuGJKWrapper.obj
 0001:000b3c40       ??1SIMDGuard@shdfnd@physx@@QAE@XZ 100b4c40 f i GuGJKWrapper.obj
 0001:000b3c70       ??1SupportMap@Gu@physx@@UAE@XZ 100b4c70 f i GuGJKWrapper.obj
 0001:000b3c90       ??_E?$EPASupportMapPairLocalImpl@VTriangleV@Gu@physx@@VCapsuleV@23@@Gu@physx@@UAEPAXI@Z 100b4c90 f i GuGJKWrapper.obj
 0001:000b3c90       ??_G?$EPASupportMapPairLocalImpl@VTriangleV@Gu@physx@@VCapsuleV@23@@Gu@physx@@UAEPAXI@Z 100b4c90 f i GuGJKWrapper.obj
 0001:000b3cd0       ??_G?$EPASupportMapPairRelativeImpl@VCapsuleV@Gu@physx@@V123@@Gu@physx@@UAEPAXI@Z 100b4cd0 f i GuGJKWrapper.obj
 0001:000b3cd0       ??_E?$EPASupportMapPairRelativeImpl@VCapsuleV@Gu@physx@@V123@@Gu@physx@@UAEPAXI@Z 100b4cd0 f i GuGJKWrapper.obj
 0001:000b3d10       ??_E?$EPASupportMapPairRelativeImpl@VCapsuleV@Gu@physx@@VBoxV@23@@Gu@physx@@UAEPAXI@Z 100b4d10 f i GuGJKWrapper.obj
 0001:000b3d10       ??_G?$EPASupportMapPairRelativeImpl@VCapsuleV@Gu@physx@@VBoxV@23@@Gu@physx@@UAEPAXI@Z 100b4d10 f i GuGJKWrapper.obj
 0001:000b3d50       ??_G?$EPASupportMapPairRelativeImpl@VCapsuleV@Gu@physx@@VConvexHullV@23@@Gu@physx@@UAEPAXI@Z 100b4d50 f i GuGJKWrapper.obj
 0001:000b3d50       ??_E?$EPASupportMapPairRelativeImpl@VCapsuleV@Gu@physx@@VConvexHullV@23@@Gu@physx@@UAEPAXI@Z 100b4d50 f i GuGJKWrapper.obj
 0001:000b3d90       ??_E?$EPASupportMapPairRelativeImpl@VTriangleV@Gu@physx@@VBoxV@23@@Gu@physx@@UAEPAXI@Z 100b4d90 f i GuGJKWrapper.obj
 0001:000b3d90       ??_G?$EPASupportMapPairRelativeImpl@VTriangleV@Gu@physx@@VBoxV@23@@Gu@physx@@UAEPAXI@Z 100b4d90 f i GuGJKWrapper.obj
 0001:000b3dd0       ??_E?$EPASupportMapPairRelativeImpl@VTriangleV@Gu@physx@@VCapsuleV@23@@Gu@physx@@UAEPAXI@Z 100b4dd0 f i GuGJKWrapper.obj
 0001:000b3dd0       ??_G?$EPASupportMapPairRelativeImpl@VTriangleV@Gu@physx@@VCapsuleV@23@@Gu@physx@@UAEPAXI@Z 100b4dd0 f i GuGJKWrapper.obj
 0001:000b3e10       ??_G?$EPASupportMapPairRelativeImpl@VTriangleV@Gu@physx@@VConvexHullV@23@@Gu@physx@@UAEPAXI@Z 100b4e10 f i GuGJKWrapper.obj
 0001:000b3e10       ??_E?$EPASupportMapPairRelativeImpl@VTriangleV@Gu@physx@@VConvexHullV@23@@Gu@physx@@UAEPAXI@Z 100b4e10 f i GuGJKWrapper.obj
 0001:000b3e50       ??_G?$SupportMapLocalImpl@VConvexHullV@Gu@physx@@@Gu@physx@@UAEPAXI@Z 100b4e50 f i GuGJKWrapper.obj
 0001:000b3e50       ??_E?$SupportMapLocalImpl@VConvexHullV@Gu@physx@@@Gu@physx@@UAEPAXI@Z 100b4e50 f i GuGJKWrapper.obj
 0001:000b3e90       ??_G?$SupportMapRelativeImpl@VBoxV@Gu@physx@@@Gu@physx@@UAEPAXI@Z 100b4e90 f i GuGJKWrapper.obj
 0001:000b3e90       ??_E?$SupportMapRelativeImpl@VBoxV@Gu@physx@@@Gu@physx@@UAEPAXI@Z 100b4e90 f i GuGJKWrapper.obj
 0001:000b3ed0       ??_G?$SupportMapRelativeImpl@VConvexHullV@Gu@physx@@@Gu@physx@@UAEPAXI@Z 100b4ed0 f i GuGJKWrapper.obj
 0001:000b3ed0       ??_E?$SupportMapRelativeImpl@VConvexHullV@Gu@physx@@@Gu@physx@@UAEPAXI@Z 100b4ed0 f i GuGJKWrapper.obj
 0001:000b3f10       ??_ESupportMap@Gu@physx@@UAEPAXI@Z 100b4f10 f i GuGJKWrapper.obj
 0001:000b3f10       ??_GSupportMap@Gu@physx@@UAEPAXI@Z 100b4f10 f i GuGJKWrapper.obj
 0001:000b3f50       ?FAllEq@aos@shdfnd@physx@@YAIT__m128@@0@Z 100b4f50 f i GuGJKWrapper.obj
 0001:000b3fa0       ?doSupport@?$EPASupportMapPairLocalImpl@VTriangleV@Gu@physx@@VCapsuleV@23@@Gu@physx@@UBEXABT__m128@@AAT4@11@Z 100b4fa0 f i GuGJKWrapper.obj
 0001:000b4060       ?doSupport@?$EPASupportMapPairRelativeImpl@VCapsuleV@Gu@physx@@V123@@Gu@physx@@UBEXABT__m128@@AAT4@11@Z 100b5060 f i GuGJKWrapper.obj
 0001:000b4130       ?doSupport@?$EPASupportMapPairRelativeImpl@VCapsuleV@Gu@physx@@VBoxV@23@@Gu@physx@@UBEXABT__m128@@AAT4@11@Z 100b5130 f i GuGJKWrapper.obj
 0001:000b4200       ?doSupport@?$EPASupportMapPairRelativeImpl@VCapsuleV@Gu@physx@@VConvexHullV@23@@Gu@physx@@UBEXABT__m128@@AAT4@11@Z 100b5200 f i GuGJKWrapper.obj
 0001:000b42d0       ?doSupport@?$EPASupportMapPairRelativeImpl@VTriangleV@Gu@physx@@VBoxV@23@@Gu@physx@@UBEXABT__m128@@AAT4@11@Z 100b52d0 f i GuGJKWrapper.obj
 0001:000b43a0       ?doSupport@?$EPASupportMapPairRelativeImpl@VTriangleV@Gu@physx@@VCapsuleV@23@@Gu@physx@@UBEXABT__m128@@AAT4@11@Z 100b53a0 f i GuGJKWrapper.obj
 0001:000b4470       ?doSupport@?$EPASupportMapPairRelativeImpl@VTriangleV@Gu@physx@@VConvexHullV@23@@Gu@physx@@UBEXABT__m128@@AAT4@11@Z 100b5470 f i GuGJKWrapper.obj
 0001:000b4540       ?doSupport@?$SupportMapLocalImpl@VConvexHullV@Gu@physx@@@Gu@physx@@UBE?AT__m128@@ABT4@@Z 100b5540 f i GuGJKWrapper.obj
 0001:000b4580       ?doSupport@?$SupportMapRelativeImpl@VBoxV@Gu@physx@@@Gu@physx@@UBE?AT__m128@@ABT4@@Z 100b5580 f i GuGJKWrapper.obj
 0001:000b45c0       ?doSupport@?$SupportMapRelativeImpl@VConvexHullV@Gu@physx@@@Gu@physx@@UBE?AT__m128@@ABT4@@Z 100b55c0 f i GuGJKWrapper.obj
 0001:000b4600       ?doSupportSweep@?$SupportMapLocalImpl@VConvexHullV@Gu@physx@@@Gu@physx@@UBE?AT__m128@@ABT4@@Z 100b5600 f i GuGJKWrapper.obj
 0001:000b4640       ?doSupportSweep@?$SupportMapRelativeImpl@VBoxV@Gu@physx@@@Gu@physx@@UBE?AT__m128@@ABT4@@Z 100b5640 f i GuGJKWrapper.obj
 0001:000b4680       ?doSupportSweep@?$SupportMapRelativeImpl@VConvexHullV@Gu@physx@@@Gu@physx@@UBE?AT__m128@@ABT4@@Z 100b5680 f i GuGJKWrapper.obj
 0001:000b46c0       ?doWarmStartSupport@?$EPASupportMapPairLocalImpl@VTriangleV@Gu@physx@@VCapsuleV@23@@Gu@physx@@UBEXHHAAT__m128@@00@Z 100b56c0 f i GuGJKWrapper.obj
 0001:000b4770       ?doWarmStartSupport@?$EPASupportMapPairRelativeImpl@VCapsuleV@Gu@physx@@V123@@Gu@physx@@UBEXHHAAT__m128@@00@Z 100b5770 f i GuGJKWrapper.obj
 0001:000b4840       ?doWarmStartSupport@?$EPASupportMapPairRelativeImpl@VCapsuleV@Gu@physx@@VBoxV@23@@Gu@physx@@UBEXHHAAT__m128@@00@Z 100b5840 f i GuGJKWrapper.obj
 0001:000b4910       ?doWarmStartSupport@?$EPASupportMapPairRelativeImpl@VCapsuleV@Gu@physx@@VConvexHullV@23@@Gu@physx@@UBEXHHAAT__m128@@00@Z 100b5910 f i GuGJKWrapper.obj
 0001:000b49e0       ?doWarmStartSupport@?$EPASupportMapPairRelativeImpl@VTriangleV@Gu@physx@@VBoxV@23@@Gu@physx@@UBEXHHAAT__m128@@00@Z 100b59e0 f i GuGJKWrapper.obj
 0001:000b4ab0       ?doWarmStartSupport@?$EPASupportMapPairRelativeImpl@VTriangleV@Gu@physx@@VCapsuleV@23@@Gu@physx@@UBEXHHAAT__m128@@00@Z 100b5ab0 f i GuGJKWrapper.obj
 0001:000b4b80       ?doWarmStartSupport@?$EPASupportMapPairRelativeImpl@VTriangleV@Gu@physx@@VConvexHullV@23@@Gu@physx@@UBEXHHAAT__m128@@00@Z 100b5b80 f i GuGJKWrapper.obj
 0001:000b4c50       ?doWarmStartSupport@?$SupportMapLocalImpl@VConvexHullV@Gu@physx@@@Gu@physx@@UBEXHAAT__m128@@@Z 100b5c50 f i GuGJKWrapper.obj
 0001:000b4cb0       ?doWarmStartSupport@?$SupportMapRelativeImpl@VBoxV@Gu@physx@@@Gu@physx@@UBEXHAAT__m128@@@Z 100b5cb0 f i GuGJKWrapper.obj
 0001:000b4d30       ?doWarmStartSupport@?$SupportMapRelativeImpl@VConvexHullV@Gu@physx@@@Gu@physx@@UBEXHAAT__m128@@@Z 100b5d30 f i GuGJKWrapper.obj
 0001:000b4db0       ?getDir@?$EPASupportMapPairLocalImpl@VTriangleV@Gu@physx@@VCapsuleV@23@@Gu@physx@@UBE?AT__m128@@XZ 100b5db0 f i GuGJKWrapper.obj
 0001:000b4e40       ?getDir@?$EPASupportMapPairRelativeImpl@VCapsuleV@Gu@physx@@V123@@Gu@physx@@UBE?AT__m128@@XZ 100b5e40 f i GuGJKWrapper.obj
 0001:000b4e70       ?getDir@?$EPASupportMapPairRelativeImpl@VCapsuleV@Gu@physx@@VBoxV@23@@Gu@physx@@UBE?AT__m128@@XZ 100b5e70 f i GuGJKWrapper.obj
 0001:000b4ea0       ?getDir@?$EPASupportMapPairRelativeImpl@VCapsuleV@Gu@physx@@VConvexHullV@23@@Gu@physx@@UBE?AT__m128@@XZ 100b5ea0 f i GuGJKWrapper.obj
 0001:000b4ed0       ?getDir@?$EPASupportMapPairRelativeImpl@VTriangleV@Gu@physx@@VBoxV@23@@Gu@physx@@UBE?AT__m128@@XZ 100b5ed0 f i GuGJKWrapper.obj
 0001:000b4f00       ?getDir@?$EPASupportMapPairRelativeImpl@VTriangleV@Gu@physx@@VCapsuleV@23@@Gu@physx@@UBE?AT__m128@@XZ 100b5f00 f i GuGJKWrapper.obj
 0001:000b4f30       ?getDir@?$EPASupportMapPairRelativeImpl@VTriangleV@Gu@physx@@VConvexHullV@23@@Gu@physx@@UBE?AT__m128@@XZ 100b5f30 f i GuGJKWrapper.obj
 0001:000b4f60       ?getSweepContactEps@Gu@physx@@YA?AT__m128@@ABT3@0@Z 100b5f60 f i GuGJKWrapper.obj
 0001:000b4fe0       ?getSweepMargin@CapsuleV@Gu@physx@@QBE?AT__m128@@XZ 100b5fe0 f i GuGJKWrapper.obj
 0001:000b5010       ?getSweepMargin@ConvexV@Gu@physx@@QBE?AT__m128@@XZ 100b6010 f i GuGJKWrapper.obj
 0001:000b5040       ?getSweepMargin@TriangleV@Gu@physx@@QBE?AT__m128@@XZ 100b6040 f i GuGJKWrapper.obj
 0001:000b5070       ?supportRelative@CapsuleV@Gu@physx@@QBE?AT__m128@@ABT4@ABVPsMatTransformV@aos@shdfnd@3@@Z 100b6070 f i GuGJKWrapper.obj
 0001:000b50e0       ?supportRelative@TriangleV@Gu@physx@@QBE?AT__m128@@ABT4@ABVPsMatTransformV@aos@shdfnd@3@@Z 100b60e0 f i GuGJKWrapper.obj
 0001:000b5150       ?supportSweepLocal@BoxV@Gu@physx@@QBE?AT__m128@@ABT4@@Z 100b6150 f i GuGJKWrapper.obj
 0001:000b5180       ?supportSweepLocal@CapsuleV@Gu@physx@@QBE?AT__m128@@ABT4@@Z 100b6180 f i GuGJKWrapper.obj
 0001:000b51b0       ?supportSweepLocal@ConvexHullV@Gu@physx@@QBE?AT__m128@@ABT4@@Z 100b61b0 f i GuGJKWrapper.obj
 0001:000b51e0       ?supportSweepLocal@TriangleV@Gu@physx@@QBE?AT__m128@@ABT4@@Z 100b61e0 f i GuGJKWrapper.obj
 0001:000b5210       ?supportSweepRelative@BoxV@Gu@physx@@QBE?AT__m128@@ABT4@ABVPsMatTransformV@aos@shdfnd@3@@Z 100b6210 f i GuGJKWrapper.obj
 0001:000b5240       ?supportSweepRelative@CapsuleV@Gu@physx@@QBE?AT__m128@@ABT4@ABVPsMatTransformV@aos@shdfnd@3@@Z 100b6240 f i GuGJKWrapper.obj
 0001:000b5270       ?supportSweepRelative@ConvexHullV@Gu@physx@@QBE?AT__m128@@ABT4@ABVPsMatTransformV@aos@shdfnd@3@@Z 100b6270 f i GuGJKWrapper.obj
 0001:000b52a0       ?supportSweepRelative@TriangleV@Gu@physx@@QBE?AT__m128@@ABT4@ABVPsMatTransformV@aos@shdfnd@3@@Z 100b62a0 f i GuGJKWrapper.obj
 0001:000b52d0       ?create@BoxV@Gu@physx@@QAEXABVCapsuleV@23@@Z 100b62d0 f   GuVecBox.obj
 0001:000b53f0       ?isInside@BoxV@Gu@physx@@QBEIABV123@@Z 100b63f0 f   GuVecBox.obj
 0001:000b5770       ??0BoxV@Gu@physx@@QAE@ABT__m128@@0ABUMat33V@aos@shdfnd@2@0@Z 100b6770 f i GuVecBox.obj
 0001:000b57d0       ??0ConvexV@Gu@physx@@QAE@IABT__m128@@0@Z 100b67d0 f i GuVecBox.obj
 0001:000b58b0       ??0Mat33V@aos@shdfnd@physx@@QAE@ABT__m128@@00@Z 100b68b0 f i GuVecBox.obj
 0001:000b5900       ??0Mat34V@aos@shdfnd@physx@@QAE@ABT__m128@@000@Z 100b6900 f i GuVecBox.obj
 0001:000b5960       ?BAllTrue3@aos@shdfnd@physx@@YA?AT__m128@@T4@@Z 100b6960 f i GuVecBox.obj
 0001:000b5a00       ?BAnyTrue3@aos@shdfnd@physx@@YA?AT__m128@@T4@@Z 100b6a00 f i GuVecBox.obj
 0001:000b5aa0       ?BFTTT@aos@shdfnd@physx@@YA?AT__m128@@XZ 100b6aa0 f i GuVecBox.obj
 0001:000b5af0       ?FMulAdd@aos@shdfnd@physx@@YA?AT__m128@@T4@00@Z 100b6af0 f i GuVecBox.obj
 0001:000b5b50       ?M33Abs@aos@shdfnd@physx@@YA?AUMat33V@123@ABU4123@@Z 100b6b50 f i GuVecBox.obj
 0001:000b5bd0       ?M33Identity@aos@shdfnd@physx@@YA?AUMat33V@123@XZ 100b6bd0 f i GuVecBox.obj
 0001:000b5c40       ?M33MulM33@aos@shdfnd@physx@@YA?AUMat33V@123@ABU4123@0@Z 100b6c40 f i GuVecBox.obj
 0001:000b5ce0       ?M33Trnsps@aos@shdfnd@physx@@YA?AUMat33V@123@ABU4123@@Z 100b6ce0 f i GuVecBox.obj
 0001:000b5d70       ?M34MulV3@aos@shdfnd@physx@@YA?AT__m128@@ABUMat34V@123@T4@@Z 100b6d70 f i GuVecBox.obj
 0001:000b5e80       ?V3IsGrtrOrEq@aos@shdfnd@physx@@YA?AT__m128@@T4@0@Z 100b6e80 f i GuVecBox.obj
 0001:000b5ed0       ?V3Merge@aos@shdfnd@physx@@YA?AT__m128@@ABT4@00@Z 100b6ed0 f i GuVecBox.obj
 0001:000b5f60       ?V3SetX@aos@shdfnd@physx@@YA?AT__m128@@T4@0@Z 100b6f60 f i GuVecBox.obj
 0001:000b5fc0       ?V3UnitY@aos@shdfnd@physx@@YA?AT__m128@@XZ 100b6fc0 f i GuVecBox.obj
 0001:000b6030       ?V3UnitZ@aos@shdfnd@physx@@YA?AT__m128@@XZ 100b7030 f i GuVecBox.obj
 0001:000b60a0       ?Vec3V_From_FloatV_WUndefined@aos@shdfnd@physx@@YA?AT__m128@@T4@@Z 100b70a0 f i GuVecBox.obj
 0001:000b6100       ?Vec3V_From_Vec4V_WUndefined@aos@shdfnd@physx@@YA?AT__m128@@T4@@Z 100b7100 f i GuVecBox.obj
 0001:000b6140       ?computeBasis2@@YAXABT__m128@@AAT1@1@Z 100b7140 f i GuVecBox.obj
 0001:000b63b0       ?computeDirection@CapsuleV@Gu@physx@@QBE?AT__m128@@XZ 100b73b0 f i GuVecBox.obj
 0001:000b63f0       ?rotate@BoxV@Gu@physx@@QBEXABUMat34V@aos@shdfnd@3@AAV123@@Z 100b73f0 f i GuVecBox.obj
 0001:000b64c0       ?intersectOBBOBB@Gu@physx@@YA_NABVPxVec3@2@0ABVPxMat33@2@001_N@Z 100b74c0 f   GuIntersectionBoxBox.obj
 0001:000b78c0       ?intersectEdgeEdge@Gu@physx@@YA_NABVPxVec3@2@0000AAMAAV32@@Z 100b88c0 f   GuIntersectionEdgeEdge.obj
 0001:000b7c90       ?rayAABBIntersect@Gu@physx@@YA_NABVPxVec3@2@000AAV32@@Z 100b8c90 f   GuIntersectionRayBox.obj
 0001:000b7fc0       ?rayAABBIntersect2@Gu@physx@@YAIABVPxVec3@2@000AAV32@AAM@Z 100b8fc0 f   GuIntersectionRayBox.obj
 0001:000b8310       ?intersectRayAABB@Gu@physx@@YAHABVPxVec3@2@000AAM1@Z 100b9310 f   GuIntersectionRayBox.obj
 0001:000b8520       ?intersectRayAABB@Gu@physx@@YAHABVPxVec3@2@0000AAM1@Z 100b9520 f   GuIntersectionRayBox.obj
 0001:000b8840       ?intersectRayAABB2@Gu@physx@@YA_NABVPxVec3@2@000MAAM1@Z 100b9840 f   GuIntersectionRayBox.obj
 0001:000b8cd0       ?intersectRayAABB@Gu@physx@@YAHABT__m128@@000AAT3@1@Z 100b9cd0 f   GuIntersectionRayBox.obj
 0001:000b91d0       ?intersectRayAABB@Gu@physx@@YAHABT__m128@@0000AAT3@1@Z 100ba1d0 f   GuIntersectionRayBox.obj
 0001:000b96f0       ?intersectRayAABB2@Gu@physx@@YA_NABT__m128@@0000AAT3@1@Z 100ba6f0 f   GuIntersectionRayBox.obj
 0001:000ba080       ?FStore@aos@shdfnd@physx@@YAMT__m128@@@Z 100bb080 f i GuIntersectionRayBox.obj
 0001:000ba0c0       ?V3Min@aos@shdfnd@physx@@YA?AT__m128@@T4@0@Z 100bb0c0 f i GuIntersectionRayBox.obj
 0001:000ba110       ?V3One@aos@shdfnd@physx@@YA?AT__m128@@XZ 100bb110 f i GuIntersectionRayBox.obj
 0001:000ba160       ?V3Recip@aos@shdfnd@physx@@YA?AT__m128@@T4@@Z 100bb160 f i GuIntersectionRayBox.obj
 0001:000ba1f0       ?V3Sign@aos@shdfnd@physx@@YA?AT__m128@@T4@@Z 100bb1f0 f i GuIntersectionRayBox.obj
 0001:000ba280       ?V4LoadA@aos@shdfnd@physx@@YA?AT__m128@@QBM@Z 100bb280 f i GuIntersectionRayBox.obj
 0001:000ba2c0       ?recip@intrinsics@physx@@YAMM@Z 100bb2c0 f i GuIntersectionRayBox.obj
 0001:000ba2f0       ?intersectRayCapsule@Gu@physx@@YAIABVPxVec3@2@0ABVCapsule@12@QAM@Z 100bb2f0 f   GuIntersectionRayCapsule.obj
 0001:000bb070       ?computeDirection@Segment@Gu@physx@@QBEXAAVPxVec3@3@@Z 100bc070 f i GuIntersectionRayCapsule.obj
 0001:000bb0b0       ?intersectRaySphereBasic@Gu@physx@@YA_NABVPxVec3@2@0M0MAAMPAV32@@Z 100bc0b0 f   GuIntersectionRaySphere.obj
 0001:000bb1f0       ?intersectRaySphere@Gu@physx@@YA_NABVPxVec3@2@0M0MAAMPAV32@@Z 100bc1f0 f   GuIntersectionRaySphere.obj
 0001:000bb3d0       ?intersectRayTriangleCulling@Gu@physx@@YA_NABVPxVec3@2@0000AAM11M@Z 100bc3d0 f   GuIntersectionRayTriangle.obj
 0001:000bb540       ?intersectRayTriangleNoCulling@Gu@physx@@YA_NABVPxVec3@2@0000AAM11M@Z 100bc540 f   GuIntersectionRayTriangle.obj
 0001:000bb770       ??0OBBTriangleTest@Gu@physx@@QAE@ABVBox@12@@Z 100bc770 f   GuIntersectionTriangleBox.obj
 0001:000bb890       ?obbTriTest@OBBTriangleTest@Gu@physx@@QBEHABVPxVec3@3@00@Z 100bc890 f   GuIntersectionTriangleBox.obj
 0001:000bc6e0       ?intersectTriangleBox@Gu@physx@@YAHABVPxVec3@2@0000@Z 100bd6e0 f   GuIntersectionTriangleBox.obj
 0001:000bd1d0       ?intersectTriangleBox@Gu@physx@@YA_NABT__m128@@0000@Z 100be1d0 f   GuIntersectionTriangleBox.obj
 0001:000beac0       ?BTFTT@aos@shdfnd@physx@@YA?AT__m128@@XZ 100bfac0 f i GuIntersectionTriangleBox.obj
 0001:000beb10       ?FOutOfBounds@aos@shdfnd@physx@@YAIT__m128@@00@Z 100bfb10 f i GuIntersectionTriangleBox.obj
 0001:000bebd0       ?FOutOfBounds@aos@shdfnd@physx@@YAIT__m128@@0@Z 100bfbd0 f i GuIntersectionTriangleBox.obj
 0001:000bec30       ?M33MulV3AddV3@aos@shdfnd@physx@@YA?AT__m128@@ABUMat33V@123@T4@1@Z 100bfc30 f i GuIntersectionTriangleBox.obj
 0001:000bed00       ?V3MulAdd@aos@shdfnd@physx@@YA?AT__m128@@T4@00@Z 100bfd00 f i GuIntersectionTriangleBox.obj
 0001:000bed70       ?V3Perm_0Z_Zero_1X@aos@shdfnd@physx@@YA?AT__m128@@T4@0@Z 100bfd70 f i GuIntersectionTriangleBox.obj
 0001:000bedc0       ?V3Perm_1Y_0X_Zero@aos@shdfnd@physx@@YA?AT__m128@@T4@0@Z 100bfdc0 f i GuIntersectionTriangleBox.obj
 0001:000bee60       ?V3Perm_Zero_1Z_0Y@aos@shdfnd@physx@@YA?AT__m128@@T4@0@Z 100bfe60 f i GuIntersectionTriangleBox.obj
 0001:000beeb0       ?V3SetY@aos@shdfnd@physx@@YA?AT__m128@@T4@0@Z 100bfeb0 f i GuIntersectionTriangleBox.obj
 0001:000bef10       ??0RTreeMidphase@Gu@physx@@QAE@XZ 100bff10 f   GuHybridModel.obj
 0001:000bef40       ??1RTreeMidphase@Gu@physx@@QAE@XZ 100bff40 f   GuHybridModel.obj
 0001:000bef60       ?exportExtraData@RTreeMidphase@Gu@physx@@QAEXAAVPxSerializationContext@3@@Z 100bff60 f   GuHybridModel.obj
 0001:000bef90       ?importExtraData@RTreeMidphase@Gu@physx@@QAEXAAVPxDeserializationContext@3@@Z 100bff90 f   GuHybridModel.obj
 0001:000befe0       ?exportExtraData@InternalTriangleMesh@physx@@QAEXAAVPxSerializationContext@2@@Z 100bffe0 f   GuInternalTriangleMesh.obj
 0001:000bf1c0       ?importExtraData@InternalTriangleMesh@physx@@QAEXAAVPxDeserializationContext@2@@Z 100c01c0 f   GuInternalTriangleMesh.obj
 0001:000bf300       ??0InternalTriangleMesh@physx@@QAE@XZ 100c0300 f   GuInternalTriangleMesh.obj
 0001:000bf400       ??1InternalTriangleMesh@physx@@QAE@XZ 100c0400 f   GuInternalTriangleMesh.obj
 0001:000bf430       ?release@InternalTriangleMesh@physx@@QAEXXZ 100c0430 f   GuInternalTriangleMesh.obj
 0001:000bf5c0       ?allocateVertices@InternalTriangleMesh@physx@@QAEPAVPxVec3@2@I@Z 100c05c0 f   GuInternalTriangleMesh.obj
 0001:000bf660       ?allocateTriangles@InternalTriangleMesh@physx@@QAEPAXI_N@Z 100c0660 f   GuInternalTriangleMesh.obj
 0001:000bf7a0       ?allocateMaterials@InternalTriangleMesh@physx@@QAEPAGXZ 100c07a0 f   GuInternalTriangleMesh.obj
 0001:000bf860       ?allocateFaceRemap@InternalTriangleMesh@physx@@QAEPAIXZ 100c0860 f   GuInternalTriangleMesh.obj
 0001:000bf920       ?allocateAdjacencies@InternalTriangleMesh@physx@@QAEPAIXZ 100c0920 f   GuInternalTriangleMesh.obj
 0001:000bfa10       ?loadRTree@InternalTriangleMesh@physx@@QAE_NAAVPxInputStream@2@I@Z 100c0a10 f   GuInternalTriangleMesh.obj
 0001:000bfb00       ?setupMeshInterface@InternalTriangleMesh@physx@@QAEXXZ 100c0b00 f   GuInternalTriangleMesh.obj
 0001:000bfe80       ??$?_UG@@YAPAXIV?$ReflectionAllocator@G@shdfnd@physx@@PBDH@Z 100c0e80 f i GuInternalTriangleMesh.obj
 0001:000bfea0       ??$?_UI@@YAPAXIV?$ReflectionAllocator@I@shdfnd@physx@@PBDH@Z 100c0ea0 f i GuInternalTriangleMesh.obj
 0001:000bfec0       ??$readExtraData@G$0BA@@PxDeserializationContext@physx@@QAEPAGI@Z 100c0ec0 f i GuInternalTriangleMesh.obj
 0001:000bfef0       ??$readExtraData@G@PxDeserializationContext@physx@@QAEPAGI@Z 100c0ef0 f i GuInternalTriangleMesh.obj
 0001:000bff30       ??$readExtraData@I$0BA@@PxDeserializationContext@physx@@QAEPAII@Z 100c0f30 f i GuInternalTriangleMesh.obj
 0001:000bff60       ??$readExtraData@I@PxDeserializationContext@physx@@QAEPAII@Z 100c0f60 f i GuInternalTriangleMesh.obj
 0001:000bffa0       ??$readExtraData@VPxVec3@physx@@$0BA@@PxDeserializationContext@physx@@QAEPAVPxVec3@1@I@Z 100c0fa0 f i GuInternalTriangleMesh.obj
 0001:000bffd0       ??$readExtraData@VPxVec3@physx@@@PxDeserializationContext@physx@@QAEPAVPxVec3@1@I@Z 100c0fd0 f i GuInternalTriangleMesh.obj
 0001:000c0010       ??0?$ReflectionAllocator@G@shdfnd@physx@@QAE@PBD@Z 100c1010 f i GuInternalTriangleMesh.obj
 0001:000c0030       ??0?$ReflectionAllocator@I@shdfnd@physx@@QAE@PBD@Z 100c1030 f i GuInternalTriangleMesh.obj
 0001:000c0050       ??0InternalTriangleMeshData@Gu@physx@@QAE@XZ 100c1050 f i GuInternalTriangleMesh.obj
 0001:000c0080       ??1InternalTriangleMeshData@Gu@physx@@QAE@XZ 100c1080 f i GuInternalTriangleMesh.obj
 0001:000c00a0       ?allocate@?$ReflectionAllocator@G@shdfnd@physx@@QAEPAXIPBDH@Z 100c10a0 f i GuInternalTriangleMesh.obj
 0001:000c0110       ?allocate@?$ReflectionAllocator@I@shdfnd@physx@@QAEPAXIPBDH@Z 100c1110 f i GuInternalTriangleMesh.obj
 0001:000c0180       ?getName@?$ReflectionAllocator@G@shdfnd@physx@@CAPBDXZ 100c1180 f i GuInternalTriangleMesh.obj
 0001:000c01d0       ?getName@?$ReflectionAllocator@I@shdfnd@physx@@CAPBDXZ 100c11d0 f i GuInternalTriangleMesh.obj
 0001:000c0220       ??0MeshInterface@Gu@physx@@QAE@XZ 100c1220 f   GuMeshInterface.obj
 0001:000c0260       ??1MeshInterface@Gu@physx@@QAE@XZ 100c1260 f   GuMeshInterface.obj
 0001:000c0270       ?SetPointers@MeshInterface@Gu@physx@@QAE_NPBX_NPBVPxVec3@3@@Z 100c1270 f   GuMeshInterface.obj
 0001:000c02d0       ?IsValid@MeshInterface@Gu@physx@@QBE_NXZ 100c12d0 f   GuMeshInterface.obj
 0001:000c0310       ?CheckTopology@MeshInterface@Gu@physx@@QBEIXZ 100c1310 f   GuMeshInterface.obj
 0001:000c0410       ?getTriangle@PxMeshQuery@physx@@SAXABVPxTriangleMeshGeometry@2@ABVPxTransform@2@IAAVPxTriangle@2@PAI3@Z 100c1410 f   GuMeshQuery.obj
 0001:000c04e0       ?getTriangle@PxMeshQuery@physx@@SAXABVPxHeightFieldGeometry@2@ABVPxTransform@2@IAAVPxTriangle@2@PAI3@Z 100c14e0 f   GuMeshQuery.obj
 0001:000c0520       ?findOverlapTriangleMesh@PxMeshQuery@physx@@SAIABVPxGeometry@2@ABVPxTransform@2@ABVPxTriangleMeshGeometry@2@1PAIIIAA_N@Z 100c1520 f   GuMeshQuery.obj
 0001:000c0750       ?findOverlapHeightField@PxMeshQuery@physx@@SAIABVPxGeometry@2@ABVPxTransform@2@ABVPxHeightFieldGeometry@2@1PAIIIAA_N@Z 100c1750 f   GuMeshQuery.obj
 0001:000c09d0       ?sweep@PxMeshQuery@physx@@SA_NABVPxVec3@2@MABVPxGeometry@2@ABVPxTransform@2@IPBVPxTriangle@2@AAUPxSweepHit@2@V?$PxFlags@W4Enum@PxHitFlag@physx@@G@2@PBIM_N@Z 100c19d0 f   GuMeshQuery.obj
 0001:000c14e0       ??0PxBoxGeometry@physx@@QAE@XZ 100c24e0 f i GuMeshQuery.obj
 0001:000c1540       ??0PxCapsuleGeometry@physx@@QAE@MM@Z 100c2540 f i GuMeshQuery.obj
 0001:000c1590       ??4PxBoxGeometry@physx@@QAEAAV01@ABV01@@Z 100c2590 f i GuMeshQuery.obj
 0001:000c15d0       ??Dphysx@@YA?AVMatrix34@Cm@0@ABVPxTransform@0@ABVPxMeshScale@0@@Z 100c25d0 f i GuMeshQuery.obj
 0001:000c1630       ?buildFrom@physx@@YAXAAVBox@Gu@1@ABVPxVec3@1@1ABVPxQuat@1@@Z 100c2630 f i GuMeshQuery.obj
 0001:000c1680       ?centerExtents@PxBounds3@physx@@SA?AV12@ABVPxVec3@2@0@Z 100c2680 f i GuMeshQuery.obj
 0001:000c16e0       ?computeWorldTriangle@TriangleMesh@Gu@physx@@QBEXAAVPxTriangle@3@IABVMatrix34@Cm@3@PIAI2@Z 100c26e0 f i GuMeshQuery.obj
 0001:000c1980       ?getCapsule@Gu@physx@@YAXAAVCapsule@12@ABVPxCapsuleGeometry@2@ABVPxTransform@2@@Z 100c2980 f i GuMeshQuery.obj
 0001:000c19b0       ?getCollisionModel@TriangleMesh@Gu@physx@@QBEABVRTreeMidphase@23@XZ 100c29b0 f i GuMeshQuery.obj
 0001:000c19d0       ?getTrianglesFast@TriangleMesh@Gu@physx@@QBEPBXXZ 100c29d0 f i GuMeshQuery.obj
 0001:000c19f0       ?getVerticesFast@TriangleMesh@Gu@physx@@QBEPBVPxVec3@3@XZ 100c29f0 f i GuMeshQuery.obj
 0001:000c1a10       ?isUnit@PxQuat@physx@@QBE_NXZ 100c2a10 f i GuMeshQuery.obj
 0001:000c1aa0       ?isValid@PxTransform@physx@@QBE_NXZ 100c2aa0 f i GuMeshQuery.obj
 0001:000c1b10       ?poseExtent@PxBounds3@physx@@SA?AV12@ABVPxTransform@2@ABVPxVec3@2@@Z 100c2b10 f i GuMeshQuery.obj
 0001:000c1b50       ?collideOBB@MeshRayCollider@Gu@physx@@SAXABVBox@23@_NABURTreeMidphaseData@23@AAU?$MeshHitCallback@UPxRaycastHit@physx@@@23@1@Z 100c2b50 f   GuMidphase.obj
 0001:000c1df0       ??$collide@$00$00@MeshRayCollider@Gu@physx@@SAXABVPxVec3@2@0M_NABURTreeMidphaseData@12@AAU?$MeshHitCallback@UPxRaycastHit@physx@@@12@PBV32@@Z 100c2df0 f i GuMidphase.obj
 0001:000c20d0       ??$collide@$00$0A@@MeshRayCollider@Gu@physx@@SAXABVPxVec3@2@0M_NABURTreeMidphaseData@12@AAU?$MeshHitCallback@UPxRaycastHit@physx@@@12@PBV32@@Z 100c30d0 f i GuMidphase.obj
 0001:000c23b0       ??$collide@$0A@$00@MeshRayCollider@Gu@physx@@SAXABVPxVec3@2@0M_NABURTreeMidphaseData@12@AAU?$MeshHitCallback@UPxRaycastHit@physx@@@12@PBV32@@Z 100c33b0 f i GuMidphase.obj
 0001:000c2680       ??$collide@$0A@$0A@@MeshRayCollider@Gu@physx@@SAXABVPxVec3@2@0M_NABURTreeMidphaseData@12@AAU?$MeshHitCallback@UPxRaycastHit@physx@@@12@PBV32@@Z 100c3680 f i GuMidphase.obj
 0001:000c2950       ??$memFetchAsync@I@Cm@physx@@YAPAIIIAAUMemFetchSmallBuffer@01@@Z 100c3950 f i GuMidphase.obj
 0001:000c2960       ??0?$PxFlags@W4Enum@PxHitFlag@physx@@G@physx@@QAE@G@Z 100c3960 f i GuMidphase.obj
 0001:000c2980       ??0?$RayRTreeCallback@$00$00@@QAE@ABURTreeMidphaseData@Gu@physx@@AAU?$MeshHitCallback@UPxRaycastHit@physx@@@23@IPAI2ABVPxVec3@3@3M_NPBV53@@Z 100c3980 f i GuMidphase.obj
 0001:000c2bc0       ??0?$RayRTreeCallback@$00$0A@@@QAE@ABURTreeMidphaseData@Gu@physx@@AAU?$MeshHitCallback@UPxRaycastHit@physx@@@23@IPAI2ABVPxVec3@3@3M_NPBV53@@Z 100c3bc0 f i GuMidphase.obj
 0001:000c2e00       ??0?$RayRTreeCallback@$0A@$00@@QAE@ABURTreeMidphaseData@Gu@physx@@AAU?$MeshHitCallback@UPxRaycastHit@physx@@@23@IPAI2ABVPxVec3@3@3M_NPBV53@@Z 100c3e00 f i GuMidphase.obj
 0001:000c3040       ??0?$RayRTreeCallback@$0A@$0A@@@QAE@ABURTreeMidphaseData@Gu@physx@@AAU?$MeshHitCallback@UPxRaycastHit@physx@@@23@IPAI2ABVPxVec3@3@3M_NPBV53@@Z 100c4040 f i GuMidphase.obj
 0001:000c3280       ??0Callback@RTree@Gu@physx@@QAE@XZ 100c4280 f i GuMidphase.obj
 0001:000c32a0       ??0CallbackRaycast@RTree@Gu@physx@@QAE@XZ 100c42a0 f i GuMidphase.obj
 0001:000c32c0       ??0PxActorShape@physx@@QAE@XZ 100c42c0 f i GuMidphase.obj
 0001:000c32f0       ??0PxLocationHit@physx@@QAE@XZ 100c42f0 f i GuMidphase.obj
 0001:000c3380       ??0PxQueryHit@physx@@QAE@XZ 100c4380 f i GuMidphase.obj
 0001:000c33b0       ??0PxRaycastHit@physx@@QAE@XZ 100c43b0 f i GuMidphase.obj
 0001:000c33f0       ??0SimpleRayTriOverlap@@QAE@ABVPxVec3@physx@@0_NM@Z 100c43f0 f i GuMidphase.obj
 0001:000c3460       ??1?$RayRTreeCallback@$00$00@@UAE@XZ 100c4460 f i GuMidphase.obj
 0001:000c3580       ??1?$RayRTreeCallback@$00$0A@@@UAE@XZ 100c4580 f i GuMidphase.obj
 0001:000c36a0       ??1?$RayRTreeCallback@$0A@$00@@UAE@XZ 100c46a0 f i GuMidphase.obj
 0001:000c37c0       ??1?$RayRTreeCallback@$0A@$0A@@@UAE@XZ 100c47c0 f i GuMidphase.obj
 0001:000c38e0       ??1Callback@RTree@Gu@physx@@UAE@XZ 100c48e0 f i GuMidphase.obj
 0001:000c3900       ??1CallbackRaycast@RTree@Gu@physx@@UAE@XZ 100c4900 f i GuMidphase.obj
 0001:000c3920       ??4PxLocationHit@physx@@QAEAAU01@ABU01@@Z 100c4920 f i GuMidphase.obj
 0001:000c39b0       ??4PxRaycastHit@physx@@QAEAAU01@ABU01@@Z 100c49b0 f i GuMidphase.obj
 0001:000c3a2f       ??_E?$RayRTreeCallback@$00$00@@W3AEPAXI@Z 100c4a2f f i GuMidphase.obj
 0001:000c3a39       ??_E?$RayRTreeCallback@$00$0A@@@W3AEPAXI@Z 100c4a39 f i GuMidphase.obj
 0001:000c3a43       ??_E?$RayRTreeCallback@$0A@$00@@W3AEPAXI@Z 100c4a43 f i GuMidphase.obj
 0001:000c3a4d       ??_E?$RayRTreeCallback@$0A@$0A@@@W3AEPAXI@Z 100c4a4d f i GuMidphase.obj
 0001:000c3a60       ??_G?$RayRTreeCallback@$00$00@@UAEPAXI@Z 100c4a60 f i GuMidphase.obj
 0001:000c3a60       ??_E?$RayRTreeCallback@$00$00@@UAEPAXI@Z 100c4a60 f i GuMidphase.obj
 0001:000c3aa0       ??_E?$RayRTreeCallback@$00$0A@@@UAEPAXI@Z 100c4aa0 f i GuMidphase.obj
 0001:000c3aa0       ??_G?$RayRTreeCallback@$00$0A@@@UAEPAXI@Z 100c4aa0 f i GuMidphase.obj
 0001:000c3ae0       ??_E?$RayRTreeCallback@$0A@$00@@UAEPAXI@Z 100c4ae0 f i GuMidphase.obj
 0001:000c3ae0       ??_G?$RayRTreeCallback@$0A@$00@@UAEPAXI@Z 100c4ae0 f i GuMidphase.obj
 0001:000c3b20       ??_G?$RayRTreeCallback@$0A@$0A@@@UAEPAXI@Z 100c4b20 f i GuMidphase.obj
 0001:000c3b20       ??_E?$RayRTreeCallback@$0A@$0A@@@UAEPAXI@Z 100c4b20 f i GuMidphase.obj
 0001:000c3b60       ??_ECallback@RTree@Gu@physx@@UAEPAXI@Z 100c4b60 f i GuMidphase.obj
 0001:000c3b60       ??_GCallback@RTree@Gu@physx@@UAEPAXI@Z 100c4b60 f i GuMidphase.obj
 0001:000c3ba0       ??_ECallbackRaycast@RTree@Gu@physx@@UAEPAXI@Z 100c4ba0 f i GuMidphase.obj
 0001:000c3ba0       ??_GCallbackRaycast@RTree@Gu@physx@@UAEPAXI@Z 100c4ba0 f i GuMidphase.obj
 0001:000c3be0       ?GetNbTriangles@LeafTriangles@Gu@physx@@QBEIXZ 100c4be0 f i GuMidphase.obj
 0001:000c3c00       ?GetTriangleIndex@LeafTriangles@Gu@physx@@QBEIXZ 100c4c00 f i GuMidphase.obj
 0001:000c3c20       ?LeafGetNbTriangles@Gu@physx@@YAII@Z 100c4c20 f i GuMidphase.obj
 0001:000c3c40       ?LeafGetTriangleIndex@Gu@physx@@YAII@Z 100c4c40 f i GuMidphase.obj
 0001:000c3c50       ?getVertIndices@?$RayRTreeCallback@$00$00@@QAEXIAAI00@Z 100c4c50 f i GuMidphase.obj
 0001:000c3d30       ?getVertIndices@?$RayRTreeCallback@$00$0A@@@QAEXIAAI00@Z 100c4d30 f i GuMidphase.obj
 0001:000c3e10       ?getVertIndices@?$RayRTreeCallback@$0A@$00@@QAEXIAAI00@Z 100c4e10 f i GuMidphase.obj
 0001:000c3ef0       ?getVertIndices@?$RayRTreeCallback@$0A@$0A@@@QAEXIAAI00@Z 100c4ef0 f i GuMidphase.obj
 0001:000c3fd0       ?inAnyMode@?$MeshHitCallback@UPxRaycastHit@physx@@@Gu@physx@@QBE_NXZ 100c4fd0 f i GuMidphase.obj
 0001:000c4010       ?inClosestMode@?$MeshHitCallback@UPxRaycastHit@physx@@@Gu@physx@@QBE_NXZ 100c5010 f i GuMidphase.obj
 0001:000c4050       ?overlap@SimpleRayTriOverlap@@QBEHABVPxVec3@physx@@00AAUPxRaycastHit@3@@Z 100c5050 f i GuMidphase.obj
 0001:000c44a0       ?processResults@?$RayRTreeCallback@$00$00@@UAE_NIPAI@Z 100c54a0 f i GuMidphase.obj
 0001:000c44e0       ?processResults@?$RayRTreeCallback@$00$00@@UAE_NIPAIAAM@Z 100c54e0 f i GuMidphase.obj
 0001:000c4be0       ?processResults@?$RayRTreeCallback@$00$0A@@@UAE_NIPAI@Z 100c5be0 f i GuMidphase.obj
 0001:000c4c20       ?processResults@?$RayRTreeCallback@$00$0A@@@UAE_NIPAIAAM@Z 100c5c20 f i GuMidphase.obj
 0001:000c5320       ?processResults@?$RayRTreeCallback@$0A@$00@@UAE_NIPAI@Z 100c6320 f i GuMidphase.obj
 0001:000c5360       ?processResults@?$RayRTreeCallback@$0A@$00@@UAE_NIPAIAAM@Z 100c6360 f i GuMidphase.obj
 0001:000c5a60       ?processResults@?$RayRTreeCallback@$0A@$0A@@@UAE_NIPAI@Z 100c6a60 f i GuMidphase.obj
 0001:000c5aa0       ?processResults@?$RayRTreeCallback@$0A@$0A@@@UAE_NIPAIAAM@Z 100c6aa0 f i GuMidphase.obj
 0001:000c6190       ?profile@Callback@RTree@Gu@physx@@UAEXXZ 100c7190 f i GuMidphase.obj
 0001:000c61a0       ?findOverlapSphereMesh@Gu@physx@@YAIABVSphere@12@ABVRTreeMidphase@12@ABVPxTransform@2@ABVPxMeshScale@2@PIAIIIAA_N@Z 100c71a0 f   GuOverlapTestsMesh.obj
 0001:000c61f0       ?findOverlapCapsuleMesh@Gu@physx@@YAIABVCapsule@12@ABVRTreeMidphase@12@ABVPxTransform@2@ABVPxMeshScale@2@PIAIIIAA_N@Z 100c71f0 f   GuOverlapTestsMesh.obj
 0001:000c6240       ?findOverlapOBBMesh@Gu@physx@@YAIABVBox@12@ABVRTreeMidphase@12@ABVPxTransform@2@ABVPxMeshScale@2@PIAIIIAA_N@Z 100c7240 f   GuOverlapTestsMesh.obj
 0001:000c62a0       ?checkOverlapOBB_triangleGeom@Gu@physx@@YA_NABVPxGeometry@2@ABVPxTransform@2@ABVBox@12@@Z 100c72a0 f   GuOverlapTestsMesh.obj
 0001:000c6450       ?checkOverlapSphere_triangleGeom@@YA_NABVPxGeometry@physx@@ABVPxTransform@2@ABVSphere@Gu@2@@Z 100c7450 f   GuOverlapTestsMesh.obj
 0001:000c64e0       ?checkOverlapCapsule_triangleGeom@@YA_NABVPxGeometry@physx@@ABVPxTransform@2@ABVCapsule@Gu@2@@Z 100c74e0 f   GuOverlapTestsMesh.obj
 0001:000c6570       ?GeomOverlapCallback_SphereMesh@@YA_NABVPxGeometry@physx@@ABVPxTransform@2@01PAUTriggerCache@Gu@2@@Z 100c7570 f   GuOverlapTestsMesh.obj
 0001:000c6680       ?GeomOverlapCallback_CapsuleMesh@@YA_NABVPxGeometry@physx@@ABVPxTransform@2@01PAUTriggerCache@Gu@2@@Z 100c7680 f   GuOverlapTestsMesh.obj
 0001:000c6790       ?GeomOverlapCallback_BoxMesh@@YA_NABVPxGeometry@physx@@ABVPxTransform@2@01PAUTriggerCache@Gu@2@@Z 100c7790 f   GuOverlapTestsMesh.obj
 0001:000c68b0       ?GeomOverlapCallback_ConvexMesh@@YA_NABVPxGeometry@physx@@ABVPxTransform@2@01PAUTriggerCache@Gu@2@@Z 100c78b0 f   GuOverlapTestsMesh.obj
 0001:000ca250       ??$PX_UNUSED@PAUTriggerCache@Gu@physx@@@@YAXABQAUTriggerCache@Gu@physx@@@Z 100cb250 f i GuOverlapTestsMesh.obj
 0001:000ca260       ??0?$IntersectAnyVsMeshCallback@$00$00@@QAE@ABVRTreeMidphase@Gu@physx@@ABVPxMat33@3@PAULimitedResults@@@Z 100cb260 f i GuOverlapTestsMesh.obj
 0001:000ca2e0       ??0?$IntersectAnyVsMeshCallback@$00$0A@@@QAE@ABVRTreeMidphase@Gu@physx@@ABVPxMat33@3@PAULimitedResults@@@Z 100cb2e0 f i GuOverlapTestsMesh.obj
 0001:000ca360       ??0?$IntersectAnyVsMeshCallback@$01$00@@QAE@ABVRTreeMidphase@Gu@physx@@ABVPxMat33@3@PAULimitedResults@@@Z 100cb360 f i GuOverlapTestsMesh.obj
 0001:000ca3e0       ??0?$IntersectAnyVsMeshCallback@$01$0A@@@QAE@ABVRTreeMidphase@Gu@physx@@ABVPxMat33@3@PAULimitedResults@@@Z 100cb3e0 f i GuOverlapTestsMesh.obj
 0001:000ca460       ??0?$IntersectAnyVsMeshCallback@$0A@$00@@QAE@ABVRTreeMidphase@Gu@physx@@ABVPxMat33@3@PAULimitedResults@@@Z 100cb460 f i GuOverlapTestsMesh.obj
 0001:000ca4e0       ??0?$IntersectAnyVsMeshCallback@$0A@$0A@@@QAE@ABVRTreeMidphase@Gu@physx@@ABVPxMat33@3@PAULimitedResults@@@Z 100cb4e0 f i GuOverlapTestsMesh.obj
 0001:000ca560       ??0ConvexHullV@Gu@physx@@QAE@PBUConvexHullData@12@ABT__m128@@11@Z 100cb560 f i GuOverlapTestsMesh.obj
 0001:000ca740       ??0ConvexHullV@Gu@physx@@QAE@XZ 100cb740 f i GuOverlapTestsMesh.obj
 0001:000ca780       ??0ConvexVsMeshOverlapCallback@@QAE@ABVConvexMesh@Gu@physx@@ABVPxMeshScale@3@ABVFastVertex2ShapeScaling@Cm@3@ABVPxTransform@3@3_NABVBox@23@@Z 100cb780 f i GuOverlapTestsMesh.obj
 0001:000cab50       ??0LimitedResults@@QAE@PAIII@Z 100cbb50 f i GuOverlapTestsMesh.obj
 0001:000cab90       ??0PsMatTransformV@aos@shdfnd@physx@@QAE@ABT__m128@@ABUMat33V@123@@Z 100cbb90 f i GuOverlapTestsMesh.obj
 0001:000cabe0       ??0PsMatTransformV@aos@shdfnd@physx@@QAE@ABVPsTransformV@123@@Z 100cbbe0 f i GuOverlapTestsMesh.obj
 0001:000cac60       ??0PsMatTransformV@aos@shdfnd@physx@@QAE@XZ 100cbc60 f i GuOverlapTestsMesh.obj
 0001:000cace0       ??0PsTransformV@aos@shdfnd@physx@@QAE@ABVPxTransform@3@@Z 100cbce0 f i GuOverlapTestsMesh.obj
 0001:000cada0       ??1?$IntersectAnyVsMeshCallback@$00$00@@UAE@XZ 100cbda0 f i GuOverlapTestsMesh.obj
 0001:000cadd0       ??1?$IntersectAnyVsMeshCallback@$00$0A@@@UAE@XZ 100cbdd0 f i GuOverlapTestsMesh.obj
 0001:000cae00       ??1?$IntersectAnyVsMeshCallback@$01$00@@UAE@XZ 100cbe00 f i GuOverlapTestsMesh.obj
 0001:000cae30       ??1?$IntersectAnyVsMeshCallback@$01$0A@@@UAE@XZ 100cbe30 f i GuOverlapTestsMesh.obj
 0001:000cae60       ??1?$IntersectAnyVsMeshCallback@$0A@$00@@UAE@XZ 100cbe60 f i GuOverlapTestsMesh.obj
 0001:000cae90       ??1?$IntersectAnyVsMeshCallback@$0A@$0A@@@UAE@XZ 100cbe90 f i GuOverlapTestsMesh.obj
 0001:000caec0       ??1ConvexHullV@Gu@physx@@QAE@XZ 100cbec0 f i GuOverlapTestsMesh.obj
 0001:000caee0       ??1ConvexVsMeshOverlapCallback@@UAE@XZ 100cbee0 f i GuOverlapTestsMesh.obj
 0001:000caf10       ??DMatrix34@Cm@physx@@QBE?AV012@ABV012@@Z 100cbf10 f i GuOverlapTestsMesh.obj
 0001:000cafd0       ??_E?$IntersectAnyVsMeshCallback@$00$00@@UAEPAXI@Z 100cbfd0 f i GuOverlapTestsMesh.obj
 0001:000cafd0       ??_G?$IntersectAnyVsMeshCallback@$00$00@@UAEPAXI@Z 100cbfd0 f i GuOverlapTestsMesh.obj
 0001:000cb010       ??_E?$IntersectAnyVsMeshCallback@$00$0A@@@UAEPAXI@Z 100cc010 f i GuOverlapTestsMesh.obj
 0001:000cb010       ??_G?$IntersectAnyVsMeshCallback@$00$0A@@@UAEPAXI@Z 100cc010 f i GuOverlapTestsMesh.obj
 0001:000cb050       ??_E?$IntersectAnyVsMeshCallback@$01$00@@UAEPAXI@Z 100cc050 f i GuOverlapTestsMesh.obj
 0001:000cb050       ??_G?$IntersectAnyVsMeshCallback@$01$00@@UAEPAXI@Z 100cc050 f i GuOverlapTestsMesh.obj
 0001:000cb090       ??_E?$IntersectAnyVsMeshCallback@$01$0A@@@UAEPAXI@Z 100cc090 f i GuOverlapTestsMesh.obj
 0001:000cb090       ??_G?$IntersectAnyVsMeshCallback@$01$0A@@@UAEPAXI@Z 100cc090 f i GuOverlapTestsMesh.obj
 0001:000cb0d0       ??_G?$IntersectAnyVsMeshCallback@$0A@$00@@UAEPAXI@Z 100cc0d0 f i GuOverlapTestsMesh.obj
 0001:000cb0d0       ??_E?$IntersectAnyVsMeshCallback@$0A@$00@@UAEPAXI@Z 100cc0d0 f i GuOverlapTestsMesh.obj
 0001:000cb110       ??_G?$IntersectAnyVsMeshCallback@$0A@$0A@@@UAEPAXI@Z 100cc110 f i GuOverlapTestsMesh.obj
 0001:000cb110       ??_E?$IntersectAnyVsMeshCallback@$0A@$0A@@@UAEPAXI@Z 100cc110 f i GuOverlapTestsMesh.obj
 0001:000cb150       ??_GConvexVsMeshOverlapCallback@@UAEPAXI@Z 100cc150 f i GuOverlapTestsMesh.obj
 0001:000cb150       ??_EConvexVsMeshOverlapCallback@@UAEPAXI@Z 100cc150 f i GuOverlapTestsMesh.obj
 0001:000cb190       ?CalculateConvexMargin@Gu@physx@@YAXPBUConvexHullData@12@AAT__m128@@1ABT4@@Z 100cc190 f i GuOverlapTestsMesh.obj
 0001:000cb280       ?CalculateConvexTolerance@Gu@physx@@YA?AT__m128@@PBUConvexHullData@12@ABT3@@Z 100cc280 f i GuOverlapTestsMesh.obj
 0001:000cb330       ?ConstructSkewMatrix@Gu@physx@@YAXABT__m128@@0AAUMat33V@aos@shdfnd@2@1@Z 100cc330 f i GuOverlapTestsMesh.obj
 0001:000cb590       ?QuatGetMat33V@aos@shdfnd@physx@@YA?AUMat33V@123@ABT__m128@@@Z 100cc590 f i GuOverlapTestsMesh.obj
 0001:000cb940       ?QuatVLoadU@aos@shdfnd@physx@@YA?AT__m128@@PBM@Z 100cc940 f i GuOverlapTestsMesh.obj
 0001:000cb990       ?QuatVLoadXYZW@aos@shdfnd@physx@@YA?AT__m128@@MMMM@Z 100cc990 f i GuOverlapTestsMesh.obj
 0001:000cb9e0       ?V3LoadU@aos@shdfnd@physx@@YA?AT__m128@@PBM@Z 100cc9e0 f i GuOverlapTestsMesh.obj
 0001:000cba60       ?V4LoadU@aos@shdfnd@physx@@YA?AT__m128@@QBM@Z 100cca60 f i GuOverlapTestsMesh.obj
 0001:000cbaa0       ?Vec4VLoadXYZW@aos@shdfnd@physx@@YA?AT__m128@@ABM000@Z 100ccaa0 f i GuOverlapTestsMesh.obj
 0001:000cbb00       ?abs@PxVec3@physx@@QBE?AV12@XZ 100ccb00 f i GuOverlapTestsMesh.obj
 0001:000cbbb0       ?add@LimitedResults@@QAE_NI@Z 100ccbb0 f i GuOverlapTestsMesh.obj
 0001:000cbc30       ?computeSweptAABBAroundOBB@Gu@physx@@YAXABVBox@12@AAVPxVec3@2@11AAM@Z 100ccc30 f i GuOverlapTestsMesh.obj
 0001:000cbe60       ?getInverse@PxTransform@physx@@QBE?AV12@XZ 100cce60 f i GuOverlapTestsMesh.obj
 0001:000cbf30       ?largestAxis@shdfnd@physx@@YAIABVPxVec3@2@AAI1@Z 100ccf30 f i GuOverlapTestsMesh.obj
 0001:000cbff0       ?processHit@?$IntersectAnyVsMeshCallback@$00$00@@UAE_NABUPxRaycastHit@physx@@ABVPxVec3@3@11AAMPBI@Z 100ccff0 f i GuOverlapTestsMesh.obj
 0001:000cc5c0       ?processHit@?$IntersectAnyVsMeshCallback@$00$0A@@@UAE_NABUPxRaycastHit@physx@@ABVPxVec3@3@11AAMPBI@Z 100cd5c0 f i GuOverlapTestsMesh.obj
 0001:000ccb70       ?processHit@?$IntersectAnyVsMeshCallback@$01$00@@UAE_NABUPxRaycastHit@physx@@ABVPxVec3@3@11AAMPBI@Z 100cdb70 f i GuOverlapTestsMesh.obj
 0001:000cd0f0       ?processHit@?$IntersectAnyVsMeshCallback@$01$0A@@@UAE_NABUPxRaycastHit@physx@@ABVPxVec3@3@11AAMPBI@Z 100ce0f0 f i GuOverlapTestsMesh.obj
 0001:000cd650       ?processHit@?$IntersectAnyVsMeshCallback@$0A@$00@@UAE_NABUPxRaycastHit@physx@@ABVPxVec3@3@11AAMPBI@Z 100ce650 f i GuOverlapTestsMesh.obj
 0001:000cdc20       ?processHit@?$IntersectAnyVsMeshCallback@$0A@$0A@@@UAE_NABUPxRaycastHit@physx@@ABVPxVec3@3@11AAMPBI@Z 100cec20 f i GuOverlapTestsMesh.obj
 0001:000ce1d0       ?processHit@ConvexVsMeshOverlapCallback@@UAE_NABUPxRaycastHit@physx@@ABVPxVec3@3@11AAMPBI@Z 100cf1d0 f i GuOverlapTestsMesh.obj
 0001:000ce590       ?reset@LimitedResults@@QAEXXZ 100cf590 f i GuOverlapTestsMesh.obj
 0001:000ce5c0       ?transformBoxOrthonormal@physx@@YA?AVBox@Gu@1@ABV231@ABVPxTransform@1@@Z 100cf5c0 f i GuOverlapTestsMesh.obj
 0001:000ce6a0       ??0RTree@Gu@physx@@QAE@ABW4PxEMPTY@2@@Z 100cf6a0 f   GuRTree.obj
 0001:000ce6f0       ?exportExtraData@RTree@Gu@physx@@QAEXAAVPxSerializationContext@3@@Z 100cf6f0 f   GuRTree.obj
 0001:000ce740       ?importExtraData@RTree@Gu@physx@@QAEXAAVPxDeserializationContext@3@@Z 100cf740 f   GuRTree.obj
 0001:000ce770       ??0RTree@Gu@physx@@QAE@XZ  100cf770 f   GuRTree.obj
 0001:000ce820       ?release@RTree@Gu@physx@@QAEXXZ 100cf820 f   GuRTree.obj
 0001:000ce880       ?save@RTree@Gu@physx@@QBE_NAAVPxOutputStream@3@@Z 100cf880 f   GuRTree.obj
 0001:000ceaf0       ?load@RTree@Gu@physx@@QAE_NAAVPxInputStream@3@I@Z 100cfaf0 f   GuRTree.obj
 0001:000cee30       ?validate@RTree@Gu@physx@@QAEXXZ 100cfe30 f   GuRTree.obj
 0001:000ceea0       ?computeBottomLevelCount@RTree@Gu@physx@@QBEII@Z 100cfea0 f   GuRTree.obj
 0001:000cf070       ?validateRecursive@RTree@Gu@physx@@IAEXIURTreeNodeQ@23@PAURTreePage@23@@Z 100d0070 f   GuRTree.obj
 0001:000cf880       ??$PX_UNUSED@URTreeNodeQ@Gu@physx@@@@YAXABURTreeNodeQ@Gu@physx@@@Z 100d0880 f i GuRTree.obj
 0001:000cf890       ??$readExtraData@URTreePage@Gu@physx@@@PxDeserializationContext@physx@@QAEPAURTreePage@Gu@1@I@Z 100d0890 f i GuRTree.obj
 0001:000cf8d0       ??0?$AlignedAllocator@$0IA@VAllocator@shdfnd@physx@@@shdfnd@physx@@QAE@ABVAllocator@12@@Z 100d08d0 f i GuRTree.obj
 0001:000cf8f0       ?WriteDwordBuffer@physx@@YAXPBII_NAAVPxOutputStream@1@@Z 100d08f0 f i GuRTree.obj
 0001:000cf920       ?allocate@?$AlignedAllocator@$0IA@VAllocator@shdfnd@physx@@@shdfnd@physx@@QAEPAXIPBDH@Z 100d0920 f i GuRTree.obj
 0001:000cf9a0       ?computeBounds@RTreePage@Gu@physx@@QAEXAAURTreeNodeQ@23@@Z 100d09a0 f i GuRTree.obj
 0001:000cfbf0       ?deallocate@?$AlignedAllocator@$0IA@VAllocator@shdfnd@physx@@@shdfnd@physx@@QAEXPAX@Z 100d0bf0 f i GuRTree.obj
 0001:000cfc40       ?getNode@RTreePage@Gu@physx@@QBEXIAAURTreeNodeQ@23@@Z 100d0c40 f i GuRTree.obj
 0001:000cfd30       ?isLeaf@RTreeNodeQ@Gu@physx@@QBEIXZ 100d0d30 f i GuRTree.obj
 0001:000cfd50       ?littleEndian@shdfnd@physx@@YADXZ 100d0d50 f i GuRTree.obj
 0001:000cfd70       ?nodeCount@RTreePage@Gu@physx@@QBEIXZ 100d0d70 f i GuRTree.obj
 0001:000cfdd0       ?traverseAABB@RTree@Gu@physx@@QBEXABVPxVec3@3@0IPAIPAUCallback@123@@Z 100d0dd0 f   GuRTreeQueries.obj
 0001:000d0460       ?traverseOBB@RTree@Gu@physx@@QBEXABVBox@23@IPAIPAUCallback@123@@Z 100d1460 f   GuRTreeQueries.obj
 0001:000d2490       ??$PX_UNUSED@PAI@@YAXABQAI@Z 100d3490 f i GuRTreeQueries.obj
 0001:000d24a0       ??$V4SplatElement@$00@aos@shdfnd@physx@@YA?AT__m128@@T3@@Z 100d34a0 f i GuRTreeQueries.obj
 0001:000d2500       ??$V4SplatElement@$01@aos@shdfnd@physx@@YA?AT__m128@@T3@@Z 100d3500 f i GuRTreeQueries.obj
 0001:000d2560       ??$V4SplatElement@$0A@@aos@shdfnd@physx@@YA?AT__m128@@T3@@Z 100d3560 f i GuRTreeQueries.obj
 0001:000d25c0       ??$traverseRay@$00@RTree@Gu@physx@@QBEXABVPxVec3@2@0IPAIPAUCallbackRaycast@012@PBV32@M@Z 100d35c0 f i GuRTreeQueries.obj
 0001:000d33c0       ??$traverseRay@$0A@@RTree@Gu@physx@@QBEXABVPxVec3@2@0IPAIPAUCallbackRaycast@012@PBV32@M@Z 100d43c0 f i GuRTreeQueries.obj
 0001:000d41b0       ?U4Load@aos@shdfnd@physx@@YA?AT__m128@@I@Z 100d51b0 f i GuRTreeQueries.obj
 0001:000d41f0       ?U4StoreA@aos@shdfnd@physx@@YAXT__m128@@PAI@Z 100d51f0 f i GuRTreeQueries.obj
 0001:000d4230       ?V4Andc@aos@shdfnd@physx@@YA?AT__m128@@T4@0@Z 100d5230 f i GuRTreeQueries.obj
 0001:000d42a0       ?V4IsGrtrV32u@aos@shdfnd@physx@@YA?AT__m128@@T4@0@Z 100d52a0 f i GuRTreeQueries.obj
 0001:000d42f0       ?V4NegMulSub@aos@shdfnd@physx@@YA?AT__m128@@T4@00@Z 100d52f0 f i GuRTreeQueries.obj
 0001:000d4360       ?V4RecipFast@aos@shdfnd@physx@@YA?AT__m128@@T4@@Z 100d5360 f i GuRTreeQueries.obj
 0001:000d43a0       ?V4U32Andc@aos@shdfnd@physx@@YA?AT__m128@@T4@0@Z 100d53a0 f i GuRTreeQueries.obj
 0001:000d4420       ?V4U32StoreAligned@aos@shdfnd@physx@@YAXT__m128@@PAT4@@Z 100d5420 f i GuRTreeQueries.obj
 0001:000d4460       ?V4U32and@aos@shdfnd@physx@@YA?AT__m128@@T4@0@Z 100d5460 f i GuRTreeQueries.obj
 0001:000d44e0       ?V4U32or@aos@shdfnd@physx@@YA?AT__m128@@T4@0@Z 100d54e0 f i GuRTreeQueries.obj
 0001:000d4560       ?Vec4V_From_PxVec3_WUndefined@aos@shdfnd@physx@@YA?AT__m128@@ABVPxVec3@3@@Z 100d5560 f i GuRTreeQueries.obj
 0001:000d45c0       ?Vec4V_ReinterpretFrom_VecU32V@aos@shdfnd@physx@@YA?AT__m128@@T4@@Z 100d55c0 f i GuRTreeQueries.obj
 0001:000d4600       ?VecU32VLoadXYZW@aos@shdfnd@physx@@YA?AT__m128@@IIII@Z 100d5600 f i GuRTreeQueries.obj
 0001:000d4680       ?VecU32V_From_BoolV@aos@shdfnd@physx@@YA?AT__m128@@ABT4@@Z 100d5680 f i GuRTreeQueries.obj
 0001:000d4690       ?VecU32V_ReinterpretFrom_Vec4V@aos@shdfnd@physx@@YA?AT__m128@@T4@@Z 100d5690 f i GuRTreeQueries.obj
 0001:000d46d0       ?isLeaf@RTreePage@Gu@physx@@QBEII@Z 100d56d0 f i GuRTreeQueries.obj
 0001:000d4bd0       ?sweepCapsule_MeshGeom@@YA_NABVPxGeometry@physx@@ABVPxTransform@2@ABVCapsule@Gu@2@ABVPxVec3@2@MAAUPxSweepHit@2@V?$PxFlags@W4Enum@PxHitFlag@physx@@G@2@M@Z 100d5bd0 f   GuSweepsMesh.obj
 0001:000d5130       ?sweepBox_MeshGeom@@YA_NABVPxGeometry@physx@@ABVPxTransform@2@ABVBox@Gu@2@ABVPxVec3@2@MAAUPxSweepHit@2@V?$PxFlags@W4Enum@PxHitFlag@physx@@G@2@M@Z 100d6130 f   GuSweepsMesh.obj
 0001:000d5bf0       ?sweepConvex_MeshGeom@@YA_NABVPxGeometry@physx@@ABVPxTransform@2@ABVPxConvexMeshGeometry@2@1ABVPxVec3@2@MAAUPxSweepHit@2@V?$PxFlags@W4Enum@PxHitFlag@physx@@G@2@M@Z 100d6bf0 f   GuSweepsMesh.obj
 0001:000d6830       ??0?$PxFlags@W4Enum@PxMeshGeometryFlag@physx@@E@physx@@QAE@ABV01@@Z 100d7830 f i GuSweepsMesh.obj
 0001:000d6850       ??0BoxV@Gu@physx@@QAE@ABT__m128@@0@Z 100d7850 f i GuSweepsMesh.obj
 0001:000d68c0       ??0CapsuleV@Gu@physx@@QAE@XZ 100d78c0 f i GuSweepsMesh.obj
 0001:000d6920       ??0ConvexVsMeshSweepCallback@@QAE@ABUConvexHullData@Gu@physx@@ABVPxMeshScale@3@ABVFastVertex2ShapeScaling@Cm@3@ABVPxTransform@3@3ABVPxVec3@3@MV?$PxFlags@W4Enum@PxHitFlag@physx@@G@3@_NM6@Z 100d7920 f i GuSweepsMesh.obj
 0001:000d6cf0       ??0Matrix34Padded@@QAE@ABVMatrix34@Cm@physx@@@Z 100d7cf0 f i GuSweepsMesh.obj
 0001:000d6d20       ??0PsTransformV@aos@shdfnd@physx@@QAE@ABT__m128@@0@Z 100d7d20 f i GuSweepsMesh.obj
 0001:000d6db0       ??0PxMeshScale@physx@@QAE@ABVPxVec3@1@ABVPxQuat@1@@Z 100d7db0 f i GuSweepsMesh.obj
 0001:000d6e60       ??0PxSweepHit@physx@@QAE@XZ 100d7e60 f i GuSweepsMesh.obj
 0001:000d6e80       ??0SweepBoxMeshHitCallback@@QAE@W4Enum@CallbackMode@Gu@physx@@ABVMatrix34Padded@@MM_NABVBox@34@ABVPxVec3@4@44ABV?$PxFlags@W4Enum@PxHitFlag@physx@@G@4@M@Z 100d7e80 f i GuSweepsMesh.obj
 0001:000d7130       ??0SweepCapsuleCallback@@QAE@AAUPxSweepHit@physx@@ABVMatrix34@Cm@2@MM_NABVCapsule@Gu@2@ABVPxVec3@2@ABV?$PxFlags@W4Enum@PxHitFlag@physx@@G@2@@Z 100d8130 f i GuSweepsMesh.obj
 0001:000d7240       ??1CapsuleV@Gu@physx@@QAE@XZ 100d8240 f i GuSweepsMesh.obj
 0001:000d7260       ??1ConvexVsMeshSweepCallback@@UAE@XZ 100d8260 f i GuSweepsMesh.obj
 0001:000d7290       ??1Matrix34Padded@@QAE@XZ  100d8290 f i GuSweepsMesh.obj
 0001:000d72a0       ??1SweepBoxMeshHitCallback@@UAE@XZ 100d82a0 f i GuSweepsMesh.obj
 0001:000d72d0       ??1SweepCapsuleCallback@@UAE@XZ 100d82d0 f i GuSweepsMesh.obj
 0001:000d72f0       ??4PxSweepHit@physx@@QAEAAU01@ABU01@@Z 100d82f0 f i GuSweepsMesh.obj
 0001:000d7330       ??B?$PxFlags@W4Enum@PxMeshGeometryFlag@physx@@E@physx@@QBE_NXZ 100d8330 f i GuSweepsMesh.obj
 0001:000d7360       ??I?$PxFlags@W4Enum@PxMeshGeometryFlag@physx@@E@physx@@QBE?AV01@W4Enum@PxMeshGeometryFlag@1@@Z 100d8360 f i GuSweepsMesh.obj
 0001:000d73b0       ??_GConvexVsMeshSweepCallback@@UAEPAXI@Z 100d83b0 f i GuSweepsMesh.obj
 0001:000d73b0       ??_EConvexVsMeshSweepCallback@@UAEPAXI@Z 100d83b0 f i GuSweepsMesh.obj
 0001:000d73f0       ??_ESweepBoxMeshHitCallback@@UAEPAXI@Z 100d83f0 f i GuSweepsMesh.obj
 0001:000d73f0       ??_GSweepBoxMeshHitCallback@@UAEPAXI@Z 100d83f0 f i GuSweepsMesh.obj
 0001:000d7430       ??_ESweepCapsuleCallback@@UAEPAXI@Z 100d8430 f i GuSweepsMesh.obj
 0001:000d7430       ??_GSweepCapsuleCallback@@UAEPAXI@Z 100d8430 f i GuSweepsMesh.obj
 0001:000d7470       ?QuatConjugate@aos@shdfnd@physx@@YA?AT__m128@@T4@@Z 100d8470 f i GuSweepsMesh.obj
 0001:000d74e0       ?QuatIdentity@aos@shdfnd@physx@@YA?AT__m128@@XZ 100d84e0 f i GuSweepsMesh.obj
 0001:000d7540       ?QuatLength@aos@shdfnd@physx@@YA?AT__m128@@T4@@Z 100d8540 f i GuSweepsMesh.obj
 0001:000d7590       ?QuatMul@aos@shdfnd@physx@@YA?AT__m128@@T4@0@Z 100d8590 f i GuSweepsMesh.obj
 0001:000d7720       ?QuatRotateInv@aos@shdfnd@physx@@YA?AT__m128@@T4@0@Z 100d8720 f i GuSweepsMesh.obj
 0001:000d7890       ?QuatTransform@aos@shdfnd@physx@@YA?AT__m128@@T4@00@Z 100d8890 f i GuSweepsMesh.obj
 0001:000d7a10       ?V4Dot@aos@shdfnd@physx@@YA?AT__m128@@T4@0@Z 100d8a10 f i GuSweepsMesh.obj
 0001:000d7b10       ?V4Length@aos@shdfnd@physx@@YA?AT__m128@@T4@@Z 100d8b10 f i GuSweepsMesh.obj
 0001:000d7b70       ?V4Scale@aos@shdfnd@physx@@YA?AT__m128@@T4@0@Z 100d8b70 f i GuSweepsMesh.obj
 0001:000d7bc0       ?V4ScaleAdd@aos@shdfnd@physx@@YA?AT__m128@@T4@00@Z 100d8bc0 f i GuSweepsMesh.obj
 0001:000d7c30       ?V4StoreA@aos@shdfnd@physx@@YAXT__m128@@PAM@Z 100d8c30 f i GuSweepsMesh.obj
 0001:000d7c70       ?finalize@SweepCapsuleCallback@@QAE_NAAUPxSweepHit@physx@@ABVCapsule@Gu@3@ABVPxTriangleMeshGeometry@3@ABVPxTransform@3@_NM@Z 100d8c70 f i GuSweepsMesh.obj
 0001:000d7f00       ?getHull@ConvexMesh@Gu@physx@@QAEAAUConvexHullData@23@XZ 100d8f00 f i GuSweepsMesh.obj
 0001:000d7f20       ?getInverse@PxMeshScale@physx@@QBE?AV12@XZ 100d8f20 f i GuSweepsMesh.obj
 0001:000d7fb0       ?initialize@CapsuleV@Gu@physx@@QAEXABT__m128@@00@Z 100d8fb0 f i GuSweepsMesh.obj
 0001:000d8080       ?initialize@ConvexHullV@Gu@physx@@QAEXPBUConvexHullData@23@ABT__m128@@11@Z 100d9080 f i GuSweepsMesh.obj
 0001:000d81c0       ?isFinite@PsTransformV@aos@shdfnd@physx@@QBE_NXZ 100d91c0 f i GuSweepsMesh.obj
 0001:000d8200       ?isFiniteQuatV@aos@shdfnd@physx@@YA_NT__m128@@@Z 100d9200 f i GuSweepsMesh.obj
 0001:000d8240       ?isFiniteVec3V@aos@shdfnd@physx@@YA_NT__m128@@@Z 100d9240 f i GuSweepsMesh.obj
 0001:000d8320       ?isFiniteVec4V@aos@shdfnd@physx@@YA_NT__m128@@@Z 100d9320 f i GuSweepsMesh.obj
 0001:000d8430       ?isSane@PsTransformV@aos@shdfnd@physx@@QBE_NXZ 100d9430 f i GuSweepsMesh.obj
 0001:000d8470       ?isSaneQuatV@aos@shdfnd@physx@@YA_NT__m128@@@Z 100d9470 f i GuSweepsMesh.obj
 0001:000d8570       ?isSet@?$PxFlags@W4Enum@PxHitFlag@physx@@G@physx@@QBE_NW4Enum@PxHitFlag@2@@Z 100d9570 f i GuSweepsMesh.obj
 0001:000d85c0       ?normalizeSafe@PxVec3@physx@@QAEMXZ 100d95c0 f i GuSweepsMesh.obj
 0001:000d8620       ?processHit@ConvexVsMeshSweepCallback@@UAE_NABUPxRaycastHit@physx@@ABVPxVec3@3@11AAMPBI@Z 100d9620 f i GuSweepsMesh.obj
 0001:000d8800       ?processHit@SweepBoxMeshHitCallback@@UAE_NABUPxRaycastHit@physx@@ABVPxVec3@3@11AAMPBI@Z 100d9800 f i GuSweepsMesh.obj
 0001:000d8fd0       ?processHit@SweepCapsuleCallback@@UAE_NABUPxRaycastHit@physx@@ABVPxVec3@3@11AAMPBI@Z 100d9fd0 f i GuSweepsMesh.obj
 0001:000d9480       ?rotate@PsTransformV@aos@shdfnd@physx@@QBE?AT__m128@@ABT5@@Z 100da480 f i GuSweepsMesh.obj
 0001:000d9510       ?rotateInv@PsTransformV@aos@shdfnd@physx@@QBE?AT__m128@@ABT5@@Z 100da510 f i GuSweepsMesh.obj
 0001:000d95a0       ?rotateInv@PxTransform@physx@@QBE?AVPxVec3@2@ABV32@@Z 100da5a0 f i GuSweepsMesh.obj
 0001:000d9630       ?transform@PsTransformV@aos@shdfnd@physx@@QBE?AT__m128@@ABT5@@Z 100da630 f i GuSweepsMesh.obj
 0001:000d96d0       ?transformBounds@FastVertex2ShapeScaling@Cm@physx@@QBE?AVPxBounds3@3@ABV43@@Z 100da6d0 f i GuSweepsMesh.obj
 0001:000d9760       ?transformInv@PsTransformV@aos@shdfnd@physx@@QBE?AV1234@ABV1234@@Z 100da760 f i GuSweepsMesh.obj
 0001:000d98c0       ?onRefCountZero@TriangleMesh@Gu@physx@@UAEXXZ 100da8c0 f   GuTriangleMesh.obj
 0001:000d9950       ?exportExtraData@TriangleMesh@Gu@physx@@UAEXAAVPxSerializationContext@3@@Z 100da950 f   GuTriangleMesh.obj
 0001:000d9980       ?importExtraData@TriangleMesh@Gu@physx@@QAEXAAVPxDeserializationContext@3@@Z 100da980 f   GuTriangleMesh.obj
 0001:000d99b0       ?createObject@TriangleMesh@Gu@physx@@SAPAV123@AAPAEAAVPxDeserializationContext@3@@Z 100da9b0 f   GuTriangleMesh.obj
 0001:000d9a30       ??0TriangleMesh@Gu@physx@@QAE@XZ 100daa30 f   GuTriangleMesh.obj
 0001:000d9ab0       ?load@TriangleMesh@Gu@physx@@QAE_NAAVPxInputStream@3@@Z 100daab0 f   GuTriangleMesh.obj
 0001:000da260       ?setupMeshInterface@TriangleMesh@Gu@physx@@QAEXXZ 100db260 f   GuTriangleMesh.obj
 0001:000da2a0       ?checkMeshIndicesSize@TriangleMesh@Gu@physx@@QAEXXZ 100db2a0 f   GuTriangleMesh.obj
 0001:000da3c0       ?release@TriangleMesh@Gu@physx@@UAEXXZ 100db3c0 f   GuTriangleMesh.obj
 0001:000da410       ?getReferenceCount@TriangleMesh@Gu@physx@@UBEIXZ 100db410 f   GuTriangleMesh.obj
 0001:000da430       ??1TriangleMesh@Gu@physx@@UAE@XZ 100db430 f   GuTriangleMesh.obj
 0001:000da480       ?debugVisualize@TriangleMesh@Gu@physx@@QBEXAAVRenderOutput@Cm@3@ABVMatrix34@53@ABVPxMeshScale@3@ABVPxBounds3@3@_KMI@Z 100db480 f   GuTriangleMesh.obj
 0001:000dbf00       ??$?_UE@@YAPAXIV?$ReflectionAllocator@E@shdfnd@physx@@PBDH@Z 100dcf00 f i GuTriangleMesh.obj
 0001:000dbf20       ??$deletePxBase@VTriangleMesh@Gu@physx@@@Cm@physx@@YAXPAVTriangleMesh@Gu@1@@Z 100dcf20 f i GuTriangleMesh.obj
 0001:000dbfc0       ??0?$ReflectionAllocator@E@shdfnd@physx@@QAE@PBD@Z 100dcfc0 f i GuTriangleMesh.obj
 0001:000dbfe0       ??0PxTransform@physx@@QAE@XZ 100dcfe0 f i GuTriangleMesh.obj
 0001:000dc010       ??0PxTriangleMesh@physx@@IAE@GV?$PxFlags@W4Enum@PxBaseFlag@physx@@G@1@@Z 100dd010 f i GuTriangleMesh.obj
 0001:000dc050       ??4PxDebugLine@physx@@QAEAAU01@$$QAU01@@Z 100dd050 f i GuTriangleMesh.obj
 0001:000dc0b0       ?allocate@?$ReflectionAllocator@E@shdfnd@physx@@QAEPAXIPBDH@Z 100dd0b0 f i GuTriangleMesh.obj
 0001:000dc120       ?empty@PxBounds3@physx@@SA?AV12@XZ 100dd120 f i GuTriangleMesh.obj
 0001:000dc190       ?flip@physx@@YAXAAI@Z      100dd190 f i GuTriangleMesh.obj
 0001:000dc240       ?getName@?$ReflectionAllocator@E@shdfnd@physx@@CAPBDXZ 100dd240 f i GuTriangleMesh.obj
 0001:000dc290       ?isZero@PxVec3@physx@@QBE_NXZ 100dd290 f i GuTriangleMesh.obj
 0001:000dc310       ?resolveReferences@TriangleMesh@Gu@physx@@QAEXAAVPxDeserializationContext@3@@Z 100dd310 f i GuTriangleMesh.obj
 0001:000dc320       ?exportExtraData@HeightField@Gu@physx@@UAEXAAVPxSerializationContext@3@@Z 100dd320 f   GuHeightField.obj
 0001:000dc380       ?importExtraData@HeightField@Gu@physx@@QAEXAAVPxDeserializationContext@3@@Z 100dd380 f   GuHeightField.obj
 0001:000dc3b0       ?createObject@HeightField@Gu@physx@@SAPAV123@AAPAEAAVPxDeserializationContext@3@@Z 100dd3b0 f   GuHeightField.obj
 0001:000dc420       ??0HeightField@Gu@physx@@QAE@PAVGuMeshFactory@2@@Z 100dd420 f   GuHeightField.obj
 0001:000dc510       ?release@HeightField@Gu@physx@@UAEXXZ 100dd510 f   GuHeightField.obj
 0001:000dc560       ?saveCells@HeightField@Gu@physx@@UBEIPAXI@Z 100dd560 f   GuHeightField.obj
 0001:000dc5b0       ?modifySamples@HeightField@Gu@physx@@UAE_NHHABVPxHeightFieldDesc@3@_N@Z 100dd5b0 f   GuHeightField.obj
 0001:000dc890       ?getReferenceCount@HeightField@Gu@physx@@UBEIXZ 100dd890 f   GuHeightField.obj
 0001:000dc8b0       ?onRefCountZero@HeightField@Gu@physx@@UAEXXZ 100dd8b0 f   GuHeightField.obj
 0001:000dc970       ?loadFromDesc@HeightField@Gu@physx@@QAE_NABVPxHeightFieldDesc@3@_N@Z 100dd970 f   GuHeightField.obj
 0001:000dcde0       ?load@HeightField@Gu@physx@@QAE_NAAVPxInputStream@3@@Z 100ddde0 f   GuHeightField.obj
 0001:000dd150       ?computeCellCoordinates@HeightField@Gu@physx@@QBEIMMAAM0@Z 100de150 f   GuHeightField.obj
 0001:000dd410       ?isSolidVertex@HeightField@Gu@physx@@QBE_NIIIGAA_N@Z 100de410 f   GuHeightField.obj
 0001:000dd5a0       ?isCollisionVertexPreca@HeightField@Gu@physx@@QBE_NIIIG@Z 100de5a0 f   GuHeightField.obj
 0001:000dd700       ?parseTrianglesForCollisionVertices@HeightField@Gu@physx@@QAEXG@Z 100de700 f   GuHeightField.obj
 0001:000dda10       ?computeExtreme@HeightField@Gu@physx@@QBEMIIII@Z 100dea10 f   GuHeightField.obj
 0001:000ddb40       ?releaseMemory@HeightField@Gu@physx@@QAEX_N@Z 100deb40 f   GuHeightField.obj
 0001:000ddbf0       ??1HeightField@Gu@physx@@UAE@XZ 100debf0 f   GuHeightField.obj
 0001:000ddc30       ?getVertexEdgeIndices@physx@@YAIABVHeightField@Gu@1@IIIQAUEdgeData@1@@Z 100dec30 f   GuHeightField.obj
 0001:000de030       ?getEdgeTriangleIndices@physx@@YAIABVHeightField@Gu@1@ABUEdgeData@1@PIAI@Z 100df030 f   GuHeightField.obj
 0001:000deac0       ??$PxMax@H@physx@@YAHHH@Z  100dfac0 f i GuHeightField.obj
 0001:000deaf0       ??$PxMin@H@physx@@YAHHH@Z  100dfaf0 f i GuHeightField.obj
 0001:000deb20       ??$deletePxBase@VHeightField@Gu@physx@@@Cm@physx@@YAXPAVHeightField@Gu@1@@Z 100dfb20 f i GuHeightField.obj
 0001:000debc0       ??$readExtraData@UPxHeightFieldSample@physx@@$0BA@@PxDeserializationContext@physx@@QAEPAUPxHeightFieldSample@1@I@Z 100dfbc0 f i GuHeightField.obj
 0001:000debf0       ??$readExtraData@UPxHeightFieldSample@physx@@@PxDeserializationContext@physx@@QAEPAUPxHeightFieldSample@1@I@Z 100dfbf0 f i GuHeightField.obj
 0001:000dec30       ??0?$AlignedAllocator@$0BA@VAllocator@shdfnd@physx@@@shdfnd@physx@@QAE@ABVAllocator@12@@Z 100dfc30 f i GuHeightField.obj
 0001:000dec50       ??0?$BitMapBase@VAllocator@shdfnd@physx@@@Cm@physx@@QAE@XZ 100dfc50 f i GuHeightField.obj
 0001:000deca0       ??0?$PxFlags@W4Enum@PxHeightFieldFlag@physx@@G@physx@@QAE@G@Z 100dfca0 f i GuHeightField.obj
 0001:000decc0       ??0HeightField@Gu@physx@@QAE@V?$PxFlags@W4Enum@PxBaseFlag@physx@@G@2@@Z 100dfcc0 f i GuHeightField.obj
 0001:000ded50       ??0PxHeightField@physx@@IAE@GV?$PxFlags@W4Enum@PxBaseFlag@physx@@G@1@@Z 100dfd50 f i GuHeightField.obj
 0001:000ded90       ??0PxHeightField@physx@@IAE@V?$PxFlags@W4Enum@PxBaseFlag@physx@@G@1@@Z 100dfd90 f i GuHeightField.obj
 0001:000dedd0       ??1?$BitMapBase@VAllocator@shdfnd@physx@@@Cm@physx@@QAE@XZ 100dfdd0 f i GuHeightField.obj
 0001:000dee20       ??9?$PxFlags@W4Enum@PxHeightFieldFlag@physx@@G@physx@@QBE_NABV01@@Z 100dfe20 f i GuHeightField.obj
 0001:000dee60       ??_EHeightField@Gu@physx@@UAEPAXI@Z 100dfe60 f i GuHeightField.obj
 0001:000def34       ??_EHeightField@Gu@physx@@W7AEPAXI@Z 100dff34 f i GuHeightField.obj
 0001:000def40       ?anyHole@@YAIIG@Z          100dff40 f i GuHeightField.obj
 0001:000defb0       ?clear@?$BitMapBase@VAllocator@shdfnd@physx@@@Cm@physx@@QAEXI@Z 100dffb0 f i GuHeightField.obj
 0001:000df010       ?clearBit@?$PxBitAndDataT@E$0IA@@physx@@QAEXXZ 100e0010 f i GuHeightField.obj
 0001:000df040       ?deallocate@?$AlignedAllocator@$0BA@VAllocator@shdfnd@physx@@@shdfnd@physx@@QAEXPAX@Z 100e0040 f i GuHeightField.obj
 0001:000df090       ?extendUninitialized@?$BitMapBase@VAllocator@shdfnd@physx@@@Cm@physx@@IAEXI@Z 100e0090 f i GuHeightField.obj
 0001:000df140       ?flip@physx@@YAXAAF@Z      100e0140 f i GuHeightField.obj
 0001:000df1b0       ?getMaterialIndex01@HeightField@Gu@physx@@QBEII@Z 100e01b0 f i GuHeightField.obj
 0001:000df210       ?getMaxHeight@HeightField@Gu@physx@@QBEMXZ 100e0210 f i GuHeightField.obj
 0001:000df230       ?getMinHeight@HeightField@Gu@physx@@QBEMXZ 100e0230 f i GuHeightField.obj
 0001:000df250       ?getThicknessFast@HeightField@Gu@physx@@QBEMXZ 100e0250 f i GuHeightField.obj
 0001:000df270       ?getWordCount@?$BitMapBase@VAllocator@shdfnd@physx@@@Cm@physx@@QBEIXZ 100e0270 f i GuHeightField.obj
 0001:000df290       ?isConvexVertex@HeightField@Gu@physx@@QBE_NIII@Z 100e0290 f i GuHeightField.obj
 0001:000df510       ?isInUserMemory@?$BitMapBase@VAllocator@shdfnd@physx@@@Cm@physx@@QBEIXZ 100e0510 f i GuHeightField.obj
 0001:000df530       ?isValid@PxHeightFieldDesc@physx@@QBE_NXZ 100e0530 f i GuHeightField.obj
 0001:000df620       ?requires@HeightField@Gu@physx@@UAEXAAVPxProcessPxBaseCallback@3@@Z 100e0620 f i GuHeightField.obj
 0001:000df630       ?resolveReferences@HeightField@Gu@physx@@QAEXAAVPxDeserializationContext@3@@Z 100e0630 f i GuHeightField.obj
 0001:000df640       ?set@?$BitMapBase@VAllocator@shdfnd@physx@@@Cm@physx@@QAEXI@Z 100e0640 f i GuHeightField.obj
 0001:000df6e0       ?setBit@?$PxBitAndDataT@E$0IA@@physx@@QAEXXZ 100e06e0 f i GuHeightField.obj
 0001:000df710       ?test@?$BitMapBase@VAllocator@shdfnd@physx@@@Cm@physx@@QBEHI@Z 100e0710 f i GuHeightField.obj
 0001:000df7f0       ?computeLocalBounds@HeightFieldUtil@Gu@physx@@QBEXAAVPxBounds3@3@@Z 100e07f0 f   GuHeightFieldUtil.obj
 0001:000df940       ?isCollisionEdge@HeightFieldUtil@Gu@physx@@QBE_NI@Z 100e0940 f   GuHeightFieldUtil.obj
 0001:000dfa80       ?isCollisionEdge@HeightFieldUtil@Gu@physx@@QBE_NIIPIBIIII@Z 100e0a80 f   GuHeightFieldUtil.obj
 0001:000dfbb0       ?isBoundaryEdge@HeightFieldUtil@Gu@physx@@QBE_NI@Z 100e0bb0 f   GuHeightFieldUtil.obj
 0001:000dfcc0       ?getFaceIndexAtShapePoint@HeightFieldUtil@Gu@physx@@QBEIMM@Z 100e0cc0 f   GuHeightFieldUtil.obj
 0001:000dfd70       ?getFaceIndexAtShapePointNoTest@HeightFieldUtil@Gu@physx@@QBEIMM@Z 100e0d70 f   GuHeightFieldUtil.obj
 0001:000dfe50       ?getFaceIndexAtShapePointNoTest2@HeightFieldUtil@Gu@physx@@QBEIIMM@Z 100e0e50 f   GuHeightFieldUtil.obj
 0001:000dfec0       ?getFaceIndexAtTriangleIndex@HeightFieldUtil@Gu@physx@@QBEII@Z 100e0ec0 f   GuHeightFieldUtil.obj
 0001:000dff00       ?getSmoothNormalAtShapePoint@HeightFieldUtil@Gu@physx@@QBE?AVPxVec3@3@MM@Z 100e0f00 f   GuHeightFieldUtil.obj
 0001:000e03f0       ?getVertexNormal@HeightFieldUtil@Gu@physx@@QBE?AVPxVec3@3@III@Z 100e13f0 f   GuHeightFieldUtil.obj
 0001:000e0650       ?getVertexFaceIndex@HeightFieldUtil@Gu@physx@@QBEIIII@Z 100e1650 f   GuHeightFieldUtil.obj
 0001:000e07a0       ?getEdge@HeightFieldUtil@Gu@physx@@QBEXIIIIAAVPxVec3@3@0@Z 100e17a0 f   GuHeightFieldUtil.obj
 0001:000e0e50       ?getEdgeFaceIndex@HeightFieldUtil@Gu@physx@@QBEII@Z 100e1e50 f   GuHeightFieldUtil.obj
 0001:000e0f30       ?getEdgeFaceIndex@HeightFieldUtil@Gu@physx@@QBEIIIII@Z 100e1f30 f   GuHeightFieldUtil.obj
 0001:000e1010       ?getEdgeFaceIndex@HeightFieldUtil@Gu@physx@@QBEIIIPIBI@Z 100e2010 f   GuHeightFieldUtil.obj
 0001:000e10e0       ?findClosestPointsOnCell@HeightFieldUtil@Gu@physx@@QBEIIIVPxVec3@3@PIAV43@PIAI_N33@Z 100e20e0 f   GuHeightFieldUtil.obj
 0001:000e1b20       ?findProjectionOnTriangle@HeightFieldUtil@Gu@physx@@QBE_NIIIABVPxVec3@3@AAV43@@Z 100e2b20 f   GuHeightFieldUtil.obj
 0001:000e2230       ?findClosestPointOnEdge@HeightFieldUtil@Gu@physx@@QBEMIIIIABVPxVec3@3@AAV43@@Z 100e3230 f   GuHeightFieldUtil.obj
 0001:000e2b60       ?getTriangle@HeightFieldUtil@Gu@physx@@QBEIABVPxTransform@3@AAVPxTriangle@3@PAI2I_N3@Z 100e3b60 f   GuHeightFieldUtil.obj
 0001:000e3020       ?overlapAABBTriangles@HeightFieldUtil@Gu@physx@@QBE_NABVPxTransform@3@ABVPxBounds3@3@IPAV?$EntityReport@I@23@@Z 100e4020 f   GuHeightFieldUtil.obj
 0001:000e4590       ??$PxClamp@H@physx@@YAHHHH@Z 100e5590 f i GuHeightFieldUtil.obj
 0001:000e4610       ??B?$PxFlags@W4Enum@PxHeightFieldFlag@physx@@G@physx@@QBEIXZ 100e5610 f i GuHeightFieldUtil.obj
 0001:000e4630       ?ceil@shdfnd@physx@@YAMM@Z 100e5630 f i GuHeightFieldUtil.obj
 0001:000e4650       ?floatFloor@shdfnd@physx@@YAMM@Z 100e5650 f i GuHeightFieldUtil.obj
 0001:000e4670       ?floor@shdfnd@physx@@YAMM@Z 100e5670 f i GuHeightFieldUtil.obj
 0001:000e4690       ?getEdgeTriangleIndices@HeightField@Gu@physx@@QBEIIQAI@Z 100e5690 f i GuHeightFieldUtil.obj
 0001:000e4890       ?getEdgeTriangleIndices@HeightField@Gu@physx@@QBEIIQAIIII@Z 100e5890 f i GuHeightFieldUtil.obj
 0001:000e4a50       ?getFlagsFast@HeightField@Gu@physx@@QBEIXZ 100e5a50 f i GuHeightFieldUtil.obj
 0001:000e4a70       ?getMaxColumn@HeightField@Gu@physx@@QBEIM@Z 100e5a70 f i GuHeightFieldUtil.obj
 0001:000e4ad0       ?getMaxRow@HeightField@Gu@physx@@QBEIM@Z 100e5ad0 f i GuHeightFieldUtil.obj
 0001:000e4b30       ?getMinColumn@HeightField@Gu@physx@@QBEIM@Z 100e5b30 f i GuHeightFieldUtil.obj
 0001:000e4b90       ?getMinRow@HeightField@Gu@physx@@QBEIM@Z 100e5b90 f i GuHeightFieldUtil.obj
 0001:000e4bf0       ?getTriangleAdjacencyIndices@HeightField@Gu@physx@@QBEXIIIIAAI00@Z 100e5bf0 f i GuHeightFieldUtil.obj
 0001:000e4e70       ?getTriangleIndex2@HeightField@Gu@physx@@QBEIIMM@Z 100e5e70 f i GuHeightFieldUtil.obj
 0001:000e4f00       ?getTriangleIndex@HeightField@Gu@physx@@QBEIMM@Z 100e5f00 f i GuHeightFieldUtil.obj
 0001:000e4f70       ?getVertex@HeightField@Gu@physx@@QBE?AVPxVec3@3@I@Z 100e5f70 f i GuHeightFieldUtil.obj
 0001:000e5030       ?isConvexEdge@HeightField@Gu@physx@@QBE_NI@Z 100e6030 f i GuHeightFieldUtil.obj
 0001:000e50a0       ?isConvexEdge@HeightField@Gu@physx@@QBE_NIIII@Z 100e60a0 f i GuHeightFieldUtil.obj
 0001:000e5580       ?isValidTriangle@HeightField@Gu@physx@@QBE_NI@Z 100e6580 f i GuHeightFieldUtil.obj
 0001:000e55f0       ?intersectHeightFieldSphere@Gu@physx@@YA_NABVHeightFieldUtil@12@ABVSphere@12@@Z 100e65f0 f   GuOverlapTestsHF.obj
 0001:000e58a0       ?intersectHeightFieldCapsule@Gu@physx@@YA_NABVHeightFieldUtil@12@ABVCapsule@12@@Z 100e68a0 f   GuOverlapTestsHF.obj
 0001:000e5f20       ?intersectHeightFieldBox@Gu@physx@@YA_NABVHeightFieldUtil@12@ABVBox@12@@Z 100e6f20 f   GuOverlapTestsHF.obj
 0001:000e65e0       ?intersectHeightFieldConvex@Gu@physx@@YA_NABVHeightFieldUtil@12@ABVPxTransform@2@ABVConvexMesh@12@1ABVPxMeshScale@2@@Z 100e75e0 f   GuOverlapTestsHF.obj
 0001:000e6fb0       ?checkOverlapSphere_heightFieldGeom@Gu@physx@@YA_NABVPxGeometry@2@ABVPxTransform@2@ABVSphere@12@@Z 100e7fb0 f   GuOverlapTestsHF.obj
 0001:000e7090       ?checkOverlapOBB_heightFieldGeom@Gu@physx@@YA_NABVPxGeometry@2@ABVPxTransform@2@ABVBox@12@@Z 100e8090 f   GuOverlapTestsHF.obj
 0001:000e7190       ?checkOverlapCapsule_heightFieldGeom@Gu@physx@@YA_NABVPxGeometry@2@ABVPxTransform@2@ABVCapsule@12@@Z 100e8190 f   GuOverlapTestsHF.obj
 0001:000e7340       ?GeomOverlapCallback_SphereHeightfield@@YA_NABVPxGeometry@physx@@ABVPxTransform@2@01PAUTriggerCache@Gu@2@@Z 100e8340 f   GuOverlapTestsHF.obj
 0001:000e7450       ?GeomOverlapCallback_PlaneHeightfield@@YA_NABVPxGeometry@physx@@ABVPxTransform@2@01PAUTriggerCache@Gu@2@@Z 100e8450 f   GuOverlapTestsHF.obj
 0001:000e7560       ?GeomOverlapCallback_CapsuleHeightfield@@YA_NABVPxGeometry@physx@@ABVPxTransform@2@01PAUTriggerCache@Gu@2@@Z 100e8560 f   GuOverlapTestsHF.obj
 0001:000e7670       ?GeomOverlapCallback_BoxHeightfield@@YA_NABVPxGeometry@physx@@ABVPxTransform@2@01PAUTriggerCache@Gu@2@@Z 100e8670 f   GuOverlapTestsHF.obj
 0001:000e7790       ?GeomOverlapCallback_ConvexHeightfield@@YA_NABVPxGeometry@physx@@ABVPxTransform@2@01PAUTriggerCache@Gu@2@@Z 100e8790 f   GuOverlapTestsHF.obj
 0001:000e8110       ??$PX_UNUSED@PAV?$Array@IVNamedAllocator@shdfnd@physx@@@shdfnd@physx@@@@YAXABQAV?$Array@IVNamedAllocator@shdfnd@physx@@@shdfnd@physx@@@Z 100e9110 f i GuOverlapTestsHF.obj
 0001:000e8120       ??$PX_UNUSED@VPxGeometry@physx@@@@YAXABVPxGeometry@physx@@@Z 100e9120 f i GuOverlapTestsHF.obj
 0001:000e8130       ??$PX_UNUSED@VPxTransform@physx@@@@YAXABVPxTransform@physx@@@Z 100e9130 f i GuOverlapTestsHF.obj
 0001:000e8140       ??$traceSegment@UTriggerTraceSegmentCallback@Gu@physx@@$0A@$0A@$0A@@HeightFieldUtil@Gu@physx@@QBEXABVPxVec3@2@0PAUTriggerTraceSegmentCallback@12@PBV32@@Z 100e9140 f i GuOverlapTestsHF.obj
 0001:000ea460       ??0?$OverlapTraceSegment@UTriggerTraceSegmentCallback@Gu@physx@@@HeightFieldUtil@Gu@physx@@QAE@ABV123@ABVHeightField@23@@Z 100eb460 f i GuOverlapTestsHF.obj
 0001:000ea4c0       ??0EdgeCache@Gu@physx@@QAE@XZ 100eb4c0 f i GuOverlapTestsHF.obj
 0001:000ea4f0       ??0Matrix34@Cm@physx@@QAE@ABVPxMat33@2@@Z 100eb4f0 f i GuOverlapTestsHF.obj
 0001:000ea580       ??0TriggerTraceSegmentCallback@Gu@physx@@QAE@XZ 100eb580 f i GuOverlapTestsHF.obj
 0001:000ea5a0       ?V4AllGrtr@aos@shdfnd@physx@@YAIT__m128@@0@Z 100eb5a0 f i GuOverlapTestsHF.obj
 0001:000ea600       ?addIndex@?$OverlapTraceSegment@UTriggerTraceSegmentCallback@Gu@physx@@@HeightFieldUtil@Gu@physx@@QAE_NI@Z 100eb600 f i GuOverlapTestsHF.obj
 0001:000ea670       ?computeRectangleDifference@?$OverlapTraceSegment@UTriggerTraceSegmentCallback@Gu@physx@@@HeightFieldUtil@Gu@physx@@QAEXABUOverlapRectangle@1234@0AAUOverlapLine@1234@@Z 100eb670 f i GuOverlapTestsHF.obj
 0001:000ea760       ?distanceSegmentSegmentSquared@Gu@physx@@YAMABVSegment@12@0PAM1@Z 100eb760 f i GuOverlapTestsHF.obj
 0001:000ea7c0       ?faceHit@TriggerTraceSegmentCallback@Gu@physx@@QAE_NABVHeightFieldUtil@23@ABVPxVec3@3@I@Z 100eb7c0 f i GuOverlapTestsHF.obj
 0001:000ea7e0       ?getInverse@PsTransformV@aos@shdfnd@physx@@QBE?AV1234@XZ 100eb7e0 f i GuOverlapTestsHF.obj
 0001:000ea8c0       ?hash@EdgeCache@Gu@physx@@QBEII@Z 100eb8c0 f i GuOverlapTestsHF.obj
 0001:000ea8f0       ?init@?$OverlapTraceSegment@UTriggerTraceSegmentCallback@Gu@physx@@@HeightFieldUtil@Gu@physx@@QAE_NHHHHHPAUTriggerTraceSegmentCallback@34@PAV?$Array@IVNamedAllocator@shdfnd@physx@@@shdfnd@4@@Z 100eb8f0 f i GuOverlapTestsHF.obj
 0001:000eaa10       ?initialized@?$OverlapTraceSegment@UTriggerTraceSegmentCallback@Gu@physx@@@HeightFieldUtil@Gu@physx@@QBE_NXZ 100eba10 f i GuOverlapTestsHF.obj
 0001:000eaa30       ?intersectRayTriangle@Gu@physx@@YA_NABVPxVec3@2@0000AAM11_NM@Z 100eba30 f i GuOverlapTestsHF.obj
 0001:000eaae0       ?invalidate@OverlapRectangle@?$OverlapTraceSegment@UTriggerTraceSegmentCallback@Gu@physx@@@HeightFieldUtil@Gu@physx@@QAEXXZ 100ebae0 f i GuOverlapTestsHF.obj
 0001:000eab20       ?isDeltaHeightInsideExtent@HeightField@Gu@physx@@QBE_NMM@Z 100ebb20 f i GuOverlapTestsHF.obj
 0001:000eabc0       ?isDeltaHeightOppositeExtent@HeightField@Gu@physx@@QBE_NM@Z 100ebbc0 f i GuOverlapTestsHF.obj
 0001:000eac30       ?isInCache@EdgeCache@Gu@physx@@QAE_NEE@Z 100ebc30 f i GuOverlapTestsHF.obj
 0001:000ead00       ?onEvent@TriggerTraceSegmentCallback@Gu@physx@@QAE_NIPAI@Z 100ebd00 f i GuOverlapTestsHF.obj
 0001:000ead20       ?prepare@?$OverlapTraceSegment@UTriggerTraceSegmentCallback@Gu@physx@@@HeightFieldUtil@Gu@physx@@QAEXABVPxVec3@4@00AAM1@Z 100ebd20 f i GuOverlapTestsHF.obj
 0001:000eb100       ?reportOverlaps@?$OverlapTraceSegment@UTriggerTraceSegmentCallback@Gu@physx@@@HeightFieldUtil@Gu@physx@@QAE_NXZ 100ec100 f i GuOverlapTestsHF.obj
 0001:000eb160       ?step@?$OverlapTraceSegment@UTriggerTraceSegmentCallback@Gu@physx@@@HeightFieldUtil@Gu@physx@@QAE_NHH@Z 100ec160 f i GuOverlapTestsHF.obj
 0001:000eb240       ?testVertexIndex@?$OverlapTraceSegment@UTriggerTraceSegmentCallback@Gu@physx@@@HeightFieldUtil@Gu@physx@@QAE_NI@Z 100ec240 f i GuOverlapTestsHF.obj
 0001:000eb400       ?underFaceHit@TriggerTraceSegmentCallback@Gu@physx@@QAE_NABVHeightFieldUtil@23@ABVPxVec3@3@1MMMI@Z 100ec400 f i GuOverlapTestsHF.obj
 0001:000eb420       ?visitCells@?$OverlapTraceSegment@UTriggerTraceSegmentCallback@Gu@physx@@@HeightFieldUtil@Gu@physx@@QAE_NABUOverlapLine@1234@@Z 100ec420 f i GuOverlapTestsHF.obj
 0001:000eb5f0       ?visitCells@?$OverlapTraceSegment@UTriggerTraceSegmentCallback@Gu@physx@@@HeightFieldUtil@Gu@physx@@QAE_NABUOverlapRectangle@1234@@Z 100ec5f0 f i GuOverlapTestsHF.obj
 0001:000eba10       ?sweepCapsule_HeightFieldGeom@@YA_NABVPxGeometry@physx@@ABVPxTransform@2@ABVCapsule@Gu@2@ABVPxVec3@2@MAAUPxSweepHit@2@V?$PxFlags@W4Enum@PxHitFlag@physx@@G@2@M@Z 100eca10 f   GuSweepsHF.obj
 0001:000ebe90       ?sweepConvex_HeightFieldGeom@@YA_NABVPxGeometry@physx@@ABVPxTransform@2@ABVPxConvexMeshGeometry@2@1ABVPxVec3@2@MAAUPxSweepHit@2@V?$PxFlags@W4Enum@PxHitFlag@physx@@G@2@M@Z 100ece90 f   GuSweepsHF.obj
 0001:000ec3e0       ?sweepBox_HeightFieldGeom@@YA_NABVPxGeometry@physx@@ABVPxTransform@2@ABVBox@Gu@2@ABVPxVec3@2@MAAUPxSweepHit@2@V?$PxFlags@W4Enum@PxHitFlag@physx@@G@2@M@Z 100ed3e0 f   GuSweepsHF.obj
 0001:000ecdd0       ??$PX_UNUSED@V?$PxFlags@W4Enum@PxHitFlag@physx@@G@physx@@@@YAXABV?$PxFlags@W4Enum@PxHitFlag@physx@@G@physx@@@Z 100eddd0 f i GuSweepsHF.obj
 0001:000ecde0       ??$traceSegment@UBoxTraceSegmentReport@@$0A@$0A@$00@HeightFieldUtil@Gu@physx@@QBEXABVPxVec3@2@0PAUBoxTraceSegmentReport@@PBV32@@Z 100edde0 f i GuSweepsHF.obj
 0001:000ef120       ??$traceSegment@UCapsuleTraceSegmentReport@@$0A@$0A@$00@HeightFieldUtil@Gu@physx@@QBEXABVPxVec3@2@0PAUCapsuleTraceSegmentReport@@PBV32@@Z 100f0120 f i GuSweepsHF.obj
 0001:000f1460       ??$traceSegment@VConvexVsHeightfieldSweep@@$0A@$0A@$00@HeightFieldUtil@Gu@physx@@QBEXABVPxVec3@2@0PAVConvexVsHeightfieldSweep@@PBV32@@Z 100f2460 f i GuSweepsHF.obj
 0001:000f37a0       ??0?$OverlapTraceSegment@UBoxTraceSegmentReport@@@HeightFieldUtil@Gu@physx@@QAE@ABV123@ABVHeightField@23@@Z 100f47a0 f i GuSweepsHF.obj
 0001:000f3800       ??0?$OverlapTraceSegment@UCapsuleTraceSegmentReport@@@HeightFieldUtil@Gu@physx@@QAE@ABV123@ABVHeightField@23@@Z 100f4800 f i GuSweepsHF.obj
 0001:000f3860       ??0?$OverlapTraceSegment@VConvexVsHeightfieldSweep@@@HeightFieldUtil@Gu@physx@@QAE@ABV123@ABVHeightField@23@@Z 100f4860 f i GuSweepsHF.obj
 0001:000f38c0       ??0BoxTraceSegmentReport@@QAE@XZ 100f48c0 f i GuSweepsHF.obj
 0001:000f3900       ??0CapsuleTraceSegmentReport@@QAE@XZ 100f4900 f i GuSweepsHF.obj
 0001:000f3940       ??0ConvexVsHeightfieldSweep@@QAE@AAVHeightFieldUtil@Gu@physx@@ABUConvexHullData@23@ABVPxMeshScale@3@ABVPxTransform@3@3ABVPxVec3@3@MV?$PxFlags@W4Enum@PxHitFlag@physx@@G@3@M_N_N@Z 100f4940 f i GuSweepsHF.obj
 0001:000f3ce0       ??1BoxTraceSegmentReport@@UAE@XZ 100f4ce0 f i GuSweepsHF.obj
 0001:000f3d00       ??1CapsuleTraceSegmentReport@@UAE@XZ 100f4d00 f i GuSweepsHF.obj
 0001:000f3d20       ??1ConvexVsHeightfieldSweep@@UAE@XZ 100f4d20 f i GuSweepsHF.obj
 0001:000f3d50       ??4PxTransform@physx@@QAEAAV01@$$QAV01@@Z 100f4d50 f i GuSweepsHF.obj
 0001:000f3d90       ??_GBoxTraceSegmentReport@@UAEPAXI@Z 100f4d90 f i GuSweepsHF.obj
 0001:000f3d90       ??_EBoxTraceSegmentReport@@UAEPAXI@Z 100f4d90 f i GuSweepsHF.obj
 0001:000f3dd0       ??_ECapsuleTraceSegmentReport@@UAEPAXI@Z 100f4dd0 f i GuSweepsHF.obj
 0001:000f3dd0       ??_GCapsuleTraceSegmentReport@@UAEPAXI@Z 100f4dd0 f i GuSweepsHF.obj
 0001:000f3e10       ??_GConvexVsHeightfieldSweep@@UAEPAXI@Z 100f4e10 f i GuSweepsHF.obj
 0001:000f3e10       ??_EConvexVsHeightfieldSweep@@UAEPAXI@Z 100f4e10 f i GuSweepsHF.obj
 0001:000f3e50       ?QuatVLoadA@aos@shdfnd@physx@@YA?AT__m128@@PBM@Z 100f4e50 f i GuSweepsHF.obj
 0001:000f3ea0       ?V3LoadA@aos@shdfnd@physx@@YA?AT__m128@@PBM@Z 100f4ea0 f i GuSweepsHF.obj
 0001:000f3ef0       ?addIndex@?$OverlapTraceSegment@UBoxTraceSegmentReport@@@HeightFieldUtil@Gu@physx@@QAE_NI@Z 100f4ef0 f i GuSweepsHF.obj
 0001:000f3f60       ?addIndex@?$OverlapTraceSegment@UCapsuleTraceSegmentReport@@@HeightFieldUtil@Gu@physx@@QAE_NI@Z 100f4f60 f i GuSweepsHF.obj
 0001:000f3fd0       ?addIndex@?$OverlapTraceSegment@VConvexVsHeightfieldSweep@@@HeightFieldUtil@Gu@physx@@QAE_NI@Z 100f4fd0 f i GuSweepsHF.obj
 0001:000f4040       ?computeRectangleDifference@?$OverlapTraceSegment@UBoxTraceSegmentReport@@@HeightFieldUtil@Gu@physx@@QAEXABUOverlapRectangle@1234@0AAUOverlapLine@1234@@Z 100f5040 f i GuSweepsHF.obj
 0001:000f4130       ?computeRectangleDifference@?$OverlapTraceSegment@UCapsuleTraceSegmentReport@@@HeightFieldUtil@Gu@physx@@QAEXABUOverlapRectangle@1234@0AAUOverlapLine@1234@@Z 100f5130 f i GuSweepsHF.obj
 0001:000f4220       ?computeRectangleDifference@?$OverlapTraceSegment@VConvexVsHeightfieldSweep@@@HeightFieldUtil@Gu@physx@@QAEXABUOverlapRectangle@1234@0AAUOverlapLine@1234@@Z 100f5220 f i GuSweepsHF.obj
 0001:000f4310       ?faceHit@BoxTraceSegmentReport@@QAE_NABVHeightFieldUtil@Gu@physx@@ABVPxVec3@4@I@Z 100f5310 f i GuSweepsHF.obj
 0001:000f4330       ?faceHit@CapsuleTraceSegmentReport@@QAE_NABVHeightFieldUtil@Gu@physx@@ABVPxVec3@4@I@Z 100f5330 f i GuSweepsHF.obj
 0001:000f4350       ?faceHit@ConvexVsHeightfieldSweep@@QAE_NABVHeightFieldUtil@Gu@physx@@ABVPxVec3@4@I@Z 100f5350 f i GuSweepsHF.obj
 0001:000f4370       ?init@?$OverlapTraceSegment@UBoxTraceSegmentReport@@@HeightFieldUtil@Gu@physx@@QAE_NHHHHHPAUBoxTraceSegmentReport@@PAV?$Array@IVNamedAllocator@shdfnd@physx@@@shdfnd@4@@Z 100f5370 f i GuSweepsHF.obj
 0001:000f4490       ?init@?$OverlapTraceSegment@UCapsuleTraceSegmentReport@@@HeightFieldUtil@Gu@physx@@QAE_NHHHHHPAUCapsuleTraceSegmentReport@@PAV?$Array@IVNamedAllocator@shdfnd@physx@@@shdfnd@4@@Z 100f5490 f i GuSweepsHF.obj
 0001:000f45b0       ?init@?$OverlapTraceSegment@VConvexVsHeightfieldSweep@@@HeightFieldUtil@Gu@physx@@QAE_NHHHHHPAVConvexVsHeightfieldSweep@@PAV?$Array@IVNamedAllocator@shdfnd@physx@@@shdfnd@4@@Z 100f55b0 f i GuSweepsHF.obj
 0001:000f46d0       ?initialized@?$OverlapTraceSegment@UBoxTraceSegmentReport@@@HeightFieldUtil@Gu@physx@@QBE_NXZ 100f56d0 f i GuSweepsHF.obj
 0001:000f46f0       ?initialized@?$OverlapTraceSegment@UCapsuleTraceSegmentReport@@@HeightFieldUtil@Gu@physx@@QBE_NXZ 100f56f0 f i GuSweepsHF.obj
 0001:000f4710       ?initialized@?$OverlapTraceSegment@VConvexVsHeightfieldSweep@@@HeightFieldUtil@Gu@physx@@QBE_NXZ 100f5710 f i GuSweepsHF.obj
 0001:000f4730       ?invalidate@OverlapRectangle@?$OverlapTraceSegment@UBoxTraceSegmentReport@@@HeightFieldUtil@Gu@physx@@QAEXXZ 100f5730 f i GuSweepsHF.obj
 0001:000f4770       ?invalidate@OverlapRectangle@?$OverlapTraceSegment@UCapsuleTraceSegmentReport@@@HeightFieldUtil@Gu@physx@@QAEXXZ 100f5770 f i GuSweepsHF.obj
 0001:000f47b0       ?invalidate@OverlapRectangle@?$OverlapTraceSegment@VConvexVsHeightfieldSweep@@@HeightFieldUtil@Gu@physx@@QAEXXZ 100f57b0 f i GuSweepsHF.obj
 0001:000f47f0       ?onEvent@BoxTraceSegmentReport@@UAE_NIPAI@Z 100f57f0 f i GuSweepsHF.obj
 0001:000f4d20       ?onEvent@CapsuleTraceSegmentReport@@UAE_NIPAI@Z 100f5d20 f i GuSweepsHF.obj
 0001:000f4f50       ?onEvent@ConvexVsHeightfieldSweep@@UAE_NIPAI@Z 100f5f50 f i GuSweepsHF.obj
 0001:000f5140       ?prepare@?$OverlapTraceSegment@UBoxTraceSegmentReport@@@HeightFieldUtil@Gu@physx@@QAEXABVPxVec3@4@00AAM1@Z 100f6140 f i GuSweepsHF.obj
 0001:000f5520       ?prepare@?$OverlapTraceSegment@UCapsuleTraceSegmentReport@@@HeightFieldUtil@Gu@physx@@QAEXABVPxVec3@4@00AAM1@Z 100f6520 f i GuSweepsHF.obj
 0001:000f5900       ?prepare@?$OverlapTraceSegment@VConvexVsHeightfieldSweep@@@HeightFieldUtil@Gu@physx@@QAEXABVPxVec3@4@00AAM1@Z 100f6900 f i GuSweepsHF.obj
 0001:000f5ce0       ?reportOverlaps@?$OverlapTraceSegment@UBoxTraceSegmentReport@@@HeightFieldUtil@Gu@physx@@QAE_NXZ 100f6ce0 f i GuSweepsHF.obj
 0001:000f5d50       ?reportOverlaps@?$OverlapTraceSegment@UCapsuleTraceSegmentReport@@@HeightFieldUtil@Gu@physx@@QAE_NXZ 100f6d50 f i GuSweepsHF.obj
 0001:000f5dc0       ?reportOverlaps@?$OverlapTraceSegment@VConvexVsHeightfieldSweep@@@HeightFieldUtil@Gu@physx@@QAE_NXZ 100f6dc0 f i GuSweepsHF.obj
 0001:000f5e30       ?step@?$OverlapTraceSegment@UBoxTraceSegmentReport@@@HeightFieldUtil@Gu@physx@@QAE_NHH@Z 100f6e30 f i GuSweepsHF.obj
 0001:000f5f10       ?step@?$OverlapTraceSegment@UCapsuleTraceSegmentReport@@@HeightFieldUtil@Gu@physx@@QAE_NHH@Z 100f6f10 f i GuSweepsHF.obj
 0001:000f5ff0       ?step@?$OverlapTraceSegment@VConvexVsHeightfieldSweep@@@HeightFieldUtil@Gu@physx@@QAE_NHH@Z 100f6ff0 f i GuSweepsHF.obj
 0001:000f60d0       ?testVertexIndex@?$OverlapTraceSegment@UBoxTraceSegmentReport@@@HeightFieldUtil@Gu@physx@@QAE_NI@Z 100f70d0 f i GuSweepsHF.obj
 0001:000f6290       ?testVertexIndex@?$OverlapTraceSegment@UCapsuleTraceSegmentReport@@@HeightFieldUtil@Gu@physx@@QAE_NI@Z 100f7290 f i GuSweepsHF.obj
 0001:000f6450       ?testVertexIndex@?$OverlapTraceSegment@VConvexVsHeightfieldSweep@@@HeightFieldUtil@Gu@physx@@QAE_NI@Z 100f7450 f i GuSweepsHF.obj
 0001:000f6610       ?underFaceHit@BoxTraceSegmentReport@@QAE_NABVHeightFieldUtil@Gu@physx@@ABVPxVec3@4@1MMMI@Z 100f7610 f i GuSweepsHF.obj
 0001:000f6630       ?underFaceHit@CapsuleTraceSegmentReport@@QAE_NABVHeightFieldUtil@Gu@physx@@ABVPxVec3@4@1MMMI@Z 100f7630 f i GuSweepsHF.obj
 0001:000f6650       ?underFaceHit@ConvexVsHeightfieldSweep@@QAE_NABVHeightFieldUtil@Gu@physx@@ABVPxVec3@4@1MMMI@Z 100f7650 f i GuSweepsHF.obj
 0001:000f6670       ?visitCells@?$OverlapTraceSegment@UBoxTraceSegmentReport@@@HeightFieldUtil@Gu@physx@@QAE_NABUOverlapLine@1234@@Z 100f7670 f i GuSweepsHF.obj
 0001:000f6840       ?visitCells@?$OverlapTraceSegment@UBoxTraceSegmentReport@@@HeightFieldUtil@Gu@physx@@QAE_NABUOverlapRectangle@1234@@Z 100f7840 f i GuSweepsHF.obj
 0001:000f6940       ?visitCells@?$OverlapTraceSegment@UCapsuleTraceSegmentReport@@@HeightFieldUtil@Gu@physx@@QAE_NABUOverlapLine@1234@@Z 100f7940 f i GuSweepsHF.obj
 0001:000f6b10       ?visitCells@?$OverlapTraceSegment@UCapsuleTraceSegmentReport@@@HeightFieldUtil@Gu@physx@@QAE_NABUOverlapRectangle@1234@@Z 100f7b10 f i GuSweepsHF.obj
 0001:000f6c10       ?visitCells@?$OverlapTraceSegment@VConvexVsHeightfieldSweep@@@HeightFieldUtil@Gu@physx@@QAE_NABUOverlapLine@1234@@Z 100f7c10 f i GuSweepsHF.obj
 0001:000f6de0       ?visitCells@?$OverlapTraceSegment@VConvexVsHeightfieldSweep@@@HeightFieldUtil@Gu@physx@@QAE_NABUOverlapRectangle@1234@@Z 100f7de0 f i GuSweepsHF.obj
 0001:000f6ee0       ?pcmContactBoxBox@Gu@physx@@YA_NABVGeometryUnion@12@0ABVPxTransform@2@1ABMAAUCache@12@AAVContactBuffer@12@@Z 100f7ee0 f   GuPCMContactBoxBox.obj
 0001:000fcaa0       ??0ShrunkBoxV@Gu@physx@@QAE@ABT__m128@@0@Z 100fdaa0 f i GuPCMContactBoxBox.obj
 0001:000fcb70       ??1ShrunkBoxV@Gu@physx@@QAE@XZ 100fdb70 f i GuPCMContactBoxBox.obj
 0001:000fcb90       ?BTTFT@aos@shdfnd@physx@@YA?AT__m128@@XZ 100fdb90 f i GuPCMContactBoxBox.obj
 0001:000fcbe0       ?CalculatePCMBoxMargin@Gu@physx@@YA?AT__m128@@ABT3@@Z 100fdbe0 f i GuPCMContactBoxBox.obj
 0001:000fcc60       ?QuatDot@aos@shdfnd@physx@@YA?AT__m128@@T4@0@Z 100fdc60 f i GuPCMContactBoxBox.obj
 0001:000fccb0       ?V3ExtractMax@aos@shdfnd@physx@@YA?AT__m128@@T4@@Z 100fdcb0 f i GuPCMContactBoxBox.obj
 0001:000fcd60       ?V3RecipFast@aos@shdfnd@physx@@YA?AT__m128@@T4@@Z 100fdd60 f i GuPCMContactBoxBox.obj
 0001:000fcde0       ?V3SetZ@aos@shdfnd@physx@@YA?AT__m128@@T4@0@Z 100fdde0 f i GuPCMContactBoxBox.obj
 0001:000fce40       ?V4ExtractMax@aos@shdfnd@physx@@YA?AT__m128@@T4@@Z 100fde40 f i GuPCMContactBoxBox.obj
 0001:000fcf00       ?contains@Gu@physx@@YA_NPAT__m128@@IABT3@11@Z 100fdf00 f i GuPCMContactBoxBox.obj
 0001:000fd2e0       ?getCol0@PsMatTransformV@aos@shdfnd@physx@@QBE?AT__m128@@XZ 100fe2e0 f i GuPCMContactBoxBox.obj
 0001:000fd310       ?getCol1@PsMatTransformV@aos@shdfnd@physx@@QBE?AT__m128@@XZ 100fe310 f i GuPCMContactBoxBox.obj
 0001:000fd340       ?getCol2@PsMatTransformV@aos@shdfnd@physx@@QBE?AT__m128@@XZ 100fe340 f i GuPCMContactBoxBox.obj
 0001:000fd370       ?getManifold@Cache@Gu@physx@@QAEAAVPersistentContactManifold@23@XZ 100fe370 f i GuPCMContactBoxBox.obj
 0001:000fd3e0       ?getNumContacts@PersistentContactManifold@Gu@physx@@QBEIXZ 100fe3e0 f i GuPCMContactBoxBox.obj
 0001:000fd400       ?getWorldNormal@PersistentContactManifold@Gu@physx@@QAE?AT__m128@@ABVPsTransformV@aos@shdfnd@3@@Z 100fe400 f i GuPCMContactBoxBox.obj
 0001:000fd560       ?invalidate_BoxConvex@PersistentContactManifold@Gu@physx@@QAEIABVPsTransformV@aos@shdfnd@3@ABT__m128@@@Z 100fe560 f i GuPCMContactBoxBox.obj
 0001:000fd6f0       ?loadTransformA@aos@shdfnd@physx@@YA?AVPsTransformV@123@ABVPxTransform@3@@Z 100fe6f0 f i GuPCMContactBoxBox.obj
 0001:000fd760       ?maxTransformPositionDelta@PersistentContactManifold@Gu@physx@@QAE?AT__m128@@ABT4@@Z 100fe760 f i GuPCMContactBoxBox.obj
 0001:000fd7e0       ?refreshContactPoints@PersistentContactManifold@Gu@physx@@QAEXABVPsMatTransformV@aos@shdfnd@3@ABT__m128@@1@Z 100fe7e0 f i GuPCMContactBoxBox.obj
 0001:000fd9c0       ?removeContactPoint@PersistentContactManifold@Gu@physx@@QAEXI@Z 100fe9c0 f i GuPCMContactBoxBox.obj
 0001:000fda20       ?rotate@PsMatTransformV@aos@shdfnd@physx@@QBE?AT__m128@@ABT5@@Z 100fea20 f i GuPCMContactBoxBox.obj
 0001:000fda60       ?setRelativeTransform@PersistentContactManifold@Gu@physx@@QAEXABVPsTransformV@aos@shdfnd@3@@Z 100fea60 f i GuPCMContactBoxBox.obj
 0001:000fda90       ?transformInv@PsMatTransformV@aos@shdfnd@physx@@QBE?AT__m128@@ABT5@@Z 100fea90 f i GuPCMContactBoxBox.obj
 0001:000fdb00       ?transformInv@PsMatTransformV@aos@shdfnd@physx@@QBE?AV1234@ABV1234@@Z 100feb00 f i GuPCMContactBoxBox.obj
 0001:000fdbb0       ?pcmContactBoxConvex@Gu@physx@@YA_NABVGeometryUnion@12@0ABVPxTransform@2@1ABMAAUCache@12@AAVContactBuffer@12@@Z 100febb0 f   GuPCMContactBoxConvex.obj
 0001:000febc0       ??0?$SupportLocalImpl@VBoxV@Gu@physx@@@Gu@physx@@QAE@ABVBoxV@12@ABVPsTransformV@aos@shdfnd@2@ABUMat33V@562@2_N@Z 100ffbc0 f i GuPCMContactBoxConvex.obj
 0001:000fec10       ??0?$SupportLocalImpl@VConvexHullNoScaleV@Gu@physx@@@Gu@physx@@QAE@ABVConvexHullNoScaleV@12@ABVPsTransformV@aos@shdfnd@2@ABUMat33V@562@2_N@Z 100ffc10 f i GuPCMContactBoxConvex.obj
 0001:000fec60       ??0?$SupportLocalImpl@VConvexHullV@Gu@physx@@@Gu@physx@@QAE@ABVConvexHullV@12@ABVPsTransformV@aos@shdfnd@2@ABUMat33V@562@2_N@Z 100ffc60 f i GuPCMContactBoxConvex.obj
 0001:000fecb0       ??0ShrunkConvexHullV@Gu@physx@@QAE@PBUConvexHullData@12@ABT__m128@@11@Z 100ffcb0 f i GuPCMContactBoxConvex.obj
 0001:000fecf0       ??0SupportLocal@Gu@physx@@QAE@ABVPsTransformV@aos@shdfnd@2@ABUMat33V@452@1_N@Z 100ffcf0 f i GuPCMContactBoxConvex.obj
 0001:000fed40       ??1?$SupportLocalImpl@VBoxV@Gu@physx@@@Gu@physx@@UAE@XZ 100ffd40 f i GuPCMContactBoxConvex.obj
 0001:000fed60       ??1?$SupportLocalImpl@VConvexHullNoScaleV@Gu@physx@@@Gu@physx@@UAE@XZ 100ffd60 f i GuPCMContactBoxConvex.obj
 0001:000fed80       ??1?$SupportLocalImpl@VConvexHullV@Gu@physx@@@Gu@physx@@UAE@XZ 100ffd80 f i GuPCMContactBoxConvex.obj
 0001:000feda0       ??1ShrunkConvexHullV@Gu@physx@@QAE@XZ 100ffda0 f i GuPCMContactBoxConvex.obj
 0001:000fedc0       ??1SupportLocal@Gu@physx@@UAE@XZ 100ffdc0 f i GuPCMContactBoxConvex.obj
 0001:000fede0       ??_E?$SupportLocalImpl@VBoxV@Gu@physx@@@Gu@physx@@UAEPAXI@Z 100ffde0 f i GuPCMContactBoxConvex.obj
 0001:000fede0       ??_G?$SupportLocalImpl@VBoxV@Gu@physx@@@Gu@physx@@UAEPAXI@Z 100ffde0 f i GuPCMContactBoxConvex.obj
 0001:000fee20       ??_E?$SupportLocalImpl@VConvexHullNoScaleV@Gu@physx@@@Gu@physx@@UAEPAXI@Z 100ffe20 f i GuPCMContactBoxConvex.obj
 0001:000fee20       ??_G?$SupportLocalImpl@VConvexHullNoScaleV@Gu@physx@@@Gu@physx@@UAEPAXI@Z 100ffe20 f i GuPCMContactBoxConvex.obj
 0001:000fee60       ??_G?$SupportLocalImpl@VConvexHullV@Gu@physx@@@Gu@physx@@UAEPAXI@Z 100ffe60 f i GuPCMContactBoxConvex.obj
 0001:000fee60       ??_E?$SupportLocalImpl@VConvexHullV@Gu@physx@@@Gu@physx@@UAEPAXI@Z 100ffe60 f i GuPCMContactBoxConvex.obj
 0001:000feea0       ??_GSupportLocal@Gu@physx@@UAEPAXI@Z 100ffea0 f i GuPCMContactBoxConvex.obj
 0001:000feea0       ??_ESupportLocal@Gu@physx@@UAEPAXI@Z 100ffea0 f i GuPCMContactBoxConvex.obj
 0001:000feee0       ?BruteForceSearchMinMax@ConvexHullNoScaleV@Gu@physx@@QBEXABT__m128@@AAT4@1@Z 100ffee0 f i GuPCMContactBoxConvex.obj
 0001:000ff070       ?BruteForceSearchMinMax@ConvexHullV@Gu@physx@@QBEXABT__m128@@AAT4@1@Z 10100070 f i GuPCMContactBoxConvex.obj
 0001:000ff240       ?CalculatePCMConvexMargin@Gu@physx@@YA?AT__m128@@PBUConvexHullData@12@ABT3@@Z 10100240 f i GuPCMContactBoxConvex.obj
 0001:000ff300       ?doSupport@?$SupportLocalImpl@VBoxV@Gu@physx@@@Gu@physx@@UBE?AT__m128@@ABT4@@Z 10100300 f i GuPCMContactBoxConvex.obj
 0001:000ff340       ?doSupport@?$SupportLocalImpl@VBoxV@Gu@physx@@@Gu@physx@@UBEXABT__m128@@AAT4@1@Z 10100340 f i GuPCMContactBoxConvex.obj
 0001:000ff380       ?doSupport@?$SupportLocalImpl@VConvexHullNoScaleV@Gu@physx@@@Gu@physx@@UBE?AT__m128@@ABT4@@Z 10100380 f i GuPCMContactBoxConvex.obj
 0001:000ff3c0       ?doSupport@?$SupportLocalImpl@VConvexHullNoScaleV@Gu@physx@@@Gu@physx@@UBEXABT__m128@@AAT4@1@Z 101003c0 f i GuPCMContactBoxConvex.obj
 0001:000ff400       ?doSupport@?$SupportLocalImpl@VConvexHullV@Gu@physx@@@Gu@physx@@UBE?AT__m128@@ABT4@@Z 10100400 f i GuPCMContactBoxConvex.obj
 0001:000ff440       ?doSupport@?$SupportLocalImpl@VConvexHullV@Gu@physx@@@Gu@physx@@UBEXABT__m128@@AAT4@1@Z 10100440 f i GuPCMContactBoxConvex.obj
 0001:000ff480       ?populateVerts@?$SupportLocalImpl@VBoxV@Gu@physx@@@Gu@physx@@UBEXPBEIPBVPxVec3@3@PAT__m128@@@Z 10100480 f i GuPCMContactBoxConvex.obj
 0001:000ff4c0       ?populateVerts@?$SupportLocalImpl@VConvexHullNoScaleV@Gu@physx@@@Gu@physx@@UBEXPBEIPBVPxVec3@3@PAT__m128@@@Z 101004c0 f i GuPCMContactBoxConvex.obj
 0001:000ff500       ?populateVerts@?$SupportLocalImpl@VConvexHullV@Gu@physx@@@Gu@physx@@UBEXPBEIPBVPxVec3@3@PAT__m128@@@Z 10100500 f i GuPCMContactBoxConvex.obj
 0001:000ff540       ?populateVerts@BoxV@Gu@physx@@QBEXPBEIPBVPxVec3@3@PAT__m128@@@Z 10100540 f i GuPCMContactBoxConvex.obj
 0001:000ff5d0       ?populateVerts@ConvexHullNoScaleV@Gu@physx@@QBEXPBEIPBVPxVec3@3@PAT__m128@@@Z 101005d0 f i GuPCMContactBoxConvex.obj
 0001:000ff660       ?populateVerts@ConvexHullV@Gu@physx@@QBEXPBEIPBVPxVec3@3@PAT__m128@@@Z 10100660 f i GuPCMContactBoxConvex.obj
 0001:000ff710       ?supportLocal@BoxV@Gu@physx@@QBEXABT__m128@@AAT4@1@Z 10100710 f i GuPCMContactBoxConvex.obj
 0001:000ff800       ?supportLocal@ConvexHullNoScaleV@Gu@physx@@QBEXABT__m128@@AAT4@1@Z 10100800 f i GuPCMContactBoxConvex.obj
 0001:000ff830       ?supportLocal@ConvexHullV@Gu@physx@@QBEXABT__m128@@AAT4@1@Z 10100830 f i GuPCMContactBoxConvex.obj
 0001:000ff860       ?supportVertexMinMax@ConvexHullNoScaleV@Gu@physx@@QBEXABT__m128@@AAT4@1@Z 10100860 f i GuPCMContactBoxConvex.obj
 0001:000ff980       ?supportVertexMinMax@ConvexHullV@Gu@physx@@QBEXABT__m128@@AAT4@1@Z 10100980 f i GuPCMContactBoxConvex.obj
 0001:000ffb10       ?pcmContactCapsuleBox@Gu@physx@@YA_NABVGeometryUnion@12@0ABVPxTransform@2@1ABMAAUCache@12@AAVContactBuffer@12@@Z 10100b10 f   GuPCMContactCapsuleBox.obj
 0001:00100770       ??0CapsuleV@Gu@physx@@QAE@ABT__m128@@00@Z 10101770 f i GuPCMContactCapsuleBox.obj
 0001:00100860       ?invalidate_SphereCapsule@PersistentContactManifold@Gu@physx@@QAEIABVPsTransformV@aos@shdfnd@3@ABT__m128@@@Z 10101860 f i GuPCMContactCapsuleBox.obj
 0001:001009f0       ?setMargin@ConvexV@Gu@physx@@QAEXABT__m128@@@Z 101019f0 f i GuPCMContactCapsuleBox.obj
 0001:00100a10       ?transformInv@PsTransformV@aos@shdfnd@physx@@QBE?AT__m128@@ABT5@@Z 10101a10 f i GuPCMContactCapsuleBox.obj
 0001:00100ad0       ?pcmContactCapsuleConvex@Gu@physx@@YA_NABVGeometryUnion@12@0ABVPxTransform@2@1ABMAAUCache@12@AAVContactBuffer@12@@Z 10101ad0 f   GuPCMContactCapsuleConvex.obj
 0001:00101840       ?CalculateCapsuleMinMargin@Gu@physx@@YA?AT__m128@@ABT3@@Z 10102840 f i GuPCMContactCapsuleConvex.obj
 0001:001018b0       ?pcmContactCapsuleHeightField@Gu@physx@@YA_NABVGeometryUnion@12@0ABVPxTransform@2@1ABMAAUCache@12@AAVContactBuffer@12@@Z 101028b0 f   GuPCMContactCapsuleHeightField.obj
 0001:00101da0       ??$PX_UNUSED@PAVMeshPersistentContact@Gu@physx@@@@YAXABQAVMeshPersistentContact@Gu@physx@@@Z 10102da0 f i GuPCMContactCapsuleHeightField.obj
 0001:00101db0       ??$processTriangleCache@$0BA@@PCMCapsuleVsHeightfieldContactGenerationCallback@physx@@QAEXAAU?$TriangleCache@$0BA@@Gu@1@@Z 10102db0 f i GuPCMContactCapsuleHeightField.obj
 0001:00101de0       ??$processTriangleCache@$0BA@VPCMCapsuleVsMeshContactGeneration@Gu@physx@@@PCMMeshContactGeneration@Gu@physx@@QAE_NAAU?$TriangleCache@$0BA@@12@@Z 10102de0 f i GuPCMContactCapsuleHeightField.obj
 0001:00101eb0       ??0?$PCMHeightfieldContactGenerationCallback@UPCMCapsuleVsHeightfieldContactGenerationCallback@physx@@@Gu@physx@@QAE@ABVHeightFieldUtil@12@ABVPxTransform@2@@Z 10102eb0 f i GuPCMContactCapsuleHeightField.obj
 0001:00101ef0       ??0?$TriangleCache@$0BA@@Gu@physx@@QAE@XZ 10102ef0 f i GuPCMContactCapsuleHeightField.obj
 0001:00101f30       ??0PCMCapsuleVsHeightfieldContactGenerationCallback@physx@@QAE@ABVCapsuleV@Gu@1@ABT__m128@@1ABVPsTransformV@aos@shdfnd@1@2ABVPxTransform@1@AAVMultiplePersistentContactManifold@31@AAVContactBuffer@31@AAVHeightFieldUtil@31@@Z 10102f30 f i GuPCMContactCapsuleHeightField.obj
 0001:00101fa0       ??0PCMCapsuleVsMeshContactGeneration@Gu@physx@@QAE@ABVCapsuleV@12@ABT__m128@@1ABVPsTransformV@aos@shdfnd@2@2AAVMultiplePersistentContactManifold@12@AAVContactBuffer@12@@Z 10102fa0 f i GuPCMContactCapsuleHeightField.obj
 0001:00102070       ??0PCMContactPatch@Gu@physx@@QAE@XZ 10103070 f i GuPCMContactCapsuleHeightField.obj
 0001:001020e0       ??0PCMMeshContactGeneration@Gu@physx@@QAE@ABT__m128@@0ABVPsTransformV@aos@shdfnd@2@1AAVMultiplePersistentContactManifold@12@AAVContactBuffer@12@@Z 101030e0 f i GuPCMContactCapsuleHeightField.obj
 0001:001022e0       ??1?$PCMHeightfieldContactGenerationCallback@UPCMCapsuleVsHeightfieldContactGenerationCallback@physx@@@Gu@physx@@UAE@XZ 101032e0 f i GuPCMContactCapsuleHeightField.obj
 0001:00102300       ??1PCMCapsuleVsHeightfieldContactGenerationCallback@physx@@UAE@XZ 10103300 f i GuPCMContactCapsuleHeightField.obj
 0001:00102320       ??_G?$PCMHeightfieldContactGenerationCallback@UPCMCapsuleVsHeightfieldContactGenerationCallback@physx@@@Gu@physx@@UAEPAXI@Z 10103320 f i GuPCMContactCapsuleHeightField.obj
 0001:00102320       ??_E?$PCMHeightfieldContactGenerationCallback@UPCMCapsuleVsHeightfieldContactGenerationCallback@physx@@@Gu@physx@@UAEPAXI@Z 10103320 f i GuPCMContactCapsuleHeightField.obj
 0001:00102360       ??_GPCMCapsuleVsHeightfieldContactGenerationCallback@physx@@UAEPAXI@Z 10103360 f i GuPCMContactCapsuleHeightField.obj
 0001:00102360       ??_EPCMCapsuleVsHeightfieldContactGenerationCallback@physx@@UAEPAXI@Z 10103360 f i GuPCMContactCapsuleHeightField.obj
 0001:001023a0       ?addTriangle@?$TriangleCache@$0BA@@Gu@physx@@QAEXPBVPxVec3@3@PBIIE@Z 101033a0 f i GuPCMContactCapsuleHeightField.obj
 0001:00102540       ?getMultipleManifold@Cache@Gu@physx@@QAEAAVMultiplePersistentContactManifold@23@XZ 10103540 f i GuPCMContactCapsuleHeightField.obj
 0001:001025c0       ?invalidate@MultiplePersistentContactManifold@Gu@physx@@QAEIABVPsTransformV@aos@shdfnd@3@ABT__m128@@1@Z 101035c0 f i GuPCMContactCapsuleHeightField.obj
 0001:001026d0       ?isEmpty@SinglePersistentContactManifold@Gu@physx@@QAE_NXZ 101036d0 f i GuPCMContactCapsuleHeightField.obj
 0001:00102710       ?maxTransformPositionDelta@MultiplePersistentContactManifold@Gu@physx@@QAE?AT__m128@@ABT4@@Z 10103710 f i GuPCMContactCapsuleHeightField.obj
 0001:00102790       ?onEvent@?$PCMHeightfieldContactGenerationCallback@UPCMCapsuleVsHeightfieldContactGenerationCallback@physx@@@Gu@physx@@UAE_NIPAI@Z 10103790 f i GuPCMContactCapsuleHeightField.obj
 0001:00102c90       ?prioritizeContactPatches@PCMMeshContactGeneration@Gu@physx@@QAEXXZ 10103c90 f i GuPCMContactCapsuleHeightField.obj
 0001:00102e20       ?processContacts@PCMMeshContactGeneration@Gu@physx@@QAEXE_N@Z 10103e20 f i GuPCMContactCapsuleHeightField.obj
 0001:00102fd0       ?reduceManifoldContactsInDifferentPatches@MultiplePersistentContactManifold@Gu@physx@@QAEIPAPAUPCMContactPatch@23@IPAVMeshPersistentContact@23@IABT__m128@@@Z 10103fd0 f i GuPCMContactCapsuleHeightField.obj
 0001:001031a0       ?refineContactPatchConnective@MultiplePersistentContactManifold@Gu@physx@@QAEXPAPAUPCMContactPatch@23@IPAVMeshPersistentContact@23@ABT__m128@@@Z 101041a0 f i GuPCMContactCapsuleHeightField.obj
 0001:00103310       ?refreshManifold@MultiplePersistentContactManifold@Gu@physx@@QAEXABVPsMatTransformV@aos@shdfnd@3@ABT__m128@@1@Z 10104310 f i GuPCMContactCapsuleHeightField.obj
 0001:00103560       ?setRelativeTransform@MultiplePersistentContactManifold@Gu@physx@@QAEXABVPsTransformV@aos@shdfnd@3@@Z 10104560 f i GuPCMContactCapsuleHeightField.obj
 0001:00103590       ?pcmContactCapsuleMesh@Gu@physx@@YA_NABVGeometryUnion@12@0ABVPxTransform@2@1ABMAAUCache@12@AAVContactBuffer@12@@Z 10104590 f   GuPCMContactCapsuleMesh.obj
 0001:00103bc0       ??$processTriangleCache@$0BA@@PCMCapsuleVsMeshContactGenerationCallback@physx@@QAEXAAU?$TriangleCache@$0BA@@Gu@1@@Z 10104bc0 f i GuPCMContactCapsuleMesh.obj
 0001:00103bf0       ??0?$PCMMeshContactGenerationCallback@UPCMCapsuleVsMeshContactGenerationCallback@physx@@@Gu@physx@@QAE@ABVFastVertex2ShapeScaling@Cm@2@PBE_N@Z 10104bf0 f i GuPCMContactCapsuleMesh.obj
 0001:00103c50       ??0PCMCapsuleVsMeshContactGenerationCallback@physx@@QAE@ABVCapsuleV@Gu@1@ABT__m128@@1ABVPsTransformV@aos@shdfnd@1@2AAVMultiplePersistentContactManifold@31@AAVContactBuffer@31@PBEABVFastVertex2ShapeScaling@Cm@1@_N@Z 10104c50 f i GuPCMContactCapsuleMesh.obj
 0001:00103cd0       ??1?$PCMMeshContactGenerationCallback@UPCMCapsuleVsMeshContactGenerationCallback@physx@@@Gu@physx@@UAE@XZ 10104cd0 f i GuPCMContactCapsuleMesh.obj
 0001:00103cf0       ??1PCMCapsuleVsMeshContactGenerationCallback@physx@@UAE@XZ 10104cf0 f i GuPCMContactCapsuleMesh.obj
 0001:00103d10       ??_G?$PCMMeshContactGenerationCallback@UPCMCapsuleVsMeshContactGenerationCallback@physx@@@Gu@physx@@UAEPAXI@Z 10104d10 f i GuPCMContactCapsuleMesh.obj
 0001:00103d10       ??_E?$PCMMeshContactGenerationCallback@UPCMCapsuleVsMeshContactGenerationCallback@physx@@@Gu@physx@@UAEPAXI@Z 10104d10 f i GuPCMContactCapsuleMesh.obj
 0001:00103d50       ??_GPCMCapsuleVsMeshContactGenerationCallback@physx@@UAEPAXI@Z 10104d50 f i GuPCMContactCapsuleMesh.obj
 0001:00103d50       ??_EPCMCapsuleVsMeshContactGenerationCallback@physx@@UAEPAXI@Z 10104d50 f i GuPCMContactCapsuleMesh.obj
 0001:00103d90       ?doTest@PCMCapsuleVsMeshContactGenerationCallback@physx@@QAE_NABVPxVec3@2@00@Z 10104d90 f i GuPCMContactCapsuleMesh.obj
 0001:00103db0       ?flushCache@?$PCMMeshContactGenerationCallback@UPCMCapsuleVsMeshContactGenerationCallback@physx@@@Gu@physx@@QAEXXZ 10104db0 f i GuPCMContactCapsuleMesh.obj
 0001:00103e00       ?isEmpty@?$TriangleCache@$0BA@@Gu@physx@@QBE_NXZ 10104e00 f i GuPCMContactCapsuleMesh.obj
 0001:00103e40       ?isFull@?$TriangleCache@$0BA@@Gu@physx@@QBE_NXZ 10104e40 f i GuPCMContactCapsuleMesh.obj
 0001:00103e80       ?processHit@?$PCMMeshContactGenerationCallback@UPCMCapsuleVsMeshContactGenerationCallback@physx@@@Gu@physx@@UAE_NABUPxRaycastHit@3@ABVPxVec3@3@11AAMPBI@Z 10104e80 f i GuPCMContactCapsuleMesh.obj
 0001:00104080       ?reset@?$TriangleCache@$0BA@@Gu@physx@@QAEXXZ 10105080 f i GuPCMContactCapsuleMesh.obj
 0001:001040a0       ?generateLastContacts@PCMConvexVsMeshContactGeneration@Gu@physx@@QAEXXZ 101050a0 f   GuPCMContactConvexCommon.obj
 0001:001042c0       ?addContactsToPatch@PCMConvexVsMeshContactGeneration@Gu@physx@@QAEXABT__m128@@II@Z 101052c0 f   GuPCMContactConvexCommon.obj
 0001:001045e0       ?processTriangle@PCMConvexVsMeshContactGeneration@Gu@physx@@QAE_NPBVPxVec3@3@IEPBI@Z 101055e0 f   GuPCMContactConvexCommon.obj
 0001:001049b0       ?processTriangle@PCMConvexVsMeshContactGeneration@Gu@physx@@SA_NABUPolygonalData@23@PAVSupportLocal@23@PBVPxVec3@3@IEABT__m128@@_NABVPsTransformV@aos@shdfnd@3@ABVPsMatTransformV@9shdfnd@3@PAVMeshPersistentContact@23@AAI@Z 101059b0 f   GuPCMContactConvexCommon.obj
 0001:00104bd0       ?processTriangle@PCMSphereVsMeshContactGeneration@Gu@physx@@QAE_NPBVPxVec3@3@IEPBI@Z 10105bd0 f   GuPCMContactConvexCommon.obj
 0001:00105210       ?generateEEContacts@PCMCapsuleVsMeshContactGeneration@Gu@physx@@QAEXABT__m128@@000I000PAVMeshPersistentContact@23@AAI@Z 10106210 f   GuPCMContactConvexCommon.obj
 0001:001052b0       ?generateEE@PCMCapsuleVsMeshContactGeneration@Gu@physx@@QAEXABT__m128@@000I00PAVMeshPersistentContact@23@AAI@Z 101062b0 f   GuPCMContactConvexCommon.obj
 0001:00105630       ?generateContacts@PCMCapsuleVsMeshContactGeneration@Gu@physx@@SA_NABT__m128@@0000I000PAVMeshPersistentContact@23@AAI@Z 10106630 f   GuPCMContactConvexCommon.obj
 0001:00105c80       ?generateEEContactsMTD@PCMCapsuleVsMeshContactGeneration@Gu@physx@@SAXABT__m128@@000I000PAVMeshPersistentContact@23@AAI@Z 10106c80 f   GuPCMContactConvexCommon.obj
 0001:00105d10       ?generateEEMTD@PCMCapsuleVsMeshContactGeneration@Gu@physx@@SAXABT__m128@@000I00PAVMeshPersistentContact@23@AAI@Z 10106d10 f   GuPCMContactConvexCommon.obj
 0001:00106020       ?processTriangle@PCMCapsuleVsMeshContactGeneration@Gu@physx@@QAE_NPBVPxVec3@3@IEPBI@Z 10107020 f   GuPCMContactConvexCommon.obj
 0001:00106740       ?processTriangle@PCMCapsuleVsMeshContactGeneration@Gu@physx@@SA_NABVTriangleV@23@IABVCapsuleV@23@ABT__m128@@EPAVMeshPersistentContact@23@AAI@Z 10107740 f   GuPCMContactConvexCommon.obj
 0001:00107350       ?pcmDistanceSegmentTriangleSquared@Gu@physx@@YA?AT__m128@@ABT3@0000AAT3@11@Z 10108350 f   GuPCMContactConvexCommon.obj
 0001:00109050       ??$PX_UNUSED@PBI@@YAXABQBI@Z 1010a050 f i GuPCMContactConvexCommon.obj
 0001:00109060       ??0?$SupportLocalImpl@VTriangleV@Gu@physx@@@Gu@physx@@QAE@ABVTriangleV@12@ABVPsTransformV@aos@shdfnd@2@ABUMat33V@562@2_N@Z 1010a060 f i GuPCMContactConvexCommon.obj
 0001:001090b0       ??0TriangleV@Gu@physx@@QAE@PBVPxVec3@2@@Z 1010a0b0 f i GuPCMContactConvexCommon.obj
 0001:00109250       ??1?$SupportLocalImpl@VTriangleV@Gu@physx@@@Gu@physx@@UAE@XZ 1010a250 f i GuPCMContactConvexCommon.obj
 0001:00109270       ??_E?$SupportLocalImpl@VTriangleV@Gu@physx@@@Gu@physx@@UAEPAXI@Z 1010a270 f i GuPCMContactConvexCommon.obj
 0001:00109270       ??_G?$SupportLocalImpl@VTriangleV@Gu@physx@@@Gu@physx@@UAEPAXI@Z 1010a270 f i GuPCMContactConvexCommon.obj
 0001:001092b0       ?FNegMulSub@aos@shdfnd@physx@@YA?AT__m128@@T4@00@Z 1010a2b0 f i GuPCMContactConvexCommon.obj
 0001:00109310       ?V4Perm_XZXZ@aos@shdfnd@physx@@YA?AT__m128@@T4@@Z 1010a310 f i GuPCMContactConvexCommon.obj
 0001:00109360       ?V4Perm_YWYW@aos@shdfnd@physx@@YA?AT__m128@@T4@@Z 1010a360 f i GuPCMContactConvexCommon.obj
 0001:001093b0       ?V4Perm_YXWZ@aos@shdfnd@physx@@YA?AT__m128@@T4@@Z 1010a3b0 f i GuPCMContactConvexCommon.obj
 0001:00109400       ?addManifoldPointToPatch@PCMMeshContactGeneration@Gu@physx@@QAEXABT__m128@@0I@Z 1010a400 f i GuPCMContactConvexCommon.obj
 0001:00109790       ?doSupport@?$SupportLocalImpl@VTriangleV@Gu@physx@@@Gu@physx@@UBE?AT__m128@@ABT4@@Z 1010a790 f i GuPCMContactConvexCommon.obj
 0001:001097d0       ?doSupport@?$SupportLocalImpl@VTriangleV@Gu@physx@@@Gu@physx@@UBEXABT__m128@@AAT4@1@Z 1010a7d0 f i GuPCMContactConvexCommon.obj
 0001:00109810       ?get@?$CacheMap@UCachedEdge@Gu@physx@@$0IA@@Gu@physx@@QBEPBUCachedEdge@23@ABU423@@Z 1010a810 f i GuPCMContactConvexCommon.obj
 0001:001098b0       ?isValidTriangleBarycentricCoord2@Gu@physx@@YA?AT__m128@@ABT3@@Z 1010a8b0 f i GuPCMContactConvexCommon.obj
 0001:00109a20       ?normal@TriangleV@Gu@physx@@QBE?AT__m128@@XZ 1010aa20 f i GuPCMContactConvexCommon.obj
 0001:00109ae0       ?pcmDistanceSegmentSegmentSquared4@Gu@physx@@YA?AT__m128@@ABT3@000000000AAT3@1@Z 1010aae0 f i GuPCMContactConvexCommon.obj
 0001:0010a650       ?populateVerts@?$SupportLocalImpl@VTriangleV@Gu@physx@@@Gu@physx@@UBEXPBEIPBVPxVec3@3@PAT__m128@@@Z 1010b650 f i GuPCMContactConvexCommon.obj
 0001:0010a690       ?populateVerts@TriangleV@Gu@physx@@QBEXPBEIPBVPxVec3@3@PAT__m128@@@Z 1010b690 f i GuPCMContactConvexCommon.obj
 0001:0010a720       ?supportLocal@TriangleV@Gu@physx@@QBEXABT__m128@@AAT4@1@Z 1010b720 f i GuPCMContactConvexCommon.obj
 0001:0010a870       ?pcmContactConvexConvex@Gu@physx@@YA_NABVGeometryUnion@12@0ABVPxTransform@2@1ABMAAUCache@12@AAVContactBuffer@12@@Z 1010b870 f   GuPCMContactConvexConvex.obj
 0001:0010bb10       ?pcmContactBoxHeightField@Gu@physx@@YA_NABVGeometryUnion@12@0ABVPxTransform@2@1ABMAAUCache@12@AAVContactBuffer@12@@Z 1010cb10 f   GuPCMContactConvexHeightField.obj
 0001:0010bcf0       ?pcmContactConvexHeightField@Gu@physx@@YA_NABVGeometryUnion@12@0ABVPxTransform@2@1ABMAAUCache@12@AAVContactBuffer@12@@Z 1010ccf0 f   GuPCMContactConvexHeightField.obj
 0001:0010bf70       ?PCMContactConvexHeightfield@Gu@physx@@YA_NABUPolygonalData@12@PAVSupportLocal@12@ABT__m128@@ABVPxBounds3@2@ABVPxHeightFieldGeometry@2@ABVPxTransform@2@5MAAVContactBuffer@12@ABVFastVertex2ShapeScaling@Cm@2@_NAAVMultiplePersistentContactManifold@12@@Z 1010cf70 f   GuPCMContactConvexHeightField.obj
 0001:0010c470       ??$processTriangleCache@$0BA@@PCMConvexVsHeightfieldContactGenerationCallback@physx@@QAEXAAU?$TriangleCache@$0BA@@Gu@1@@Z 1010d470 f i GuPCMContactConvexHeightField.obj
 0001:0010c4a0       ??$processTriangleCache@$0BA@VPCMConvexVsMeshContactGeneration@Gu@physx@@@PCMMeshContactGeneration@Gu@physx@@QAE_NAAU?$TriangleCache@$0BA@@12@@Z 1010d4a0 f i GuPCMContactConvexHeightField.obj
 0001:0010c570       ??0?$PCMHeightfieldContactGenerationCallback@UPCMConvexVsHeightfieldContactGenerationCallback@physx@@@Gu@physx@@QAE@ABVHeightFieldUtil@12@ABVPxTransform@2@@Z 1010d570 f i GuPCMContactConvexHeightField.obj
 0001:0010c5b0       ??0?$SupportLocalShrunkImpl@VBoxV@Gu@physx@@VShrunkBoxV@23@@Gu@physx@@QAE@ABVBoxV@12@ABVPsTransformV@aos@shdfnd@2@ABUMat33V@562@2_N@Z 1010d5b0 f i GuPCMContactConvexHeightField.obj
 0001:0010c610       ??0?$SupportLocalShrunkImpl@VConvexHullNoScaleV@Gu@physx@@VShrunkConvexHullNoScaleV@23@@Gu@physx@@QAE@ABVConvexHullNoScaleV@12@ABVPsTransformV@aos@shdfnd@2@ABUMat33V@562@2_N@Z 1010d610 f i GuPCMContactConvexHeightField.obj
 0001:0010c670       ??0?$SupportLocalShrunkImpl@VConvexHullV@Gu@physx@@VShrunkConvexHullV@23@@Gu@physx@@QAE@ABVConvexHullV@12@ABVPsTransformV@aos@shdfnd@2@ABUMat33V@562@2_N@Z 1010d670 f i GuPCMContactConvexHeightField.obj
 0001:0010c6d0       ??0PCMConvexVsHeightfieldContactGenerationCallback@physx@@QAE@ABT__m128@@0ABUPolygonalData@Gu@1@PAVSupportLocal@41@ABVFastVertex2ShapeScaling@Cm@1@_NABVPsTransformV@aos@shdfnd@1@5ABVPxTransform@1@AAVMultiplePersistentContactManifold@41@AAVContactBuffer@41@AAVHeightFieldUtil@41@AAVContainer@41@@Z 1010d6d0 f i GuPCMContactConvexHeightField.obj
 0001:0010c760       ??0PCMConvexVsMeshContactGeneration@Gu@physx@@QAE@ABT__m128@@0ABVPsTransformV@aos@shdfnd@2@1AAVMultiplePersistentContactManifold@12@AAVContactBuffer@12@ABUPolygonalData@12@PAVSupportLocal@12@AAVContainer@12@ABVFastVertex2ShapeScaling@Cm@2@_N@Z 1010d760 f i GuPCMContactConvexHeightField.obj
 0001:0010c870       ??1?$PCMHeightfieldContactGenerationCallback@UPCMConvexVsHeightfieldContactGenerationCallback@physx@@@Gu@physx@@UAE@XZ 1010d870 f i GuPCMContactConvexHeightField.obj
 0001:0010c890       ??1?$SupportLocalShrunkImpl@VBoxV@Gu@physx@@VShrunkBoxV@23@@Gu@physx@@UAE@XZ 1010d890 f i GuPCMContactConvexHeightField.obj
 0001:0010c8b0       ??1?$SupportLocalShrunkImpl@VConvexHullNoScaleV@Gu@physx@@VShrunkConvexHullNoScaleV@23@@Gu@physx@@UAE@XZ 1010d8b0 f i GuPCMContactConvexHeightField.obj
 0001:0010c8d0       ??1?$SupportLocalShrunkImpl@VConvexHullV@Gu@physx@@VShrunkConvexHullV@23@@Gu@physx@@UAE@XZ 1010d8d0 f i GuPCMContactConvexHeightField.obj
 0001:0010c8f0       ??1PCMConvexVsHeightfieldContactGenerationCallback@physx@@UAE@XZ 1010d8f0 f i GuPCMContactConvexHeightField.obj
 0001:0010c910       ??_E?$PCMHeightfieldContactGenerationCallback@UPCMConvexVsHeightfieldContactGenerationCallback@physx@@@Gu@physx@@UAEPAXI@Z 1010d910 f i GuPCMContactConvexHeightField.obj
 0001:0010c910       ??_G?$PCMHeightfieldContactGenerationCallback@UPCMConvexVsHeightfieldContactGenerationCallback@physx@@@Gu@physx@@UAEPAXI@Z 1010d910 f i GuPCMContactConvexHeightField.obj
 0001:0010c950       ??_E?$SupportLocalShrunkImpl@VBoxV@Gu@physx@@VShrunkBoxV@23@@Gu@physx@@UAEPAXI@Z 1010d950 f i GuPCMContactConvexHeightField.obj
 0001:0010c950       ??_G?$SupportLocalShrunkImpl@VBoxV@Gu@physx@@VShrunkBoxV@23@@Gu@physx@@UAEPAXI@Z 1010d950 f i GuPCMContactConvexHeightField.obj
 0001:0010c990       ??_E?$SupportLocalShrunkImpl@VConvexHullNoScaleV@Gu@physx@@VShrunkConvexHullNoScaleV@23@@Gu@physx@@UAEPAXI@Z 1010d990 f i GuPCMContactConvexHeightField.obj
 0001:0010c990       ??_G?$SupportLocalShrunkImpl@VConvexHullNoScaleV@Gu@physx@@VShrunkConvexHullNoScaleV@23@@Gu@physx@@UAEPAXI@Z 1010d990 f i GuPCMContactConvexHeightField.obj
 0001:0010c9d0       ??_E?$SupportLocalShrunkImpl@VConvexHullV@Gu@physx@@VShrunkConvexHullV@23@@Gu@physx@@UAEPAXI@Z 1010d9d0 f i GuPCMContactConvexHeightField.obj
 0001:0010c9d0       ??_G?$SupportLocalShrunkImpl@VConvexHullV@Gu@physx@@VShrunkConvexHullV@23@@Gu@physx@@UAEPAXI@Z 1010d9d0 f i GuPCMContactConvexHeightField.obj
 0001:0010ca10       ??_EPCMConvexVsHeightfieldContactGenerationCallback@physx@@UAEPAXI@Z 1010da10 f i GuPCMContactConvexHeightField.obj
 0001:0010ca10       ??_GPCMConvexVsHeightfieldContactGenerationCallback@physx@@UAEPAXI@Z 1010da10 f i GuPCMContactConvexHeightField.obj
 0001:0010ca50       ?doSupport@?$SupportLocalShrunkImpl@VBoxV@Gu@physx@@VShrunkBoxV@23@@Gu@physx@@UBE?AT__m128@@ABT4@@Z 1010da50 f i GuPCMContactConvexHeightField.obj
 0001:0010ca90       ?doSupport@?$SupportLocalShrunkImpl@VBoxV@Gu@physx@@VShrunkBoxV@23@@Gu@physx@@UBEXABT__m128@@AAT4@1@Z 1010da90 f i GuPCMContactConvexHeightField.obj
 0001:0010cad0       ?doSupport@?$SupportLocalShrunkImpl@VConvexHullNoScaleV@Gu@physx@@VShrunkConvexHullNoScaleV@23@@Gu@physx@@UBE?AT__m128@@ABT4@@Z 1010dad0 f i GuPCMContactConvexHeightField.obj
 0001:0010cb10       ?doSupport@?$SupportLocalShrunkImpl@VConvexHullNoScaleV@Gu@physx@@VShrunkConvexHullNoScaleV@23@@Gu@physx@@UBEXABT__m128@@AAT4@1@Z 1010db10 f i GuPCMContactConvexHeightField.obj
 0001:0010cb50       ?doSupport@?$SupportLocalShrunkImpl@VConvexHullV@Gu@physx@@VShrunkConvexHullV@23@@Gu@physx@@UBE?AT__m128@@ABT4@@Z 1010db50 f i GuPCMContactConvexHeightField.obj
 0001:0010cb90       ?doSupport@?$SupportLocalShrunkImpl@VConvexHullV@Gu@physx@@VShrunkConvexHullV@23@@Gu@physx@@UBEXABT__m128@@AAT4@1@Z 1010db90 f i GuPCMContactConvexHeightField.obj
 0001:0010cbd0       ?invalidate@MultiplePersistentContactManifold@Gu@physx@@QAEIABVPsTransformV@aos@shdfnd@3@ABT__m128@@@Z 1010dbd0 f i GuPCMContactConvexHeightField.obj
 0001:0010cc40       ?onEvent@?$PCMHeightfieldContactGenerationCallback@UPCMConvexVsHeightfieldContactGenerationCallback@physx@@@Gu@physx@@UAE_NIPAI@Z 1010dc40 f i GuPCMContactConvexHeightField.obj
 0001:0010d140       ?populateVerts@?$SupportLocalShrunkImpl@VBoxV@Gu@physx@@VShrunkBoxV@23@@Gu@physx@@UBEXPBEIPBVPxVec3@3@PAT__m128@@@Z 1010e140 f i GuPCMContactConvexHeightField.obj
 0001:0010d180       ?populateVerts@?$SupportLocalShrunkImpl@VConvexHullNoScaleV@Gu@physx@@VShrunkConvexHullNoScaleV@23@@Gu@physx@@UBEXPBEIPBVPxVec3@3@PAT__m128@@@Z 1010e180 f i GuPCMContactConvexHeightField.obj
 0001:0010d1c0       ?populateVerts@?$SupportLocalShrunkImpl@VConvexHullV@Gu@physx@@VShrunkConvexHullV@23@@Gu@physx@@UBEXPBEIPBVPxVec3@3@PAT__m128@@@Z 1010e1c0 f i GuPCMContactConvexHeightField.obj
 0001:0010d200       ?pcmContactBoxMesh@Gu@physx@@YA_NABVGeometryUnion@12@0ABVPxTransform@2@1ABMAAUCache@12@AAVContactBuffer@12@@Z 1010e200 f   GuPCMContactConvexMesh.obj
 0001:0010d3d0       ?pcmContactConvexMesh@Gu@physx@@YA_NABVGeometryUnion@12@0ABVPxTransform@2@1ABMAAUCache@12@AAVContactBuffer@12@@Z 1010e3d0 f   GuPCMContactConvexMesh.obj
 0001:0010d660       ?PCMContactConvexMesh@Gu@physx@@YA_NABUPolygonalData@12@PAVSupportLocal@12@ABT__m128@@ABVPxBounds3@2@ABUPxTriangleMeshGeometryLL@2@ABVPxTransform@2@5MAAVContactBuffer@12@ABVFastVertex2ShapeScaling@Cm@2@7_N8AAVMultiplePersistentContactManifold@12@@Z 1010e660 f   GuPCMContactConvexMesh.obj
 0001:0010dc20       ??$processTriangleCache@$0BA@@PCMConvexVsMeshContactGenerationCallback@physx@@QAEXAAU?$TriangleCache@$0BA@@Gu@1@@Z 1010ec20 f i GuPCMContactConvexMesh.obj
 0001:0010dc50       ??0?$PCMMeshContactGenerationCallback@UPCMConvexVsMeshContactGenerationCallback@physx@@@Gu@physx@@QAE@ABVFastVertex2ShapeScaling@Cm@2@PBE_N@Z 1010ec50 f i GuPCMContactConvexMesh.obj
 0001:0010dcb0       ??0PCMConvexVsMeshContactGenerationCallback@physx@@QAE@ABT__m128@@0ABVPsTransformV@aos@shdfnd@1@1AAVMultiplePersistentContactManifold@Gu@1@AAVContactBuffer@71@ABUPolygonalData@71@PAVSupportLocal@71@AAVContainer@71@ABVFastVertex2ShapeScaling@Cm@1@_N7PBE8ABVBox@71@@Z 1010ecb0 f i GuPCMContactConvexMesh.obj
 0001:0010dd60       ??1?$PCMMeshContactGenerationCallback@UPCMConvexVsMeshContactGenerationCallback@physx@@@Gu@physx@@UAE@XZ 1010ed60 f i GuPCMContactConvexMesh.obj
 0001:0010dd80       ??1PCMConvexVsMeshContactGenerationCallback@physx@@UAE@XZ 1010ed80 f i GuPCMContactConvexMesh.obj
 0001:0010dda0       ??_G?$PCMMeshContactGenerationCallback@UPCMConvexVsMeshContactGenerationCallback@physx@@@Gu@physx@@UAEPAXI@Z 1010eda0 f i GuPCMContactConvexMesh.obj
 0001:0010dda0       ??_E?$PCMMeshContactGenerationCallback@UPCMConvexVsMeshContactGenerationCallback@physx@@@Gu@physx@@UAEPAXI@Z 1010eda0 f i GuPCMContactConvexMesh.obj
 0001:0010dde0       ??_EPCMConvexVsMeshContactGenerationCallback@physx@@UAEPAXI@Z 1010ede0 f i GuPCMContactConvexMesh.obj
 0001:0010dde0       ??_GPCMConvexVsMeshContactGenerationCallback@physx@@UAEPAXI@Z 1010ede0 f i GuPCMContactConvexMesh.obj
 0001:0010de20       ?doTest@PCMConvexVsMeshContactGenerationCallback@physx@@QAEHABVPxVec3@2@00@Z 1010ee20 f i GuPCMContactConvexMesh.obj
 0001:0010de60       ?flushCache@?$PCMMeshContactGenerationCallback@UPCMConvexVsMeshContactGenerationCallback@physx@@@Gu@physx@@QAEXXZ 1010ee60 f i GuPCMContactConvexMesh.obj
 0001:0010deb0       ?processHit@?$PCMMeshContactGenerationCallback@UPCMConvexVsMeshContactGenerationCallback@physx@@@Gu@physx@@UAE_NABUPxRaycastHit@3@ABVPxVec3@3@11AAMPBI@Z 1010eeb0 f i GuPCMContactConvexMesh.obj
 0001:0010e0b0       ?generateFullContactManifold@Gu@physx@@YA_NAAUPolygonalData@12@0PAVSupportLocal@12@1PAVPersistentContact@12@AAIABT__m128@@4_N@Z 1010f0b0 f   GuPCMContactGenBoxConvex.obj
 0001:0010e5c0       ?computeMTD@Gu@physx@@YA_NAAUPolygonalData@12@0PAVSupportLocal@12@1AAT__m128@@2@Z 1010f5c0 f   GuPCMContactGenBoxConvex.obj
 0001:0010e7f0       ?buildPartialHull@Gu@physx@@YAXABUPolygonalData@12@PAVSupportLocal@12@AAVSeparatingAxes@12@ABT__m128@@3@Z 1010f7f0 f   GuPCMContactGenBoxConvex.obj
 0001:0010f720       ?generatedContacts@Gu@physx@@YAXAAUPolygonalData@12@0ABUHullPolygonData@12@1PAVSupportLocal@12@2ABVPsMatTransformV@aos@shdfnd@2@PAVPersistentContact@12@AAIABT__m128@@@Z 10110720 f   GuPCMContactGenBoxConvex.obj
 0001:00110e30       ??$PX_UNUSED@UPolygonalData@Gu@physx@@@@YAXABUPolygonalData@Gu@physx@@@Z 10111e30 f i GuPCMContactGenBoxConvex.obj
 0001:00110e40       ?getPolygonIndex@Gu@physx@@YAHABUPolygonalData@12@PAVSupportLocal@12@ABT__m128@@@Z 10111e40 f i GuPCMContactGenBoxConvex.obj
 0001:001112b0       ?signed2DTriArea@Gu@physx@@YA?AT__m128@@ABT3@00@Z 101122b0 f i GuPCMContactGenBoxConvex.obj
 0001:001113a0       ?generateFullContactManifold@Gu@physx@@YA_NABVCapsuleV@12@AAUPolygonalData@12@PAVSupportLocal@12@ABVPsMatTransformV@aos@shdfnd@2@PAVPersistentContact@12@AAIABT__m128@@AAT__m128@@_N@Z 101123a0 f   GuPCMContactGenSphereCapsule.obj
 0001:001114a0       ?generateCapsuleBoxFullContactManifold@Gu@physx@@YA_NABVCapsuleV@12@AAUPolygonalData@12@PAVSupportLocal@12@ABVPsMatTransformV@aos@shdfnd@2@PAVPersistentContact@12@AAIABT__m128@@AAT__m128@@_N@Z 101124a0 f   GuPCMContactGenSphereCapsule.obj
 0001:001115b0       ?computeMTD@Gu@physx@@YA_NABVCapsuleV@12@AAUPolygonalData@12@PAVSupportLocal@12@AAT__m128@@3@Z 101125b0 f   GuPCMContactGenSphereCapsule.obj
 0001:00111640       ?generateSphereFullContactManifold@Gu@physx@@YA_NABVCapsuleV@12@AAUPolygonalData@12@PAVSupportLocal@12@PAVPersistentContact@12@AAIABT__m128@@AAT7@_N@Z 10112640 f   GuPCMContactGenSphereCapsule.obj
 0001:00111b80       ?generatedCapsuleBoxFaceContacts@Gu@physx@@YAXABVCapsuleV@12@AAUPolygonalData@12@ABUHullPolygonData@12@PAVSupportLocal@12@ABVPsMatTransformV@aos@shdfnd@2@PAVPersistentContact@12@AAIABT__m128@@7@Z 10112b80 f   GuPCMContactGenSphereCapsule.obj
 0001:00112710       ?generatedContactsEEContacts@Gu@physx@@YAXABVCapsuleV@12@AAUPolygonalData@12@ABUHullPolygonData@12@PAVSupportLocal@12@ABVPsMatTransformV@aos@shdfnd@2@PAVPersistentContact@12@AAIABT__m128@@7@Z 10113710 f   GuPCMContactGenSphereCapsule.obj
 0001:00112d40       ?BAndNot@aos@shdfnd@physx@@YA?AT__m128@@T4@0@Z 10113d40 f i GuPCMContactGenSphereCapsule.obj
 0001:00112d90       ?intersectSegmentPolyhedron@Gu@physx@@YA_NABT__m128@@0ABUPolygonalData@12@AAT3@2@Z 10113d90 f i GuPCMContactGenSphereCapsule.obj
 0001:00113080       ?testPolyDataAxis@Gu@physx@@YA_NABVCapsuleV@12@ABUPolygonalData@12@PAVSupportLocal@12@ABT__m128@@AAT6@4@Z 10114080 f i GuPCMContactGenSphereCapsule.obj
 0001:00113480       ?pcmContactPlaneBox@Gu@physx@@YA_NABVGeometryUnion@12@0ABVPxTransform@2@1ABMAAUCache@12@AAVContactBuffer@12@@Z 10114480 f   GuPCMContactPlaneBox.obj
 0001:001144c0       ?QuatGetBasisVector0@aos@shdfnd@physx@@YA?AT__m128@@T4@@Z 101154c0 f i GuPCMContactPlaneBox.obj
 0001:00114680       ?invalidate_PrimitivesPlane@PersistentContactManifold@Gu@physx@@QAEIABVPsTransformV@aos@shdfnd@3@ABT__m128@@1@Z 10115680 f i GuPCMContactPlaneBox.obj
 0001:00114790       ?pcmContactPlaneCapsule@Gu@physx@@YA_NABVGeometryUnion@12@0ABVPxTransform@2@1ABMAAUCache@12@AAVContactBuffer@12@@Z 10115790 f   GuPCMContactPlaneCapsule.obj
 0001:00114d40       ?pcmContactPlaneConvex@Gu@physx@@YA_NABVGeometryUnion@12@0ABVPxTransform@2@1ABMAAUCache@12@AAVContactBuffer@12@@Z 10115d40 f   GuPCMContactPlaneConvex.obj
 0001:001152a0       ?ConstructVertex2ShapeMatrix@Gu@physx@@YA?AUMat33V@aos@shdfnd@2@ABT__m128@@0@Z 101162a0 f i GuPCMContactPlaneConvex.obj
 0001:001153c0       ?pcmContactSphereConvex@Gu@physx@@YA_NABVGeometryUnion@12@0ABVPxTransform@2@1ABMAAUCache@12@AAVContactBuffer@12@@Z 101163c0 f   GuPCMContactSphereConvex.obj
 0001:00116330       ??0?$EPASupportMapPairLocalImpl@VCapsuleV@Gu@physx@@VConvexHullNoScaleV@23@@Gu@physx@@QAE@ABVCapsuleV@12@ABVConvexHullNoScaleV@12@@Z 10117330 f i GuPCMContactSphereConvex.obj
 0001:00116370       ??0CapsuleV@Gu@physx@@QAE@ABT__m128@@0@Z 10117370 f i GuPCMContactSphereConvex.obj
 0001:00116430       ??1?$EPASupportMapPairLocalImpl@VCapsuleV@Gu@physx@@VConvexHullNoScaleV@23@@Gu@physx@@UAE@XZ 10117430 f i GuPCMContactSphereConvex.obj
 0001:00116450       ??_E?$EPASupportMapPairLocalImpl@VCapsuleV@Gu@physx@@VConvexHullNoScaleV@23@@Gu@physx@@UAEPAXI@Z 10117450 f i GuPCMContactSphereConvex.obj
 0001:00116450       ??_G?$EPASupportMapPairLocalImpl@VCapsuleV@Gu@physx@@VConvexHullNoScaleV@23@@Gu@physx@@UAEPAXI@Z 10117450 f i GuPCMContactSphereConvex.obj
 0001:00116490       ?doSupport@?$EPASupportMapPairLocalImpl@VCapsuleV@Gu@physx@@VConvexHullNoScaleV@23@@Gu@physx@@UBEXABT__m128@@AAT4@11@Z 10117490 f i GuPCMContactSphereConvex.obj
 0001:00116550       ?doWarmStartSupport@?$EPASupportMapPairLocalImpl@VCapsuleV@Gu@physx@@VConvexHullNoScaleV@23@@Gu@physx@@UBEXHHAAT__m128@@00@Z 10117550 f i GuPCMContactSphereConvex.obj
 0001:00116600       ?getContactPoint@PersistentContactManifold@Gu@physx@@QAEAAVPersistentContact@23@I@Z 10117600 f i GuPCMContactSphereConvex.obj
 0001:00116670       ?getDir@?$EPASupportMapPairLocalImpl@VCapsuleV@Gu@physx@@VConvexHullNoScaleV@23@@Gu@physx@@UBE?AT__m128@@XZ 10117670 f i GuPCMContactSphereConvex.obj
 0001:00116700       ?pcmContactSphereHeightField@Gu@physx@@YA_NABVGeometryUnion@12@0ABVPxTransform@2@1ABMAAUCache@12@AAVContactBuffer@12@@Z 10117700 f   GuPCMContactSphereHeightField.obj
 0001:00116b70       ??$processTriangleCache@$0BA@@PCMSphereVsHeightfieldContactGenerationCallback@physx@@QAEXAAU?$TriangleCache@$0BA@@Gu@1@@Z 10117b70 f i GuPCMContactSphereHeightField.obj
 0001:00116ba0       ??$processTriangleCache@$0BA@VPCMSphereVsMeshContactGeneration@Gu@physx@@@PCMMeshContactGeneration@Gu@physx@@QAE_NAAU?$TriangleCache@$0BA@@12@@Z 10117ba0 f i GuPCMContactSphereHeightField.obj
 0001:00116c70       ??0?$PCMHeightfieldContactGenerationCallback@UPCMSphereVsHeightfieldContactGenerationCallback@physx@@@Gu@physx@@QAE@ABVHeightFieldUtil@12@ABVPxTransform@2@@Z 10117c70 f i GuPCMContactSphereHeightField.obj
 0001:00116cb0       ??0PCMSphereVsHeightfieldContactGenerationCallback@physx@@QAE@ABT__m128@@000ABVPsTransformV@aos@shdfnd@1@1ABVPxTransform@1@AAVMultiplePersistentContactManifold@Gu@1@AAVContactBuffer@81@AAVHeightFieldUtil@81@@Z 10117cb0 f i GuPCMContactSphereHeightField.obj
 0001:00116d30       ??0PCMSphereVsMeshContactGeneration@Gu@physx@@QAE@ABT__m128@@000ABVPsTransformV@aos@shdfnd@2@1AAVMultiplePersistentContactManifold@12@AAVContactBuffer@12@@Z 10117d30 f i GuPCMContactSphereHeightField.obj
 0001:00116e00       ??1?$PCMHeightfieldContactGenerationCallback@UPCMSphereVsHeightfieldContactGenerationCallback@physx@@@Gu@physx@@UAE@XZ 10117e00 f i GuPCMContactSphereHeightField.obj
 0001:00116e20       ??1PCMSphereVsHeightfieldContactGenerationCallback@physx@@UAE@XZ 10117e20 f i GuPCMContactSphereHeightField.obj
 0001:00116e40       ??_E?$PCMHeightfieldContactGenerationCallback@UPCMSphereVsHeightfieldContactGenerationCallback@physx@@@Gu@physx@@UAEPAXI@Z 10117e40 f i GuPCMContactSphereHeightField.obj
 0001:00116e40       ??_G?$PCMHeightfieldContactGenerationCallback@UPCMSphereVsHeightfieldContactGenerationCallback@physx@@@Gu@physx@@UAEPAXI@Z 10117e40 f i GuPCMContactSphereHeightField.obj
 0001:00116e80       ??_EPCMSphereVsHeightfieldContactGenerationCallback@physx@@UAEPAXI@Z 10117e80 f i GuPCMContactSphereHeightField.obj
 0001:00116e80       ??_GPCMSphereVsHeightfieldContactGenerationCallback@physx@@UAEPAXI@Z 10117e80 f i GuPCMContactSphereHeightField.obj
 0001:00116ec0       ?onEvent@?$PCMHeightfieldContactGenerationCallback@UPCMSphereVsHeightfieldContactGenerationCallback@physx@@@Gu@physx@@UAE_NIPAI@Z 10117ec0 f i GuPCMContactSphereHeightField.obj
 0001:001173c0       ?pcmContactSphereMesh@Gu@physx@@YA_NABVGeometryUnion@12@0ABVPxTransform@2@1ABMAAUCache@12@AAVContactBuffer@12@@Z 101183c0 f   GuPCMContactSphereMesh.obj
 0001:001178c0       ??$processTriangleCache@$0BA@@PCMSphereVsMeshContactGenerationCallback@physx@@QAEXAAU?$TriangleCache@$0BA@@Gu@1@@Z 101188c0 f i GuPCMContactSphereMesh.obj
 0001:001178f0       ??0?$PCMMeshContactGenerationCallback@UPCMSphereVsMeshContactGenerationCallback@physx@@@Gu@physx@@QAE@ABVFastVertex2ShapeScaling@Cm@2@PBE_N@Z 101188f0 f i GuPCMContactSphereMesh.obj
 0001:00117950       ??0PCMSphereVsMeshContactGenerationCallback@physx@@QAE@ABT__m128@@000ABVPsTransformV@aos@shdfnd@1@1AAVMultiplePersistentContactManifold@Gu@1@AAVContactBuffer@71@PBEABVFastVertex2ShapeScaling@Cm@1@_N@Z 10118950 f i GuPCMContactSphereMesh.obj
 0001:001179d0       ??1?$PCMMeshContactGenerationCallback@UPCMSphereVsMeshContactGenerationCallback@physx@@@Gu@physx@@UAE@XZ 101189d0 f i GuPCMContactSphereMesh.obj
 0001:001179f0       ??1PCMSphereVsMeshContactGenerationCallback@physx@@UAE@XZ 101189f0 f i GuPCMContactSphereMesh.obj
 0001:00117a10       ??_E?$PCMMeshContactGenerationCallback@UPCMSphereVsMeshContactGenerationCallback@physx@@@Gu@physx@@UAEPAXI@Z 10118a10 f i GuPCMContactSphereMesh.obj
 0001:00117a10       ??_G?$PCMMeshContactGenerationCallback@UPCMSphereVsMeshContactGenerationCallback@physx@@@Gu@physx@@UAEPAXI@Z 10118a10 f i GuPCMContactSphereMesh.obj
 0001:00117a50       ??_EPCMSphereVsMeshContactGenerationCallback@physx@@UAEPAXI@Z 10118a50 f i GuPCMContactSphereMesh.obj
 0001:00117a50       ??_GPCMSphereVsMeshContactGenerationCallback@physx@@UAEPAXI@Z 10118a50 f i GuPCMContactSphereMesh.obj
 0001:00117a90       ?doTest@PCMSphereVsMeshContactGenerationCallback@physx@@QAE_NABVPxVec3@2@00@Z 10118a90 f i GuPCMContactSphereMesh.obj
 0001:00117ab0       ?flushCache@?$PCMMeshContactGenerationCallback@UPCMSphereVsMeshContactGenerationCallback@physx@@@Gu@physx@@QAEXXZ 10118ab0 f i GuPCMContactSphereMesh.obj
 0001:00117b00       ?processHit@?$PCMMeshContactGenerationCallback@UPCMSphereVsMeshContactGenerationCallback@physx@@@Gu@physx@@UAE_NABUPxRaycastHit@3@ABVPxVec3@3@11AAMPBI@Z 10118b00 f i GuPCMContactSphereMesh.obj
 0001:00117d00       ??0PCMPolygonalBox@Gu@physx@@QAE@ABVPxVec3@2@@Z 10118d00 f   GuPCMShapeConvex.obj
 0001:00118530       ?getPolygonalData@PCMPolygonalBox@Gu@physx@@QBEXPIAUPolygonalData@23@@Z 10119530 f   GuPCMShapeConvex.obj
 0001:00118610       ?getPCMConvexData@Gu@physx@@YAXABVConvexHullV@12@_NAAUPolygonalData@12@@Z 10119610 f   GuPCMShapeConvex.obj
 0001:001186a0       ?getPCMConvexData@Gu@physx@@YA_NABVGeometryUnion@12@AAVFastVertex2ShapeScaling@Cm@2@AAVPxBounds3@2@AAUPolygonalData@12@@Z 101196a0 f   GuPCMShapeConvex.obj
 0001:00118c50       ?generateTriangleFullContactManifold@PCMConvexVsMeshContactGeneration@Gu@physx@@QAE_NAAVTriangleV@23@IPBIEABUPolygonalData@23@PAV?$SupportLocalImpl@VTriangleV@Gu@physx@@@23@PAVSupportLocal@23@PAVMeshPersistentContact@23@AAIABT__m128@@AAT9@@Z 10119c50 f   GuPCMTriangleContactGen.obj
 0001:001190a0       ?generatePolyDataContactManifold@PCMConvexVsMeshContactGeneration@Gu@physx@@QAE_NAAVTriangleV@23@IIEPAVMeshPersistentContact@23@AAIABT__m128@@AAT6@@Z 1011a0a0 f   GuPCMTriangleContactGen.obj
 0001:00119170       ?generateTriangleFullContactManifold@PCMConvexVsMeshContactGeneration@Gu@physx@@SA_NAAVTriangleV@23@IEABUPolygonalData@23@PAV?$SupportLocalImpl@VTriangleV@Gu@physx@@@23@PAVSupportLocal@23@PAVMeshPersistentContact@23@AAIABT__m128@@AAT9@@Z 1011a170 f   GuPCMTriangleContactGen.obj
 0001:0011cb60       ??$PX_UNUSED@E@@YAXABE@Z   1011db60 f i GuPCMTriangleContactGen.obj
 0001:0011cb70       ??$PX_UNUSED@PAV?$SupportLocalImpl@VTriangleV@Gu@physx@@@Gu@physx@@@@YAXABQAV?$SupportLocalImpl@VTriangleV@Gu@physx@@@Gu@physx@@@Z 1011db70 f i GuPCMTriangleContactGen.obj
 0001:0011cb80       ??$PX_UNUSED@VTriangleV@Gu@physx@@@@YAXABVTriangleV@Gu@physx@@@Z 1011db80 f i GuPCMTriangleContactGen.obj
 0001:0011cb90       ?FRsqrtFast@aos@shdfnd@physx@@YA?AT__m128@@T4@@Z 1011db90 f i GuPCMTriangleContactGen.obj
 0001:0011cbd0       ?V3AllGrtr@aos@shdfnd@physx@@YAIT__m128@@0@Z 1011dbd0 f i GuPCMTriangleContactGen.obj
 0001:0011cc30       ?V3LengthSq@aos@shdfnd@physx@@YA?AT__m128@@T4@@Z 1011dc30 f i GuPCMTriangleContactGen.obj
 0001:0011cc80       ?doSupportFast@?$SupportLocalImpl@VTriangleV@Gu@physx@@@Gu@physx@@QBEXABT__m128@@AAT4@1@Z 1011dc80 f i GuPCMTriangleContactGen.obj
 0001:0011ccc0       ?findRotationMatrixFromZAxis@Gu@physx@@YA?AUMat33V@aos@shdfnd@2@ABT__m128@@@Z 1011dcc0 f   GuPersistentContactManifold.obj
 0001:0011d340       ?replaceManifoldPoint@PersistentContactManifold@Gu@physx@@QAE_NABT__m128@@000@Z 1011e340 f   GuPersistentContactManifold.obj
 0001:0011d430       ?addManifoldPoint@PersistentContactManifold@Gu@physx@@QAEIABT__m128@@000@Z 1011e430 f   GuPersistentContactManifold.obj
 0001:0011d510       ?addManifoldPoint2@PersistentContactManifold@Gu@physx@@QAEIABT__m128@@000@Z 1011e510 f   GuPersistentContactManifold.obj
 0001:0011d620       ?addBatchManifoldContactsCluster@PersistentContactManifold@Gu@physx@@QAEXPBVPersistentContact@23@I@Z 1011e620 f   GuPersistentContactManifold.obj
 0001:0011d6d0       ?addBatchManifoldContacts2@PersistentContactManifold@Gu@physx@@QAEXPBVPersistentContact@23@I@Z 1011e6d0 f   GuPersistentContactManifold.obj
 0001:0011d780       ?addBatchManifoldContacts@PersistentContactManifold@Gu@physx@@QAEXPBVPersistentContact@23@I@Z 1011e780 f   GuPersistentContactManifold.obj
 0001:0011d830       ?reduceBatchContactsCluster@PersistentContactManifold@Gu@physx@@QAEXPBVPersistentContact@23@I@Z 1011e830 f   GuPersistentContactManifold.obj
 0001:0011ded0       ?reduceBatchContacts2@PersistentContactManifold@Gu@physx@@QAEXPBVPersistentContact@23@I@Z 1011eed0 f   GuPersistentContactManifold.obj
 0001:0011e230       ?reduceBatchContacts@PersistentContactManifold@Gu@physx@@QAEXPBVPersistentContact@23@I@Z 1011f230 f   GuPersistentContactManifold.obj
 0001:0011e6c0       ?reduceContactsForPCM@PersistentContactManifold@Gu@physx@@QAEIABT__m128@@00@Z 1011f6c0 f   GuPersistentContactManifold.obj
 0001:0011ec20       ?reduceContactSegment@PersistentContactManifold@Gu@physx@@QAEIABT__m128@@00@Z 1011fc20 f   GuPersistentContactManifold.obj
 0001:0011ed70       ?addManifoldContactsToContactBuffer@PersistentContactManifold@Gu@physx@@QAEXAAVContactBuffer@23@ABT__m128@@ABVPsMatTransformV@aos@shdfnd@3@@Z 1011fd70 f   GuPersistentContactManifold.obj
 0001:0011eeb0       ?addManifoldContactsToContactBuffer@PersistentContactManifold@Gu@physx@@QAEXAAVContactBuffer@23@ABT__m128@@ABVPsTransformV@aos@shdfnd@3@@Z 1011feb0 f   GuPersistentContactManifold.obj
 0001:0011eff0       ?addManifoldContactsToContactBuffer@PersistentContactManifold@Gu@physx@@QAEXAAVContactBuffer@23@ABT__m128@@ABVPsTransformV@aos@shdfnd@3@1@Z 1011fff0 f   GuPersistentContactManifold.obj
 0001:0011f290       ?drawManifold@PersistentContactManifold@Gu@physx@@QAEXAAVRenderOutput@Cm@3@ABVPsTransformV@aos@shdfnd@3@1@Z 10120290 f   GuPersistentContactManifold.obj
 0001:0011f330       ?drawManifold@PersistentContactManifold@Gu@physx@@QAEXAAVRenderOutput@Cm@3@ABVPsTransformV@aos@shdfnd@3@1ABT__m128@@@Z 10120330 f   GuPersistentContactManifold.obj
 0001:0011f3d0       ?drawManifold@PersistentContactManifold@Gu@physx@@QAEXABVPersistentContact@23@AAVRenderOutput@Cm@3@ABVPsTransformV@aos@shdfnd@3@2@Z 101203d0 f   GuPersistentContactManifold.obj
 0001:0011f410       ?drawPoint@PersistentContactManifold@Gu@physx@@SAXAAVRenderOutput@Cm@3@ABT__m128@@MI@Z 10120410 f   GuPersistentContactManifold.obj
 0001:0011f5f0       ?drawLine@PersistentContactManifold@Gu@physx@@SAXAAVRenderOutput@Cm@3@ABT__m128@@1I@Z 101205f0 f   GuPersistentContactManifold.obj
 0001:0011f720       ?drawTriangle@PersistentContactManifold@Gu@physx@@SAXAAVRenderOutput@Cm@3@ABT__m128@@11I@Z 10120720 f   GuPersistentContactManifold.obj
 0001:0011f800       ?drawPolygon@PersistentContactManifold@Gu@physx@@SAXAAVRenderOutput@Cm@3@ABVPsTransformV@aos@shdfnd@3@PAT__m128@@II@Z 10120800 f   GuPersistentContactManifold.obj
 0001:0011f8d0       ?drawPolygon@PersistentContactManifold@Gu@physx@@SAXAAVRenderOutput@Cm@3@ABVPsMatTransformV@aos@shdfnd@3@PAT__m128@@II@Z 101208d0 f   GuPersistentContactManifold.obj
 0001:0011f9a0       ?reduceBatchContactsConvex@SinglePersistentContactManifold@Gu@physx@@QAE?AT__m128@@PBVMeshPersistentContact@23@IAAUPCMContactPatch@23@@Z 101209a0 f   GuPersistentContactManifold.obj
 0001:00120330       ?reduceBatchContactsSphere@SinglePersistentContactManifold@Gu@physx@@QAE?AT__m128@@PBVMeshPersistentContact@23@IAAUPCMContactPatch@23@@Z 10121330 f   GuPersistentContactManifold.obj
 0001:00120460       ?reduceBatchContactsCapsule@SinglePersistentContactManifold@Gu@physx@@QAE?AT__m128@@PBVMeshPersistentContact@23@IAAUPCMContactPatch@23@@Z 10121460 f   GuPersistentContactManifold.obj
 0001:00120800       ?addBatchManifoldContactsConvex@SinglePersistentContactManifold@Gu@physx@@QAE?AT__m128@@PBVMeshPersistentContact@23@IAAUPCMContactPatch@23@ABT4@@Z 10121800 f   GuPersistentContactManifold.obj
 0001:00120900       ?addBatchManifoldContactsSphere@SinglePersistentContactManifold@Gu@physx@@QAE?AT__m128@@PBVMeshPersistentContact@23@IAAUPCMContactPatch@23@ABT4@@Z 10121900 f   GuPersistentContactManifold.obj
 0001:00120970       ?addBatchManifoldContactsCapsule@SinglePersistentContactManifold@Gu@physx@@QAE?AT__m128@@PBVMeshPersistentContact@23@IAAUPCMContactPatch@23@ABT4@@Z 10121970 f   GuPersistentContactManifold.obj
 0001:00120a70       ?reduceContacts@SinglePersistentContactManifold@Gu@physx@@SAIPAVMeshPersistentContact@23@I@Z 10121a70 f   GuPersistentContactManifold.obj
 0001:00120f60       ?refreshContactPoints@SinglePersistentContactManifold@Gu@physx@@QAE?AT__m128@@ABVPsMatTransformV@aos@shdfnd@3@ABT4@1@Z 10121f60 f   GuPersistentContactManifold.obj
 0001:00121120       ?drawManifold@SinglePersistentContactManifold@Gu@physx@@QAEXAAVRenderOutput@Cm@3@ABVPsTransformV@aos@shdfnd@3@1@Z 10122120 f   GuPersistentContactManifold.obj
 0001:001211c0       ?addManifoldContactPoints@MultiplePersistentContactManifold@Gu@physx@@QAEXPAVMeshPersistentContact@23@IPAPAUPCMContactPatch@23@IABT__m128@@2E@Z 101221c0 f   GuPersistentContactManifold.obj
 0001:00121760       ?addManifoldContactsToContactBuffer@MultiplePersistentContactManifold@Gu@physx@@QAE_NAAVContactBuffer@23@ABVPsTransformV@aos@shdfnd@3@@Z 10122760 f   GuPersistentContactManifold.obj
 0001:001219e0       ?addManifoldContactsToContactBuffer@MultiplePersistentContactManifold@Gu@physx@@QAE_NAAVContactBuffer@23@ABVPsTransformV@aos@shdfnd@3@1ABT__m128@@@Z 101229e0 f   GuPersistentContactManifold.obj
 0001:00121cd0       ?drawManifold@MultiplePersistentContactManifold@Gu@physx@@QAEXAAVRenderOutput@Cm@3@ABVPsTransformV@aos@shdfnd@3@1@Z 10122cd0 f   GuPersistentContactManifold.obj
 0001:00121d30       ?drawLine@MultiplePersistentContactManifold@Gu@physx@@SAXAAVRenderOutput@Cm@3@ABT__m128@@1I@Z 10122d30 f   GuPersistentContactManifold.obj
 0001:00121de0       ?drawLine@MultiplePersistentContactManifold@Gu@physx@@SAXAAVRenderOutput@Cm@3@VPxVec3@3@1I@Z 10122de0 f   GuPersistentContactManifold.obj
 0001:00121e50       ?drawPoint@MultiplePersistentContactManifold@Gu@physx@@SAXAAVRenderOutput@Cm@3@ABT__m128@@MI@Z 10122e50 f   GuPersistentContactManifold.obj
 0001:00122030       ?drawPolygon@MultiplePersistentContactManifold@Gu@physx@@SAXAAVRenderOutput@Cm@3@ABVPsTransformV@aos@shdfnd@3@PAT__m128@@II@Z 10123030 f   GuPersistentContactManifold.obj
 0001:001251a0       ??0MeshPersistentContact@Gu@physx@@QAE@XZ 101261a0 f i GuPersistentContactManifold.obj
 0001:001251c0       ??0PersistentContact@Gu@physx@@QAE@XZ 101261c0 f i GuPersistentContactManifold.obj
 0001:001251e0       ?createIdentity@PxMat44@physx@@SA?AV12@XZ 101261e0 f i GuPersistentContactManifold.obj
 0001:00125200       ?getContactPoint@SinglePersistentContactManifold@Gu@physx@@QAEAAVMeshPersistentContact@23@I@Z 10126200 f i GuPersistentContactManifold.obj
 0001:00125270       ?getEmptyManifold@MultiplePersistentContactManifold@Gu@physx@@QAEPAVSinglePersistentContactManifold@23@XZ 10126270 f i GuPersistentContactManifold.obj
 0001:001252c0       ?getLocalNormal@SinglePersistentContactManifold@Gu@physx@@QAE?AT__m128@@XZ 101262c0 f i GuPersistentContactManifold.obj
 0001:00125390       ?getManifold@MultiplePersistentContactManifold@Gu@physx@@QAEPAVSinglePersistentContactManifold@23@I@Z 10126390 f i GuPersistentContactManifold.obj
 0001:00125410       ?getNumContacts@SinglePersistentContactManifold@Gu@physx@@QBEIXZ 10126410 f i GuPersistentContactManifold.obj
 0001:00125430       ?getWorldNormal@SinglePersistentContactManifold@Gu@physx@@QAE?AT__m128@@ABVPsTransformV@aos@shdfnd@3@@Z 10126430 f i GuPersistentContactManifold.obj
 0001:00125510       ?removeContactPoint@SinglePersistentContactManifold@Gu@physx@@QAEXI@Z 10126510 f i GuPersistentContactManifold.obj
 0001:00125570       ?computeOBBPoints@Gu@physx@@YAXPIAVPxVec3@2@ABV32@1111@Z 10126570 f   GuBox.obj
 0001:00125780       ?create@Box@Gu@physx@@QAEXABVCapsule@23@@Z 10126780 f   GuBox.obj
 0001:00125840       ?getBoxEdges@Gu@physx@@YAPBEXZ 10126840 f   GuBox.obj
 0001:00125b80       ?closestAxis@shdfnd@physx@@YAIABVPxVec3@2@@Z 10126b80 f i GuBox.obj
 0001:00125c80       ?CompleteBoxPruning@Gu@physx@@YA_NPBVPxBounds3@2@IAAV?$Array@IVNamedAllocator@shdfnd@physx@@@shdfnd@2@ABVAxes@12@@Z 10126c80 f   GuBoxPruning.obj
 0001:00125eb0       ?BipartiteBoxPruning@Gu@physx@@YA_NPBVPxBounds3@2@I0IAAV?$Array@IVNamedAllocator@shdfnd@physx@@@shdfnd@2@ABVAxes@12@@Z 10126eb0 f   GuBoxPruning.obj
 0001:00126410       ?GetNbHits@RadixSort@Gu@physx@@QBEIXZ 10127410 f i GuBoxPruning.obj
 0001:00126430       ?GetNbTotalCalls@RadixSort@Gu@physx@@QBEIXZ 10127430 f i GuBoxPruning.obj
 0001:00126450       ?GetRanks@RadixSort@Gu@physx@@QBEPBIXZ 10127450 f i GuBoxPruning.obj
 0001:00126470       ?GetRecyclable@RadixSort@Gu@physx@@QBEPAIXZ 10127470 f i GuBoxPruning.obj
 0001:00126490       ?allocate@?$Array@IVNamedAllocator@shdfnd@physx@@@shdfnd@physx@@IAEPAII@Z 10127490 f i GuBoxPruning.obj
 0001:00126510       ?capacity@?$Array@IVNamedAllocator@shdfnd@physx@@@shdfnd@physx@@QBEIXZ 10127510 f i GuBoxPruning.obj
 0001:00126530       ?capacityIncrement@?$Array@IVNamedAllocator@shdfnd@physx@@@shdfnd@physx@@IBEIXZ 10127530 f i GuBoxPruning.obj
 0001:00126570       ?clear@?$Array@IVNamedAllocator@shdfnd@physx@@@shdfnd@physx@@QAEXXZ 10127570 f i GuBoxPruning.obj
 0001:001265b0       ?copy@?$Array@IVNamedAllocator@shdfnd@physx@@@shdfnd@physx@@KAXPAI0PBI@Z 101275b0 f i GuBoxPruning.obj
 0001:00126610       ?deallocate@?$Array@IVNamedAllocator@shdfnd@physx@@@shdfnd@physx@@IAEXPAX@Z 10127610 f i GuBoxPruning.obj
 0001:00126630       ?destroy@?$Array@IVNamedAllocator@shdfnd@physx@@@shdfnd@physx@@KAXPAI0@Z 10127630 f i GuBoxPruning.obj
 0001:00126650       ?growAndPushBack@?$Array@IVNamedAllocator@shdfnd@physx@@@shdfnd@physx@@IAEAAIABI@Z 10127650 f i GuBoxPruning.obj
 0001:001267c0       ?intersects@PxBounds3@physx@@QBE_NABV12@@Z 101277c0 f i GuBoxPruning.obj
 0001:001268e0       ?isInUserMemory@?$Array@IVNamedAllocator@shdfnd@physx@@@shdfnd@physx@@QBEIXZ 101278e0 f i GuBoxPruning.obj
 0001:00126900       ?pushBack@?$Array@IVNamedAllocator@shdfnd@physx@@@shdfnd@physx@@QAEAAIABI@Z 10127900 f i GuBoxPruning.obj
 0001:001269a0       ?computeBoxAroundCapsule@Gu@physx@@YAXABVCapsule@12@AAVBox@12@@Z 101279a0 f   GuCapsule.obj
 0001:00126ac0       ?computeBasis@shdfnd@physx@@YAXABVPxVec3@2@0AAV32@11@Z 10127ac0 f i GuCapsule.obj
 0001:00126b20       ?computeBasis@shdfnd@physx@@YAXABVPxVec3@2@AAV32@1@Z 10127b20 f i GuCapsule.obj
 0001:00126c70       ?sweepCCTBoxTriangles@Gu@physx@@YA_NIPBVPxTriangle@2@_NABVPxBoxGeometry@2@ABVPxTransform@2@ABVPxVec3@2@MAAV62@5AAMAAIPBIMV?$PxFlags@W4Enum@PxHitFlag@physx@@G@2@@Z 10127c70 f   GuCCTSweepTests.obj
 0001:00126d40       ?sweepCCTCapsule_BoxGeom@@YA_NABVPxGeometry@physx@@ABVPxTransform@2@ABVCapsule@Gu@2@ABVPxVec3@2@MAAUPxSweepHit@2@V?$PxFlags@W4Enum@PxHitFlag@physx@@G@2@M@Z 10127d40 f   GuCCTSweepTests.obj
 0001:00127140       ?sweepCCTBox_SphereGeom@@YA_NABVPxGeometry@physx@@ABVPxTransform@2@ABVBox@Gu@2@ABVPxVec3@2@MAAUPxSweepHit@2@V?$PxFlags@W4Enum@PxHitFlag@physx@@G@2@M@Z 10128140 f   GuCCTSweepTests.obj
 0001:00127380       ?sweepCCTBox_CapsuleGeom@@YA_NABVPxGeometry@physx@@ABVPxTransform@2@ABVBox@Gu@2@ABVPxVec3@2@MAAUPxSweepHit@2@V?$PxFlags@W4Enum@PxHitFlag@physx@@G@2@M@Z 10128380 f   GuCCTSweepTests.obj
 0001:00127620       ?sweepCCTBox_BoxGeom@@YA_NABVPxGeometry@physx@@ABVPxTransform@2@ABVBox@Gu@2@ABVPxVec3@2@MAAUPxSweepHit@2@V?$PxFlags@W4Enum@PxHitFlag@physx@@G@2@M@Z 10128620 f   GuCCTSweepTests.obj
 0001:00127f70       ?sweepCCTBox_HeightFieldGeom@@YA_NABVPxGeometry@physx@@ABVPxTransform@2@ABVBox@Gu@2@ABVPxVec3@2@MAAUPxSweepHit@2@V?$PxFlags@W4Enum@PxHitFlag@physx@@G@2@M@Z 10128f70 f   GuCCTSweepTests.obj
 0001:001288d0       ??0Capsule@Gu@physx@@QAE@ABV012@@Z 101298d0 f i GuCCTSweepTests.obj
 0001:00128910       ??4?$PxFlags@W4Enum@PxHitFlag@physx@@G@physx@@QAEAAV01@W4Enum@PxHitFlag@1@@Z 10129910 f i GuCCTSweepTests.obj
 0001:00128930       ??I?$PxFlags@W4Enum@PxHitFlag@physx@@G@physx@@QBE?AV01@ABV01@@Z 10129930 f i GuCCTSweepTests.obj
 0001:00128980       ?distanceSegmentBoxSquared@Gu@physx@@YAMABVSegment@12@ABVBox@12@PAMPAVPxVec3@2@@Z 10129980 f i GuCCTSweepTests.obj
 0001:001289c0       ??0Container@Gu@physx@@QAE@XZ 101299c0 f   GuContainer.obj
 0001:00128a00       ??0Container@Gu@physx@@QAE@ABV012@@Z 10129a00 f   GuContainer.obj
 0001:00128a50       ??0Container@Gu@physx@@QAE@IM@Z 10129a50 f   GuContainer.obj
 0001:00128aa0       ??1Container@Gu@physx@@QAE@XZ 10129aa0 f   GuContainer.obj
 0001:00128ac0       ?Contains@Container@Gu@physx@@QBE_NIPAI@Z 10129ac0 f   GuContainer.obj
 0001:00128b20       ?Delete@Container@Gu@physx@@QAE_NI@Z 10129b20 f   GuContainer.obj
 0001:00128b80       ?DeleteKeepingOrder@Container@Gu@physx@@QAE_NI@Z 10129b80 f   GuContainer.obj
 0001:00128c10       ??4Container@Gu@physx@@QAEXABV012@@Z 10129c10 f   GuContainer.obj
 0001:00128d20       ?InitSharedBuffers@Container@Gu@physx@@QAEXIPAI_N@Z 10129d20 f   GuContainerMemoryMgmt.obj
 0001:00128dc0       ?Empty@Container@Gu@physx@@QAEAAV123@XZ 10129dc0 f   GuContainerMemoryMgmt.obj
 0001:00128e30       ?SetSize@Container@Gu@physx@@QAE_NI@Z 10129e30 f   GuContainerMemoryMgmt.obj
 0001:00128eb0       ?Refit@Container@Gu@physx@@QAE_NXZ 10129eb0 f   GuContainerMemoryMgmt.obj
 0001:00128fd0       ?Resize@Container@Gu@physx@@AAE_NI@Z 10129fd0 f   GuContainerMemoryMgmt.obj
 0001:001292a0       ?convertToPxMat44@Debug@Gu@physx@@SA?AVPxMat44@3@ABVMatrix34@Cm@3@@Z 1012a2a0 f   GuDebug.obj
 0001:001293e0       ?convertToPxMat44@Debug@Gu@physx@@SA?AVPxMat44@3@ABVPxTransform@3@@Z 1012a3e0 f   GuDebug.obj
 0001:00129410       ?visualize@Debug@Gu@physx@@SAXABVPxBoxGeometry@3@AAVRenderOutput@Cm@3@ABVMatrix34@63@ABVPxBounds3@3@_KMI@Z 1012a410 f   GuDebug.obj
 0001:001294e0       ?visualize@Debug@Gu@physx@@SAXABVPxSphereGeometry@3@AAVRenderOutput@Cm@3@ABVMatrix34@63@ABVPxBounds3@3@_KMI@Z 1012a4e0 f   GuDebug.obj
 0001:00129740       ?visualize@Debug@Gu@physx@@SAXABVPxPlaneGeometry@3@AAVRenderOutput@Cm@3@ABVMatrix34@63@ABVPxBounds3@3@_KMI@Z 1012a740 f   GuDebug.obj
 0001:00129860       ?visualize@Debug@Gu@physx@@SAXABVPxCapsuleGeometry@3@AAVRenderOutput@Cm@3@ABVMatrix34@63@ABVPxBounds3@3@_KMI@Z 1012a860 f   GuDebug.obj
 0001:001299b0       ?visualize@Debug@Gu@physx@@SAXABVPxConvexMeshGeometry@3@AAVRenderOutput@Cm@3@ABVMatrix34@63@ABVPxBounds3@3@_KMI@Z 1012a9b0 f   GuDebug.obj
 0001:001299f0       ?visualize@Debug@Gu@physx@@SAXABVPxTriangleMeshGeometry@3@AAVRenderOutput@Cm@3@ABVMatrix34@63@ABVPxBounds3@3@_KMI@Z 1012a9f0 f   GuDebug.obj
 0001:00129a40       ?visualize@Debug@Gu@physx@@SAXABVPxHeightFieldGeometry@3@AAVRenderOutput@Cm@3@ABVMatrix34@63@ABVPxBounds3@3@_KMI@Z 1012aa40 f   GuDebug.obj
 0001:0012a420       ??0DebugBox@Cm@physx@@QAE@ABVPxVec3@2@_N@Z 1012b420 f i GuDebug.obj
 0001:0012a470       ??0PxBoxGeometry@physx@@QAE@VPxVec3@1@@Z 1012b470 f i GuDebug.obj
 0001:0012a4b0       ??0PxTransform@physx@@QAE@ABVPxVec3@1@@Z 1012b4b0 f i GuDebug.obj
 0001:0012a500       ?sweep@PxGeometryQuery@physx@@SA_NABVPxVec3@2@MABVPxGeometry@2@ABVPxTransform@2@12AAUPxSweepHit@2@V?$PxFlags@W4Enum@PxHitFlag@physx@@G@2@M@Z 1012b500 f   GuGeometryQuery.obj
 0001:0012ab60       ?overlap@PxGeometryQuery@physx@@SA_NABVPxGeometry@2@ABVPxTransform@2@01@Z 1012bb60 f   GuGeometryQuery.obj
 0001:0012ad80       ?raycast@PxGeometryQuery@physx@@SAIABVPxVec3@2@0ABVPxGeometry@2@ABVPxTransform@2@MV?$PxFlags@W4Enum@PxHitFlag@physx@@G@2@IPIAUPxRaycastHit@2@_N@Z 1012bd80 f   GuGeometryQuery.obj
 0001:0012b080       ?computePenetration@PxGeometryQuery@physx@@SA_NAAVPxVec3@2@AAMABVPxGeometry@2@ABVPxTransform@2@23@Z 1012c080 f   GuGeometryQuery.obj
 0001:0012b2e0       ?pointDistance@PxGeometryQuery@physx@@SAMABVPxVec3@2@ABVPxGeometry@2@ABVPxTransform@2@PAV32@@Z 1012c2e0 f   GuGeometryQuery.obj
 0001:0012b740       ?getWorldBounds@PxGeometryQuery@physx@@SA?AVPxBounds3@2@ABVPxGeometry@2@ABVPxTransform@2@M@Z 1012c740 f   GuGeometryQuery.obj
 0001:0012bd70       ?distancePointBoxSquared@Gu@physx@@YAMABVPxVec3@2@ABVBox@12@PAV32@@Z 1012cd70 f i GuGeometryQuery.obj
 0001:0012bda0       ?set@GeometryUnion@Gu@physx@@QAEXABVPxGeometry@3@@Z 1012cda0 f   GuGeometryUnion.obj
 0001:0012c000       ??$checkType@UPxConvexMeshGeometryLL@physx@@@physx@@YAXABVGeometryUnion@Gu@0@@Z 1012d000 f i GuGeometryUnion.obj
 0001:0012c080       ??$checkType@UPxHeightFieldGeometryLL@physx@@@physx@@YAXABVGeometryUnion@Gu@0@@Z 1012d080 f i GuGeometryUnion.obj
 0001:0012c100       ??$checkType@UPxTriangleMeshGeometryLL@physx@@@physx@@YAXABVGeometryUnion@Gu@0@@Z 1012d100 f i GuGeometryUnion.obj
 0001:0012c180       ??$get@UPxConvexMeshGeometryLL@physx@@@GeometryUnion@Gu@physx@@QAEAAUPxConvexMeshGeometryLL@2@XZ 1012d180 f i GuGeometryUnion.obj
 0001:0012c1a0       ??$get@UPxHeightFieldGeometryLL@physx@@@GeometryUnion@Gu@physx@@QAEAAUPxHeightFieldGeometryLL@2@XZ 1012d1a0 f i GuGeometryUnion.obj
 0001:0012c1c0       ??$get@UPxTriangleMeshGeometryLL@physx@@@GeometryUnion@Gu@physx@@QAEAAUPxTriangleMeshGeometryLL@2@XZ 1012d1c0 f i GuGeometryUnion.obj
 0001:0012c1e0       ??4?$PxFlags@W4Enum@PxMeshGeometryFlag@physx@@E@physx@@QAEAAV01@ABV01@@Z 1012d1e0 f i GuGeometryUnion.obj
 0001:0012c200       ??4PxConvexMeshGeometry@physx@@QAEAAV01@ABV01@@Z 1012d200 f i GuGeometryUnion.obj
 0001:0012c250       ??4PxHeightFieldGeometry@physx@@QAEAAV01@ABV01@@Z 1012d250 f i GuGeometryUnion.obj
 0001:0012c2f0       ??4PxMeshScale@physx@@QAEAAV01@ABV01@@Z 1012d2f0 f i GuGeometryUnion.obj
 0001:0012c330       ??4PxTriangleMeshGeometry@physx@@QAEAAV01@ABV01@@Z 1012d330 f i GuGeometryUnion.obj
 0001:0012c3b0       ?getConvexMesh@Gu@physx@@YAAAVConvexMesh@12@PAVPxConvexMesh@2@@Z 1012d3b0 f i GuGeometryUnion.obj
 0001:0012c3d0       ?getHeightField@Gu@physx@@YAAAVHeightField@12@PAVPxHeightField@2@@Z 1012d3d0 f i GuGeometryUnion.obj
 0001:0012c3f0       ?getTriangleMesh@Gu@physx@@YAAAVTriangleMesh@12@PAVPxTriangleMesh@2@@Z 1012d3f0 f i GuGeometryUnion.obj
 0001:0012c460       ?computeBoxPoints@Gu@physx@@YAXABVPxBounds3@2@PIAVPxVec3@2@@Z 1012d460 f   GuGeomUtilsInternal.obj
 0001:0012c6d0       ?computeBoundsAroundVertices@Gu@physx@@YAXAAVPxBounds3@2@IPIBVPxVec3@2@@Z 1012d6d0 f   GuGeomUtilsInternal.obj
 0001:0012c720       ?getPlane@Gu@physx@@YA?AVPxPlane@2@ABVPxTransform@2@@Z 1012d720 f   GuGeomUtilsInternal.obj
 0001:0012c780       ?getCapsuleTransform@Gu@physx@@YA?AVPxTransform@2@ABVCapsule@12@AAM@Z 1012d780 f   GuGeomUtilsInternal.obj
 0001:0012c890       ?computeSweptBox@Gu@physx@@YAXAAVBox@12@ABVPxVec3@2@1ABVPxMat33@2@1M@Z 1012d890 f   GuGeomUtilsInternal.obj
 0001:0012ce60       ??0PxTransform@physx@@QAE@$$QAV01@@Z 1012de60 f i GuGeomUtilsInternal.obj
 0001:0012ceb0       ?getOrigin@Segment@Gu@physx@@QBEABVPxVec3@3@XZ 1012deb0 f i GuGeomUtilsInternal.obj
 0001:0012ced0       ?include@PxBounds3@physx@@QAEXABVPxVec3@2@@Z 1012ded0 f i GuGeomUtilsInternal.obj
 0001:0012cf90       ?maximum@PxVec3@physx@@QBE?AV12@ABV12@@Z 1012df90 f i GuGeomUtilsInternal.obj
 0001:0012d070       ?minimum@PxVec3@physx@@QBE?AV12@ABV12@@Z 1012e070 f i GuGeomUtilsInternal.obj
 0001:0012d150       ??1GuMeshFactory@physx@@MAE@XZ 1012e150 f   GuMeshFactory.obj
 0001:0012d1a0       ?release@GuMeshFactory@physx@@QAEXXZ 1012e1a0 f   GuMeshFactory.obj
 0001:0012d350       ?addTriangleMesh@GuMeshFactory@physx@@QAEXPAVTriangleMesh@Gu@2@_N@Z 1012e350 f   GuMeshFactory.obj
 0001:0012d390       ?createTriangleMesh@GuMeshFactory@physx@@QAEPAVPxTriangleMesh@2@AAVPxInputStream@2@@Z 1012e390 f   GuMeshFactory.obj
 0001:0012d460       ?removeTriangleMesh@GuMeshFactory@physx@@QAE_NAAVPxTriangleMesh@2@@Z 1012e460 f   GuMeshFactory.obj
 0001:0012d4b0       ?getNbTriangleMeshes@GuMeshFactory@physx@@QBEIXZ 1012e4b0 f   GuMeshFactory.obj
 0001:0012d4f0       ?getTriangleMeshes@GuMeshFactory@physx@@QBEIPAPAVPxTriangleMesh@2@II@Z 1012e4f0 f   GuMeshFactory.obj
 0001:0012d5a0       ?addConvexMesh@GuMeshFactory@physx@@QAEXPAVConvexMesh@Gu@2@_N@Z 1012e5a0 f   GuMeshFactory.obj
 0001:0012d5e0       ?createConvexMesh@GuMeshFactory@physx@@QAEPAVPxConvexMesh@2@AAVPxInputStream@2@@Z 1012e5e0 f   GuMeshFactory.obj
 0001:0012d6b0       ?removeConvexMesh@GuMeshFactory@physx@@QAE_NAAVPxConvexMesh@2@@Z 1012e6b0 f   GuMeshFactory.obj
 0001:0012d700       ?getNbConvexMeshes@GuMeshFactory@physx@@QBEIXZ 1012e700 f   GuMeshFactory.obj
 0001:0012d740       ?getConvexMeshes@GuMeshFactory@physx@@QBEIPAPAVPxConvexMesh@2@II@Z 1012e740 f   GuMeshFactory.obj
 0001:0012d7f0       ?addHeightField@GuMeshFactory@physx@@QAEXPAVHeightField@Gu@2@_N@Z 1012e7f0 f   GuMeshFactory.obj
 0001:0012d830       ?createHeightField@GuMeshFactory@physx@@QAEPAVPxHeightField@2@ABVPxHeightFieldDesc@2@@Z 1012e830 f   GuMeshFactory.obj
 0001:0012d8f0       ?createHeightField@GuMeshFactory@physx@@QAEPAVPxHeightField@2@AAVPxInputStream@2@@Z 1012e8f0 f   GuMeshFactory.obj
 0001:0012d9b0       ?removeHeightField@GuMeshFactory@physx@@QAE_NAAVPxHeightField@2@@Z 1012e9b0 f   GuMeshFactory.obj
 0001:0012da00       ?getNbHeightFields@GuMeshFactory@physx@@QBEIXZ 1012ea00 f   GuMeshFactory.obj
 0001:0012da40       ?getHeightFields@GuMeshFactory@physx@@QBEIPAPAVPxHeightField@2@II@Z 1012ea40 f   GuMeshFactory.obj
 0001:0012daf0       ?addFactoryListener@GuMeshFactory@physx@@QAEXAAVGuMeshFactoryListener@2@@Z 1012eaf0 f   GuMeshFactory.obj
 0001:0012db40       ?removeFactoryListener@GuMeshFactory@physx@@QAEXAAVGuMeshFactoryListener@2@@Z 1012eb40 f   GuMeshFactory.obj
 0001:0012dbd0       ?notifyFactoryListener@GuMeshFactory@physx@@QAEXPBVPxBase@2@G_N@Z 1012ebd0 f   GuMeshFactory.obj
 0001:0012e020       ??0?$ReflectionAllocator@VConvexMesh@Gu@physx@@@shdfnd@physx@@QAE@PBD@Z 1012f020 f i GuMeshFactory.obj
 0001:0012e040       ??0?$ReflectionAllocator@VHeightField@Gu@physx@@@shdfnd@physx@@QAE@PBD@Z 1012f040 f i GuMeshFactory.obj
 0001:0012e060       ??0?$ReflectionAllocator@VTriangleMesh@Gu@physx@@@shdfnd@physx@@QAE@PBD@Z 1012f060 f i GuMeshFactory.obj
 0001:0012e080       ??1?$Array@PAVGuMeshFactoryListener@physx@@VNamedAllocator@shdfnd@2@@shdfnd@physx@@QAE@XZ 1012f080 f i GuMeshFactory.obj
 0001:0012e0f0       ??1?$CoalescedHashSet@PAVConvexMesh@Gu@physx@@U?$Hash@PAVConvexMesh@Gu@physx@@@shdfnd@3@VAllocator@53@@shdfnd@physx@@QAE@XZ 1012f0f0 f i GuMeshFactory.obj
 0001:0012e110       ??1?$CoalescedHashSet@PAVHeightField@Gu@physx@@U?$Hash@PAVHeightField@Gu@physx@@@shdfnd@3@VAllocator@53@@shdfnd@physx@@QAE@XZ 1012f110 f i GuMeshFactory.obj
 0001:0012e130       ??1?$CoalescedHashSet@PAVTriangleMesh@Gu@physx@@U?$Hash@PAVTriangleMesh@Gu@physx@@@shdfnd@3@VAllocator@53@@shdfnd@physx@@QAE@XZ 1012f130 f i GuMeshFactory.obj
 0001:0012e150       ??1?$HashBase@PAVConvexMesh@Gu@physx@@PAV123@U?$Hash@PAVConvexMesh@Gu@physx@@@shdfnd@3@UGetKey@?$HashSetBase@PAVConvexMesh@Gu@physx@@U?$Hash@PAVConvexMesh@Gu@physx@@@shdfnd@3@VAllocator@53@$00@internal@53@VAllocator@53@$00@internal@shdfnd@physx@@QAE@XZ 1012f150 f i GuMeshFactory.obj
 0001:0012e190       ??1?$HashBase@PAVHeightField@Gu@physx@@PAV123@U?$Hash@PAVHeightField@Gu@physx@@@shdfnd@3@UGetKey@?$HashSetBase@PAVHeightField@Gu@physx@@U?$Hash@PAVHeightField@Gu@physx@@@shdfnd@3@VAllocator@53@$00@internal@53@VAllocator@53@$00@internal@shdfnd@physx@@QAE@XZ 1012f190 f i GuMeshFactory.obj
 0001:0012e1d0       ??1?$HashBase@PAVTriangleMesh@Gu@physx@@PAV123@U?$Hash@PAVTriangleMesh@Gu@physx@@@shdfnd@3@UGetKey@?$HashSetBase@PAVTriangleMesh@Gu@physx@@U?$Hash@PAVTriangleMesh@Gu@physx@@@shdfnd@3@VAllocator@53@$00@internal@53@VAllocator@53@$00@internal@shdfnd@physx@@QAE@XZ 1012f1d0 f i GuMeshFactory.obj
 0001:0012e210       ??1?$HashSetBase@PAVConvexMesh@Gu@physx@@U?$Hash@PAVConvexMesh@Gu@physx@@@shdfnd@3@VAllocator@53@$00@internal@shdfnd@physx@@QAE@XZ 1012f210 f i GuMeshFactory.obj
 0001:0012e230       ??1?$HashSetBase@PAVHeightField@Gu@physx@@U?$Hash@PAVHeightField@Gu@physx@@@shdfnd@3@VAllocator@53@$00@internal@shdfnd@physx@@QAE@XZ 1012f230 f i GuMeshFactory.obj
 0001:0012e250       ??1?$HashSetBase@PAVTriangleMesh@Gu@physx@@U?$Hash@PAVTriangleMesh@Gu@physx@@@shdfnd@3@VAllocator@53@$00@internal@shdfnd@physx@@QAE@XZ 1012f250 f i GuMeshFactory.obj
 0001:0012e270       ??A?$Array@PAVGuMeshFactoryListener@physx@@VNamedAllocator@shdfnd@2@@shdfnd@physx@@QAEAAPAVGuMeshFactoryListener@2@I@Z 1012f270 f i GuMeshFactory.obj
 0001:0012e2f0       ??R?$Hash@PAVConvexMesh@Gu@physx@@@shdfnd@physx@@QBE_NABQAVConvexMesh@Gu@2@0@Z 1012f2f0 f i GuMeshFactory.obj
 0001:0012e330       ??R?$Hash@PAVHeightField@Gu@physx@@@shdfnd@physx@@QBE_NABQAVHeightField@Gu@2@0@Z 1012f330 f i GuMeshFactory.obj
 0001:0012e370       ??R?$Hash@PAVTriangleMesh@Gu@physx@@@shdfnd@physx@@QBE_NABQAVTriangleMesh@Gu@2@0@Z 1012f370 f i GuMeshFactory.obj
 0001:0012e3b0       ?allocate@?$Array@PAVGuMeshFactoryListener@physx@@VNamedAllocator@shdfnd@2@@shdfnd@physx@@IAEPAPAVGuMeshFactoryListener@3@I@Z 1012f3b0 f i GuMeshFactory.obj
 0001:0012e430       ?allocate@?$ReflectionAllocator@VConvexMesh@Gu@physx@@@shdfnd@physx@@QAEPAXIPBDH@Z 1012f430 f i GuMeshFactory.obj
 0001:0012e4a0       ?allocate@?$ReflectionAllocator@VHeightField@Gu@physx@@@shdfnd@physx@@QAEPAXIPBDH@Z 1012f4a0 f i GuMeshFactory.obj
 0001:0012e510       ?allocate@?$ReflectionAllocator@VTriangleMesh@Gu@physx@@@shdfnd@physx@@QAEPAXIPBDH@Z 1012f510 f i GuMeshFactory.obj
 0001:0012e580       ?capacity@?$Array@PAVGuMeshFactoryListener@physx@@VNamedAllocator@shdfnd@2@@shdfnd@physx@@QBEIXZ 1012f580 f i GuMeshFactory.obj
 0001:0012e5a0       ?capacityIncrement@?$Array@PAVGuMeshFactoryListener@physx@@VNamedAllocator@shdfnd@2@@shdfnd@physx@@IBEIXZ 1012f5a0 f i GuMeshFactory.obj
 0001:0012e5e0       ?copy@?$Array@PAVGuMeshFactoryListener@physx@@VNamedAllocator@shdfnd@2@@shdfnd@physx@@KAXPAPAVGuMeshFactoryListener@3@0PBQAV43@@Z 1012f5e0 f i GuMeshFactory.obj
 0001:0012e640       ?create@?$HashBase@PAVConvexMesh@Gu@physx@@PAV123@U?$Hash@PAVConvexMesh@Gu@physx@@@shdfnd@3@UGetKey@?$HashSetBase@PAVConvexMesh@Gu@physx@@U?$Hash@PAVConvexMesh@Gu@physx@@@shdfnd@3@VAllocator@53@$00@internal@53@VAllocator@53@$00@internal@shdfnd@physx@@QAEPAPAVConvexMesh@Gu@4@ABQAV564@AA_N@Z 1012f640 f i GuMeshFactory.obj
 0001:0012e7e0       ?create@?$HashBase@PAVHeightField@Gu@physx@@PAV123@U?$Hash@PAVHeightField@Gu@physx@@@shdfnd@3@UGetKey@?$HashSetBase@PAVHeightField@Gu@physx@@U?$Hash@PAVHeightField@Gu@physx@@@shdfnd@3@VAllocator@53@$00@internal@53@VAllocator@53@$00@internal@shdfnd@physx@@QAEPAPAVHeightField@Gu@4@ABQAV564@AA_N@Z 1012f7e0 f i GuMeshFactory.obj
 0001:0012e980       ?create@?$HashBase@PAVTriangleMesh@Gu@physx@@PAV123@U?$Hash@PAVTriangleMesh@Gu@physx@@@shdfnd@3@UGetKey@?$HashSetBase@PAVTriangleMesh@Gu@physx@@U?$Hash@PAVTriangleMesh@Gu@physx@@@shdfnd@3@VAllocator@53@$00@internal@53@VAllocator@53@$00@internal@shdfnd@physx@@QAEPAPAVTriangleMesh@Gu@4@ABQAV564@AA_N@Z 1012f980 f i GuMeshFactory.obj
 0001:0012eb20       ?deallocate@?$Array@PAVGuMeshFactoryListener@physx@@VNamedAllocator@shdfnd@2@@shdfnd@physx@@IAEXPAX@Z 1012fb20 f i GuMeshFactory.obj
 0001:0012eb40       ?destroy@?$Array@PAVGuMeshFactoryListener@physx@@VNamedAllocator@shdfnd@2@@shdfnd@physx@@KAXPAPAVGuMeshFactoryListener@3@0@Z 1012fb40 f i GuMeshFactory.obj
 0001:0012eb60       ?destroy@?$HashBase@PAVConvexMesh@Gu@physx@@PAV123@U?$Hash@PAVConvexMesh@Gu@physx@@@shdfnd@3@UGetKey@?$HashSetBase@PAVConvexMesh@Gu@physx@@U?$Hash@PAVConvexMesh@Gu@physx@@@shdfnd@3@VAllocator@53@$00@internal@53@VAllocator@53@$00@internal@shdfnd@physx@@AAEXXZ 1012fb60 f i GuMeshFactory.obj
 0001:0012ebd0       ?destroy@?$HashBase@PAVHeightField@Gu@physx@@PAV123@U?$Hash@PAVHeightField@Gu@physx@@@shdfnd@3@UGetKey@?$HashSetBase@PAVHeightField@Gu@physx@@U?$Hash@PAVHeightField@Gu@physx@@@shdfnd@3@VAllocator@53@$00@internal@53@VAllocator@53@$00@internal@shdfnd@physx@@AAEXXZ 1012fbd0 f i GuMeshFactory.obj
 0001:0012ec40       ?destroy@?$HashBase@PAVTriangleMesh@Gu@physx@@PAV123@U?$Hash@PAVTriangleMesh@Gu@physx@@@shdfnd@3@UGetKey@?$HashSetBase@PAVTriangleMesh@Gu@physx@@U?$Hash@PAVTriangleMesh@Gu@physx@@@shdfnd@3@VAllocator@53@$00@internal@53@VAllocator@53@$00@internal@shdfnd@physx@@AAEXXZ 1012fc40 f i GuMeshFactory.obj
 0001:0012ecb0       ?erase@?$HashBase@PAVConvexMesh@Gu@physx@@PAV123@U?$Hash@PAVConvexMesh@Gu@physx@@@shdfnd@3@UGetKey@?$HashSetBase@PAVConvexMesh@Gu@physx@@U?$Hash@PAVConvexMesh@Gu@physx@@@shdfnd@3@VAllocator@53@$00@internal@53@VAllocator@53@$00@internal@shdfnd@physx@@QAE_NABQAVConvexMesh@Gu@4@@Z 1012fcb0 f i GuMeshFactory.obj
 0001:0012edf0       ?erase@?$HashBase@PAVHeightField@Gu@physx@@PAV123@U?$Hash@PAVHeightField@Gu@physx@@@shdfnd@3@UGetKey@?$HashSetBase@PAVHeightField@Gu@physx@@U?$Hash@PAVHeightField@Gu@physx@@@shdfnd@3@VAllocator@53@$00@internal@53@VAllocator@53@$00@internal@shdfnd@physx@@QAE_NABQAVHeightField@Gu@4@@Z 1012fdf0 f i GuMeshFactory.obj
 0001:0012ef30       ?erase@?$HashBase@PAVTriangleMesh@Gu@physx@@PAV123@U?$Hash@PAVTriangleMesh@Gu@physx@@@shdfnd@3@UGetKey@?$HashSetBase@PAVTriangleMesh@Gu@physx@@U?$Hash@PAVTriangleMesh@Gu@physx@@@shdfnd@3@VAllocator@53@$00@internal@53@VAllocator@53@$00@internal@shdfnd@physx@@QAE_NABQAVTriangleMesh@Gu@4@@Z 1012ff30 f i GuMeshFactory.obj
 0001:0012f070       ?erase@?$HashSetBase@PAVConvexMesh@Gu@physx@@U?$Hash@PAVConvexMesh@Gu@physx@@@shdfnd@3@VAllocator@53@$00@internal@shdfnd@physx@@QAE_NABQAVConvexMesh@Gu@4@@Z 10130070 f i GuMeshFactory.obj
 0001:0012f0a0       ?erase@?$HashSetBase@PAVHeightField@Gu@physx@@U?$Hash@PAVHeightField@Gu@physx@@@shdfnd@3@VAllocator@53@$00@internal@shdfnd@physx@@QAE_NABQAVHeightField@Gu@4@@Z 101300a0 f i GuMeshFactory.obj
 0001:0012f0d0       ?erase@?$HashSetBase@PAVTriangleMesh@Gu@physx@@U?$Hash@PAVTriangleMesh@Gu@physx@@@shdfnd@3@VAllocator@53@$00@internal@shdfnd@physx@@QAE_NABQAVTriangleMesh@Gu@4@@Z 101300d0 f i GuMeshFactory.obj
 0001:0012f100       ?freeListAdd@?$HashBase@PAVConvexMesh@Gu@physx@@PAV123@U?$Hash@PAVConvexMesh@Gu@physx@@@shdfnd@3@UGetKey@?$HashSetBase@PAVConvexMesh@Gu@physx@@U?$Hash@PAVConvexMesh@Gu@physx@@@shdfnd@3@VAllocator@53@$00@internal@53@VAllocator@53@$00@internal@shdfnd@physx@@AAEXI@Z 10130100 f i GuMeshFactory.obj
 0001:0012f1b0       ?freeListAdd@?$HashBase@PAVHeightField@Gu@physx@@PAV123@U?$Hash@PAVHeightField@Gu@physx@@@shdfnd@3@UGetKey@?$HashSetBase@PAVHeightField@Gu@physx@@U?$Hash@PAVHeightField@Gu@physx@@@shdfnd@3@VAllocator@53@$00@internal@53@VAllocator@53@$00@internal@shdfnd@physx@@AAEXI@Z 101301b0 f i GuMeshFactory.obj
 0001:0012f260       ?freeListAdd@?$HashBase@PAVTriangleMesh@Gu@physx@@PAV123@U?$Hash@PAVTriangleMesh@Gu@physx@@@shdfnd@3@UGetKey@?$HashSetBase@PAVTriangleMesh@Gu@physx@@U?$Hash@PAVTriangleMesh@Gu@physx@@@shdfnd@3@VAllocator@53@$00@internal@53@VAllocator@53@$00@internal@shdfnd@physx@@AAEXI@Z 10130260 f i GuMeshFactory.obj
 0001:0012f310       ?freeListEmpty@?$HashBase@PAVConvexMesh@Gu@physx@@PAV123@U?$Hash@PAVConvexMesh@Gu@physx@@@shdfnd@3@UGetKey@?$HashSetBase@PAVConvexMesh@Gu@physx@@U?$Hash@PAVConvexMesh@Gu@physx@@@shdfnd@3@VAllocator@53@$00@internal@53@VAllocator@53@$00@internal@shdfnd@physx@@ABE_NXZ 10130310 f i GuMeshFactory.obj
 0001:0012f380       ?freeListEmpty@?$HashBase@PAVHeightField@Gu@physx@@PAV123@U?$Hash@PAVHeightField@Gu@physx@@@shdfnd@3@UGetKey@?$HashSetBase@PAVHeightField@Gu@physx@@U?$Hash@PAVHeightField@Gu@physx@@@shdfnd@3@VAllocator@53@$00@internal@53@VAllocator@53@$00@internal@shdfnd@physx@@ABE_NXZ 10130380 f i GuMeshFactory.obj
 0001:0012f3f0       ?freeListEmpty@?$HashBase@PAVTriangleMesh@Gu@physx@@PAV123@U?$Hash@PAVTriangleMesh@Gu@physx@@@shdfnd@3@UGetKey@?$HashSetBase@PAVTriangleMesh@Gu@physx@@U?$Hash@PAVTriangleMesh@Gu@physx@@@shdfnd@3@VAllocator@53@$00@internal@53@VAllocator@53@$00@internal@shdfnd@physx@@ABE_NXZ 101303f0 f i GuMeshFactory.obj
 0001:0012f460       ?freeListGetNext@?$HashBase@PAVConvexMesh@Gu@physx@@PAV123@U?$Hash@PAVConvexMesh@Gu@physx@@@shdfnd@3@UGetKey@?$HashSetBase@PAVConvexMesh@Gu@physx@@U?$Hash@PAVConvexMesh@Gu@physx@@@shdfnd@3@VAllocator@53@$00@internal@53@VAllocator@53@$00@internal@shdfnd@physx@@AAEIXZ 10130460 f i GuMeshFactory.obj
 0001:0012f580       ?freeListGetNext@?$HashBase@PAVHeightField@Gu@physx@@PAV123@U?$Hash@PAVHeightField@Gu@physx@@@shdfnd@3@UGetKey@?$HashSetBase@PAVHeightField@Gu@physx@@U?$Hash@PAVHeightField@Gu@physx@@@shdfnd@3@VAllocator@53@$00@internal@53@VAllocator@53@$00@internal@shdfnd@physx@@AAEIXZ 10130580 f i GuMeshFactory.obj
 0001:0012f6a0       ?freeListGetNext@?$HashBase@PAVTriangleMesh@Gu@physx@@PAV123@U?$Hash@PAVTriangleMesh@Gu@physx@@@shdfnd@3@UGetKey@?$HashSetBase@PAVTriangleMesh@Gu@physx@@U?$Hash@PAVTriangleMesh@Gu@physx@@@shdfnd@3@VAllocator@53@$00@internal@53@VAllocator@53@$00@internal@shdfnd@physx@@AAEIXZ 101306a0 f i GuMeshFactory.obj
 0001:0012f7c0       ?getEntries@?$CoalescedHashSet@PAVConvexMesh@Gu@physx@@U?$Hash@PAVConvexMesh@Gu@physx@@@shdfnd@3@VAllocator@53@@shdfnd@physx@@QBEPBQAVConvexMesh@Gu@3@XZ 101307c0 f i GuMeshFactory.obj
 0001:0012f7e0       ?getEntries@?$CoalescedHashSet@PAVHeightField@Gu@physx@@U?$Hash@PAVHeightField@Gu@physx@@@shdfnd@3@VAllocator@53@@shdfnd@physx@@QBEPBQAVHeightField@Gu@3@XZ 101307e0 f i GuMeshFactory.obj
 0001:0012f800       ?getEntries@?$CoalescedHashSet@PAVTriangleMesh@Gu@physx@@U?$Hash@PAVTriangleMesh@Gu@physx@@@shdfnd@3@VAllocator@53@@shdfnd@physx@@QBEPBQAVTriangleMesh@Gu@3@XZ 10130800 f i GuMeshFactory.obj
 0001:0012f820       ?getEntries@?$HashBase@PAVConvexMesh@Gu@physx@@PAV123@U?$Hash@PAVConvexMesh@Gu@physx@@@shdfnd@3@UGetKey@?$HashSetBase@PAVConvexMesh@Gu@physx@@U?$Hash@PAVConvexMesh@Gu@physx@@@shdfnd@3@VAllocator@53@$00@internal@53@VAllocator@53@$00@internal@shdfnd@physx@@QBEPBQAVConvexMesh@Gu@4@XZ 10130820 f i GuMeshFactory.obj
 0001:0012f840       ?getEntries@?$HashBase@PAVHeightField@Gu@physx@@PAV123@U?$Hash@PAVHeightField@Gu@physx@@@shdfnd@3@UGetKey@?$HashSetBase@PAVHeightField@Gu@physx@@U?$Hash@PAVHeightField@Gu@physx@@@shdfnd@3@VAllocator@53@$00@internal@53@VAllocator@53@$00@internal@shdfnd@physx@@QBEPBQAVHeightField@Gu@4@XZ 10130840 f i GuMeshFactory.obj
 0001:0012f860       ?getEntries@?$HashBase@PAVTriangleMesh@Gu@physx@@PAV123@U?$Hash@PAVTriangleMesh@Gu@physx@@@shdfnd@3@UGetKey@?$HashSetBase@PAVTriangleMesh@Gu@physx@@U?$Hash@PAVTriangleMesh@Gu@physx@@@shdfnd@3@VAllocator@53@$00@internal@53@VAllocator@53@$00@internal@shdfnd@physx@@QBEPBQAVTriangleMesh@Gu@4@XZ 10130860 f i GuMeshFactory.obj
 0001:0012f880       ?getName@?$ReflectionAllocator@VConvexMesh@Gu@physx@@@shdfnd@physx@@CAPBDXZ 10130880 f i GuMeshFactory.obj
 0001:0012f8d0       ?getName@?$ReflectionAllocator@VHeightField@Gu@physx@@@shdfnd@physx@@CAPBDXZ 101308d0 f i GuMeshFactory.obj
 0001:0012f920       ?getName@?$ReflectionAllocator@VTriangleMesh@Gu@physx@@@shdfnd@physx@@CAPBDXZ 10130920 f i GuMeshFactory.obj
 0001:0012f970       ?grow@?$HashBase@PAVConvexMesh@Gu@physx@@PAV123@U?$Hash@PAVConvexMesh@Gu@physx@@@shdfnd@3@UGetKey@?$HashSetBase@PAVConvexMesh@Gu@physx@@U?$Hash@PAVConvexMesh@Gu@physx@@@shdfnd@3@VAllocator@53@$00@internal@53@VAllocator@53@$00@internal@shdfnd@physx@@AAEXXZ 10130970 f i GuMeshFactory.obj
 0001:0012fa30       ?grow@?$HashBase@PAVHeightField@Gu@physx@@PAV123@U?$Hash@PAVHeightField@Gu@physx@@@shdfnd@3@UGetKey@?$HashSetBase@PAVHeightField@Gu@physx@@U?$Hash@PAVHeightField@Gu@physx@@@shdfnd@3@VAllocator@53@$00@internal@53@VAllocator@53@$00@internal@shdfnd@physx@@AAEXXZ 10130a30 f i GuMeshFactory.obj
 0001:0012faf0       ?grow@?$HashBase@PAVTriangleMesh@Gu@physx@@PAV123@U?$Hash@PAVTriangleMesh@Gu@physx@@@shdfnd@3@UGetKey@?$HashSetBase@PAVTriangleMesh@Gu@physx@@U?$Hash@PAVTriangleMesh@Gu@physx@@@shdfnd@3@VAllocator@53@$00@internal@53@VAllocator@53@$00@internal@shdfnd@physx@@AAEXXZ 10130af0 f i GuMeshFactory.obj
 0001:0012fbb0       ?growAndPushBack@?$Array@PAVGuMeshFactoryListener@physx@@VNamedAllocator@shdfnd@2@@shdfnd@physx@@IAEAAPAVGuMeshFactoryListener@3@ABQAV43@@Z 10130bb0 f i GuMeshFactory.obj
 0001:0012fd20       ?hash@?$HashBase@PAVConvexMesh@Gu@physx@@PAV123@U?$Hash@PAVConvexMesh@Gu@physx@@@shdfnd@3@UGetKey@?$HashSetBase@PAVConvexMesh@Gu@physx@@U?$Hash@PAVConvexMesh@Gu@physx@@@shdfnd@3@VAllocator@53@$00@internal@53@VAllocator@53@$00@internal@shdfnd@physx@@ABEIABQAVConvexMesh@Gu@4@@Z 10130d20 f i GuMeshFactory.obj
 0001:0012fd50       ?hash@?$HashBase@PAVHeightField@Gu@physx@@PAV123@U?$Hash@PAVHeightField@Gu@physx@@@shdfnd@3@UGetKey@?$HashSetBase@PAVHeightField@Gu@physx@@U?$Hash@PAVHeightField@Gu@physx@@@shdfnd@3@VAllocator@53@$00@internal@53@VAllocator@53@$00@internal@shdfnd@physx@@ABEIABQAVHeightField@Gu@4@@Z 10130d50 f i GuMeshFactory.obj
 0001:0012fd80       ?hash@?$HashBase@PAVTriangleMesh@Gu@physx@@PAV123@U?$Hash@PAVTriangleMesh@Gu@physx@@@shdfnd@3@UGetKey@?$HashSetBase@PAVTriangleMesh@Gu@physx@@U?$Hash@PAVTriangleMesh@Gu@physx@@@shdfnd@3@VAllocator@53@$00@internal@53@VAllocator@53@$00@internal@shdfnd@physx@@ABEIABQAVTriangleMesh@Gu@4@@Z 10130d80 f i GuMeshFactory.obj
 0001:0012fdb0       ?insert@?$HashSetBase@PAVConvexMesh@Gu@physx@@U?$Hash@PAVConvexMesh@Gu@physx@@@shdfnd@3@VAllocator@53@$00@internal@shdfnd@physx@@QAE_NABQAVConvexMesh@Gu@4@@Z 10130db0 f i GuMeshFactory.obj
 0001:0012fe30       ?insert@?$HashSetBase@PAVHeightField@Gu@physx@@U?$Hash@PAVHeightField@Gu@physx@@@shdfnd@3@VAllocator@53@$00@internal@shdfnd@physx@@QAE_NABQAVHeightField@Gu@4@@Z 10130e30 f i GuMeshFactory.obj
 0001:0012feb0       ?insert@?$HashSetBase@PAVTriangleMesh@Gu@physx@@U?$Hash@PAVTriangleMesh@Gu@physx@@@shdfnd@3@VAllocator@53@$00@internal@shdfnd@physx@@QAE_NABQAVTriangleMesh@Gu@4@@Z 10130eb0 f i GuMeshFactory.obj
 0001:0012ff30       ?isInUserMemory@?$Array@PAVGuMeshFactoryListener@physx@@VNamedAllocator@shdfnd@2@@shdfnd@physx@@QBEIXZ 10130f30 f i GuMeshFactory.obj
 0001:0012ff50       ?pushBack@?$Array@PAVGuMeshFactoryListener@physx@@VNamedAllocator@shdfnd@2@@shdfnd@physx@@QAEAAPAVGuMeshFactoryListener@3@ABQAV43@@Z 10130f50 f i GuMeshFactory.obj
 0001:0012fff0       ?replaceWithLast@?$Array@PAVGuMeshFactoryListener@physx@@VNamedAllocator@shdfnd@2@@shdfnd@physx@@QAEXI@Z 10130ff0 f i GuMeshFactory.obj
 0001:001300b0       ?replaceWithLast@?$HashBase@PAVConvexMesh@Gu@physx@@PAV123@U?$Hash@PAVConvexMesh@Gu@physx@@@shdfnd@3@UGetKey@?$HashSetBase@PAVConvexMesh@Gu@physx@@U?$Hash@PAVConvexMesh@Gu@physx@@@shdfnd@3@VAllocator@53@$00@internal@53@VAllocator@53@$00@internal@shdfnd@physx@@AAEXI@Z 101310b0 f i GuMeshFactory.obj
 0001:001301f0       ?replaceWithLast@?$HashBase@PAVHeightField@Gu@physx@@PAV123@U?$Hash@PAVHeightField@Gu@physx@@@shdfnd@3@UGetKey@?$HashSetBase@PAVHeightField@Gu@physx@@U?$Hash@PAVHeightField@Gu@physx@@@shdfnd@3@VAllocator@53@$00@internal@53@VAllocator@53@$00@internal@shdfnd@physx@@AAEXI@Z 101311f0 f i GuMeshFactory.obj
 0001:00130330       ?replaceWithLast@?$HashBase@PAVTriangleMesh@Gu@physx@@PAV123@U?$Hash@PAVTriangleMesh@Gu@physx@@@shdfnd@3@UGetKey@?$HashSetBase@PAVTriangleMesh@Gu@physx@@U?$Hash@PAVTriangleMesh@Gu@physx@@@shdfnd@3@VAllocator@53@$00@internal@53@VAllocator@53@$00@internal@shdfnd@physx@@AAEXI@Z 10131330 f i GuMeshFactory.obj
 0001:00130470       ?reserve@?$HashBase@PAVConvexMesh@Gu@physx@@PAV123@U?$Hash@PAVConvexMesh@Gu@physx@@@shdfnd@3@UGetKey@?$HashSetBase@PAVConvexMesh@Gu@physx@@U?$Hash@PAVConvexMesh@Gu@physx@@@shdfnd@3@VAllocator@53@$00@internal@53@VAllocator@53@$00@internal@shdfnd@physx@@QAEXI@Z 10131470 f i GuMeshFactory.obj
 0001:001304a0       ?reserve@?$HashBase@PAVHeightField@Gu@physx@@PAV123@U?$Hash@PAVHeightField@Gu@physx@@@shdfnd@3@UGetKey@?$HashSetBase@PAVHeightField@Gu@physx@@U?$Hash@PAVHeightField@Gu@physx@@@shdfnd@3@VAllocator@53@$00@internal@53@VAllocator@53@$00@internal@shdfnd@physx@@QAEXI@Z 101314a0 f i GuMeshFactory.obj
 0001:001304d0       ?reserve@?$HashBase@PAVTriangleMesh@Gu@physx@@PAV123@U?$Hash@PAVTriangleMesh@Gu@physx@@@shdfnd@3@UGetKey@?$HashSetBase@PAVTriangleMesh@Gu@physx@@U?$Hash@PAVTriangleMesh@Gu@physx@@@shdfnd@3@VAllocator@53@$00@internal@53@VAllocator@53@$00@internal@shdfnd@physx@@QAEXI@Z 101314d0 f i GuMeshFactory.obj
 0001:00130500       ?setMeshFactory@ConvexMesh@Gu@physx@@QAEXPAVGuMeshFactory@3@@Z 10131500 f i GuMeshFactory.obj
 0001:00130520       ?setMeshFactory@TriangleMesh@Gu@physx@@QAEXPAVGuMeshFactory@3@@Z 10131520 f i GuMeshFactory.obj
 0001:00130540       ?size@?$Array@PAVGuMeshFactoryListener@physx@@VNamedAllocator@shdfnd@2@@shdfnd@physx@@QBEIXZ 10131540 f i GuMeshFactory.obj
 0001:00130560       ?size@?$HashBase@PAVConvexMesh@Gu@physx@@PAV123@U?$Hash@PAVConvexMesh@Gu@physx@@@shdfnd@3@UGetKey@?$HashSetBase@PAVConvexMesh@Gu@physx@@U?$Hash@PAVConvexMesh@Gu@physx@@@shdfnd@3@VAllocator@53@$00@internal@53@VAllocator@53@$00@internal@shdfnd@physx@@QBEIXZ 10131560 f i GuMeshFactory.obj
 0001:00130580       ?size@?$HashBase@PAVHeightField@Gu@physx@@PAV123@U?$Hash@PAVHeightField@Gu@physx@@@shdfnd@3@UGetKey@?$HashSetBase@PAVHeightField@Gu@physx@@U?$Hash@PAVHeightField@Gu@physx@@@shdfnd@3@VAllocator@53@$00@internal@53@VAllocator@53@$00@internal@shdfnd@physx@@QBEIXZ 10131580 f i GuMeshFactory.obj
 0001:001305a0       ?size@?$HashBase@PAVTriangleMesh@Gu@physx@@PAV123@U?$Hash@PAVTriangleMesh@Gu@physx@@@shdfnd@3@UGetKey@?$HashSetBase@PAVTriangleMesh@Gu@physx@@U?$Hash@PAVTriangleMesh@Gu@physx@@@shdfnd@3@VAllocator@53@$00@internal@53@VAllocator@53@$00@internal@shdfnd@physx@@QBEIXZ 101315a0 f i GuMeshFactory.obj
 0001:001305c0       ?size@?$HashSetBase@PAVConvexMesh@Gu@physx@@U?$Hash@PAVConvexMesh@Gu@physx@@@shdfnd@3@VAllocator@53@$00@internal@shdfnd@physx@@QBEIXZ 101315c0 f i GuMeshFactory.obj
 0001:001305e0       ?size@?$HashSetBase@PAVHeightField@Gu@physx@@U?$Hash@PAVHeightField@Gu@physx@@@shdfnd@3@VAllocator@53@$00@internal@shdfnd@physx@@QBEIXZ 101315e0 f i GuMeshFactory.obj
 0001:00130600       ?size@?$HashSetBase@PAVTriangleMesh@Gu@physx@@U?$Hash@PAVTriangleMesh@Gu@physx@@@shdfnd@3@VAllocator@53@$00@internal@shdfnd@physx@@QBEIXZ 10131600 f i GuMeshFactory.obj
 0001:00130620       ?getBinaryMetaData@HeightField@Gu@physx@@SAXAAVPxOutputStream@3@@Z 10131620 f   GuMetaData.obj
 0001:00130ae0       ?getBinaryMetaData@BigConvexData@physx@@SAXAAVPxOutputStream@2@@Z 10131ae0 f   GuMetaData.obj
 0001:00130e00       ?getBinaryMetaData@ConvexMesh@Gu@physx@@SAXAAVPxOutputStream@3@@Z 10131e00 f   GuMetaData.obj
 0001:00131640       ?getBinaryMetaData@MeshInterface@Gu@physx@@SAXAAVPxOutputStream@3@@Z 10132640 f   GuMetaData.obj
 0001:00131870       ?getBinaryMetaData@RTree@Gu@physx@@SAXAAVPxOutputStream@3@@Z 10132870 f   GuMetaData.obj
 0001:00131e10       ?getBinaryMetaData@RTreeMidphase@Gu@physx@@SAXAAVPxOutputStream@3@@Z 10132e10 f   GuMetaData.obj
 0001:00131f70       ?getBinaryMetaData@InternalTriangleMesh@physx@@SAXAAVPxOutputStream@2@@Z 10132f70 f   GuMetaData.obj
 0001:00132460       ?getBinaryMetaData@TriangleMesh@Gu@physx@@SAXAAVPxOutputStream@3@@Z 10133460 f   GuMetaData.obj
 0001:00132690       ?getBinaryMetaData@MaterialIndicesStruct@physx@@SAXAAVPxOutputStream@2@@Z 10133690 f   GuMetaData.obj
 0001:00132850       ?getBinaryMetaData@GeometryUnion@Gu@physx@@SAXAAVPxOutputStream@3@@Z 10133850 f   GuMetaData.obj
 0001:00137040       ?computeMTD_SphereSphere@Gu@physx@@YA_NAAVPxVec3@2@AAMABVSphere@12@2@Z 10138040 f   GuMTD.obj
 0001:001370e0       ?computeMTD_SphereCapsule@Gu@physx@@YA_NAAVPxVec3@2@AAMABVSphere@12@ABVCapsule@12@@Z 101380e0 f   GuMTD.obj
 0001:001371a0       ?computeMTD_SphereBox@Gu@physx@@YA_NAAVPxVec3@2@AAMABVSphere@12@ABVBox@12@@Z 101381a0 f   GuMTD.obj
 0001:00137250       ?computeMTD_CapsuleCapsule@Gu@physx@@YA_NAAVPxVec3@2@AAMABVCapsule@12@2@Z 10138250 f   GuMTD.obj
 0001:00137340       ?computeMTD_CapsuleBox@Gu@physx@@YA_NAAVPxVec3@2@AAMABVCapsule@12@ABVBox@12@@Z 10138340 f   GuMTD.obj
 0001:001374c0       ?computeMTD_BoxBox@Gu@physx@@YA_NAAVPxVec3@2@AAMABVBox@12@2@Z 101384c0 f   GuMTD.obj
 0001:00137700       ?computeMTD_SphereConvex@Gu@physx@@YA_NAAVPxVec3@2@AAMABVSphere@12@ABVPxConvexMeshGeometry@2@ABVPxTransform@2@@Z 10138700 f   GuMTD.obj
 0001:00137880       ?computeMTD_BoxConvex@Gu@physx@@YA_NAAVPxVec3@2@AAMABVBox@12@ABVPxConvexMeshGeometry@2@ABVPxTransform@2@@Z 10138880 f   GuMTD.obj
 0001:00137a90       ?computeMTD_CapsuleConvex@Gu@physx@@YA_NAAVPxVec3@2@AAMABVCapsule@12@ABVPxTransform@2@ABVPxConvexMeshGeometry@2@3@Z 10138a90 f   GuMTD.obj
 0001:00137d10       ?computeMTD_ConvexConvex@Gu@physx@@YA_NAAVPxVec3@2@AAMABVPxConvexMeshGeometry@2@ABVPxTransform@2@23@Z 10138d10 f   GuMTD.obj
 0001:00137f40       ?computeMTD_SpherePlane@Gu@physx@@YA_NAAVPxVec3@2@AAMABVSphere@12@ABVPxPlane@2@@Z 10138f40 f   GuMTD.obj
 0001:00137fa0       ?computeMTD_PlaneBox@Gu@physx@@YA_NAAVPxVec3@2@AAMABVPxPlane@2@ABVBox@12@@Z 10138fa0 f   GuMTD.obj
 0001:00138080       ?computeMTD_PlaneCapsule@Gu@physx@@YA_NAAVPxVec3@2@AAMABVPxPlane@2@ABVCapsule@12@@Z 10139080 f   GuMTD.obj
 0001:00138130       ?computeMTD_PlaneConvex@Gu@physx@@YA_NAAVPxVec3@2@AAMABVPxPlane@2@ABVPxConvexMeshGeometry@2@ABVPxTransform@2@@Z 10139130 f   GuMTD.obj
 0001:00138230       ?computeMTD_SphereMesh@Gu@physx@@YA_NAAVPxVec3@2@AAMABVSphere@12@ABVPxTriangleMeshGeometry@2@ABVPxTransform@2@@Z 10139230 f   GuMTD.obj
 0001:00138350       ?computeMTD_BoxMesh@Gu@physx@@YA_NAAVPxVec3@2@AAMABVBox@12@ABVPxTriangleMeshGeometry@2@ABVPxTransform@2@@Z 10139350 f   GuMTD.obj
 0001:00138490       ?computeMTD_CapsuleMesh@Gu@physx@@YA_NAAVPxVec3@2@AAMABVCapsule@12@ABVPxTriangleMeshGeometry@2@ABVPxTransform@2@@Z 10139490 f   GuMTD.obj
 0001:001385d0       ?computeMTD_ConvexMesh@Gu@physx@@YA_NAAVPxVec3@2@AAMABVPxConvexMeshGeometry@2@ABVPxTransform@2@ABVPxTriangleMeshGeometry@2@3@Z 101395d0 f   GuMTD.obj
 0001:001386d0       ?computeMTD_SphereHeightField@Gu@physx@@YA_NAAVPxVec3@2@AAMABVSphere@12@ABVPxHeightFieldGeometry@2@ABVPxTransform@2@@Z 101396d0 f   GuMTD.obj
 0001:001387f0       ?computeMTD_CapsuleHeightField@Gu@physx@@YA_NAAVPxVec3@2@AAMABVCapsule@12@ABVPxHeightFieldGeometry@2@ABVPxTransform@2@@Z 101397f0 f   GuMTD.obj
 0001:00138930       ?computeMTD_BoxHeightField@Gu@physx@@YA_NAAVPxVec3@2@AAMABVBox@12@ABVPxHeightFieldGeometry@2@ABVPxTransform@2@@Z 10139930 f   GuMTD.obj
 0001:00138a70       ?computeMTD_ConvexHeightField@Gu@physx@@YA_NAAVPxVec3@2@AAMABVPxConvexMeshGeometry@2@ABVPxTransform@2@ABVPxHeightFieldGeometry@2@3@Z 10139a70 f   GuMTD.obj
 0001:001397c0       ?pointConvexDistance@@YA_NAAVPxVec3@physx@@0AAMABV12@PBVConvexMesh@Gu@2@ABVPxMeshScale@2@ABVPxTransform@2@@Z 1013a7c0 f   GuMTD.obj
 0001:0013c750       ??0Cache@Gu@physx@@QAE@XZ  1013d750 f i GuMTD.obj
 0001:0013c770       ??0ContactBuffer@Gu@physx@@QAE@XZ 1013d770 f i GuMTD.obj
 0001:0013c7a0       ??0ContactPoint@Gu@physx@@QAE@XZ 1013d7a0 f i GuMTD.obj
 0001:0013c7e0       ??0PxSphereGeometry@physx@@QAE@M@Z 1013d7e0 f i GuMTD.obj
 0001:0013c810       ?getNbVerts@ConvexMesh@Gu@physx@@QBEIXZ 1013d810 f i GuMTD.obj
 0001:0013c830       ?getPolygons@ConvexMesh@Gu@physx@@QBEPBUHullPolygonData@23@XZ 1013d830 f i GuMTD.obj
 0001:0013c850       ?getVerts@ConvexMesh@Gu@physx@@QBEPBVPxVec3@3@XZ 1013d850 f i GuMTD.obj
 0001:0013c870       ?length@Segment@Gu@physx@@QBEMXZ 1013d870 f i GuMTD.obj
 0001:0013c8b0       ?reset@ContactBuffer@Gu@physx@@QAEXXZ 1013d8b0 f i GuMTD.obj
 0001:0013c8d0       ?computeBounds@GeometryUnion@Gu@physx@@QBEXAAVPxBounds3@3@ABVPxTransform@3@MPIBV43@@Z 1013d8d0 f   GuObjectBounds.obj
 0001:0013d210       ?computeBoundsWithCCDThreshold@GeometryUnion@Gu@physx@@QBEMAAVPxVec3@3@0ABVPxTransform@3@PIBVPxBounds3@3@@Z 1013e210 f   GuObjectBounds.obj
 0001:0013e530       ??$memFetchAsync@UConvexHullData@Gu@physx@@@Cm@physx@@YAPAUConvexHullData@Gu@1@IIAAU?$MemFetchBufferA@UConvexHullData@Gu@physx@@$00@01@@Z 1013f530 f i GuObjectBounds.obj
 0001:0013e540       ??$memFetchAsync@UHeightFieldData@Gu@physx@@@Cm@physx@@YAPAUHeightFieldData@Gu@1@IIAAU?$MemFetchBufferA@UHeightFieldData@Gu@physx@@$00@01@@Z 1013f540 f i GuObjectBounds.obj
 0001:0013e550       ??$memFetchAsync@UInternalTriangleMeshData@Gu@physx@@@Cm@physx@@YAPAUInternalTriangleMeshData@Gu@1@IIAAU?$MemFetchBufferA@UInternalTriangleMeshData@Gu@physx@@$00@01@@Z 1013f550 f i GuObjectBounds.obj
 0001:0013e560       ??0PxPlane@physx@@QAE@ABVPxVec3@1@0@Z 1013f560 f i GuObjectBounds.obj
 0001:0013e5c0       ?intersectPlaneBox@Gu@physx@@YA_NABVPxPlane@2@ABVBox@12@@Z 1013f5c0 f   GuOverlapTests.obj
 0001:0013e630       ?intersectPlaneCapsule@Gu@physx@@YA_NABVCapsule@12@ABVPxPlane@2@@Z 1013f630 f   GuOverlapTests.obj
 0001:0013e690       ?intersectSphereSphere@Gu@physx@@YA_NABVSphere@12@0@Z 1013f690 f   GuOverlapTests.obj
 0001:0013e700       ?intersectSphereCapsule@Gu@physx@@YA_NABVSphere@12@ABVCapsule@12@@Z 1013f700 f   GuOverlapTests.obj
 0001:0013e760       ?intersectSphereBox@Gu@physx@@YA_NABVSphere@12@ABVBox@12@@Z 1013f760 f   GuOverlapTests.obj
 0001:0013e8f0       ?intersectBoxCapsule@Gu@physx@@YA_NABVBox@12@ABVCapsule@12@@Z 1013f8f0 f   GuOverlapTests.obj
 0001:0013e950       ?intersectSphereConvex@Gu@physx@@YA_NABVSphere@12@ABVConvexMesh@12@ABVPxMeshScale@2@ABVPxTransform@2@PAVPxVec3@2@@Z 1013f950 f   GuOverlapTests.obj
 0001:0013ead0       ?intersectCapsuleConvex@Gu@physx@@YA_NABVPxCapsuleGeometry@2@ABVPxTransform@2@ABVConvexMesh@12@ABVPxMeshScale@2@1PAVPxVec3@2@@Z 1013fad0 f   GuOverlapTests.obj
 0001:0013ec90       ?intersectBoxConvex@Gu@physx@@YA_NABVPxBoxGeometry@2@ABVPxTransform@2@ABVConvexMesh@12@ABVPxMeshScale@2@1PAVPxVec3@2@@Z 1013fc90 f   GuOverlapTests.obj
 0001:0013ee20       ?checkOverlapSphere_boxGeom@Gu@physx@@YA_NABVPxGeometry@2@ABVPxTransform@2@ABVSphere@12@@Z 1013fe20 f   GuOverlapTests.obj
 0001:0013eec0       ?checkOverlapSphere_sphereGeom@Gu@physx@@YA_NABVPxGeometry@2@ABVPxTransform@2@ABVSphere@12@@Z 1013fec0 f   GuOverlapTests.obj
 0001:0013ef50       ?checkOverlapSphere_capsuleGeom@Gu@physx@@YA_NABVPxGeometry@2@ABVPxTransform@2@ABVSphere@12@@Z 1013ff50 f   GuOverlapTests.obj
 0001:0013efe0       ?checkOverlapSphere_planeGeom@Gu@physx@@YA_NABVPxGeometry@2@ABVPxTransform@2@ABVSphere@12@@Z 1013ffe0 f   GuOverlapTests.obj
 0001:0013f090       ?checkOverlapSphere_convexGeom@Gu@physx@@YA_NABVPxGeometry@2@ABVPxTransform@2@ABVSphere@12@@Z 10140090 f   GuOverlapTests.obj
 0001:0013f150       ?checkOverlapOBB_boxGeom@Gu@physx@@YA_NABVPxGeometry@2@ABVPxTransform@2@ABVBox@12@@Z 10140150 f   GuOverlapTests.obj
 0001:0013f1e0       ?checkOverlapOBB_sphereGeom@Gu@physx@@YA_NABVPxGeometry@2@ABVPxTransform@2@ABVBox@12@@Z 101401e0 f   GuOverlapTests.obj
 0001:0013f270       ?checkOverlapOBB_capsuleGeom@Gu@physx@@YA_NABVPxGeometry@2@ABVPxTransform@2@ABVBox@12@@Z 10140270 f   GuOverlapTests.obj
 0001:0013f300       ?checkOverlapOBB_planeGeom@Gu@physx@@YA_NABVPxGeometry@2@ABVPxTransform@2@ABVBox@12@@Z 10140300 f   GuOverlapTests.obj
 0001:0013f380       ?checkOverlapOBB_convexGeom@Gu@physx@@YA_NABVPxGeometry@2@ABVPxTransform@2@ABVBox@12@@Z 10140380 f   GuOverlapTests.obj
 0001:0013f480       ?checkOverlapCapsule_boxGeom@Gu@physx@@YA_NABVPxGeometry@2@ABVPxTransform@2@ABVCapsule@12@@Z 10140480 f   GuOverlapTests.obj
 0001:0013f520       ?checkOverlapCapsule_sphereGeom@Gu@physx@@YA_NABVPxGeometry@2@ABVPxTransform@2@ABVCapsule@12@@Z 10140520 f   GuOverlapTests.obj
 0001:0013f5b0       ?checkOverlapCapsule_capsuleGeom@Gu@physx@@YA_NABVPxGeometry@2@ABVPxTransform@2@ABVCapsule@12@@Z 101405b0 f   GuOverlapTests.obj
 0001:0013f680       ?checkOverlapCapsule_planeGeom@Gu@physx@@YA_NABVPxGeometry@2@ABVPxTransform@2@ABVCapsule@12@@Z 10140680 f   GuOverlapTests.obj
 0001:0013f700       ?checkOverlapCapsule_convexGeom@Gu@physx@@YA_NABVPxGeometry@2@ABVPxTransform@2@ABVCapsule@12@@Z 10140700 f   GuOverlapTests.obj
 0001:0013f830       ?GetGeomOverlapMethodTable@Gu@physx@@YAPAY06P6A_NABVPxGeometry@2@ABVPxTransform@2@01PAUTriggerCache@12@@ZXZ 10140830 f   GuOverlapTests.obj
 0001:0013f840       ?registerHeightFields@Gu@physx@@YAXXZ 10140840 f   GuOverlapTests.obj
 0001:00142300       ??0PxCapsuleGeometry@physx@@QAE@XZ 10143300 f i GuOverlapTests.obj
 0001:00142340       ?CalculateBoxTolerance@Gu@physx@@YA?AT__m128@@ABT3@@Z 10143340 f i GuOverlapTests.obj
 0001:001423c0       ?isNormalized@PxVec3@physx@@QBE_NXZ 101433c0 f i GuOverlapTests.obj
 0001:00142450       ?multiply@PxVec3@physx@@QBE?AV12@ABV12@@Z 10143450 f i GuOverlapTests.obj
 0001:001424c0       ?sqr@shdfnd@physx@@YAMM@Z  101434c0 f i GuOverlapTests.obj
 0001:001424e0       ?transform@PxTransform@physx@@QBE?AV12@ABV12@@Z 101434e0 f i GuOverlapTests.obj
 0001:00142670       ?GetRaycastFuncTable@Gu@physx@@YAAAY06P6AIABVPxGeometry@2@ABVPxTransform@2@ABVPxVec3@2@2MV?$PxFlags@W4Enum@PxHitFlag@physx@@G@2@IPIAUPxRaycastHit@2@_NP6A_NAAU72@PAX@Z7@ZXZ 10143670 f   GuRaycastTests.obj
 0001:00142680       ?raycast_box@@YAIABVPxGeometry@physx@@ABVPxTransform@2@ABVPxVec3@2@2MV?$PxFlags@W4Enum@PxHitFlag@physx@@G@2@IPIAUPxRaycastHit@2@_NP6A_NAAU62@PAX@Z7@Z 10143680 f   GuRaycastTests.obj
 0001:001429d0       ?raycast_sphere@@YAIABVPxGeometry@physx@@ABVPxTransform@2@ABVPxVec3@2@2MV?$PxFlags@W4Enum@PxHitFlag@physx@@G@2@IPIAUPxRaycastHit@2@_NP6A_NAAU62@PAX@Z7@Z 101439d0 f   GuRaycastTests.obj
 0001:00142bd0       ?raycast_capsule@@YAIABVPxGeometry@physx@@ABVPxTransform@2@ABVPxVec3@2@2MV?$PxFlags@W4Enum@PxHitFlag@physx@@G@2@IPIAUPxRaycastHit@2@_NP6A_NAAU62@PAX@Z7@Z 10143bd0 f   GuRaycastTests.obj
 0001:00142f70       ?raycast_plane@@YAIABVPxGeometry@physx@@ABVPxTransform@2@ABVPxVec3@2@2MV?$PxFlags@W4Enum@PxHitFlag@physx@@G@2@IPIAUPxRaycastHit@2@_NP6A_NAAU62@PAX@Z7@Z 10143f70 f   GuRaycastTests.obj
 0001:00143140       ?raycast_convexMesh@@YAIABVPxGeometry@physx@@ABVPxTransform@2@ABVPxVec3@2@2MV?$PxFlags@W4Enum@PxHitFlag@physx@@G@2@IPIAUPxRaycastHit@2@_NP6A_NAAU62@PAX@Z7@Z 10144140 f   GuRaycastTests.obj
 0001:00143700       ?raycast_triangleMesh@@YAIABVPxGeometry@physx@@ABVPxTransform@2@ABVPxVec3@2@2MV?$PxFlags@W4Enum@PxHitFlag@physx@@G@2@IPIAUPxRaycastHit@2@_NP6A_NAAU62@PAX@Z7@Z 10144700 f   GuRaycastTests.obj
 0001:00143ac0       ?raycast_heightField@@YAIABVPxGeometry@physx@@ABVPxTransform@2@ABVPxVec3@2@2MV?$PxFlags@W4Enum@PxHitFlag@physx@@G@2@IPIAUPxRaycastHit@2@_NP6A_NAAU62@PAX@Z7@Z 10144ac0 f   GuRaycastTests.obj
 0001:00144460       ??$PX_UNUSED@P6A_NAAUPxRaycastHit@physx@@PAX@Z@@YAXABQ6A_NAAUPxRaycastHit@physx@@PAX@Z@Z 10145460 f i GuRaycastTests.obj
 0001:00144470       ??$PX_UNUSED@PAX@@YAXABQAX@Z 10145470 f i GuRaycastTests.obj
 0001:00144480       ??$memFetchAsync@VConvexMesh@Gu@physx@@@Cm@physx@@YAPAVConvexMesh@Gu@1@PAXIII@Z 10145480 f i GuRaycastTests.obj
 0001:00144490       ??$memFetchAsync@VHeightField@Gu@physx@@@Cm@physx@@YAPAVHeightField@Gu@1@PAXIII@Z 10145490 f i GuRaycastTests.obj
 0001:001444a0       ??$traceSegment@VRayCastCallback@Gu@physx@@$0A@$0A@$0A@@HeightFieldUtil@Gu@physx@@QBEXABVPxVec3@2@0PAVRayCastCallback@12@PBV32@@Z 101454a0 f i GuRaycastTests.obj
 0001:001467c0       ??0?$OverlapTraceSegment@VRayCastCallback@Gu@physx@@@HeightFieldUtil@Gu@physx@@QAE@ABV123@ABVHeightField@23@@Z 101477c0 f i GuRaycastTests.obj
 0001:00146820       ??0PxLocationHit@physx@@QAE@ABU01@@Z 10147820 f i GuRaycastTests.obj
 0001:001468c0       ??0PxRaycastHit@physx@@QAE@ABU01@@Z 101478c0 f i GuRaycastTests.obj
 0001:00146930       ??0RayCastCallback@Gu@physx@@QAE@XZ 10147930 f i GuRaycastTests.obj
 0001:00146960       ??0RayMeshColliderCallback@@QAE@W4Enum@CallbackMode@Gu@physx@@PAUPxRaycastHit@4@IPBVPxMeshScale@4@PBVPxTransform@4@PBVMatrix34@Cm@4@IP6A_NAAU54@PAX@Z6ABVPxVec3@4@_NM@Z 10147960 f i GuRaycastTests.obj
 0001:00146a30       ??1RayMeshColliderCallback@@UAE@XZ 10147a30 f i GuRaycastTests.obj
 0001:00146a50       ??Dphysx@@YA?AVMatrix34@Cm@0@ABVPxMeshScale@0@ABVPxTransform@0@@Z 10147a50 f i GuRaycastTests.obj
 0001:00146ac0       ??_GRayMeshColliderCallback@@UAEPAXI@Z 10147ac0 f i GuRaycastTests.obj
 0001:00146ac0       ??_ERayMeshColliderCallback@@UAEPAXI@Z 10147ac0 f i GuRaycastTests.obj
 0001:00146b00       ?addIndex@?$OverlapTraceSegment@VRayCastCallback@Gu@physx@@@HeightFieldUtil@Gu@physx@@QAE_NI@Z 10147b00 f i GuRaycastTests.obj
 0001:00146b70       ?computeRectangleDifference@?$OverlapTraceSegment@VRayCastCallback@Gu@physx@@@HeightFieldUtil@Gu@physx@@QAEXABUOverlapRectangle@1234@0AAUOverlapLine@1234@@Z 10147b70 f i GuRaycastTests.obj
 0001:00146c60       ?faceHit@RayCastCallback@Gu@physx@@QAE_NABVHeightFieldUtil@23@ABVPxVec3@3@I@Z 10147c60 f i GuRaycastTests.obj
 0001:00146ca0       ?init@?$OverlapTraceSegment@VRayCastCallback@Gu@physx@@@HeightFieldUtil@Gu@physx@@QAE_NHHHHHPAVRayCastCallback@34@PAV?$Array@IVNamedAllocator@shdfnd@physx@@@shdfnd@4@@Z 10147ca0 f i GuRaycastTests.obj
 0001:00146dc0       ?initialized@?$OverlapTraceSegment@VRayCastCallback@Gu@physx@@@HeightFieldUtil@Gu@physx@@QBE_NXZ 10147dc0 f i GuRaycastTests.obj
 0001:00146de0       ?intersectRayPlane@Gu@physx@@YA_NABVPxVec3@2@0ABVPxPlane@2@AAMPAV32@@Z 10147de0 f i GuRaycastTests.obj
 0001:00146eb0       ?invalidate@OverlapRectangle@?$OverlapTraceSegment@VRayCastCallback@Gu@physx@@@HeightFieldUtil@Gu@physx@@QAEXXZ 10147eb0 f i GuRaycastTests.obj
 0001:00146ef0       ?isSet@?$PxFlags@W4Enum@PxMeshGeometryFlag@physx@@E@physx@@QBE_NW4Enum@PxMeshGeometryFlag@2@@Z 10147ef0 f i GuRaycastTests.obj
 0001:00146f40       ?onEvent@RayCastCallback@Gu@physx@@QAE_NIPAI@Z 10147f40 f i GuRaycastTests.obj
 0001:00146f60       ?prepare@?$OverlapTraceSegment@VRayCastCallback@Gu@physx@@@HeightFieldUtil@Gu@physx@@QAEXABVPxVec3@4@00AAM1@Z 10147f60 f i GuRaycastTests.obj
 0001:00147340       ?processHit@RayMeshColliderCallback@@UAE_NABUPxRaycastHit@physx@@ABVPxVec3@3@11AAMPBI@Z 10148340 f i GuRaycastTests.obj
 0001:00147790       ?reportOverlaps@?$OverlapTraceSegment@VRayCastCallback@Gu@physx@@@HeightFieldUtil@Gu@physx@@QAE_NXZ 10148790 f i GuRaycastTests.obj
 0001:001477f0       ?step@?$OverlapTraceSegment@VRayCastCallback@Gu@physx@@@HeightFieldUtil@Gu@physx@@QAE_NHH@Z 101487f0 f i GuRaycastTests.obj
 0001:001478d0       ?testVertexIndex@?$OverlapTraceSegment@VRayCastCallback@Gu@physx@@@HeightFieldUtil@Gu@physx@@QAE_NI@Z 101488d0 f i GuRaycastTests.obj
 0001:00147a90       ?transform@PxMeshScale@physx@@QBE?AVPxVec3@2@ABV32@@Z 10148a90 f i GuRaycastTests.obj
 0001:00147b00       ?underFaceHit@RayCastCallback@Gu@physx@@QAE_NABVHeightFieldUtil@23@ABVPxVec3@3@1MMMI@Z 10148b00 f i GuRaycastTests.obj
 0001:00147b20       ?visitCells@?$OverlapTraceSegment@VRayCastCallback@Gu@physx@@@HeightFieldUtil@Gu@physx@@QAE_NABUOverlapLine@1234@@Z 10148b20 f i GuRaycastTests.obj
 0001:00147cf0       ?visitCells@?$OverlapTraceSegment@VRayCastCallback@Gu@physx@@@HeightFieldUtil@Gu@physx@@QAE_NABUOverlapRectangle@1234@@Z 10148cf0 f i GuRaycastTests.obj
 0001:00147df0       ??0RadixSort@Gu@physx@@QAE@XZ 10148df0 f   GuRevisitedRadix.obj
 0001:00147e70       ??1RadixSort@Gu@physx@@UAE@XZ 10148e70 f   GuRevisitedRadix.obj
 0001:00147e90       ?Sort@RadixSort@Gu@physx@@QAEAAV123@PBIIW4RadixHint@23@@Z 10148e90 f   GuRevisitedRadix.obj
 0001:00148a20       ?Sort@RadixSort@Gu@physx@@QAEAAV123@PBMI@Z 10149a20 f   GuRevisitedRadix.obj
 0001:001494f0       ?SetBuffers@RadixSort@Gu@physx@@QAE_NPAI00PAPAI@Z 1014a4f0 f   GuRevisitedRadix.obj
 0001:00149b40       ??_ERadixSort@Gu@physx@@UAEPAXI@Z 1014ab40 f i GuRevisitedRadix.obj
 0001:00149be0       ??_GRadixSort@Gu@physx@@UAEPAXI@Z 1014abe0 f i GuRevisitedRadix.obj
 0001:00149c20       ?CheckPassValidity@@YAPBIIPBIIPBXAAE@Z 1014ac20 f i GuRevisitedRadix.obj
 0001:00149c70       ??0RadixSortBuffered@Gu@physx@@QAE@XZ 1014ac70 f   GuRevisitedRadixBuffered.obj
 0001:00149c90       ??1RadixSortBuffered@Gu@physx@@UAE@XZ 1014ac90 f   GuRevisitedRadixBuffered.obj
 0001:00149d20       ?Sort@RadixSortBuffered@Gu@physx@@QAEAAV123@PBIIW4RadixHint@23@@Z 1014ad20 f   GuRevisitedRadixBuffered.obj
 0001:00149d90       ?Sort@RadixSortBuffered@Gu@physx@@QAEAAV123@PBMI@Z 1014ad90 f   GuRevisitedRadixBuffered.obj
 0001:00149e00       ?Resize@RadixSortBuffered@Gu@physx@@AAE_NI@Z 1014ae00 f   GuRevisitedRadixBuffered.obj
 0001:00149f80       ??_ERadixSortBuffered@Gu@physx@@UAEPAXI@Z 1014af80 f i GuRevisitedRadixBuffered.obj
 0001:0014a020       ??_GRadixSortBuffered@Gu@physx@@UAEPAXI@Z 1014b020 f i GuRevisitedRadixBuffered.obj
 0001:0014a060       ?CheckResize@RadixSortBuffered@Gu@physx@@AAEXI@Z 1014b060 f i GuRevisitedRadixBuffered.obj
 0001:0014a0d0       ?writeChunk@physx@@YAXCCCCAAVPxOutputStream@1@@Z 1014b0d0 f   GuSerialize.obj
 0001:0014a140       ?readChunk@physx@@YAXAAC000AAVPxInputStream@1@@Z 1014b140 f   GuSerialize.obj
 0001:0014a1b0       ?readWord@physx@@YAG_NAAVPxInputStream@1@@Z 1014b1b0 f   GuSerialize.obj
 0001:0014a1f0       ?readDword@physx@@YAI_NAAVPxInputStream@1@@Z 1014b1f0 f   GuSerialize.obj
 0001:0014a230       ?readFloat@physx@@YAM_NAAVPxInputStream@1@@Z 1014b230 f   GuSerialize.obj
 0001:0014a270       ?writeWord@physx@@YAXG_NAAVPxOutputStream@1@@Z 1014b270 f   GuSerialize.obj
 0001:0014a2b0       ?writeDword@physx@@YAXI_NAAVPxOutputStream@1@@Z 1014b2b0 f   GuSerialize.obj
 0001:0014a2f0       ?writeFloat@physx@@YAXM_NAAVPxOutputStream@1@@Z 1014b2f0 f   GuSerialize.obj
 0001:0014a330       ?readFloatBuffer@physx@@YA_NPAMI_NAAVPxInputStream@1@@Z 1014b330 f   GuSerialize.obj
 0001:0014a390       ?writeWordBuffer@physx@@YAXPBGI_NAAVPxOutputStream@1@@Z 1014b390 f   GuSerialize.obj
 0001:0014a400       ?writeFloatBuffer@physx@@YAXPBMI_NAAVPxOutputStream@1@@Z 1014b400 f   GuSerialize.obj
 0001:0014a470       ?writeHeader@physx@@YA_NCCCCI_NAAVPxOutputStream@1@@Z 1014b470 f   GuSerialize.obj
 0001:0014a4e0       ?readHeader@physx@@YA_NCCCCAAIAA_NAAVPxInputStream@1@@Z 1014b4e0 f   GuSerialize.obj
 0001:0014a5d0       ?computeMaxIndex@physx@@YAIPBII@Z 1014b5d0 f   GuSerialize.obj
 0001:0014a620       ?computeMaxIndex@physx@@YAGPBGI@Z 1014b620 f   GuSerialize.obj
 0001:0014a680       ?storeIndices@physx@@YAXIIPBIAAVPxOutputStream@1@_N@Z 1014b680 f   GuSerialize.obj
 0001:0014a740       ?readIndices@physx@@YAXIIPAIAAVPxInputStream@1@_N@Z 1014b740 f   GuSerialize.obj
 0001:0014a800       ?WriteHeader@Gu@physx@@YA_NEEEEI_NAAVPxOutputStream@2@@Z 1014b800 f   GuSerialize.obj
 0001:0014a870       ?ReadHeader@Gu@physx@@YA_NEEEEAAIAA_NAAVPxInputStream@2@@Z 1014b870 f   GuSerialize.obj
 0001:0014a960       ?StoreIndices@Gu@physx@@YAXIIPBIAAVPxOutputStream@2@_N@Z 1014b960 f   GuSerialize.obj
 0001:0014aa40       ?ReadIndices@Gu@physx@@YAXIIPAIAAVPxInputStream@2@_N@Z 1014ba40 f   GuSerialize.obj
 0001:0014ab30       ?StoreIndices@Gu@physx@@YAXGIPBGAAVPxOutputStream@2@_N@Z 1014bb30 f   GuSerialize.obj
 0001:0014abc0       ?ReadIndices@Gu@physx@@YAXGIPAGAAVPxInputStream@2@_N@Z 1014bbc0 f   GuSerialize.obj
 0001:0014b010       ?readIntBuffer@physx@@YA_NPAII_NAAVPxInputStream@1@@Z 1014c010 f i GuSerialize.obj
 0001:0014b040       ?writeIntBuffer@physx@@YAXPBII_NAAVPxOutputStream@1@@Z 1014c040 f i GuSerialize.obj
 0001:0014b070       ?computeCapsule_TriangleMeshMTD@Gu@physx@@YA_NABVPxTriangleMeshGeometry@2@ABVPxTransform@2@AAVCapsuleV@12@MM_NAAUPxSweepHit@2@@Z 1014c070 f   GuSweepMTD.obj
 0001:0014b670       ?computeCapsule_HeightFieldMTD@Gu@physx@@YA_NABVPxHeightFieldGeometry@2@ABVPxTransform@2@AAVCapsuleV@12@MM_NIAAUPxSweepHit@2@@Z 1014c670 f   GuSweepMTD.obj
 0001:0014bc80       ?computeBox_TriangleMeshMTD@Gu@physx@@YA_NABVPxTriangleMeshGeometry@2@ABVPxTransform@2@ABVBox@12@1MM_NAAUPxSweepHit@2@@Z 1014cc80 f   GuSweepMTD.obj
 0001:0014c4b0       ?computeBox_HeightFieldMTD@Gu@physx@@YA_NABVPxHeightFieldGeometry@2@ABVPxTransform@2@ABVBox@12@1MM_NIAAUPxSweepHit@2@@Z 1014d4b0 f   GuSweepMTD.obj
 0001:0014ccf0       ?computeConvex_TriangleMeshMTD@Gu@physx@@YA_NABVPxTriangleMeshGeometry@2@ABVPxTransform@2@ABVPxConvexMeshGeometry@2@1MM_NAAUPxSweepHit@2@@Z 1014dcf0 f   GuSweepMTD.obj
 0001:0014d670       ?computeConvex_HeightFieldMTD@Gu@physx@@YA_NABVPxHeightFieldGeometry@2@ABVPxTransform@2@ABVPxConvexMeshGeometry@2@1MM_NIAAUPxSweepHit@2@@Z 1014e670 f   GuSweepMTD.obj
 0001:0014dfd0       ?computeSphere_SphereMTD@Gu@physx@@YA_NABVSphere@12@0AAUPxSweepHit@2@@Z 1014efd0 f   GuSweepMTD.obj
 0001:0014e0a0       ?computeSphere_CapsuleMTD@Gu@physx@@YA_NABVSphere@12@ABVCapsule@12@AAUPxSweepHit@2@@Z 1014f0a0 f   GuSweepMTD.obj
 0001:0014e1a0       ?computeCapsule_CapsuleMTD@Gu@physx@@YA_NABVCapsule@12@0AAUPxSweepHit@2@@Z 1014f1a0 f   GuSweepMTD.obj
 0001:0014e2b0       ?computePlane_CapsuleMTD@Gu@physx@@YA_NABVPxPlane@2@ABVCapsule@12@AAUPxSweepHit@2@@Z 1014f2b0 f   GuSweepMTD.obj
 0001:0014e380       ?computePlane_BoxMTD@Gu@physx@@YA_NABVPxPlane@2@ABVBox@12@AAUPxSweepHit@2@@Z 1014f380 f   GuSweepMTD.obj
 0001:0014e490       ?computePlane_ConvexMTD@Gu@physx@@YA_NABVPxPlane@2@ABVPxConvexMeshGeometry@2@ABVPxTransform@2@AAUPxSweepHit@2@@Z 1014f490 f   GuSweepMTD.obj
 0001:0014e820       ?calculateMTD@@YA_NABVCapsuleV@Gu@physx@@ABT__m128@@_NPBUMTDTriangle@@IIPAVMeshPersistentContact@23@AAIAAT4@6656@Z 1014f820 f   GuSweepMTD.obj
 0001:0014ea60       ?calculateMTD@@YA_NABUPolygonalData@Gu@physx@@PAVSupportLocal@23@AAVPsTransformV@aos@shdfnd@3@ABVPsMatTransformV@673@_NABT__m128@@PBUMTDTriangle@@IIPAVMeshPersistentContact@23@AAIAAT9@9989@Z 1014fa60 f   GuSweepMTD.obj
 0001:0014fa10       ??0MTDTriangle@@QAE@XZ     10150a10 f i GuSweepMTD.obj
 0001:0014fa30       ??0MeshMTDGenerationCallback@@QAE@AAVContainer@Gu@physx@@@Z 10150a30 f i GuSweepMTD.obj
 0001:0014fa70       ??0MidPhaseQueryLocalReport@@QAE@AAVContainer@Gu@physx@@@Z 10150a70 f i GuSweepMTD.obj
 0001:0014fab0       ??0TriangleV@Gu@physx@@QAE@XZ 10150ab0 f i GuSweepMTD.obj
 0001:0014fb40       ??1MTDTriangle@@QAE@XZ     10150b40 f i GuSweepMTD.obj
 0001:0014fb60       ??1MeshMTDGenerationCallback@@UAE@XZ 10150b60 f i GuSweepMTD.obj
 0001:0014fb80       ??1MidPhaseQueryLocalReport@@UAE@XZ 10150b80 f i GuSweepMTD.obj
 0001:0014fba0       ??_EMeshMTDGenerationCallback@@UAEPAXI@Z 10150ba0 f i GuSweepMTD.obj
 0001:0014fba0       ??_GMeshMTDGenerationCallback@@UAEPAXI@Z 10150ba0 f i GuSweepMTD.obj
 0001:0014fbe0       ??_GMidPhaseQueryLocalReport@@UAEPAXI@Z 10150be0 f i GuSweepMTD.obj
 0001:0014fbe0       ??_EMidPhaseQueryLocalReport@@UAEPAXI@Z 10150be0 f i GuSweepMTD.obj
 0001:0014fc20       ?getLocalTriangle@TriangleMesh@Gu@physx@@QBEXAAVPxTriangle@3@I@Z 10150c20 f i GuSweepMTD.obj
 0001:0014fd60       ?getScaledTriangle@physx@@YAXABVPxTriangleMeshGeometry@1@ABVMatrix34@Cm@1@AAVPxTriangle@1@I@Z 10150d60 f i GuSweepMTD.obj
 0001:0014fda0       ?onEvent@MidPhaseQueryLocalReport@@UAE_NIPAI@Z 10150da0 f i GuSweepMTD.obj
 0001:0014fe10       ?processHit@MeshMTDGenerationCallback@@UAE_NABUPxRaycastHit@physx@@ABVPxVec3@3@11AAMPBI@Z 10150e10 f i GuSweepMTD.obj
 0001:0014fe50       ?setCenter@CapsuleV@Gu@physx@@QAEXABT__m128@@@Z 10150e50 f i GuSweepMTD.obj
 0001:0014ff00       ?setShapeSpaceCenterofMass@SupportLocal@Gu@physx@@QAEXABT__m128@@@Z 10150f00 f i GuSweepMTD.obj
 0001:0014ff70       ?SweepCapsuleTriangles@Gu@physx@@YA_NIPBVPxTriangle@2@_NABVPxCapsuleGeometry@2@ABVPxTransform@2@ABVPxVec3@2@MPBIAAV62@6AAMAAIMV?$PxFlags@W4Enum@PxHitFlag@physx@@G@2@@Z 10150f70 f   GuSweepSharedTests.obj
 0001:00150200       ?sweepCapsule_SphereGeom@@YA_NABVPxGeometry@physx@@ABVPxTransform@2@ABVCapsule@Gu@2@ABVPxVec3@2@MAAUPxSweepHit@2@V?$PxFlags@W4Enum@PxHitFlag@physx@@G@2@M@Z 10151200 f   GuSweepSharedTests.obj
 0001:00150450       ?sweepCapsule_PlaneGeom@@YA_NABVPxGeometry@physx@@ABVPxTransform@2@ABVCapsule@Gu@2@ABVPxVec3@2@MAAUPxSweepHit@2@V?$PxFlags@W4Enum@PxHitFlag@physx@@G@2@M@Z 10151450 f   GuSweepSharedTests.obj
 0001:00150750       ?sweepCapsule_CapsuleGeom@@YA_NABVPxGeometry@physx@@ABVPxTransform@2@ABVCapsule@Gu@2@ABVPxVec3@2@MAAUPxSweepHit@2@V?$PxFlags@W4Enum@PxHitFlag@physx@@G@2@M@Z 10151750 f   GuSweepSharedTests.obj
 0001:001508e0       ?sweepCapsule_ConvexGeom@@YA_NABVPxGeometry@physx@@ABVPxTransform@2@ABVCapsule@Gu@2@ABVPxVec3@2@MAAUPxSweepHit@2@V?$PxFlags@W4Enum@PxHitFlag@physx@@G@2@M@Z 101518e0 f   GuSweepSharedTests.obj
 0001:00150e70       ?sweepBox_PlaneGeom@@YA_NABVPxGeometry@physx@@ABVPxTransform@2@ABVBox@Gu@2@ABVPxVec3@2@MAAUPxSweepHit@2@V?$PxFlags@W4Enum@PxHitFlag@physx@@G@2@M@Z 10151e70 f   GuSweepSharedTests.obj
 0001:00151120       ?sweepBox_ConvexGeom@@YA_NABVPxGeometry@physx@@ABVPxTransform@2@ABVBox@Gu@2@ABVPxVec3@2@MAAUPxSweepHit@2@V?$PxFlags@W4Enum@PxHitFlag@physx@@G@2@M@Z 10152120 f   GuSweepSharedTests.obj
 0001:001515d0       ?sweepConvex_SphereGeom@@YA_NABVPxGeometry@physx@@ABVPxTransform@2@ABVPxConvexMeshGeometry@2@1ABVPxVec3@2@MAAUPxSweepHit@2@V?$PxFlags@W4Enum@PxHitFlag@physx@@G@2@M@Z 101525d0 f   GuSweepSharedTests.obj
 0001:00151a30       ?sweepConvex_PlaneGeom@@YA_NABVPxGeometry@physx@@ABVPxTransform@2@ABVPxConvexMeshGeometry@2@1ABVPxVec3@2@MAAUPxSweepHit@2@V?$PxFlags@W4Enum@PxHitFlag@physx@@G@2@M@Z 10152a30 f   GuSweepSharedTests.obj
 0001:00151d10       ?sweepConvex_CapsuleGeom@@YA_NABVPxGeometry@physx@@ABVPxTransform@2@ABVPxConvexMeshGeometry@2@1ABVPxVec3@2@MAAUPxSweepHit@2@V?$PxFlags@W4Enum@PxHitFlag@physx@@G@2@M@Z 10152d10 f   GuSweepSharedTests.obj
 0001:00151e70       ?sweepConvex_BoxGeom@@YA_NABVPxGeometry@physx@@ABVPxTransform@2@ABVPxConvexMeshGeometry@2@1ABVPxVec3@2@MAAUPxSweepHit@2@V?$PxFlags@W4Enum@PxHitFlag@physx@@G@2@M@Z 10152e70 f   GuSweepSharedTests.obj
 0001:00151fe0       ?sweepConvex_ConvexGeom@@YA_NABVPxGeometry@physx@@ABVPxTransform@2@ABVPxConvexMeshGeometry@2@1ABVPxVec3@2@MAAUPxSweepHit@2@V?$PxFlags@W4Enum@PxHitFlag@physx@@G@2@M@Z 10152fe0 f   GuSweepSharedTests.obj
 0001:00152e00       ?loadTransformU@aos@shdfnd@physx@@YA?AVPsTransformV@123@ABVPxTransform@3@@Z 10153e00 f i GuSweepSharedTests.obj
 0001:00152e70       ?GetGeomSweepFuncs@Gu@physx@@YAABUGeomSweepFuncs@12@XZ 10153e70 f   GuSweepTests.obj
 0001:00152e80       ?SweepBoxTriangles@Gu@physx@@YA_NIPBVPxTriangle@2@_NABVPxBoxGeometry@2@ABVPxTransform@2@ABVPxVec3@2@MAAV62@5AAMAAIPBIMV?$PxFlags@W4Enum@PxHitFlag@physx@@G@2@@Z 10153e80 f   GuSweepTests.obj
 0001:001536b0       ?sweepCapsule_BoxGeom@@YA_NABVPxGeometry@physx@@ABVPxTransform@2@ABVCapsule@Gu@2@ABVPxVec3@2@MAAUPxSweepHit@2@V?$PxFlags@W4Enum@PxHitFlag@physx@@G@2@M@Z 101546b0 f   GuSweepTests.obj
 0001:00153b60       ?sweepBox_SphereGeom@@YA_NABVPxGeometry@physx@@ABVPxTransform@2@ABVBox@Gu@2@ABVPxVec3@2@MAAUPxSweepHit@2@V?$PxFlags@W4Enum@PxHitFlag@physx@@G@2@M@Z 10154b60 f   GuSweepTests.obj
 0001:00153f70       ?sweepBox_CapsuleGeom@@YA_NABVPxGeometry@physx@@ABVPxTransform@2@ABVBox@Gu@2@ABVPxVec3@2@MAAUPxSweepHit@2@V?$PxFlags@W4Enum@PxHitFlag@physx@@G@2@M@Z 10154f70 f   GuSweepTests.obj
 0001:00154400       ?sweepBox_BoxGeom@@YA_NABVPxGeometry@physx@@ABVPxTransform@2@ABVBox@Gu@2@ABVPxVec3@2@MAAUPxSweepHit@2@V?$PxFlags@W4Enum@PxHitFlag@physx@@G@2@M@Z 10155400 f   GuSweepTests.obj
 0001:00154e70       _CloseHandle@4             10155e70 f   kernel32:KERNEL32.dll
 0001:00154e76       _MapViewOfFile@20          10155e76 f   kernel32:KERNEL32.dll
 0001:00154e7c       _UnmapViewOfFile@4         10155e7c f   kernel32:KERNEL32.dll
 0001:00154e82       _CreateFileMappingA@24     10155e82 f   kernel32:KERNEL32.dll
 0001:00154e88       _OpenFileMappingA@12       10155e88 f   kernel32:KERNEL32.dll
 0001:00154e8e       _FreeLibrary@4             10155e8e f   kernel32:KERNEL32.dll
 0001:00154e94       _GetProcAddress@8          10155e94 f   kernel32:KERNEL32.dll
 0001:00154e9a       _LoadLibraryA@4            10155e9a f   kernel32:KERNEL32.dll
 0001:00154ea0       _InitializeCriticalSection@4 10155ea0 f   kernel32:KERNEL32.dll
 0001:00154ea6       _EnterCriticalSection@4    10155ea6 f   kernel32:KERNEL32.dll
 0001:00154eac       _LeaveCriticalSection@4    10155eac f   kernel32:KERNEL32.dll
 0001:00154eb2       _TryEnterCriticalSection@4 10155eb2 f   kernel32:KERNEL32.dll
 0001:00154eb8       _DeleteCriticalSection@4   10155eb8 f   kernel32:KERNEL32.dll
 0001:00154ebe       _GetCurrentThread@0        10155ebe f   kernel32:KERNEL32.dll
 0001:00154ec4       _GetCurrentThreadId@0      10155ec4 f   kernel32:KERNEL32.dll
 0001:00154eca       _OutputDebugStringA@4      10155eca f   kernel32:KERNEL32.dll
 0001:00154ed0       _InitializeSListHead@4     10155ed0 f   kernel32:KERNEL32.dll
 0001:00154ed6       _InterlockedPopEntrySList@4 10155ed6 f   kernel32:KERNEL32.dll
 0001:00154edc       _InterlockedPushEntrySList@8 10155edc f   kernel32:KERNEL32.dll
 0001:00154ee2       _InterlockedFlushSList@4   10155ee2 f   kernel32:KERNEL32.dll
 0001:00154ee8       _SetEvent@4                10155ee8 f   kernel32:KERNEL32.dll
 0001:00154eee       _ResetEvent@4              10155eee f   kernel32:KERNEL32.dll
 0001:00154ef4       _WaitForSingleObject@8     10155ef4 f   kernel32:KERNEL32.dll
 0001:00154efa       _CreateEventA@16           10155efa f   kernel32:KERNEL32.dll
 0001:00154f00       _RaiseException@16         10155f00 f   kernel32:KERNEL32.dll
 0001:00154f06       _GetLastError@0            10155f06 f   kernel32:KERNEL32.dll
 0001:00154f0c       _Sleep@4                   10155f0c f   kernel32:KERNEL32.dll
 0001:00154f12       _SwitchToThread@0          10155f12 f   kernel32:KERNEL32.dll
 0001:00154f18       _CreateThread@24           10155f18 f   kernel32:KERNEL32.dll
 0001:00154f1e       _SetThreadPriority@8       10155f1e f   kernel32:KERNEL32.dll
 0001:00154f24       _GetThreadPriority@4       10155f24 f   kernel32:KERNEL32.dll
 0001:00154f2a       _ExitThread@4              10155f2a f   kernel32:KERNEL32.dll
 0001:00154f30       _TerminateThread@8         10155f30 f   kernel32:KERNEL32.dll
 0001:00154f36       _ResumeThread@4            10155f36 f   kernel32:KERNEL32.dll
 0001:00154f3c       _TlsAlloc@0                10155f3c f   kernel32:KERNEL32.dll
 0001:00154f42       _TlsGetValue@4             10155f42 f   kernel32:KERNEL32.dll
 0001:00154f48       _TlsSetValue@8             10155f48 f   kernel32:KERNEL32.dll
 0001:00154f4e       _TlsFree@4                 10155f4e f   kernel32:KERNEL32.dll
 0001:00154f54       _GetModuleHandleA@4        10155f54 f   kernel32:KERNEL32.dll
 0001:00154f5a       _SetThreadAffinityMask@8   10155f5a f   kernel32:KERNEL32.dll
 0001:00154f60       _QueryPerformanceCounter@4 10155f60 f   kernel32:KERNEL32.dll
 0001:00154f66       _QueryPerformanceFrequency@4 10155f66 f   kernel32:KERNEL32.dll
 0001:00154f70       ??3@YAXPAXI@Z              10155f70 f   LIBCMTD:delete_scalar_size.obj
 0001:00154f90       ??_V@YAXPAXI@Z             10155f90 f   LIBCMTD:delete_array_size.obj
 0001:00154fb0       ??1type_info@@UAE@XZ       10155fb0 f   LIBCMTD:std_type_info_static.obj
 0001:00154fd0       ??_Gtype_info@@UAEPAXI@Z   10155fd0 f i LIBCMTD:std_type_info_static.obj
 0001:00154fd0       ??_Etype_info@@UAEPAXI@Z   10155fd0 f i LIBCMTD:std_type_info_static.obj
 0001:00155010       ?__scrt_initialize_type_info@@YAXXZ 10156010 f   LIBCMTD:tncleanup.obj
 0001:00155030       ?__scrt_uninitialize_type_info@@YAXXZ 10156030 f   LIBCMTD:tncleanup.obj
 0001:00155050       ??3@YAXPAX@Z               10156050 f   LIBCMTD:delete_scalar.obj
 0001:00155070       ??3@YAXPAXW4align_val_t@std@@@Z 10156070 f   LIBCMTD:delete_scalar_align.obj
 0001:00155090       ??3@YAXPAXIW4align_val_t@std@@@Z 10156090 f   LIBCMTD:delete_scalar_size_align.obj
 0001:001550b0       ??_V@YAXPAX@Z              101560b0 f   LIBCMTD:delete_array.obj
 0001:001550d0       ??_V@YAXPAXW4align_val_t@std@@@Z 101560d0 f   LIBCMTD:delete_array_align.obj
 0001:001550f0       ??_V@YAXPAXIW4align_val_t@std@@@Z 101560f0 f   LIBCMTD:delete_array_size_align.obj
 0001:00155110       __alloca_probe_16          10156110 f   LIBCMTD:alloca16.obj
 0001:00155126       __alloca_probe_8           10156126     LIBCMTD:alloca16.obj
 0001:00155150       __allmul                   10156150 f   LIBCMTD:llmul.obj
 0001:001551a0       __aulldiv                  101561a0 f   LIBCMTD:ulldiv.obj
 0001:00155230       __ftoui3                   10156230 f   LIBCMTD:ftol3.obj
 0001:00155290       __ftoul3                   10156290 f   LIBCMTD:ftol3.obj
 0001:00155320       __ftol3                    10156320 f   LIBCMTD:ftol3.obj
 0001:001553b0       __dtoui3                   101563b0 f   LIBCMTD:ftol3.obj
 0001:00155450       __dtoul3                   10156450 f   LIBCMTD:ftol3.obj
 0001:00155520       __dtol3                    10156520 f   LIBCMTD:ftol3.obj
 0001:00155600       __ultod3                   10156600 f   LIBCMTD:ftol3.obj
 0001:00155670       __ltod3                    10156670 f   LIBCMTD:ftol3.obj
 0001:001556d0       ?configure_argv@__scrt_narrow_argv_policy@@SAHXZ 101566d0 f i LIBCMTD:utility.obj
 0001:001557a0       ?initialize_environment@__scrt_narrow_environment_policy@@SAHXZ 101567a0 f i LIBCMTD:utility.obj
 0001:00155840       _NtCurrentTeb              10156840 f i LIBCMTD:utility.obj
 0001:00155850       ___scrt_acquire_startup_lock 10156850 f   LIBCMTD:utility.obj
 0001:001558b0       ___scrt_dllmain_after_initialize_c 101568b0 f   LIBCMTD:utility.obj
 0001:001558f0       ___scrt_dllmain_before_initialize_c 101568f0 f   LIBCMTD:utility.obj
 0001:00155920       ___scrt_dllmain_crt_thread_attach 10156920 f   LIBCMTD:utility.obj
 0001:00155960       ___scrt_dllmain_crt_thread_detach 10156960 f   LIBCMTD:utility.obj
 0001:00155980       ___scrt_dllmain_exception_filter 10156980 f   LIBCMTD:utility.obj
 0001:001559e0       ___scrt_dllmain_uninitialize_c 101569e0 f   LIBCMTD:utility.obj
 0001:00155a20       ___scrt_dllmain_uninitialize_critical 10156a20 f   LIBCMTD:utility.obj
 0001:00155a40       ___scrt_initialize_crt     10156a40 f   LIBCMTD:utility.obj
 0001:00155aa0       ___scrt_initialize_onexit_tables 10156aa0 f   LIBCMTD:utility.obj
 0001:00155bb0       ___scrt_is_nonwritable_in_current_image 10156bb0 f   LIBCMTD:utility.obj
 0001:00155d30       ___scrt_release_startup_lock 10156d30 f   LIBCMTD:utility.obj
 0001:00155d60       ___scrt_uninitialize_crt   10156d60 f   LIBCMTD:utility.obj
 0001:00155db0       __onexit                   10156db0 f   LIBCMTD:utility.obj
 0001:00155e30       _at_quick_exit             10156e30 f   LIBCMTD:utility.obj
 0001:00155e80       _atexit                    10156e80 f   LIBCMTD:utility.obj
 0001:00155ec0       __alloca_probe             10156ec0 f   LIBCMTD:chkstk.obj
 0001:00155ec0       __chkstk                   10156ec0 f   LIBCMTD:chkstk.obj
 0001:00155f00       ??_U@YAPAXI@Z              10156f00 f   LIBCMTD:new_array.obj
 0001:00155f20       __allshl                   10156f20 f   LIBCMTD:llshl.obj
 0001:00155f50       __aullshr                  10156f50 f   LIBCMTD:ullshr.obj
 0001:00155f80       __ftol2_sse_excpt          10156f80 f   LIBCMTD:ftol2.obj
 0001:00155f90       __ftol2_sse                10156f90 f   LIBCMTD:ftol2.obj
 0001:00155fa0       __ftoi2                    10156fa0 f   LIBCMTD:ftol2.obj
 0001:00156040       __ftoui2                   10157040 f   LIBCMTD:ftol2.obj
 0001:00156110       __ftol2                    10157110 f   LIBCMTD:ftol2.obj
 0001:001561f0       __ftoul2                   101571f0 f   LIBCMTD:ftol2.obj
 0001:001568e0       __CRT_INIT@12              101578e0 f   LIBCMTD:dll_dllmain.obj
 0001:00156900       __DllMainCRTStartup@12     10157900 f   LIBCMTD:dll_dllmain.obj
 0001:00156930       ___isa_available_init      10157930 f   LIBCMTD:cpu_disp.obj
 0001:00156d30       __get_startup_argv_mode    10157d30 f   LIBCMTD:argv_mode.obj
 0001:00156d40       ___scrt_is_ucrt_dll_in_use 10157d40 f   LIBCMTD:ucrt_detection.obj
 0001:00156d70       ___scrt_fastfail           10157d70 f   LIBCMTD:utility_desktop.obj
 0001:00156f00       ___scrt_get_show_window_mode 10157f00 f   LIBCMTD:utility_desktop.obj
 0001:00156f50       ___scrt_initialize_mta     10157f50 f   LIBCMTD:utility_desktop.obj
 0001:00156f60       ___scrt_initialize_winrt   10157f60 f   LIBCMTD:utility_desktop.obj
 0001:00156f70       ___scrt_is_managed_app     10157f70 f   LIBCMTD:utility_desktop.obj
 0001:00157020       ___scrt_set_unhandled_exception_filter 10158020 f   LIBCMTD:utility_desktop.obj
 0001:00157040       ___scrt_exe_initialize_mta 10158040 f   LIBCMTD:utility_desktop.obj
 0001:00157040       ___scrt_stub_for_initialize_mta 10158040 f   LIBCMTD:utility_desktop.obj
 0001:00157050       ___scrt_unhandled_exception_filter@4 10158050 f   LIBCMTD:utility_desktop.obj
 0001:001570f0       __crt_debugger_hook        101580f0 f   LIBCMTD:utility_desktop.obj
 0001:00157110       @_guard_check_icall_nop@4  10158110 f i LIBCMTD:guard_support.obj
 0001:00157120       _ReadNoFence               10158120 f i LIBCMTD:guard_support.obj
 0001:00157140       _ReadPointerNoFence        10158140 f i LIBCMTD:guard_support.obj
 0001:00157160       ___castguard_check_failure_debugbreak 10158160 f i LIBCMTD:guard_support.obj
 0001:00157180       ___castguard_check_failure_fastfail 10158180 f i LIBCMTD:guard_support.obj
