 PhysX3CharacterKinematicDEBUG_x86

 Timestamp is 64ede3c4 (Tue Aug 29 13:25:40 2023)

 Preferred load address is 10000000

 Start         Length     Name                   Class
 0001:00000000 0000c040H .text$di                CODE
 0001:0000c040 000d3ac0H .text$mn                CODE
 0001:000dfb00 000021ebH .text$x                 CODE
 0002:00000000 00000104H .CRT$XCA                DATA
 0002:00000104 0000013cH .CRT$XCU                DATA
 0002:00000240 00000104H .CRT$XCZ                DATA
 0002:00000344 00000104H .CRT$XIA                DATA
 0002:00000448 00000110H .CRT$XIC                DATA
 0002:00000558 00000104H .CRT$XIZ                DATA
 0002:0000065c 00000104H .CRT$XPA                DATA
 0002:00000760 0000010cH .CRT$XPX                DATA
 0002:0000086c 00000104H .CRT$XPXA               DATA
 0002:00000970 00000104H .CRT$XPZ                DATA
 0002:00000a74 00000104H .CRT$XTA                DATA
 0002:00000b78 00000108H .CRT$XTZ                DATA
 0002:00000c80 00024440H .rdata                  DATA
 0002:000250c0 00000104H .rdata$CastGuardVftablesA DATA
 0002:000251c4 00000104H .rdata$CastGuardVftablesC DATA
 0002:000252c8 00000444H .rdata$r                DATA
 0002:0002570c 000002c4H .rdata$sxdata           DATA
 0002:000259d0 000001a8H .rdata$zzzdbg           DATA
 0002:00025b78 00000104H .rtc$IAA                DATA
 0002:00025c7c 00000104H .rtc$IZZ                DATA
 0002:00025d80 00000104H .rtc$TAA                DATA
 0002:00025e84 00000104H .rtc$TZZ                DATA
 0002:00025f88 00001cb8H .xdata$x                DATA
 0002:00027c40 0000034fH .edata                  DATA
 0003:00000000 00000c10H .data                   DATA
 0003:00000c10 000002a0H .data$r                 DATA
 0003:00000eb0 000001e0H .data$rs                DATA
 0003:00001090 00001908H .bss                    DATA
 0004:00000000 000002b8H .idata$5                DATA
 0004:000002b8 00000028H .idata$2                DATA
 0004:000002e0 00000014H .idata$3                DATA
 0004:000002f4 000002b8H .idata$4                DATA
 0004:000005ac 000014b4H .idata$6                DATA
 0005:00000000 00000109H .00cfg                  DATA
 0006:00000000 000001c0H .rsrc$01                DATA
 0006:000001c0 00000700H .rsrc$02                DATA

  Address         Publics by Value              Rva+Base       Lib:Object

 0000:00000000       ___arm64x_redirection_metadata_count 00000000     <absolute>
 0000:00000000       ___guard_eh_cont_table     00000000     <absolute>
 0000:00000000       __except_list              00000000     <absolute>
 0000:00000000       ___arm64x_extra_rfe_table_size 00000000     <absolute>
 0000:00000000       ___guard_longjmp_table     00000000     <absolute>
 0000:00000000       ___hybrid_auxiliary_iat    00000000     <absolute>
 0000:00000000       ___guard_fids_count        00000000     <absolute>
 0000:00000000       ___AbsoluteZero            00000000     <absolute>
 0000:00000000       ___guard_fids_table        00000000     <absolute>
 0000:00000000       ___x64_code_ranges_to_entry_points_count 00000000     <absolute>
 0000:00000000       ___guard_iat_table         00000000     <absolute>
 0000:00000000       ___x64_code_ranges_to_entry_points 00000000     <absolute>
 0000:00000000       ___guard_eh_cont_count     00000000     <absolute>
 0000:00000000       ___hybrid_auxiliary_iat_copy 00000000     <absolute>
 0000:00000000       ___arm64x_redirection_metadata 00000000     <absolute>
 0000:00000000       ___guard_iat_count         00000000     <absolute>
 0000:00000000       ___volatile_metadata       00000000     <absolute>
 0000:00000000       ___enclave_config          00000000     <absolute>
 0000:00000000       ___guard_check_icall_a64n_fptr 00000000     <absolute>
 0000:00000000       ___hybrid_code_map_count   00000000     <absolute>
 0000:00000000       ___arm64x_extra_rfe_table  00000000     <absolute>
 0000:00000000       ___dynamic_value_reloc_table 00000000     <absolute>
 0000:00000000       ___hybrid_code_map         00000000     <absolute>
 0000:00000000       ___arm64x_native_entrypoint 00000000     <absolute>
 0000:00000000       ___guard_longjmp_count     00000000     <absolute>
 0000:0000005e       ___safe_se_handler_count   0000005e     <absolute>
 0000:00000100       ___guard_flags             00000100     <absolute>
 0000:00000000       ___ImageBase               10000000     <linker-defined>
 0001:0000c040       ??0BoxController@Cct@physx@@QAE@ABVPxControllerDesc@2@AAVPxPhysics@2@PAVPxScene@2@@Z 1000d040 f   CctBoxController.obj
 0001:0000c140       ??1BoxController@Cct@physx@@UAE@XZ 1000d140 f   CctBoxController.obj
 0001:0000c180       ?getWorldBox@BoxController@Cct@physx@@UBE_NAAUPxExtendedBounds3@3@@Z 1000d180 f   CctBoxController.obj
 0001:0000c1f0       ?setFootPosition@BoxController@Cct@physx@@UAE_NABUPxExtendedVec3@3@@Z 1000d1f0 f   CctBoxController.obj
 0001:0000c280       ?getFootPosition@BoxController@Cct@physx@@UBE?AUPxExtendedVec3@3@XZ 1000d280 f   CctBoxController.obj
 0001:0000c320       ?invalidateCache@BoxController@Cct@physx@@UAEXXZ 1000d320 f   CctBoxController.obj
 0001:0000c380       ?resize@BoxController@Cct@physx@@UAEXM@Z 1000d380 f   CctBoxController.obj
 0001:0000c440       ?getHalfHeight@BoxController@Cct@physx@@UBEMXZ 1000d440 f   CctBoxController.obj
 0001:0000c460       ?getHalfSideExtent@BoxController@Cct@physx@@UBEMXZ 1000d460 f   CctBoxController.obj
 0001:0000c480       ?getHalfForwardExtent@BoxController@Cct@physx@@UBEMXZ 1000d480 f   CctBoxController.obj
 0001:0000c4a0       ?setHalfHeight@BoxController@Cct@physx@@UAE_NM@Z 1000d4a0 f   CctBoxController.obj
 0001:0000c4e0       ?setHalfSideExtent@BoxController@Cct@physx@@UAE_NM@Z 1000d4e0 f   CctBoxController.obj
 0001:0000c520       ?setHalfForwardExtent@BoxController@Cct@physx@@UAE_NM@Z 1000d520 f   CctBoxController.obj
 0001:0000c560       ?updateKinematicProxy@BoxController@Cct@physx@@QAE_NXZ 1000d560 f   CctBoxController.obj
 0001:0000c660       ?getOBB@BoxController@Cct@physx@@QBEXAAVPxExtendedBox@3@@Z 1000d660 f   CctBoxController.obj
 0001:0000c8d0       ??0PxBoxController@physx@@IAE@XZ 1000d8d0 f i CctBoxController.obj
 0001:0000c900       ??0PxBoxGeometry@physx@@QAE@XZ 1000d900 f i CctBoxController.obj
 0001:0000c960       ??0PxController@physx@@IAE@XZ 1000d960 f i CctBoxController.obj
 0001:0000c980       ??0PxControllerManager@physx@@IAE@XZ 1000d980 f i CctBoxController.obj
 0001:0000c9a0       ??0PxControllerManager@physx@@QAE@ABV01@@Z 1000d9a0 f i CctBoxController.obj
 0001:0000c9c0       ??0PxExtendedBounds3@physx@@QAE@XZ 1000d9c0 f i CctBoxController.obj
 0001:0000c9f0       ??0PxExtendedVec3@physx@@QAE@NNN@Z 1000d9f0 f i CctBoxController.obj
 0001:0000ca40       ??0PxExtendedVec3@physx@@QAE@XZ 1000da40 f i CctBoxController.obj
 0001:0000ca60       ??0PxGeometry@physx@@IAE@W4Enum@PxGeometryType@1@@Z 1000da60 f i CctBoxController.obj
 0001:0000ca80       ??0PxVec3@physx@@QAE@ABV01@@Z 1000da80 f i CctBoxController.obj
 0001:0000cac0       ??0PxVec3@physx@@QAE@MMM@Z 1000dac0 f i CctBoxController.obj
 0001:0000cb10       ??1PxBoxController@physx@@MAE@XZ 1000db10 f i CctBoxController.obj
 0001:0000cb40       ??1PxController@physx@@MAE@XZ 1000db40 f i CctBoxController.obj
 0001:0000cb60       ??1PxControllerManager@physx@@MAE@XZ 1000db60 f i CctBoxController.obj
 0001:0000cb80       ??3UserAllocated@shdfnd@physx@@SAXPAX@Z 1000db80 f i CctBoxController.obj
 0001:0000cbb0       ??4PxControllerManager@physx@@QAEAAV01@ABV01@@Z 1000dbb0 f i CctBoxController.obj
 0001:0000cbd0       ??4PxQuat@physx@@QAEAAV01@ABV01@@Z 1000dbd0 f i CctBoxController.obj
 0001:0000cc20       ??4PxVec3@physx@@QAEAAV01@ABV01@@Z 1000dc20 f i CctBoxController.obj
 0001:0000cc60       ??DPxVec3@physx@@QBE?AV01@M@Z 1000dc60 f i CctBoxController.obj
 0001:0000ccd0       ??GPxExtendedVec3@physx@@QBE?AVPxVec3@1@ABU01@@Z 1000dcd0 f i CctBoxController.obj
 0001:0000cd50       ??HPxExtendedVec3@physx@@QBE?AU01@ABU01@@Z 1000dd50 f i CctBoxController.obj
 0001:0000cdd0       ??XPxExtendedVec3@physx@@QAEAAU01@ABM@Z 1000ddd0 f i CctBoxController.obj
 0001:0000ce40       ??XPxVec3@physx@@QAEAAV01@M@Z 1000de40 f i CctBoxController.obj
 0001:0000cea0       ??YPxExtendedVec3@physx@@QAEAAU01@ABVPxVec3@1@@Z 1000dea0 f i CctBoxController.obj
 0001:0000cf10       ??ZPxExtendedVec3@physx@@QAEAAU01@ABVPxVec3@1@@Z 1000df10 f i CctBoxController.obj
 0001:0000cf89       ??_EBoxController@Cct@physx@@W7AEPAXI@Z 1000df89 f i CctBoxController.obj
 0001:0000cfa0       ??_EPxControllerManager@physx@@MAEPAXI@Z 1000dfa0 f i CctBoxController.obj
 0001:0000d040       ??_EBoxController@Cct@physx@@UAEPAXI@Z 1000e040 f i CctBoxController.obj
 0001:0000d040       ??_GBoxController@Cct@physx@@UAEPAXI@Z 1000e040 f i CctBoxController.obj
 0001:0000d0a0       ??_EPxBoxController@physx@@MAEPAXI@Z 1000e0a0 f i CctBoxController.obj
 0001:0000d0a0       ??_GPxBoxController@physx@@MAEPAXI@Z 1000e0a0 f i CctBoxController.obj
 0001:0000d0e0       ??_EPxController@physx@@MAEPAXI@Z 1000e0e0 f i CctBoxController.obj
 0001:0000d0e0       ??_GPxController@physx@@MAEPAXI@Z 1000e0e0 f i CctBoxController.obj
 0001:0000d120       ??_GPxControllerManager@physx@@MAEPAXI@Z 1000e120 f i CctBoxController.obj
 0001:0000d160       ??_H@YGXPAXIIP6EPAX0@Z@Z   1000e160 f i CctBoxController.obj
 0001:0000d1b0       ??_I@YGXPAXIIP6EX0@Z@Z     1000e1b0 f i CctBoxController.obj
 0001:0000d210       ?__empty_global_delete@@YAXPAX@Z 1000e210 f i CctBoxController.obj
 0001:0000d220       ?__empty_global_delete@@YAXPAXI@Z 1000e220 f i CctBoxController.obj
 0001:0000d220       ?__global_delete@@YAXPAXI@Z 1000e220 f i CctBoxController.obj
 0001:0000d230       ?__empty_global_delete@@YAXPAXIW4align_val_t@std@@@Z 1000e230 f i CctBoxController.obj
 0001:0000d240       ?__empty_global_delete@@YAXPAXW4align_val_t@std@@@Z 1000e240 f i CctBoxController.obj
 0001:0000d250       ?createController@PxControllerManager@physx@@UAEPAVPxController@2@AAVPxPhysics@2@PAVPxScene@2@ABVPxControllerDesc@2@@Z 1000e250 f i CctBoxController.obj
 0001:0000d2d0       ?getActor@BoxController@Cct@physx@@UBEPAVPxRigidDynamic@3@XZ 1000e2d0 f i CctBoxController.obj
 0001:0000d2f0       ?getCenter@physx@@YAXABUPxExtendedBounds3@1@AAUPxExtendedVec3@1@@Z 1000e2f0 f i CctBoxController.obj
 0001:0000d370       ?getContactOffset@BoxController@Cct@physx@@UBEMXZ 1000e370 f i CctBoxController.obj
 0001:0000d390       ?getExtents@physx@@YAXABUPxExtendedBounds3@1@AAVPxVec3@1@@Z 1000e390 f i CctBoxController.obj
 0001:0000d3f0       ?getHalfHeightInternal@BoxController@Cct@physx@@UBEMXZ 1000e3f0 f i CctBoxController.obj
 0001:0000d410       ?getNonWalkableMode@BoxController@Cct@physx@@UBE?AW4Enum@PxControllerNonWalkableMode@3@XZ 1000e410 f i CctBoxController.obj
 0001:0000d430       ?getPosition@BoxController@Cct@physx@@UBEABUPxExtendedVec3@3@XZ 1000e430 f i CctBoxController.obj
 0001:0000d450       ?getPxController@BoxController@Cct@physx@@UAEPAVPxController@3@XZ 1000e450 f i CctBoxController.obj
 0001:0000d470       ?getScene@BoxController@Cct@physx@@UAEPAVPxScene@3@XZ 1000e470 f i CctBoxController.obj
 0001:0000d490       ?getSlopeLimit@BoxController@Cct@physx@@UBEMXZ 1000e490 f i CctBoxController.obj
 0001:0000d4b0       ?getState@BoxController@Cct@physx@@UBEXAAUPxControllerState@3@@Z 1000e4b0 f i CctBoxController.obj
 0001:0000d4e0       ?getStats@BoxController@Cct@physx@@UBEXAAUPxControllerStats@3@@Z 1000e4e0 f i CctBoxController.obj
 0001:0000d510       ?getStepOffset@BoxController@Cct@physx@@UBEMXZ 1000e510 f i CctBoxController.obj
 0001:0000d530       ?getType@BoxController@Cct@physx@@UBE?AW4Enum@PxControllerShapeType@3@XZ 1000e530 f i CctBoxController.obj
 0001:0000d550       ?getUpDirection@BoxController@Cct@physx@@UBE?AVPxVec3@3@XZ 1000e550 f i CctBoxController.obj
 0001:0000d580       ?getUserData@BoxController@Cct@physx@@UBEPAXXZ 1000e580 f i CctBoxController.obj
 0001:0000d5a0       ?lock@?$MutexT@V?$ReflectionAllocator@VMutexImpl@shdfnd@physx@@@shdfnd@physx@@@shdfnd@physx@@QBEXXZ 1000e5a0 f i CctBoxController.obj
 0001:0000d5c0       ?release@BoxController@Cct@physx@@UAEXXZ 1000e5c0 f i CctBoxController.obj
 0001:0000d5e0       ?setCenterExtents@physx@@YAXAAUPxExtendedBounds3@1@ABUPxExtendedVec3@1@ABVPxVec3@1@@Z 1000e5e0 f i CctBoxController.obj
 0001:0000d670       ?setContactOffset@BoxController@Cct@physx@@UAEXM@Z 1000e670 f i CctBoxController.obj
 0001:0000d6b0       ?setNonWalkableMode@BoxController@Cct@physx@@UAEXW4Enum@PxControllerNonWalkableMode@3@@Z 1000e6b0 f i CctBoxController.obj
 0001:0000d6d0       ?setPosition@BoxController@Cct@physx@@UAE_NABUPxExtendedVec3@3@@Z 1000e6d0 f i CctBoxController.obj
 0001:0000d700       ?setSlopeLimit@BoxController@Cct@physx@@UAEXM@Z 1000e700 f i CctBoxController.obj
 0001:0000d740       ?setStepOffset@BoxController@Cct@physx@@UAEXM@Z 1000e740 f i CctBoxController.obj
 0001:0000d780       ?setUpDirection@BoxController@Cct@physx@@UAEXABVPxVec3@3@@Z 1000e780 f i CctBoxController.obj
 0001:0000d7b0       ?setUserData@BoxController@Cct@physx@@UAEXPAX@Z 1000e7b0 f i CctBoxController.obj
 0001:0000d7d0       ?unlock@?$MutexT@V?$ReflectionAllocator@VMutexImpl@shdfnd@physx@@@shdfnd@physx@@@shdfnd@physx@@QBEXXZ 1000e7d0 f i CctBoxController.obj
 0001:0000d7f0       ??0CapsuleController@Cct@physx@@QAE@ABVPxControllerDesc@2@AAVPxPhysics@2@PAVPxScene@2@@Z 1000e7f0 f   CctCapsuleController.obj
 0001:0000d8f0       ??1CapsuleController@Cct@physx@@UAE@XZ 1000e8f0 f   CctCapsuleController.obj
 0001:0000d930       ?getWorldBox@CapsuleController@Cct@physx@@UBE_NAAUPxExtendedBounds3@3@@Z 1000e930 f   CctCapsuleController.obj
 0001:0000d9b0       ?setFootPosition@CapsuleController@Cct@physx@@UAE_NABUPxExtendedVec3@3@@Z 1000e9b0 f   CctCapsuleController.obj
 0001:0000da50       ?getFootPosition@CapsuleController@Cct@physx@@UBE?AUPxExtendedVec3@3@XZ 1000ea50 f   CctCapsuleController.obj
 0001:0000db10       ?invalidateCache@CapsuleController@Cct@physx@@UAEXXZ 1000eb10 f   CctCapsuleController.obj
 0001:0000db70       ?resize@CapsuleController@Cct@physx@@UAEXM@Z 1000eb70 f   CctCapsuleController.obj
 0001:0000dc50       ?getClimbingMode@CapsuleController@Cct@physx@@UBE?AW4Enum@PxCapsuleClimbingMode@3@XZ 1000ec50 f   CctCapsuleController.obj
 0001:0000dc70       ?setRadius@CapsuleController@Cct@physx@@UAE_NM@Z 1000ec70 f   CctCapsuleController.obj
 0001:0000dd50       ?setHeight@CapsuleController@Cct@physx@@UAE_NM@Z 1000ed50 f   CctCapsuleController.obj
 0001:0000de30       ?setClimbingMode@CapsuleController@Cct@physx@@UAE_NW4Enum@PxCapsuleClimbingMode@3@@Z 1000ee30 f   CctCapsuleController.obj
 0001:0000de60       ?getCapsule@CapsuleController@Cct@physx@@QBEXAAUPxExtendedCapsule@3@@Z 1000ee60 f   CctCapsuleController.obj
 0001:0000e1c0       ??0PxCapsuleController@physx@@IAE@XZ 1000f1c0 f i CctCapsuleController.obj
 0001:0000e1f0       ??0PxCapsuleGeometry@physx@@QAE@XZ 1000f1f0 f i CctCapsuleController.obj
 0001:0000e230       ??1PxCapsuleController@physx@@MAE@XZ 1000f230 f i CctCapsuleController.obj
 0001:0000e253       ??_ECapsuleController@Cct@physx@@W7AEPAXI@Z 1000f253 f i CctCapsuleController.obj
 0001:0000e260       ??_ECapsuleController@Cct@physx@@UAEPAXI@Z 1000f260 f i CctCapsuleController.obj
 0001:0000e260       ??_GCapsuleController@Cct@physx@@UAEPAXI@Z 1000f260 f i CctCapsuleController.obj
 0001:0000e2c0       ??_GPxCapsuleController@physx@@MAEPAXI@Z 1000f2c0 f i CctCapsuleController.obj
 0001:0000e2c0       ??_EPxCapsuleController@physx@@MAEPAXI@Z 1000f2c0 f i CctCapsuleController.obj
 0001:0000e300       ?getActor@CapsuleController@Cct@physx@@UBEPAVPxRigidDynamic@3@XZ 1000f300 f i CctCapsuleController.obj
 0001:0000e320       ?getContactOffset@CapsuleController@Cct@physx@@UBEMXZ 1000f320 f i CctCapsuleController.obj
 0001:0000e340       ?getHalfHeightInternal@CapsuleController@Cct@physx@@UBEMXZ 1000f340 f i CctCapsuleController.obj
 0001:0000e380       ?getHeight@CapsuleController@Cct@physx@@UBEMXZ 1000f380 f i CctCapsuleController.obj
 0001:0000e3a0       ?getNonWalkableMode@CapsuleController@Cct@physx@@UBE?AW4Enum@PxControllerNonWalkableMode@3@XZ 1000f3a0 f i CctCapsuleController.obj
 0001:0000e3c0       ?getPosition@CapsuleController@Cct@physx@@UBEABUPxExtendedVec3@3@XZ 1000f3c0 f i CctCapsuleController.obj
 0001:0000e3e0       ?getPxController@CapsuleController@Cct@physx@@UAEPAVPxController@3@XZ 1000f3e0 f i CctCapsuleController.obj
 0001:0000e400       ?getRadius@CapsuleController@Cct@physx@@UBEMXZ 1000f400 f i CctCapsuleController.obj
 0001:0000e420       ?getScene@CapsuleController@Cct@physx@@UAEPAVPxScene@3@XZ 1000f420 f i CctCapsuleController.obj
 0001:0000e440       ?getSlopeLimit@CapsuleController@Cct@physx@@UBEMXZ 1000f440 f i CctCapsuleController.obj
 0001:0000e460       ?getState@CapsuleController@Cct@physx@@UBEXAAUPxControllerState@3@@Z 1000f460 f i CctCapsuleController.obj
 0001:0000e490       ?getStats@CapsuleController@Cct@physx@@UBEXAAUPxControllerStats@3@@Z 1000f490 f i CctCapsuleController.obj
 0001:0000e4c0       ?getStepOffset@CapsuleController@Cct@physx@@UBEMXZ 1000f4c0 f i CctCapsuleController.obj
 0001:0000e4e0       ?getType@CapsuleController@Cct@physx@@UBE?AW4Enum@PxControllerShapeType@3@XZ 1000f4e0 f i CctCapsuleController.obj
 0001:0000e500       ?getUpDirection@CapsuleController@Cct@physx@@UBE?AVPxVec3@3@XZ 1000f500 f i CctCapsuleController.obj
 0001:0000e530       ?getUserData@CapsuleController@Cct@physx@@UBEPAXXZ 1000f530 f i CctCapsuleController.obj
 0001:0000e550       ?release@CapsuleController@Cct@physx@@UAEXXZ 1000f550 f i CctCapsuleController.obj
 0001:0000e570       ?setContactOffset@CapsuleController@Cct@physx@@UAEXM@Z 1000f570 f i CctCapsuleController.obj
 0001:0000e5b0       ?setNonWalkableMode@CapsuleController@Cct@physx@@UAEXW4Enum@PxControllerNonWalkableMode@3@@Z 1000f5b0 f i CctCapsuleController.obj
 0001:0000e5d0       ?setPosition@CapsuleController@Cct@physx@@UAE_NABUPxExtendedVec3@3@@Z 1000f5d0 f i CctCapsuleController.obj
 0001:0000e600       ?setSlopeLimit@CapsuleController@Cct@physx@@UAEXM@Z 1000f600 f i CctCapsuleController.obj
 0001:0000e640       ?setStepOffset@CapsuleController@Cct@physx@@UAEXM@Z 1000f640 f i CctCapsuleController.obj
 0001:0000e680       ?setUpDirection@CapsuleController@Cct@physx@@UAEXABVPxVec3@3@@Z 1000f680 f i CctCapsuleController.obj
 0001:0000e6b0       ?setUserData@CapsuleController@Cct@physx@@UAEXPAX@Z 1000f6b0 f i CctCapsuleController.obj
 0001:0000e6d0       ??0CCTParams@Cct@physx@@QAE@XZ 1000f6d0 f   CctCharacterController.obj
 0001:0000e780       ??0SweepTest@Cct@physx@@QAE@XZ 1000f780 f   CctCharacterController.obj
 0001:0000ea80       ??1SweepTest@Cct@physx@@QAE@XZ 1000fa80 f   CctCharacterController.obj
 0001:0000eab0       ?moveCharacter@SweepTest@Cct@physx@@QAE?AV?$PxFlags@W4Enum@PxControllerCollisionFlag@physx@@E@3@PBUInternalCBData_FindTouchedGeom@23@PBUInternalCBData_OnHit@23@AAVSweptVolume@23@ABVPxVec3@3@ABUUserObstacles@23@MABVPxControllerFilters@3@_N6@Z 1000fab0 f   CctCharacterController.obj
 0001:0000f4b0       ?doSweepTest@SweepTest@Cct@physx@@QAE_NPBUInternalCBData_FindTouchedGeom@23@PBUInternalCBData_OnHit@23@ABUUserObstacles@23@AAVSweptVolume@23@ABVPxVec3@3@4IPAIMABVPxControllerFilters@3@W4SweepPass@23@@Z 100104b0 f   CctCharacterController.obj
 0001:0000ffc0       ?findTouchedObstacles@SweepTest@Cct@physx@@QAEXABUUserObstacles@23@ABUPxExtendedBounds3@3@@Z 10010fc0 f   CctCharacterController.obj
 0001:000104d0       ?voidTestCache@SweepTest@Cct@physx@@QAEXXZ 100114d0 f   CctCharacterController.obj
 0001:00010510       ?onRelease@SweepTest@Cct@physx@@QAEXABVPxBase@3@@Z 10011510 f   CctCharacterController.obj
 0001:000105c0       ?onObstacleRemoved@SweepTest@Cct@physx@@QAEXI@Z 100115c0 f   CctCharacterController.obj
 0001:000105f0       ?onObstacleUpdated@SweepTest@Cct@physx@@QAEXIPBVPxObstacleContext@3@ABVPxVec3@3@1M@Z 100115f0 f   CctCharacterController.obj
 0001:00010750       ?onObstacleAdded@SweepTest@Cct@physx@@QAEXIPBVPxObstacleContext@3@ABVPxVec3@3@1M@Z 10011750 f   CctCharacterController.obj
 0001:000108e0       ?onOriginShift@SweepTest@Cct@physx@@QAEXABVPxVec3@3@@Z 100118e0 f   CctCharacterController.obj
 0001:000109e0       ?updateTouchedGeoms@SweepTest@Cct@physx@@AAEXPBUInternalCBData_FindTouchedGeom@23@ABUUserObstacles@23@ABUPxExtendedBounds3@3@ABVPxControllerFilters@3@ABVPxVec3@3@@Z 100119e0 f   CctCharacterController.obj
 0001:00011040       ?findTouchedObject@Controller@Cct@physx@@IAEXABVPxControllerFilters@3@PBVPxObstacleContext@3@ABVPxVec3@3@@Z 10012040 f   CctCharacterController.obj
 0001:00011670       ?rideOnTouchedObject@Controller@Cct@physx@@IAE_NAAVSweptVolume@23@ABVPxVec3@3@AAV53@PBVPxObstacleContext@3@@Z 10012670 f   CctCharacterController.obj
 0001:00011b50       ?move@Controller@Cct@physx@@IAE?AV?$PxFlags@W4Enum@PxControllerCollisionFlag@physx@@E@3@AAVSweptVolume@23@ABVPxVec3@3@MMABVPxControllerFilters@3@PBVPxObstacleContext@3@_N@Z 10012b50 f   CctCharacterController.obj
 0001:00012bf0       ?filterTouchedShape@Controller@Cct@physx@@IAE_NABVPxControllerFilters@3@@Z 10013bf0 f   CctCharacterController.obj
 0001:00015070       ?move@BoxController@Cct@physx@@UAE?AV?$PxFlags@W4Enum@PxControllerCollisionFlag@physx@@E@3@ABVPxVec3@3@MMABVPxControllerFilters@3@PBVPxObstacleContext@3@@Z 10016070 f   CctCharacterController.obj
 0001:00015160       ?move@CapsuleController@Cct@physx@@UAE?AV?$PxFlags@W4Enum@PxControllerCollisionFlag@physx@@E@3@ABVPxVec3@3@MMABVPxControllerFilters@3@PBVPxObstacleContext@3@@Z 10016160 f   CctCharacterController.obj
 0001:00016d40       ??$PX_UNUSED@I@@YAXABI@Z   10017d40 f i CctCharacterController.obj
 0001:00016d50       ??$PX_UNUSED@PBUPxRaycastHit@physx@@@@YAXABQBUPxRaycastHit@physx@@@Z 10017d50 f i CctCharacterController.obj
 0001:00016d60       ??$PX_UNUSED@W4PxIDENTITY@physx@@@@YAXABW4PxIDENTITY@physx@@@Z 10017d60 f i CctCharacterController.obj
 0001:00016d70       ??$PxMax@N@physx@@YANNN@Z  10017d70 f i CctCharacterController.obj
 0001:00016db0       ??$PxMin@N@physx@@YANNN@Z  10017db0 f i CctCharacterController.obj
 0001:00016df0       ??$PxUnionCast@PBVPxGeometry@physx@@PAY03$$CBE@physx@@YAPBVPxGeometry@0@PAY03$$CBE@Z 10017df0 f i CctCharacterController.obj
 0001:00016e10       ??$reserve@IVNamedAllocator@shdfnd@physx@@@Cct@physx@@YAPAIAAV?$Array@IVNamedAllocator@shdfnd@physx@@@shdfnd@1@I@Z 10017e10 f i CctCharacterController.obj
 0001:00016e60       ??0?$Array@IVNamedAllocator@shdfnd@physx@@@shdfnd@physx@@QAE@ABVNamedAllocator@12@@Z 10017e60 f i CctCharacterController.obj
 0001:00016eb0       ??0?$Array@VPxTriangle@physx@@VNamedAllocator@shdfnd@2@@shdfnd@physx@@QAE@ABVNamedAllocator@12@@Z 10017eb0 f i CctCharacterController.obj
 0001:00016f00       ??0?$PxFlags@W4Enum@PxControllerCollisionFlag@physx@@E@physx@@QAE@ABV01@@Z 10017f00 f i CctCharacterController.obj
 0001:00016f20       ??0?$PxFlags@W4Enum@PxControllerCollisionFlag@physx@@E@physx@@QAE@E@Z 10017f20 f i CctCharacterController.obj
 0001:00016f40       ??0?$PxFlags@W4Enum@PxHitFlag@physx@@G@physx@@QAE@ABV01@@Z 10017f40 f i CctCharacterController.obj
 0001:00016f70       ??0?$PxFlags@W4Enum@PxHitFlag@physx@@G@physx@@QAE@G@Z 10017f70 f i CctCharacterController.obj
 0001:00016f90       ??0?$PxFlags@W4Enum@PxHitFlag@physx@@G@physx@@QAE@W4Enum@PxHitFlag@1@@Z 10017f90 f i CctCharacterController.obj
 0001:00016fb0       ??0?$PxFlags@W4Enum@PxQueryFlag@physx@@G@physx@@QAE@ABV01@@Z 10017fb0 f i CctCharacterController.obj
 0001:00016fe0       ??0?$PxFlags@W4Enum@PxQueryFlag@physx@@G@physx@@QAE@W4Enum@PxQueryFlag@1@@Z 10017fe0 f i CctCharacterController.obj
 0001:00017000       ??0?$PxFlags@W4Enum@PxQueryFlag@physx@@G@physx@@QAE@XZ 10018000 f i CctCharacterController.obj
 0001:00017020       ??0?$PxFlags@W4Enum@PxShapeFlag@physx@@E@physx@@QAE@ABV01@@Z 10018020 f i CctCharacterController.obj
 0001:00017040       ??0?$PxHitBuffer@UPxRaycastHit@physx@@@physx@@QAE@PAUPxRaycastHit@1@I@Z 10018040 f i CctCharacterController.obj
 0001:00017080       ??0?$PxHitCallback@UPxRaycastHit@physx@@@physx@@QAE@PAUPxRaycastHit@1@I@Z 10018080 f i CctCharacterController.obj
 0001:000170e0       ??0AB@?1???$PxUnionCast@PBVPxGeometry@physx@@PAY03$$CBE@physx@@YAPBVPxGeometry@1@PAY03$$CBE@Z@QAE@0@Z 100180e0 f i CctCharacterController.obj
 0001:00017100       ??0CCTFilter@Cct@physx@@QAE@XZ 10018100 f i CctCharacterController.obj
 0001:00017160       ??0ControllerFilter@@QAE@XZ 10018160 f i CctCharacterController.obj
 0001:000171a0       ??0DebugBox@Cm@physx@@QAE@ABVPxBounds3@2@_N@Z 100181a0 f i CctCharacterController.obj
 0001:00017200       ??0DebugBox@Cm@physx@@QAE@ABVPxVec3@2@_N@Z 10018200 f i CctCharacterController.obj
 0001:00017250       ??0Matrix34@Cm@physx@@QAE@XZ 10018250 f i CctCharacterController.obj
 0001:000172a0       ??0PxActorShape@physx@@QAE@XZ 100182a0 f i CctCharacterController.obj
 0001:000172d0       ??0PxBounds3@physx@@QAE@ABVPxVec3@1@0@Z 100182d0 f i CctCharacterController.obj
 0001:00017320       ??0PxBoxGeometry@physx@@QAE@VPxVec3@1@@Z 10018320 f i CctCharacterController.obj
 0001:00017360       ??0PxCapsuleGeometry@physx@@QAE@MM@Z 10018360 f i CctCharacterController.obj
 0001:000173b0       ??0PxExtendedBox@physx@@QAE@ABV01@@Z 100183b0 f i CctCharacterController.obj
 0001:00017440       ??0PxExtendedBox@physx@@QAE@XZ 10018440 f i CctCharacterController.obj
 0001:00017480       ??0PxExtendedCapsule@physx@@QAE@XZ 10018480 f i CctCharacterController.obj
 0001:000174a0       ??0PxExtendedSegment@physx@@QAE@XZ 100184a0 f i CctCharacterController.obj
 0001:000174d0       ??0PxFilterData@physx@@QAE@XZ 100184d0 f i CctCharacterController.obj
 0001:00017520       ??0PxLocationHit@physx@@QAE@XZ 10018520 f i CctCharacterController.obj
 0001:000175b0       ??0PxMat33@physx@@QAE@ABVPxQuat@1@@Z 100185b0 f i CctCharacterController.obj
 0001:00017830       ??0PxMat33@physx@@QAE@W4PxIDENTITY@1@@Z 10018830 f i CctCharacterController.obj
 0001:00017910       ??0PxQuat@physx@@QAE@ABV01@@Z 10018910 f i CctCharacterController.obj
 0001:00017960       ??0PxQuat@physx@@QAE@MMMM@Z 10018960 f i CctCharacterController.obj
 0001:000179c0       ??0PxQuat@physx@@QAE@W4PxIDENTITY@1@@Z 100189c0 f i CctCharacterController.obj
 0001:00017a20       ??0PxQuat@physx@@QAE@XZ    10018a20 f i CctCharacterController.obj
 0001:00017a40       ??0PxQueryFilterCallback@physx@@QAE@XZ 10018a40 f i CctCharacterController.obj
 0001:00017a60       ??0PxQueryFilterData@physx@@QAE@ABUPxFilterData@1@V?$PxFlags@W4Enum@PxQueryFlag@physx@@G@1@@Z 10018a60 f i CctCharacterController.obj
 0001:00017ac0       ??0PxQueryHit@physx@@QAE@XZ 10018ac0 f i CctCharacterController.obj
 0001:00017af0       ??0PxRaycastHit@physx@@QAE@XZ 10018af0 f i CctCharacterController.obj
 0001:00017b30       ??0PxSphereGeometry@physx@@QAE@XZ 10018b30 f i CctCharacterController.obj
 0001:00017b60       ??0PxSweepHit@physx@@QAE@XZ 10018b60 f i CctCharacterController.obj
 0001:00017b80       ??0PxTransform@physx@@QAE@ABVPxVec3@1@ABVPxQuat@1@@Z 10018b80 f i CctCharacterController.obj
 0001:00017c20       ??0PxTransform@physx@@QAE@XZ 10018c20 f i CctCharacterController.obj
 0001:00017c50       ??0PxVec3@physx@@QAE@M@Z   10018c50 f i CctCharacterController.obj
 0001:00017ca0       ??0PxVec3@physx@@QAE@XZ    10018ca0 f i CctCharacterController.obj
 0001:00017cc0       ??0SIMDGuard@shdfnd@physx@@QAE@XZ 10018cc0 f i CctCharacterController.obj
 0001:00017cf0       ??0SweptContact@Cct@physx@@QAE@XZ 10018cf0 f i CctCharacterController.obj
 0001:00017d20       ??1?$Array@IVNamedAllocator@shdfnd@physx@@@shdfnd@physx@@QAE@XZ 10018d20 f i CctCharacterController.obj
 0001:00017d90       ??1?$Array@VPxTriangle@physx@@VNamedAllocator@shdfnd@2@@shdfnd@physx@@QAE@XZ 10018d90 f i CctCharacterController.obj
 0001:00017e00       ??1?$PxHitBuffer@UPxRaycastHit@physx@@@physx@@UAE@XZ 10018e00 f i CctCharacterController.obj
 0001:00017e30       ??1?$PxHitCallback@UPxRaycastHit@physx@@@physx@@UAE@XZ 10018e30 f i CctCharacterController.obj
 0001:00017e50       ??1ControllerFilter@@UAE@XZ 10018e50 f i CctCharacterController.obj
 0001:00017e70       ??1PxExtendedBox@physx@@QAE@XZ 10018e70 f i CctCharacterController.obj
 0001:00017e80       ??1PxQueryFilterCallback@physx@@UAE@XZ 10018e80 f i CctCharacterController.obj
 0001:00017ea0       ??1PxTriangle@physx@@QAE@XZ 10018ea0 f i CctCharacterController.obj
 0001:00017eb0       ??1SIMDGuard@shdfnd@physx@@QAE@XZ 10018eb0 f i CctCharacterController.obj
 0001:00017ee0       ??2@YAPAXIPAX@Z            10018ee0 f i CctCharacterController.obj
 0001:00017ef0       ??4?$PxFlags@W4Enum@PxControllerCollisionFlag@physx@@E@physx@@QAEAAV01@ABV01@@Z 10018ef0 f i CctCharacterController.obj
 0001:00017f10       ??4?$PxFlags@W4Enum@PxHitFlag@physx@@G@physx@@QAEAAV01@ABV01@@Z 10018f10 f i CctCharacterController.obj
 0001:00017f40       ??4?$PxFlags@W4Enum@PxQueryFlag@physx@@G@physx@@QAEAAV01@ABV01@@Z 10018f40 f i CctCharacterController.obj
 0001:00017f70       ??4CCTParams@Cct@physx@@QAEAAU012@ABU012@@Z 10018f70 f i CctCharacterController.obj
 0001:00018070       ??4PxExtendedBox@physx@@QAEAAV01@ABV01@@Z 10019070 f i CctCharacterController.obj
 0001:000180f0       ??4PxLocationHit@physx@@QAEAAU01@ABU01@@Z 100190f0 f i CctCharacterController.obj
 0001:00018180       ??4PxRaycastHit@physx@@QAEAAU01@ABU01@@Z 10019180 f i CctCharacterController.obj
 0001:00018200       ??4PxTransform@physx@@QAEAAV01@$$QAV01@@Z 10019200 f i CctCharacterController.obj
 0001:00018240       ??4SweptContact@Cct@physx@@QAEAAU012@ABU012@@Z 10019240 f i CctCharacterController.obj
 0001:000182e0       ??A?$Array@IVNamedAllocator@shdfnd@physx@@@shdfnd@physx@@QBEABII@Z 100192e0 f i CctCharacterController.obj
 0001:00018360       ??A?$Array@UInternalBoxObstacle@ObstacleContext@Cct@physx@@VNamedAllocator@shdfnd@4@@shdfnd@physx@@QBEABUInternalBoxObstacle@ObstacleContext@Cct@2@I@Z 10019360 f i CctCharacterController.obj
 0001:000183e0       ??A?$Array@UInternalCapsuleObstacle@ObstacleContext@Cct@physx@@VNamedAllocator@shdfnd@4@@shdfnd@physx@@QBEABUInternalCapsuleObstacle@ObstacleContext@Cct@2@I@Z 100193e0 f i CctCharacterController.obj
 0001:00018460       ??A?$Array@VPxTriangle@physx@@VNamedAllocator@shdfnd@2@@shdfnd@physx@@QAEAAVPxTriangle@2@I@Z 10019460 f i CctCharacterController.obj
 0001:000184e0       ??A?$Array@VPxTriangle@physx@@VNamedAllocator@shdfnd@2@@shdfnd@physx@@QBEABVPxTriangle@2@I@Z 100194e0 f i CctCharacterController.obj
 0001:00018560       ??B?$PxFlags@W4Enum@PxControllerBehaviorFlag@physx@@E@physx@@QBEIXZ 10019560 f i CctCharacterController.obj
 0001:00018580       ??B?$PxFlags@W4Enum@PxControllerDebugRenderFlag@physx@@I@physx@@QBEIXZ 10019580 f i CctCharacterController.obj
 0001:000185a0       ??B?$PxFlags@W4Enum@PxQueryFlag@physx@@G@physx@@QBE_NXZ 100195a0 f i CctCharacterController.obj
 0001:000185d0       ??B?$PxFlags@W4Enum@PxShapeFlag@physx@@E@physx@@QBE_NXZ 100195d0 f i CctCharacterController.obj
 0001:00018600       ??DPxQuat@physx@@QBE?AV01@ABV01@@Z 10019600 f i CctCharacterController.obj
 0001:000187b0       ??DPxTransform@physx@@QBE?AV01@ABV01@@Z 100197b0 f i CctCharacterController.obj
 0001:00018830       ??GPxVec3@physx@@QBE?AV01@ABV01@@Z 10019830 f i CctCharacterController.obj
 0001:000188a0       ??GPxVec3@physx@@QBE?AV01@XZ 100198a0 f i CctCharacterController.obj
 0001:00018910       ??HPxVec3@physx@@QBE?AV01@ABV01@@Z 10019910 f i CctCharacterController.obj
 0001:00018980       ??I?$PxFlags@W4Enum@PxQueryFlag@physx@@G@physx@@QBE?AV01@W4Enum@PxQueryFlag@1@@Z 10019980 f i CctCharacterController.obj
 0001:000189d0       ??I?$PxFlags@W4Enum@PxShapeFlag@physx@@E@physx@@QBE?AV01@W4Enum@PxShapeFlag@1@@Z 100199d0 f i CctCharacterController.obj
 0001:00018a20       ??R?$Hash@PAVPxShape@physx@@@shdfnd@physx@@QBEIABQAVPxShape@2@@Z 10019a20 f i CctCharacterController.obj
 0001:00018a50       ??R?$Hash@PAVPxShape@physx@@@shdfnd@physx@@QBE_NABQAVPxShape@2@0@Z 10019a50 f i CctCharacterController.obj
 0001:00018a90       ??RGetKey@?$HashSetBase@PAVPxShape@physx@@U?$Hash@PAVPxShape@physx@@@shdfnd@2@VAllocator@42@$0A@@internal@shdfnd@physx@@QAEABQAVPxShape@4@ABQAV54@@Z 10019a90 f i CctCharacterController.obj
 0001:00018ab0       ??U?$PxFlags@W4Enum@PxHitFlag@physx@@G@physx@@QBE?AV01@W4Enum@PxHitFlag@1@@Z 10019ab0 f i CctCharacterController.obj
 0001:00018b00       ??U?$PxFlags@W4Enum@PxQueryFlag@physx@@G@physx@@QBE?AV01@W4Enum@PxQueryFlag@1@@Z 10019b00 f i CctCharacterController.obj
 0001:00018b50       ??Uphysx@@YA?AV?$PxFlags@W4Enum@PxHitFlag@physx@@G@0@W4Enum@PxHitFlag@0@0@Z 10019b50 f i CctCharacterController.obj
 0001:00018b90       ??Uphysx@@YA?AV?$PxFlags@W4Enum@PxQueryFlag@physx@@G@0@W4Enum@PxQueryFlag@0@0@Z 10019b90 f i CctCharacterController.obj
 0001:00018bd0       ??YPxVec3@physx@@QAEAAV01@ABV01@@Z 10019bd0 f i CctCharacterController.obj
 0001:00018c40       ??ZPxVec3@physx@@QAEAAV01@ABV01@@Z 10019c40 f i CctCharacterController.obj
 0001:00018cb0       ??_0PxVec3@physx@@QAEAAV01@M@Z 10019cb0 f i CctCharacterController.obj
 0001:00018d30       ??_5?$PxFlags@W4Enum@PxControllerCollisionFlag@physx@@E@physx@@QAEAAV01@W4Enum@PxControllerCollisionFlag@1@@Z 10019d30 f i CctCharacterController.obj
 0001:00018d60       ??_5?$PxFlags@W4Enum@PxHitFlag@physx@@G@physx@@QAEAAV01@W4Enum@PxHitFlag@1@@Z 10019d60 f i CctCharacterController.obj
 0001:00018d90       ??_5?$PxFlags@W4Enum@PxQueryFlag@physx@@G@physx@@QAEAAV01@W4Enum@PxQueryFlag@1@@Z 10019d90 f i CctCharacterController.obj
 0001:00018dc0       ??_G?$PxHitBuffer@UPxRaycastHit@physx@@@physx@@UAEPAXI@Z 10019dc0 f i CctCharacterController.obj
 0001:00018dc0       ??_E?$PxHitBuffer@UPxRaycastHit@physx@@@physx@@UAEPAXI@Z 10019dc0 f i CctCharacterController.obj
 0001:00018e00       ??_G?$PxHitCallback@UPxRaycastHit@physx@@@physx@@UAEPAXI@Z 10019e00 f i CctCharacterController.obj
 0001:00018e00       ??_E?$PxHitCallback@UPxRaycastHit@physx@@@physx@@UAEPAXI@Z 10019e00 f i CctCharacterController.obj
 0001:00018e40       ??_EControllerFilter@@UAEPAXI@Z 10019e40 f i CctCharacterController.obj
 0001:00018e40       ??_GControllerFilter@@UAEPAXI@Z 10019e40 f i CctCharacterController.obj
 0001:00018e80       ??_GPxExtendedBox@physx@@QAEPAXI@Z 10019e80 f i CctCharacterController.obj
 0001:00018ec0       ??_GPxQueryFilterCallback@physx@@UAEPAXI@Z 10019ec0 f i CctCharacterController.obj
 0001:00018ec0       ??_EPxQueryFilterCallback@physx@@UAEPAXI@Z 10019ec0 f i CctCharacterController.obj
 0001:00018f00       ??_GPxTriangle@physx@@QAEPAXI@Z 10019f00 f i CctCharacterController.obj
 0001:00018f40       ?FLoad@aos@shdfnd@physx@@YA?AT__m128@@M@Z 10019f40 f i CctCharacterController.obj
 0001:00018f80       ?PxAbs@physx@@YAMM@Z       10019f80 f i CctCharacterController.obj
 0001:00018fa0       ?PxIsFinite@physx@@YA_NM@Z 10019fa0 f i CctCharacterController.obj
 0001:00018fc0       ?PxRecipSqrt@physx@@YAMM@Z 10019fc0 f i CctCharacterController.obj
 0001:00018fe0       ?PxSqrt@physx@@YAMM@Z      10019fe0 f i CctCharacterController.obj
 0001:00019000       ?PxSqrt@physx@@YANN@Z      1001a000 f i CctCharacterController.obj
 0001:00019020       ?V3Load@aos@shdfnd@physx@@YA?AT__m128@@M@Z 1001a020 f i CctCharacterController.obj
 0001:00019080       ?V4Load@aos@shdfnd@physx@@YA?AT__m128@@M@Z 1001a080 f i CctCharacterController.obj
 0001:000190c0       ?abs@intrinsics@physx@@YAMM@Z 1001a0c0 f i CctCharacterController.obj
 0001:000190e0       ?add@physx@@YAXAAUPxExtendedBounds3@1@ABU21@@Z 1001a0e0 f i CctCharacterController.obj
 0001:00019130       ?allocate@?$Array@IVNamedAllocator@shdfnd@physx@@@shdfnd@physx@@IAEPAII@Z 1001a130 f i CctCharacterController.obj
 0001:000191b0       ?allocate@?$Array@PBXVNamedAllocator@shdfnd@physx@@@shdfnd@physx@@IAEPAPBXI@Z 1001a1b0 f i CctCharacterController.obj
 0001:00019230       ?allocate@?$Array@UPxExtendedCapsule@physx@@VNamedAllocator@shdfnd@2@@shdfnd@physx@@IAEPAUPxExtendedCapsule@3@I@Z 1001a230 f i CctCharacterController.obj
 0001:000192b0       ?allocate@?$Array@VPxExtendedBox@physx@@VNamedAllocator@shdfnd@2@@shdfnd@physx@@IAEPAVPxExtendedBox@3@I@Z 1001a2b0 f i CctCharacterController.obj
 0001:00019330       ?any@PxGeometryHolder@physx@@QBEABVPxGeometry@2@XZ 1001a330 f i CctCharacterController.obj
 0001:00019350       ?begin@?$Array@IVNamedAllocator@shdfnd@physx@@@shdfnd@physx@@QAEPAIXZ 1001a350 f i CctCharacterController.obj
 0001:00019370       ?begin@?$Array@IVNamedAllocator@shdfnd@physx@@@shdfnd@physx@@QBEPBIXZ 1001a370 f i CctCharacterController.obj
 0001:00019390       ?begin@?$Array@PBXVNamedAllocator@shdfnd@physx@@@shdfnd@physx@@QAEPAPBXXZ 1001a390 f i CctCharacterController.obj
 0001:000193b0       ?begin@?$Array@UPxExtendedCapsule@physx@@VNamedAllocator@shdfnd@2@@shdfnd@physx@@QAEPAUPxExtendedCapsule@3@XZ 1001a3b0 f i CctCharacterController.obj
 0001:000193d0       ?begin@?$Array@VPxExtendedBox@physx@@VNamedAllocator@shdfnd@2@@shdfnd@physx@@QAEPAVPxExtendedBox@3@XZ 1001a3d0 f i CctCharacterController.obj
 0001:000193f0       ?capacity@?$Array@IVNamedAllocator@shdfnd@physx@@@shdfnd@physx@@QBEIXZ 1001a3f0 f i CctCharacterController.obj
 0001:00019410       ?capacity@?$Array@PBXVNamedAllocator@shdfnd@physx@@@shdfnd@physx@@QBEIXZ 1001a410 f i CctCharacterController.obj
 0001:00019430       ?capacity@?$Array@UPxExtendedCapsule@physx@@VNamedAllocator@shdfnd@2@@shdfnd@physx@@QBEIXZ 1001a430 f i CctCharacterController.obj
 0001:00019450       ?capacity@?$Array@VPxExtendedBox@physx@@VNamedAllocator@shdfnd@2@@shdfnd@physx@@QBEIXZ 1001a450 f i CctCharacterController.obj
 0001:00019470       ?capacity@?$Array@VPxTriangle@physx@@VNamedAllocator@shdfnd@2@@shdfnd@physx@@QBEIXZ 1001a470 f i CctCharacterController.obj
 0001:00019490       ?capacityIncrement@?$Array@PBXVNamedAllocator@shdfnd@physx@@@shdfnd@physx@@IBEIXZ 1001a490 f i CctCharacterController.obj
 0001:000194d0       ?capacityIncrement@?$Array@UPxExtendedCapsule@physx@@VNamedAllocator@shdfnd@2@@shdfnd@physx@@IBEIXZ 1001a4d0 f i CctCharacterController.obj
 0001:00019510       ?capacityIncrement@?$Array@VPxExtendedBox@physx@@VNamedAllocator@shdfnd@2@@shdfnd@physx@@IBEIXZ 1001a510 f i CctCharacterController.obj
 0001:00019550       ?clear@?$Array@IVNamedAllocator@shdfnd@physx@@@shdfnd@physx@@QAEXXZ 1001a550 f i CctCharacterController.obj
 0001:00019590       ?clear@?$Array@VPxTriangle@physx@@VNamedAllocator@shdfnd@2@@shdfnd@physx@@QAEXXZ 1001a590 f i CctCharacterController.obj
 0001:000195d0       ?contains@?$HashSetBase@PAVPxShape@physx@@U?$Hash@PAVPxShape@physx@@@shdfnd@2@VAllocator@42@$0A@@internal@shdfnd@physx@@QBE_NABQAVPxShape@4@@Z 1001a5d0 f i CctCharacterController.obj
 0001:00019620       ?copy@?$Array@IVNamedAllocator@shdfnd@physx@@@shdfnd@physx@@KAXPAI0PBI@Z 1001a620 f i CctCharacterController.obj
 0001:00019680       ?copy@?$Array@PBXVNamedAllocator@shdfnd@physx@@@shdfnd@physx@@KAXPAPBX0PBQBX@Z 1001a680 f i CctCharacterController.obj
 0001:000196e0       ?copy@?$Array@UPxExtendedCapsule@physx@@VNamedAllocator@shdfnd@2@@shdfnd@physx@@KAXPAUPxExtendedCapsule@3@0PBU43@@Z 1001a6e0 f i CctCharacterController.obj
 0001:00019740       ?copy@?$Array@VPxExtendedBox@physx@@VNamedAllocator@shdfnd@2@@shdfnd@physx@@KAXPAVPxExtendedBox@3@0PBV43@@Z 1001a740 f i CctCharacterController.obj
 0001:000197a0       ?cross@PxVec3@physx@@QBE?AV12@ABV12@@Z 1001a7a0 f i CctCharacterController.obj
 0001:00019860       ?deallocate@?$Array@IVNamedAllocator@shdfnd@physx@@@shdfnd@physx@@IAEXPAX@Z 1001a860 f i CctCharacterController.obj
 0001:00019880       ?deallocate@?$Array@PBXVNamedAllocator@shdfnd@physx@@@shdfnd@physx@@IAEXPAX@Z 1001a880 f i CctCharacterController.obj
 0001:000198a0       ?deallocate@?$Array@UPxExtendedCapsule@physx@@VNamedAllocator@shdfnd@2@@shdfnd@physx@@IAEXPAX@Z 1001a8a0 f i CctCharacterController.obj
 0001:000198c0       ?deallocate@?$Array@VPxExtendedBox@physx@@VNamedAllocator@shdfnd@2@@shdfnd@physx@@IAEXPAX@Z 1001a8c0 f i CctCharacterController.obj
 0001:000198e0       ?deallocate@?$Array@VPxTriangle@physx@@VNamedAllocator@shdfnd@2@@shdfnd@physx@@IAEXPAX@Z 1001a8e0 f i CctCharacterController.obj
 0001:00019900       ?decomposeVector@shdfnd@physx@@YAXAAVPxVec3@2@0ABV32@1@Z 1001a900 f i CctCharacterController.obj
 0001:00019970       ?destroy@?$Array@IVNamedAllocator@shdfnd@physx@@@shdfnd@physx@@KAXPAI0@Z 1001a970 f i CctCharacterController.obj
 0001:00019990       ?destroy@?$Array@PBXVNamedAllocator@shdfnd@physx@@@shdfnd@physx@@KAXPAPBX0@Z 1001a990 f i CctCharacterController.obj
 0001:000199b0       ?destroy@?$Array@UPxExtendedCapsule@physx@@VNamedAllocator@shdfnd@2@@shdfnd@physx@@KAXPAUPxExtendedCapsule@3@0@Z 1001a9b0 f i CctCharacterController.obj
 0001:000199d0       ?destroy@?$Array@VPxExtendedBox@physx@@VNamedAllocator@shdfnd@2@@shdfnd@physx@@KAXPAVPxExtendedBox@3@0@Z 1001a9d0 f i CctCharacterController.obj
 0001:00019a00       ?destroy@?$Array@VPxTriangle@physx@@VNamedAllocator@shdfnd@2@@shdfnd@physx@@KAXPAVPxTriangle@3@0@Z 1001aa00 f i CctCharacterController.obj
 0001:00019a30       ?distance@physx@@YANABUPxExtendedVec3@1@0@Z 1001aa30 f i CctCharacterController.obj
 0001:00019ad0       ?dot@PxVec3@physx@@QBEMABV12@@Z 1001aad0 f i CctCharacterController.obj
 0001:00019b30       ?encodeUserObject@Cct@physx@@YAIIW4UserObjectType@12@@Z 1001ab30 f i CctCharacterController.obj
 0001:00019bf0       ?end@?$Array@IVNamedAllocator@shdfnd@physx@@@shdfnd@physx@@QAEPAIXZ 1001abf0 f i CctCharacterController.obj
 0001:00019c10       ?end@?$Array@IVNamedAllocator@shdfnd@physx@@@shdfnd@physx@@QBEPBIXZ 1001ac10 f i CctCharacterController.obj
 0001:00019c30       ?finalizeQuery@?$PxHitCallback@UPxRaycastHit@physx@@@physx@@UAEXXZ 1001ac30 f i CctCharacterController.obj
 0001:00019c40       ?find@?$HashBase@PAVPxShape@physx@@PAV12@U?$Hash@PAVPxShape@physx@@@shdfnd@2@UGetKey@?$HashSetBase@PAVPxShape@physx@@U?$Hash@PAVPxShape@physx@@@shdfnd@2@VAllocator@42@$0A@@internal@42@VAllocator@42@$0A@@internal@shdfnd@physx@@QBEPBQAVPxShape@4@ABQAV54@@Z 1001ac40 f i CctCharacterController.obj
 0001:00019d10       ?forceSize_Unsafe@?$Array@IVNamedAllocator@shdfnd@physx@@@shdfnd@physx@@QAEXI@Z 1001ad10 f i CctCharacterController.obj
 0001:00019d90       ?forceSize_Unsafe@?$Array@VPxTriangle@physx@@VNamedAllocator@shdfnd@2@@shdfnd@physx@@QAEXI@Z 1001ad90 f i CctCharacterController.obj
 0001:00019e10       ?getAnyHit@?$PxHitBuffer@UPxRaycastHit@physx@@@physx@@QBEABUPxRaycastHit@2@I@Z 1001ae10 f i CctCharacterController.obj
 0001:00019ed0       ?getBasisVector0@PxQuat@physx@@QBE?AVPxVec3@2@XZ 1001aed0 f i CctCharacterController.obj
 0001:00019fc0       ?getCenter@PxBounds3@physx@@QBE?AVPxVec3@2@XZ 1001afc0 f i CctCharacterController.obj
 0001:0001a080       ?getConcreteType@PxBase@physx@@QBEGXZ 1001b080 f i CctCharacterController.obj
 0001:0001a0a0       ?getDimensions@PxBounds3@physx@@QBE?AVPxVec3@2@XZ 1001b0a0 f i CctCharacterController.obj
 0001:0001a130       ?getExtents@PxBounds3@physx@@QBE?AVPxVec3@2@XZ 1001b130 f i CctCharacterController.obj
 0001:0001a1e0       ?getGlobalPose@PxShapeExt@physx@@SA?AVPxTransform@2@ABVPxShape@2@ABVPxRigidActor@2@@Z 1001b1e0 f i CctCharacterController.obj
 0001:0001a240       ?getNbTouches@?$PxHitBuffer@UPxRaycastHit@physx@@@physx@@QBEIXZ 1001b240 f i CctCharacterController.obj
 0001:0001a260       ?getNormalized@PxVec3@physx@@QBE?AV12@XZ 1001b260 f i CctCharacterController.obj
 0001:0001a310       ?getShapeGlobalPose@physx@@YA?AVPxTransform@1@ABVPxShape@1@ABVPxRigidActor@1@@Z 1001b310 f i CctCharacterController.obj
 0001:0001a340       ?getTouches@?$PxHitBuffer@UPxRaycastHit@physx@@@physx@@QBEPBUPxRaycastHit@2@XZ 1001b340 f i CctCharacterController.obj
 0001:0001a360       ?getType@SweptVolume@Cct@physx@@QBE?AW4Enum@SweptVolumeType@23@XZ 1001b360 f i CctCharacterController.obj
 0001:0001a380       ?grow@?$Array@IVNamedAllocator@shdfnd@physx@@@shdfnd@physx@@IAEXI@Z 1001b380 f i CctCharacterController.obj
 0001:0001a400       ?growAndPushBack@?$Array@PBXVNamedAllocator@shdfnd@physx@@@shdfnd@physx@@IAEAAPBXABQBX@Z 1001b400 f i CctCharacterController.obj
 0001:0001a570       ?growAndPushBack@?$Array@UPxExtendedCapsule@physx@@VNamedAllocator@shdfnd@2@@shdfnd@physx@@IAEAAUPxExtendedCapsule@3@ABU43@@Z 1001b570 f i CctCharacterController.obj
 0001:0001a6e0       ?growAndPushBack@?$Array@VPxExtendedBox@physx@@VNamedAllocator@shdfnd@2@@shdfnd@physx@@IAEAAVPxExtendedBox@3@ABV43@@Z 1001b6e0 f i CctCharacterController.obj
 0001:0001a850       ?hash@?$HashBase@PAVPxShape@physx@@PAV12@U?$Hash@PAVPxShape@physx@@@shdfnd@2@UGetKey@?$HashSetBase@PAVPxShape@physx@@U?$Hash@PAVPxShape@physx@@@shdfnd@2@VAllocator@42@$0A@@internal@42@VAllocator@42@$0A@@internal@shdfnd@physx@@ABEIABQAVPxShape@4@@Z 1001b850 f i CctCharacterController.obj
 0001:0001a880       ?hash@?$HashBase@PAVPxShape@physx@@PAV12@U?$Hash@PAVPxShape@physx@@@shdfnd@2@UGetKey@?$HashSetBase@PAVPxShape@physx@@U?$Hash@PAVPxShape@physx@@@shdfnd@2@VAllocator@42@$0A@@internal@42@VAllocator@42@$0A@@internal@shdfnd@physx@@ABEIABQAVPxShape@4@I@Z 1001b880 f i CctCharacterController.obj
 0001:0001a8b0       ?hash@shdfnd@physx@@YAII@Z 1001b8b0 f i CctCharacterController.obj
 0001:0001a930       ?hash@shdfnd@physx@@YAIPBX@Z 1001b930 f i CctCharacterController.obj
 0001:0001a950       ?intersectOBBAABB@Gu@physx@@YA_NABVBox@12@ABVPxBounds3@2@@Z 1001b950 f i CctCharacterController.obj
 0001:0001a9c0       ?isAlmostZero@shdfnd@physx@@YA_NABVPxVec3@2@@Z 1001b9c0 f i CctCharacterController.obj
 0001:0001aa70       ?isFinite@PxBounds3@physx@@QBE_NXZ 1001ba70 f i CctCharacterController.obj
 0001:0001aad0       ?isFinite@PxQuat@physx@@QBE_NXZ 1001bad0 f i CctCharacterController.obj
 0001:0001ab90       ?isFinite@PxTransform@physx@@QBE_NXZ 1001bb90 f i CctCharacterController.obj
 0001:0001abf0       ?isFinite@PxVec3@physx@@QBE_NXZ 1001bbf0 f i CctCharacterController.obj
 0001:0001ac90       ?isFinite@intrinsics@physx@@YA_NM@Z 1001bc90 f i CctCharacterController.obj
 0001:0001ace0       ?isInUserMemory@?$Array@IVNamedAllocator@shdfnd@physx@@@shdfnd@physx@@QBEIXZ 1001bce0 f i CctCharacterController.obj
 0001:0001ad00       ?isInUserMemory@?$Array@PBXVNamedAllocator@shdfnd@physx@@@shdfnd@physx@@QBEIXZ 1001bd00 f i CctCharacterController.obj
 0001:0001ad20       ?isInUserMemory@?$Array@UPxExtendedCapsule@physx@@VNamedAllocator@shdfnd@2@@shdfnd@physx@@QBEIXZ 1001bd20 f i CctCharacterController.obj
 0001:0001ad40       ?isInUserMemory@?$Array@VPxExtendedBox@physx@@VNamedAllocator@shdfnd@2@@shdfnd@physx@@QBEIXZ 1001bd40 f i CctCharacterController.obj
 0001:0001ad60       ?isInUserMemory@?$Array@VPxTriangle@physx@@VNamedAllocator@shdfnd@2@@shdfnd@physx@@QBEIXZ 1001bd60 f i CctCharacterController.obj
 0001:0001ad80       ?isInside@PxExtendedBounds3@physx@@QBE_NABU12@@Z 1001bd80 f i CctCharacterController.obj
 0001:0001ae40       ?isSane@PxQuat@physx@@QBE_NXZ 1001be40 f i CctCharacterController.obj
 0001:0001aed0       ?isSane@PxTransform@physx@@QBE_NXZ 1001bed0 f i CctCharacterController.obj
 0001:0001af20       ?isValid@PxBounds3@physx@@QBE_NXZ 1001bf20 f i CctCharacterController.obj
 0001:0001b040       ?isZero@PxVec3@physx@@QBE_NXZ 1001c040 f i CctCharacterController.obj
 0001:0001b0c0       ?magnitude@PxQuat@physx@@QBEMXZ 1001c0c0 f i CctCharacterController.obj
 0001:0001b0f0       ?magnitude@PxVec3@physx@@QBEMXZ 1001c0f0 f i CctCharacterController.obj
 0001:0001b120       ?magnitudeSquared@PxQuat@physx@@QBEMXZ 1001c120 f i CctCharacterController.obj
 0001:0001b1a0       ?magnitudeSquared@PxVec3@physx@@QBEMXZ 1001c1a0 f i CctCharacterController.obj
 0001:0001b200       ?maximum@PxExtendedVec3@physx@@QAEXABU12@@Z 1001c200 f i CctCharacterController.obj
 0001:0001b290       ?minimum@PxExtendedVec3@physx@@QAEXABU12@@Z 1001c290 f i CctCharacterController.obj
 0001:0001b320       ?normal@PxTriangle@physx@@QBEXAAVPxVec3@2@@Z 1001c320 f i CctCharacterController.obj
 0001:0001b3d0       ?normalize@PxVec3@physx@@QAEMXZ 1001c3d0 f i CctCharacterController.obj
 0001:0001b420       ?postFilter@ControllerFilter@@UAE?AW4Enum@PxQueryHitType@physx@@ABUPxFilterData@4@ABUPxQueryHit@4@@Z 1001c420 f i CctCharacterController.obj
 0001:0001b4f0       ?preFilter@ControllerFilter@@UAE?AW4Enum@PxQueryHitType@physx@@ABUPxFilterData@4@PBVPxShape@4@PBVPxRigidActor@4@AAV?$PxFlags@W4Enum@PxHitFlag@physx@@G@4@@Z 1001c4f0 f i CctCharacterController.obj
 0001:0001b600       ?processTouches@?$PxHitBuffer@UPxRaycastHit@physx@@@physx@@MAE_NPBUPxRaycastHit@2@I@Z 1001c600 f i CctCharacterController.obj
 0001:0001b630       ?pushBack@?$Array@PBXVNamedAllocator@shdfnd@physx@@@shdfnd@physx@@QAEAAPBXABQBX@Z 1001c630 f i CctCharacterController.obj
 0001:0001b6d0       ?pushBack@?$Array@UPxExtendedCapsule@physx@@VNamedAllocator@shdfnd@2@@shdfnd@physx@@QAEAAUPxExtendedCapsule@3@ABU43@@Z 1001c6d0 f i CctCharacterController.obj
 0001:0001b770       ?pushBack@?$Array@VPxExtendedBox@physx@@VNamedAllocator@shdfnd@2@@shdfnd@physx@@QAEAAVPxExtendedBox@3@ABV43@@Z 1001c770 f i CctCharacterController.obj
 0001:0001b810       ?recipSqrt@intrinsics@physx@@YAMM@Z 1001c810 f i CctCharacterController.obj
 0001:0001b860       ?recreate@?$Array@IVNamedAllocator@shdfnd@physx@@@shdfnd@physx@@IAEXI@Z 1001c860 f i CctCharacterController.obj
 0001:0001b970       ?reserve@?$Array@IVNamedAllocator@shdfnd@physx@@@shdfnd@physx@@QAEXI@Z 1001c970 f i CctCharacterController.obj
 0001:0001b9a0       ?resetStats@SweepTest@Cct@physx@@QAEXXZ 1001c9a0 f i CctCharacterController.obj
 0001:0001b9f0       ?resizeUninitialized@?$Array@IVNamedAllocator@shdfnd@physx@@@shdfnd@physx@@QAEXI@Z 1001c9f0 f i CctCharacterController.obj
 0001:0001ba20       ?rotate@PxQuat@physx@@QBE?BVPxVec3@2@ABV32@@Z 1001ca20 f i CctCharacterController.obj
 0001:0001bc10       ?rotateInv@PxQuat@physx@@QBE?BVPxVec3@2@ABV32@@Z 1001cc10 f i CctCharacterController.obj
 0001:0001be00       ?selectMax@intrinsics@physx@@YAMMM@Z 1001ce00 f i CctCharacterController.obj
 0001:0001be40       ?selectMin@intrinsics@physx@@YAMMM@Z 1001ce40 f i CctCharacterController.obj
 0001:0001be80       ?set@PxExtendedBounds3@physx@@QAEXNNNNNN@Z 1001ce80 f i CctCharacterController.obj
 0001:0001bf20       ?set@PxExtendedVec3@physx@@QAEXNNN@Z 1001cf20 f i CctCharacterController.obj
 0001:0001bf60       ?setEmpty@PxExtendedBounds3@physx@@QAEXXZ 1001cf60 f i CctCharacterController.obj
 0001:0001bff0       ?setWorldPos@SweptContact@Cct@physx@@QAEXABVPxVec3@3@ABUPxExtendedVec3@3@@Z 1001cff0 f i CctCharacterController.obj
 0001:0001c060       ?size@?$Array@IVNamedAllocator@shdfnd@physx@@@shdfnd@physx@@QBEIXZ 1001d060 f i CctCharacterController.obj
 0001:0001c080       ?size@?$Array@PBXVNamedAllocator@shdfnd@physx@@@shdfnd@physx@@QBEIXZ 1001d080 f i CctCharacterController.obj
 0001:0001c0a0       ?size@?$Array@UInternalBoxObstacle@ObstacleContext@Cct@physx@@VNamedAllocator@shdfnd@4@@shdfnd@physx@@QBEIXZ 1001d0a0 f i CctCharacterController.obj
 0001:0001c0c0       ?size@?$Array@UInternalCapsuleObstacle@ObstacleContext@Cct@physx@@VNamedAllocator@shdfnd@4@@shdfnd@physx@@QBEIXZ 1001d0c0 f i CctCharacterController.obj
 0001:0001c0e0       ?size@?$Array@UPxExtendedCapsule@physx@@VNamedAllocator@shdfnd@2@@shdfnd@physx@@QBEIXZ 1001d0e0 f i CctCharacterController.obj
 0001:0001c100       ?size@?$Array@VPxExtendedBox@physx@@VNamedAllocator@shdfnd@2@@shdfnd@physx@@QBEIXZ 1001d100 f i CctCharacterController.obj
 0001:0001c120       ?size@?$Array@VPxTriangle@physx@@VNamedAllocator@shdfnd@2@@shdfnd@physx@@QBEIXZ 1001d120 f i CctCharacterController.obj
 0001:0001c140       ?sqrt@intrinsics@physx@@YAMM@Z 1001d140 f i CctCharacterController.obj
 0001:0001c160       ?testSlope@physx@@YA_NABVPxVec3@1@0M@Z 1001d160 f i CctCharacterController.obj
 0001:0001c1c0       ?toVec3@physx@@YA?AVPxVec3@1@ABUPxExtendedVec3@1@@Z 1001d1c0 f i CctCharacterController.obj
 0001:0001c210       ?transform@PxTransform@physx@@QBE?AV12@ABV12@@Z 1001d210 f i CctCharacterController.obj
 0001:0001c350       ?transform@PxTransform@physx@@QBE?AVPxVec3@2@ABV32@@Z 1001d350 f i CctCharacterController.obj
 0001:0001c400       ?transformInv@PxTransform@physx@@QBE?AVPxVec3@2@ABV32@@Z 1001d400 f i CctCharacterController.obj
 0001:0001c4a0       _fabsf                     1001d4a0 f i CctCharacterController.obj
 0001:0001c4d0       _sqrtf                     1001d4d0 f i CctCharacterController.obj
 0001:0001c550       ?getSceneTimestamp@Cct@physx@@YAIPBUInternalCBData_FindTouchedGeom@12@@Z 1001d550 f   CctCharacterControllerCallbacks.obj
 0001:0001c5c0       ?findTouchedGeometry@Cct@physx@@YAXPBUInternalCBData_FindTouchedGeom@12@ABUPxExtendedBounds3@2@AAV?$Array@VPxTriangle@physx@@VNamedAllocator@shdfnd@2@@shdfnd@2@AAV?$Array@IVNamedAllocator@shdfnd@physx@@@62@3ABVCCTFilter@12@ABUCCTParams@12@AAG@Z 1001d5c0 f   CctCharacterControllerCallbacks.obj
 0001:0001caa0       ?shapeHitCallback@Cct@physx@@YAIPBUInternalCBData_OnHit@12@ABUSweptContact@12@ABVPxVec3@2@M@Z 1001daa0 f   CctCharacterControllerCallbacks.obj
 0001:0001cb70       ?userHitCallback@Cct@physx@@YAIPBUInternalCBData_OnHit@12@ABUSweptContact@12@ABVPxVec3@2@M@Z 1001db70 f   CctCharacterControllerCallbacks.obj
 0001:00020bb0       ??$PX_UNUSED@PBUPxOverlapHit@physx@@@@YAXABQBUPxOverlapHit@physx@@@Z 10021bb0 f i CctCharacterControllerCallbacks.obj
 0001:00020bc0       ??$reserve@VPxTriangle@physx@@VNamedAllocator@shdfnd@2@@Cct@physx@@YAPAVPxTriangle@1@AAV?$Array@VPxTriangle@physx@@VNamedAllocator@shdfnd@2@@shdfnd@1@I@Z 10021bc0 f i CctCharacterControllerCallbacks.obj
 0001:00020c10       ??0?$PxFlags@W4Enum@PxMeshGeometryFlag@physx@@E@physx@@QAE@E@Z 10021c10 f i CctCharacterControllerCallbacks.obj
 0001:00020c30       ??0?$PxFlags@W4Enum@PxMeshGeometryFlag@physx@@E@physx@@QAE@XZ 10021c30 f i CctCharacterControllerCallbacks.obj
 0001:00020c50       ??0?$PxHitBuffer@UPxOverlapHit@physx@@@physx@@QAE@PAUPxOverlapHit@1@I@Z 10021c50 f i CctCharacterControllerCallbacks.obj
 0001:00020c90       ??0?$PxHitCallback@UPxOverlapHit@physx@@@physx@@QAE@PAUPxOverlapHit@1@I@Z 10021c90 f i CctCharacterControllerCallbacks.obj
 0001:00020cf0       ??0?$PxPadding@$02@physx@@QAE@XZ 10021cf0 f i CctCharacterControllerCallbacks.obj
 0001:00020d40       ??0PxControllerHit@physx@@QAE@XZ 10021d40 f i CctCharacterControllerCallbacks.obj
 0001:00020d80       ??0PxControllerObstacleHit@physx@@QAE@XZ 10021d80 f i CctCharacterControllerCallbacks.obj
 0001:00020da0       ??0PxControllerShapeHit@physx@@QAE@XZ 10021da0 f i CctCharacterControllerCallbacks.obj
 0001:00020dc0       ??0PxControllersHit@physx@@QAE@XZ 10021dc0 f i CctCharacterControllerCallbacks.obj
 0001:00020de0       ??0PxConvexMeshGeometry@physx@@QAE@XZ 10021de0 f i CctCharacterControllerCallbacks.obj
 0001:00020e40       ??0PxExtendedSphere@physx@@QAE@XZ 10021e40 f i CctCharacterControllerCallbacks.obj
 0001:00020e60       ??0PxHeightFieldGeometry@physx@@QAE@XZ 10021e60 f i CctCharacterControllerCallbacks.obj
 0001:00020ef0       ??0PxMat33@physx@@QAE@ABVPxVec3@1@00@Z 10021ef0 f i CctCharacterControllerCallbacks.obj
 0001:00020f60       ??0PxMat44@physx@@QAE@ABVPxMat33@1@ABVPxVec3@1@@Z 10021f60 f i CctCharacterControllerCallbacks.obj
 0001:00021020       ??0PxMeshScale@physx@@QAE@M@Z 10022020 f i CctCharacterControllerCallbacks.obj
 0001:00021070       ??0PxMeshScale@physx@@QAE@XZ 10022070 f i CctCharacterControllerCallbacks.obj
 0001:000210c0       ??0PxOverlapHit@physx@@QAE@XZ 100220c0 f i CctCharacterControllerCallbacks.obj
 0001:000210e0       ??0PxPlane@physx@@QAE@ABVPxVec3@1@M@Z 100220e0 f i CctCharacterControllerCallbacks.obj
 0001:00021120       ??0PxPlane@physx@@QAE@MMMM@Z 10022120 f i CctCharacterControllerCallbacks.obj
 0001:00021190       ??0PxQueryFilterData@physx@@QAE@$$QAU01@@Z 10022190 f i CctCharacterControllerCallbacks.obj
 0001:00021200       ??0PxQueryFilterData@physx@@QAE@V?$PxFlags@W4Enum@PxQueryFlag@physx@@G@1@@Z 10022200 f i CctCharacterControllerCallbacks.obj
 0001:00021250       ??0PxTransform@physx@@QAE@ABVPxVec3@1@@Z 10022250 f i CctCharacterControllerCallbacks.obj
 0001:000212a0       ??0PxTriangle@physx@@QAE@ABV01@@Z 100222a0 f i CctCharacterControllerCallbacks.obj
 0001:00021340       ??0PxTriangle@physx@@QAE@ABVPxVec3@1@00@Z 10022340 f i CctCharacterControllerCallbacks.obj
 0001:000213c0       ??0PxTriangle@physx@@QAE@XZ 100223c0 f i CctCharacterControllerCallbacks.obj
 0001:000213f0       ??0PxTriangleMeshGeometry@physx@@QAE@XZ 100223f0 f i CctCharacterControllerCallbacks.obj
 0001:00021450       ??0PxVec4@physx@@QAE@ABVPxVec3@1@M@Z 10022450 f i CctCharacterControllerCallbacks.obj
 0001:000214a0       ??0PxVec4@physx@@QAE@MMMM@Z 100224a0 f i CctCharacterControllerCallbacks.obj
 0001:00021500       ??0TessParams@@QAE@XZ      10022500 f i CctCharacterControllerCallbacks.obj
 0001:00021530       ??1?$PxHitBuffer@UPxOverlapHit@physx@@@physx@@UAE@XZ 10022530 f i CctCharacterControllerCallbacks.obj
 0001:00021560       ??1?$PxHitCallback@UPxOverlapHit@physx@@@physx@@UAE@XZ 10022560 f i CctCharacterControllerCallbacks.obj
 0001:00021580       ??1PxExtendedSphere@physx@@QAE@XZ 10022580 f i CctCharacterControllerCallbacks.obj
 0001:00021590       ??APxVec3@physx@@QBEABMH@Z 10022590 f i CctCharacterControllerCallbacks.obj
 0001:00021600       ??DPxMat33@physx@@QBE?AV01@ABV01@@Z 10022600 f i CctCharacterControllerCallbacks.obj
 0001:00021680       ??DPxVec4@physx@@QBE?AV01@M@Z 10022680 f i CctCharacterControllerCallbacks.obj
 0001:00021700       ??HPxVec4@physx@@QBE?AV01@ABV01@@Z 10022700 f i CctCharacterControllerCallbacks.obj
 0001:00021790       ??_E?$PxHitBuffer@UPxOverlapHit@physx@@@physx@@UAEPAXI@Z 10022790 f i CctCharacterControllerCallbacks.obj
 0001:00021790       ??_G?$PxHitBuffer@UPxOverlapHit@physx@@@physx@@UAEPAXI@Z 10022790 f i CctCharacterControllerCallbacks.obj
 0001:000217d0       ??_E?$PxHitCallback@UPxOverlapHit@physx@@@physx@@UAEPAXI@Z 100227d0 f i CctCharacterControllerCallbacks.obj
 0001:000217d0       ??_G?$PxHitCallback@UPxOverlapHit@physx@@@physx@@UAEPAXI@Z 100227d0 f i CctCharacterControllerCallbacks.obj
 0001:00021810       ?PxPlaneEquationFromTransform@physx@@YA?AVPxPlane@1@ABVPxTransform@1@@Z 10022810 f i CctCharacterControllerCallbacks.obj
 0001:00021870       ?allocate@?$Array@VPxTriangle@physx@@VNamedAllocator@shdfnd@2@@shdfnd@physx@@IAEPAVPxTriangle@3@I@Z 10022870 f i CctCharacterControllerCallbacks.obj
 0001:000218f0       ?begin@?$Array@VPxTriangle@physx@@VNamedAllocator@shdfnd@2@@shdfnd@physx@@QAEPAVPxTriangle@3@XZ 100228f0 f i CctCharacterControllerCallbacks.obj
 0001:00021910       ?capacityIncrement@?$Array@IVNamedAllocator@shdfnd@physx@@@shdfnd@physx@@IBEIXZ 10022910 f i CctCharacterControllerCallbacks.obj
 0001:00021950       ?capacityIncrement@?$Array@VPxTriangle@physx@@VNamedAllocator@shdfnd@2@@shdfnd@physx@@IBEIXZ 10022950 f i CctCharacterControllerCallbacks.obj
 0001:00021990       ?centerExtents@PxBounds3@physx@@SA?AV12@ABVPxVec3@2@0@Z 10022990 f i CctCharacterControllerCallbacks.obj
 0001:000219f0       ?computeBasis@shdfnd@physx@@YAXABVPxVec3@2@AAV32@1@Z 100229f0 f i CctCharacterControllerCallbacks.obj
 0001:00021af0       ?copy@?$Array@VPxTriangle@physx@@VNamedAllocator@shdfnd@2@@shdfnd@physx@@KAXPAVPxTriangle@3@0PBV43@@Z 10022af0 f i CctCharacterControllerCallbacks.obj
 0001:00021b50       ?decodeIndex@Cct@physx@@YAII@Z 10022b50 f i CctCharacterControllerCallbacks.obj
 0001:00021b60       ?decodeType@Cct@physx@@YA?AW4UserObjectType@12@I@Z 10022b60 f i CctCharacterControllerCallbacks.obj
 0001:00021b70       ?distance@PxPlane@physx@@QBEMABVPxVec3@2@@Z 10022b70 f i CctCharacterControllerCallbacks.obj
 0001:00021bb0       ?finalizeQuery@?$PxHitCallback@UPxOverlapHit@physx@@@physx@@UAEXXZ 10022bb0 f i CctCharacterControllerCallbacks.obj
 0001:00021bc0       ?getAnyHit@?$PxHitBuffer@UPxOverlapHit@physx@@@physx@@QBEABUPxOverlapHit@2@I@Z 10022bc0 f i CctCharacterControllerCallbacks.obj
 0001:00021c80       ?getNbAnyHits@?$PxHitBuffer@UPxOverlapHit@physx@@@physx@@QBEIXZ 10022c80 f i CctCharacterControllerCallbacks.obj
 0001:00021cb0       ?getNbTouches@?$PxHitBuffer@UPxOverlapHit@physx@@@physx@@QBEIXZ 10022cb0 f i CctCharacterControllerCallbacks.obj
 0001:00021cd0       ?getPosition@PxMat44@physx@@QBE?AVPxVec3@2@XZ 10022cd0 f i CctCharacterControllerCallbacks.obj
 0001:00021d00       ?getResults@PxMeshOverlapUtil@physx@@QBEPBIXZ 10022d00 f i CctCharacterControllerCallbacks.obj
 0001:00021d20       ?getTouches@?$PxHitBuffer@UPxOverlapHit@physx@@@physx@@QBEPBUPxOverlapHit@2@XZ 10022d20 f i CctCharacterControllerCallbacks.obj
 0001:00021d40       ?getTranspose@PxMat33@physx@@QBE?AV12@XZ 10022d40 f i CctCharacterControllerCallbacks.obj
 0001:00021e30       ?getXYZ@PxVec4@physx@@QBE?AVPxVec3@2@XZ 10022e30 f i CctCharacterControllerCallbacks.obj
 0001:00021e90       ?grow@?$Array@VPxTriangle@physx@@VNamedAllocator@shdfnd@2@@shdfnd@physx@@IAEXI@Z 10022e90 f i CctCharacterControllerCallbacks.obj
 0001:00021f10       ?growAndPushBack@?$Array@IVNamedAllocator@shdfnd@physx@@@shdfnd@physx@@IAEAAIABI@Z 10022f10 f i CctCharacterControllerCallbacks.obj
 0001:00022080       ?growAndPushBack@?$Array@VPxTriangle@physx@@VNamedAllocator@shdfnd@2@@shdfnd@physx@@IAEAAVPxTriangle@3@ABV43@@Z 10023080 f i CctCharacterControllerCallbacks.obj
 0001:000221f0       ?processTouches@?$PxHitBuffer@UPxOverlapHit@physx@@@physx@@MAE_NPBUPxOverlapHit@2@I@Z 100231f0 f i CctCharacterControllerCallbacks.obj
 0001:00022220       ?project@PxPlane@physx@@QBE?AVPxVec3@2@ABV32@@Z 10023220 f i CctCharacterControllerCallbacks.obj
 0001:00022280       ?pushBack@?$Array@IVNamedAllocator@shdfnd@physx@@@shdfnd@physx@@QAEAAIABI@Z 10023280 f i CctCharacterControllerCallbacks.obj
 0001:00022320       ?pushBack@?$Array@VPxTriangle@physx@@VNamedAllocator@shdfnd@2@@shdfnd@physx@@QAEAAVPxTriangle@3@ABV43@@Z 10023320 f i CctCharacterControllerCallbacks.obj
 0001:000223c0       ?recreate@?$Array@VPxTriangle@physx@@VNamedAllocator@shdfnd@2@@shdfnd@physx@@IAEXI@Z 100233c0 f i CctCharacterControllerCallbacks.obj
 0001:000224d0       ?reserve@?$Array@VPxTriangle@physx@@VNamedAllocator@shdfnd@2@@shdfnd@physx@@QAEXI@Z 100234d0 f i CctCharacterControllerCallbacks.obj
 0001:00022500       ?resizeUninitialized@?$Array@VPxTriangle@physx@@VNamedAllocator@shdfnd@2@@shdfnd@physx@@QAEXI@Z 10023500 f i CctCharacterControllerCallbacks.obj
 0001:00022530       ?rotate@PxMat44@physx@@QBE?BVPxVec3@2@ABV32@@Z 10023530 f i CctCharacterControllerCallbacks.obj
 0001:00022590       ?rotate@PxMat44@physx@@QBE?BVPxVec4@2@ABV32@@Z 10023590 f i CctCharacterControllerCallbacks.obj
 0001:00022660       ?rotate@PxTransform@physx@@QBE?AVPxVec3@2@ABV32@@Z 10023660 f i CctCharacterControllerCallbacks.obj
 0001:000226f0       ?toMat33@PxMeshScale@physx@@QBE?AVPxMat33@2@XZ 100236f0 f i CctCharacterControllerCallbacks.obj
 0001:000227c0       ?transform@PxMat33@physx@@QBE?AVPxVec3@2@ABV32@@Z 100237c0 f i CctCharacterControllerCallbacks.obj
 0001:00022890       ?transform@PxTransform@physx@@QBE?AVPxPlane@2@ABV32@@Z 10023890 f i CctCharacterControllerCallbacks.obj
 0001:00022950       _PxCreateControllerManager 10023950 f   CctCharacterControllerManager.obj
 0001:000229c0       ??0CharacterControllerManager@Cct@physx@@QAE@AAVPxScene@2@_N@Z 100239c0 f   CctCharacterControllerManager.obj
 0001:00022b60       ??1CharacterControllerManager@Cct@physx@@UAE@XZ 10023b60 f   CctCharacterControllerManager.obj
 0001:00022c10       ?release@CharacterControllerManager@Cct@physx@@UAEXXZ 10023c10 f   CctCharacterControllerManager.obj
 0001:00022cc0       ?getScene@CharacterControllerManager@Cct@physx@@UBEAAVPxScene@3@XZ 10023cc0 f   CctCharacterControllerManager.obj
 0001:00022ce0       ?getNbControllers@CharacterControllerManager@Cct@physx@@UBEIXZ 10023ce0 f   CctCharacterControllerManager.obj
 0001:00022d00       ?getController@CharacterControllerManager@Cct@physx@@UAEPAVPxController@3@I@Z 10023d00 f   CctCharacterControllerManager.obj
 0001:00022dc0       ?createController@CharacterControllerManager@Cct@physx@@UAEPAVPxController@3@ABVPxControllerDesc@3@@Z 10023dc0 f   CctCharacterControllerManager.obj
 0001:00023050       ?purgeControllers@CharacterControllerManager@Cct@physx@@UAEXXZ 10024050 f   CctCharacterControllerManager.obj
 0001:000230a0       ?getRenderBuffer@CharacterControllerManager@Cct@physx@@UAEAAVPxRenderBuffer@3@XZ 100240a0 f   CctCharacterControllerManager.obj
 0001:00023110       ?setDebugRenderingFlags@CharacterControllerManager@Cct@physx@@UAEXV?$PxFlags@W4Enum@PxControllerDebugRenderFlag@physx@@I@3@@Z 10024110 f   CctCharacterControllerManager.obj
 0001:00023180       ?getNbObstacleContexts@CharacterControllerManager@Cct@physx@@UBEIXZ 10024180 f   CctCharacterControllerManager.obj
 0001:000231a0       ?getObstacleContext@CharacterControllerManager@Cct@physx@@UAEPAVPxObstacleContext@3@I@Z 100241a0 f   CctCharacterControllerManager.obj
 0001:00023260       ?createObstacleContext@CharacterControllerManager@Cct@physx@@UAEPAVPxObstacleContext@3@XZ 10024260 f   CctCharacterControllerManager.obj
 0001:000232e0       ?computeInteractions@CharacterControllerManager@Cct@physx@@UAEXMPAVPxControllerFilterCallback@3@@Z 100242e0 f   CctCharacterControllerManager.obj
 0001:00023590       ?setTessellation@CharacterControllerManager@Cct@physx@@UAEX_NM@Z 10024590 f   CctCharacterControllerManager.obj
 0001:000235c0       ?setOverlapRecoveryModule@CharacterControllerManager@Cct@physx@@UAEX_N@Z 100245c0 f   CctCharacterControllerManager.obj
 0001:000235e0       ?setPreciseSweeps@CharacterControllerManager@Cct@physx@@UAEX_N@Z 100245e0 f   CctCharacterControllerManager.obj
 0001:00023600       ?setPreventVerticalSlidingAgainstCeiling@CharacterControllerManager@Cct@physx@@UAEX_N@Z 10024600 f   CctCharacterControllerManager.obj
 0001:00023620       ?shiftOrigin@CharacterControllerManager@Cct@physx@@UAEXABVPxVec3@3@@Z 10024620 f   CctCharacterControllerManager.obj
 0001:00023780       ?onObstacleRemoved@CharacterControllerManager@Cct@physx@@QBEXI@Z 10024780 f   CctCharacterControllerManager.obj
 0001:000237e0       ?onObstacleUpdated@CharacterControllerManager@Cct@physx@@QBEXIPBVPxObstacleContext@3@@Z 100247e0 f   CctCharacterControllerManager.obj
 0001:000238e0       ?onObstacleAdded@CharacterControllerManager@Cct@physx@@QBEXIPBVPxObstacleContext@3@@Z 100248e0 f   CctCharacterControllerManager.obj
 0001:000239e0       ?releaseController@CharacterControllerManager@Cct@physx@@QAEXAAVPxController@3@@Z 100249e0 f   CctCharacterControllerManager.obj
 0001:00023bb0       ?getControllers@CharacterControllerManager@Cct@physx@@QAEPAPAVController@23@XZ 10024bb0 f   CctCharacterControllerManager.obj
 0001:00023bd0       ?releaseObstacleContext@CharacterControllerManager@Cct@physx@@QAEXAAVObstacleContext@23@@Z 10024bd0 f   CctCharacterControllerManager.obj
 0001:00023c90       ?resetObstaclesBuffers@CharacterControllerManager@Cct@physx@@QAEXXZ 10024c90 f   CctCharacterControllerManager.obj
 0001:000264e0       ??$?2V?$ReflectionAllocator@VBoxController@Cct@physx@@@shdfnd@physx@@@UserAllocated@shdfnd@physx@@SAPAXIV?$ReflectionAllocator@VBoxController@Cct@physx@@@12@PBDH@Z 100274e0 f i CctCharacterControllerManager.obj
 0001:00026500       ??$?2V?$ReflectionAllocator@VCapsuleController@Cct@physx@@@shdfnd@physx@@@UserAllocated@shdfnd@physx@@SAPAXIV?$ReflectionAllocator@VCapsuleController@Cct@physx@@@12@PBDH@Z 10027500 f i CctCharacterControllerManager.obj
 0001:00026520       ??$?2V?$ReflectionAllocator@VCharacterControllerManager@Cct@physx@@@shdfnd@physx@@@UserAllocated@shdfnd@physx@@SAPAXIV?$ReflectionAllocator@VCharacterControllerManager@Cct@physx@@@12@PBDH@Z 10027520 f i CctCharacterControllerManager.obj
 0001:00026540       ??$?2V?$ReflectionAllocator@VObstacleContext@Cct@physx@@@shdfnd@physx@@@UserAllocated@shdfnd@physx@@SAPAXIV?$ReflectionAllocator@VObstacleContext@Cct@physx@@@12@PBDH@Z 10027540 f i CctCharacterControllerManager.obj
 0001:00026560       ??$?2V?$ReflectionAllocator@VRenderBuffer@Cm@physx@@@shdfnd@physx@@@UserAllocated@shdfnd@physx@@SAPAXIV?$ReflectionAllocator@VRenderBuffer@Cm@physx@@@12@PBDH@Z 10027560 f i CctCharacterControllerManager.obj
 0001:00026580       ??$append@UPxDebugLine@physx@@@RenderBuffer@Cm@physx@@AAEXAAV?$Array@UPxDebugLine@physx@@VNamedAllocator@shdfnd@2@@shdfnd@2@PBUPxDebugLine@2@I@Z 10027580 f i CctCharacterControllerManager.obj
 0001:000265f0       ??$append@UPxDebugPoint@physx@@@RenderBuffer@Cm@physx@@AAEXAAV?$Array@UPxDebugPoint@physx@@VNamedAllocator@shdfnd@2@@shdfnd@2@PBUPxDebugPoint@2@I@Z 100275f0 f i CctCharacterControllerManager.obj
 0001:00026660       ??$append@UPxDebugText@physx@@@RenderBuffer@Cm@physx@@AAEXAAV?$Array@UPxDebugText@physx@@VNamedAllocator@shdfnd@2@@shdfnd@2@PBUPxDebugText@2@I@Z 10027660 f i CctCharacterControllerManager.obj
 0001:000266d0       ??$append@UPxDebugTriangle@physx@@@RenderBuffer@Cm@physx@@AAEXAAV?$Array@UPxDebugTriangle@physx@@VNamedAllocator@shdfnd@2@@shdfnd@2@PBUPxDebugTriangle@2@I@Z 100276d0 f i CctCharacterControllerManager.obj
 0001:00026740       ??$resetOrClear@V?$Array@PBXVNamedAllocator@shdfnd@physx@@@shdfnd@physx@@@@YAXAAV?$Array@PBXVNamedAllocator@shdfnd@physx@@@shdfnd@physx@@@Z 10027740 f i CctCharacterControllerManager.obj
 0001:000267a0       ??$resetOrClear@V?$Array@UPxExtendedCapsule@physx@@VNamedAllocator@shdfnd@2@@shdfnd@physx@@@@YAXAAV?$Array@UPxExtendedCapsule@physx@@VNamedAllocator@shdfnd@2@@shdfnd@physx@@@Z 100277a0 f i CctCharacterControllerManager.obj
 0001:00026800       ??$resetOrClear@V?$Array@VPxExtendedBox@physx@@VNamedAllocator@shdfnd@2@@shdfnd@physx@@@@YAXAAV?$Array@VPxExtendedBox@physx@@VNamedAllocator@shdfnd@2@@shdfnd@physx@@@Z 10027800 f i CctCharacterControllerManager.obj
 0001:00026860       ??$swap@PAVController@Cct@physx@@@shdfnd@physx@@YAXAAPAVController@Cct@1@0@Z 10027860 f i CctCharacterControllerManager.obj
 0001:00026890       ??0?$Array@DVNamedAllocator@shdfnd@physx@@@shdfnd@physx@@QAE@ABVNamedAllocator@12@@Z 10027890 f i CctCharacterControllerManager.obj
 0001:000268e0       ??0?$Array@PAVController@Cct@physx@@VNamedAllocator@shdfnd@3@@shdfnd@physx@@QAE@ABVNamedAllocator@12@@Z 100278e0 f i CctCharacterControllerManager.obj
 0001:00026930       ??0?$Array@PAVObstacleContext@Cct@physx@@VNamedAllocator@shdfnd@3@@shdfnd@physx@@QAE@ABVNamedAllocator@12@@Z 10027930 f i CctCharacterControllerManager.obj
 0001:00026980       ??0?$Array@PBXVNamedAllocator@shdfnd@physx@@@shdfnd@physx@@QAE@ABVNamedAllocator@12@@Z 10027980 f i CctCharacterControllerManager.obj
 0001:000269d0       ??0?$Array@UPxDebugLine@physx@@VNamedAllocator@shdfnd@2@@shdfnd@physx@@QAE@ABVNamedAllocator@12@@Z 100279d0 f i CctCharacterControllerManager.obj
 0001:00026a20       ??0?$Array@UPxDebugPoint@physx@@VNamedAllocator@shdfnd@2@@shdfnd@physx@@QAE@ABVNamedAllocator@12@@Z 10027a20 f i CctCharacterControllerManager.obj
 0001:00026a70       ??0?$Array@UPxDebugText@physx@@VNamedAllocator@shdfnd@2@@shdfnd@physx@@QAE@ABVNamedAllocator@12@@Z 10027a70 f i CctCharacterControllerManager.obj
 0001:00026ac0       ??0?$Array@UPxDebugTriangle@physx@@VNamedAllocator@shdfnd@2@@shdfnd@physx@@QAE@ABVNamedAllocator@12@@Z 10027ac0 f i CctCharacterControllerManager.obj
 0001:00026b10       ??0?$Array@UPxExtendedCapsule@physx@@VNamedAllocator@shdfnd@2@@shdfnd@physx@@QAE@ABVNamedAllocator@12@@Z 10027b10 f i CctCharacterControllerManager.obj
 0001:00026b60       ??0?$Array@VPxExtendedBox@physx@@VNamedAllocator@shdfnd@2@@shdfnd@physx@@QAE@ABVNamedAllocator@12@@Z 10027b60 f i CctCharacterControllerManager.obj
 0001:00026bb0       ??0?$HashBase@PAVPxShape@physx@@PAV12@U?$Hash@PAVPxShape@physx@@@shdfnd@2@UGetKey@?$HashSetBase@PAVPxShape@physx@@U?$Hash@PAVPxShape@physx@@@shdfnd@2@VAllocator@42@$0A@@internal@42@VAllocator@42@$0A@@internal@shdfnd@physx@@QAE@IM@Z 10027bb0 f i CctCharacterControllerManager.obj
 0001:00026c00       ??0?$HashSet@PAVPxShape@physx@@U?$Hash@PAVPxShape@physx@@@shdfnd@2@VAllocator@42@@shdfnd@physx@@QAE@IM@Z 10027c00 f i CctCharacterControllerManager.obj
 0001:00026c30       ??0?$HashSetBase@PAVPxShape@physx@@U?$Hash@PAVPxShape@physx@@@shdfnd@2@VAllocator@42@$0A@@internal@shdfnd@physx@@QAE@IM@Z 10027c30 f i CctCharacterControllerManager.obj
 0001:00026c70       ??0?$PxFlags@W4Enum@PxControllerDebugRenderFlag@physx@@I@physx@@QAE@I@Z 10027c70 f i CctCharacterControllerManager.obj
 0001:00026c90       ??0?$ReflectionAllocator@VBoxController@Cct@physx@@@shdfnd@physx@@QAE@PBD@Z 10027c90 f i CctCharacterControllerManager.obj
 0001:00026cb0       ??0?$ReflectionAllocator@VCapsuleController@Cct@physx@@@shdfnd@physx@@QAE@PBD@Z 10027cb0 f i CctCharacterControllerManager.obj
 0001:00026cd0       ??0?$ReflectionAllocator@VCharacterControllerManager@Cct@physx@@@shdfnd@physx@@QAE@PBD@Z 10027cd0 f i CctCharacterControllerManager.obj
 0001:00026cf0       ??0?$ReflectionAllocator@VObstacleContext@Cct@physx@@@shdfnd@physx@@QAE@PBD@Z 10027cf0 f i CctCharacterControllerManager.obj
 0001:00026d10       ??0?$ReflectionAllocator@VRenderBuffer@Cm@physx@@@shdfnd@physx@@QAE@PBD@Z 10027d10 f i CctCharacterControllerManager.obj
 0001:00026d30       ??0Axes@Gu@physx@@QAE@W4AxisOrder@12@@Z 10027d30 f i CctCharacterControllerManager.obj
 0001:00026d80       ??0PxDebugLine@physx@@QAE@ABU01@@Z 10027d80 f i CctCharacterControllerManager.obj
 0001:00026df0       ??0PxDebugPoint@physx@@QAE@ABU01@@Z 10027df0 f i CctCharacterControllerManager.obj
 0001:00026e30       ??0PxDebugText@physx@@QAE@ABU01@@Z 10027e30 f i CctCharacterControllerManager.obj
 0001:00026e90       ??0PxDebugTriangle@physx@@QAE@ABU01@@Z 10027e90 f i CctCharacterControllerManager.obj
 0001:00026f30       ??0PxRenderBuffer@physx@@QAE@XZ 10027f30 f i CctCharacterControllerManager.obj
 0001:00026f50       ??0RenderBuffer@Cm@physx@@QAE@XZ 10027f50 f i CctCharacterControllerManager.obj
 0001:00027090       ??1?$Array@DVNamedAllocator@shdfnd@physx@@@shdfnd@physx@@QAE@XZ 10028090 f i CctCharacterControllerManager.obj
 0001:00027100       ??1?$Array@PAVController@Cct@physx@@VNamedAllocator@shdfnd@3@@shdfnd@physx@@QAE@XZ 10028100 f i CctCharacterControllerManager.obj
 0001:00027170       ??1?$Array@PAVObstacleContext@Cct@physx@@VNamedAllocator@shdfnd@3@@shdfnd@physx@@QAE@XZ 10028170 f i CctCharacterControllerManager.obj
 0001:000271e0       ??1?$Array@PBXVNamedAllocator@shdfnd@physx@@@shdfnd@physx@@QAE@XZ 100281e0 f i CctCharacterControllerManager.obj
 0001:00027250       ??1?$Array@UPxDebugLine@physx@@VNamedAllocator@shdfnd@2@@shdfnd@physx@@QAE@XZ 10028250 f i CctCharacterControllerManager.obj
 0001:000272c0       ??1?$Array@UPxDebugPoint@physx@@VNamedAllocator@shdfnd@2@@shdfnd@physx@@QAE@XZ 100282c0 f i CctCharacterControllerManager.obj
 0001:00027330       ??1?$Array@UPxDebugText@physx@@VNamedAllocator@shdfnd@2@@shdfnd@physx@@QAE@XZ 10028330 f i CctCharacterControllerManager.obj
 0001:000273a0       ??1?$Array@UPxDebugTriangle@physx@@VNamedAllocator@shdfnd@2@@shdfnd@physx@@QAE@XZ 100283a0 f i CctCharacterControllerManager.obj
 0001:00027410       ??1?$Array@UPxExtendedCapsule@physx@@VNamedAllocator@shdfnd@2@@shdfnd@physx@@QAE@XZ 10028410 f i CctCharacterControllerManager.obj
 0001:00027480       ??1?$Array@VPxExtendedBox@physx@@VNamedAllocator@shdfnd@2@@shdfnd@physx@@QAE@XZ 10028480 f i CctCharacterControllerManager.obj
 0001:000274f0       ??1?$HashBase@PAVPxShape@physx@@PAV12@U?$Hash@PAVPxShape@physx@@@shdfnd@2@UGetKey@?$HashSetBase@PAVPxShape@physx@@U?$Hash@PAVPxShape@physx@@@shdfnd@2@VAllocator@42@$0A@@internal@42@VAllocator@42@$0A@@internal@shdfnd@physx@@QAE@XZ 100284f0 f i CctCharacterControllerManager.obj
 0001:00027530       ??1?$HashSet@PAVPxShape@physx@@U?$Hash@PAVPxShape@physx@@@shdfnd@2@VAllocator@42@@shdfnd@physx@@QAE@XZ 10028530 f i CctCharacterControllerManager.obj
 0001:00027550       ??1?$HashSetBase@PAVPxShape@physx@@U?$Hash@PAVPxShape@physx@@@shdfnd@2@VAllocator@42@$0A@@internal@shdfnd@physx@@QAE@XZ 10028550 f i CctCharacterControllerManager.obj
 0001:00027570       ??1Axes@Gu@physx@@QAE@XZ   10028570 f i CctCharacterControllerManager.obj
 0001:00027580       ??1PxRenderBuffer@physx@@UAE@XZ 10028580 f i CctCharacterControllerManager.obj
 0001:000275a0       ??1RenderBuffer@Cm@physx@@UAE@XZ 100285a0 f i CctCharacterControllerManager.obj
 0001:00027600       ??4?$PxFlags@W4Enum@PxControllerDebugRenderFlag@physx@@I@physx@@QAEAAV01@ABV01@@Z 10028600 f i CctCharacterControllerManager.obj
 0001:00027620       ??4PxBounds3@physx@@QAEAAV01@$$QAV01@@Z 10028620 f i CctCharacterControllerManager.obj
 0001:00027660       ??A?$Array@PAVController@Cct@physx@@VNamedAllocator@shdfnd@3@@shdfnd@physx@@QAEAAPAVController@Cct@2@I@Z 10028660 f i CctCharacterControllerManager.obj
 0001:000276e0       ??A?$Array@PAVController@Cct@physx@@VNamedAllocator@shdfnd@3@@shdfnd@physx@@QBEABQAVController@Cct@2@I@Z 100286e0 f i CctCharacterControllerManager.obj
 0001:00027760       ??A?$Array@PAVObstacleContext@Cct@physx@@VNamedAllocator@shdfnd@3@@shdfnd@physx@@QAEAAPAVObstacleContext@Cct@2@I@Z 10028760 f i CctCharacterControllerManager.obj
 0001:000277e0       ??A?$Array@UPxDebugLine@physx@@VNamedAllocator@shdfnd@2@@shdfnd@physx@@QAEAAUPxDebugLine@2@I@Z 100287e0 f i CctCharacterControllerManager.obj
 0001:00027860       ??A?$Array@UPxDebugPoint@physx@@VNamedAllocator@shdfnd@2@@shdfnd@physx@@QAEAAUPxDebugPoint@2@I@Z 10028860 f i CctCharacterControllerManager.obj
 0001:000278e0       ??A?$Array@UPxDebugText@physx@@VNamedAllocator@shdfnd@2@@shdfnd@physx@@QAEAAUPxDebugText@2@I@Z 100288e0 f i CctCharacterControllerManager.obj
 0001:00027960       ??A?$Array@UPxDebugTriangle@physx@@VNamedAllocator@shdfnd@2@@shdfnd@physx@@QAEAAUPxDebugTriangle@2@I@Z 10028960 f i CctCharacterControllerManager.obj
 0001:000279e0       ??APxMat33@physx@@QBEABVPxVec3@1@H@Z 100289e0 f i CctCharacterControllerManager.obj
 0001:00027a00       ??APxMat33@physx@@QBEABVPxVec3@1@I@Z 10028a00 f i CctCharacterControllerManager.obj
 0001:00027a20       ??APxVec3@physx@@QBEABMI@Z 10028a20 f i CctCharacterControllerManager.obj
 0001:00027a90       ??B?$PxFlags@W4Enum@PxControllerDebugRenderFlag@physx@@I@physx@@QBE_NXZ 10028a90 f i CctCharacterControllerManager.obj
 0001:00027ac0       ??_GCharacterControllerManager@Cct@physx@@UAEPAXI@Z 10028ac0 f i CctCharacterControllerManager.obj
 0001:00027ac0       ??_ECharacterControllerManager@Cct@physx@@UAEPAXI@Z 10028ac0 f i CctCharacterControllerManager.obj
 0001:00027b20       ??_EPxRenderBuffer@physx@@UAEPAXI@Z 10028b20 f i CctCharacterControllerManager.obj
 0001:00027b20       ??_GPxRenderBuffer@physx@@UAEPAXI@Z 10028b20 f i CctCharacterControllerManager.obj
 0001:00027b60       ??_ERenderBuffer@Cm@physx@@UAEPAXI@Z 10028b60 f i CctCharacterControllerManager.obj
 0001:00027b60       ??_GRenderBuffer@Cm@physx@@UAEPAXI@Z 10028b60 f i CctCharacterControllerManager.obj
 0001:00027bc0       ?PxMemCopy@physx@@YAPAXPIAXPIBXI@Z 10028bc0 f i CctCharacterControllerManager.obj
 0001:00027be0       ?PxMemSet@physx@@YAPAXPIAXHI@Z 10028be0 f i CctCharacterControllerManager.obj
 0001:00027c00       ?allocate@?$Array@PAVController@Cct@physx@@VNamedAllocator@shdfnd@3@@shdfnd@physx@@IAEPAPAVController@Cct@3@I@Z 10028c00 f i CctCharacterControllerManager.obj
 0001:00027c80       ?allocate@?$Array@PAVObstacleContext@Cct@physx@@VNamedAllocator@shdfnd@3@@shdfnd@physx@@IAEPAPAVObstacleContext@Cct@3@I@Z 10028c80 f i CctCharacterControllerManager.obj
 0001:00027d00       ?allocate@?$Array@UPxDebugLine@physx@@VNamedAllocator@shdfnd@2@@shdfnd@physx@@IAEPAUPxDebugLine@3@I@Z 10028d00 f i CctCharacterControllerManager.obj
 0001:00027d80       ?allocate@?$Array@UPxDebugPoint@physx@@VNamedAllocator@shdfnd@2@@shdfnd@physx@@IAEPAUPxDebugPoint@3@I@Z 10028d80 f i CctCharacterControllerManager.obj
 0001:00027e00       ?allocate@?$Array@UPxDebugText@physx@@VNamedAllocator@shdfnd@2@@shdfnd@physx@@IAEPAUPxDebugText@3@I@Z 10028e00 f i CctCharacterControllerManager.obj
 0001:00027e80       ?allocate@?$Array@UPxDebugTriangle@physx@@VNamedAllocator@shdfnd@2@@shdfnd@physx@@IAEPAUPxDebugTriangle@3@I@Z 10028e80 f i CctCharacterControllerManager.obj
 0001:00027f00       ?allocate@?$ReflectionAllocator@VBoxController@Cct@physx@@@shdfnd@physx@@QAEPAXIPBDH@Z 10028f00 f i CctCharacterControllerManager.obj
 0001:00027f70       ?allocate@?$ReflectionAllocator@VCapsuleController@Cct@physx@@@shdfnd@physx@@QAEPAXIPBDH@Z 10028f70 f i CctCharacterControllerManager.obj
 0001:00027fe0       ?allocate@?$ReflectionAllocator@VCharacterControllerManager@Cct@physx@@@shdfnd@physx@@QAEPAXIPBDH@Z 10028fe0 f i CctCharacterControllerManager.obj
 0001:00028050       ?allocate@?$ReflectionAllocator@VObstacleContext@Cct@physx@@@shdfnd@physx@@QAEPAXIPBDH@Z 10029050 f i CctCharacterControllerManager.obj
 0001:000280c0       ?allocate@?$ReflectionAllocator@VRenderBuffer@Cm@physx@@@shdfnd@physx@@QAEPAXIPBDH@Z 100290c0 f i CctCharacterControllerManager.obj
 0001:00028130       ?append@RenderBuffer@Cm@physx@@UAEXABVPxRenderBuffer@3@@Z 10029130 f i CctCharacterControllerManager.obj
 0001:00028260       ?begin@?$Array@PAVController@Cct@physx@@VNamedAllocator@shdfnd@3@@shdfnd@physx@@QAEPAPAVController@Cct@3@XZ 10029260 f i CctCharacterControllerManager.obj
 0001:00028280       ?begin@?$Array@UPxDebugLine@physx@@VNamedAllocator@shdfnd@2@@shdfnd@physx@@QBEPBUPxDebugLine@3@XZ 10029280 f i CctCharacterControllerManager.obj
 0001:000282a0       ?begin@?$Array@UPxDebugPoint@physx@@VNamedAllocator@shdfnd@2@@shdfnd@physx@@QBEPBUPxDebugPoint@3@XZ 100292a0 f i CctCharacterControllerManager.obj
 0001:000282c0       ?begin@?$Array@UPxDebugText@physx@@VNamedAllocator@shdfnd@2@@shdfnd@physx@@QBEPBUPxDebugText@3@XZ 100292c0 f i CctCharacterControllerManager.obj
 0001:000282e0       ?begin@?$Array@UPxDebugTriangle@physx@@VNamedAllocator@shdfnd@2@@shdfnd@physx@@QBEPBUPxDebugTriangle@3@XZ 100292e0 f i CctCharacterControllerManager.obj
 0001:00028300       ?capacity@?$Array@DVNamedAllocator@shdfnd@physx@@@shdfnd@physx@@QBEIXZ 10029300 f i CctCharacterControllerManager.obj
 0001:00028320       ?capacity@?$Array@PAVController@Cct@physx@@VNamedAllocator@shdfnd@3@@shdfnd@physx@@QBEIXZ 10029320 f i CctCharacterControllerManager.obj
 0001:00028340       ?capacity@?$Array@PAVObstacleContext@Cct@physx@@VNamedAllocator@shdfnd@3@@shdfnd@physx@@QBEIXZ 10029340 f i CctCharacterControllerManager.obj
 0001:00028360       ?capacity@?$Array@UPxDebugLine@physx@@VNamedAllocator@shdfnd@2@@shdfnd@physx@@QBEIXZ 10029360 f i CctCharacterControllerManager.obj
 0001:00028380       ?capacity@?$Array@UPxDebugPoint@physx@@VNamedAllocator@shdfnd@2@@shdfnd@physx@@QBEIXZ 10029380 f i CctCharacterControllerManager.obj
 0001:000283a0       ?capacity@?$Array@UPxDebugText@physx@@VNamedAllocator@shdfnd@2@@shdfnd@physx@@QBEIXZ 100293a0 f i CctCharacterControllerManager.obj
 0001:000283c0       ?capacity@?$Array@UPxDebugTriangle@physx@@VNamedAllocator@shdfnd@2@@shdfnd@physx@@QBEIXZ 100293c0 f i CctCharacterControllerManager.obj
 0001:000283e0       ?capacityIncrement@?$Array@PAVController@Cct@physx@@VNamedAllocator@shdfnd@3@@shdfnd@physx@@IBEIXZ 100293e0 f i CctCharacterControllerManager.obj
 0001:00028420       ?capacityIncrement@?$Array@PAVObstacleContext@Cct@physx@@VNamedAllocator@shdfnd@3@@shdfnd@physx@@IBEIXZ 10029420 f i CctCharacterControllerManager.obj
 0001:00028460       ?capacityIncrement@?$Array@UPxDebugLine@physx@@VNamedAllocator@shdfnd@2@@shdfnd@physx@@IBEIXZ 10029460 f i CctCharacterControllerManager.obj
 0001:000284a0       ?capacityIncrement@?$Array@UPxDebugPoint@physx@@VNamedAllocator@shdfnd@2@@shdfnd@physx@@IBEIXZ 100294a0 f i CctCharacterControllerManager.obj
 0001:000284e0       ?capacityIncrement@?$Array@UPxDebugText@physx@@VNamedAllocator@shdfnd@2@@shdfnd@physx@@IBEIXZ 100294e0 f i CctCharacterControllerManager.obj
 0001:00028520       ?capacityIncrement@?$Array@UPxDebugTriangle@physx@@VNamedAllocator@shdfnd@2@@shdfnd@physx@@IBEIXZ 10029520 f i CctCharacterControllerManager.obj
 0001:00028560       ?clear@?$Array@DVNamedAllocator@shdfnd@physx@@@shdfnd@physx@@QAEXXZ 10029560 f i CctCharacterControllerManager.obj
 0001:000285a0       ?clear@?$Array@PBXVNamedAllocator@shdfnd@physx@@@shdfnd@physx@@QAEXXZ 100295a0 f i CctCharacterControllerManager.obj
 0001:000285e0       ?clear@?$Array@UPxDebugLine@physx@@VNamedAllocator@shdfnd@2@@shdfnd@physx@@QAEXXZ 100295e0 f i CctCharacterControllerManager.obj
 0001:00028620       ?clear@?$Array@UPxDebugPoint@physx@@VNamedAllocator@shdfnd@2@@shdfnd@physx@@QAEXXZ 10029620 f i CctCharacterControllerManager.obj
 0001:00028660       ?clear@?$Array@UPxDebugText@physx@@VNamedAllocator@shdfnd@2@@shdfnd@physx@@QAEXXZ 10029660 f i CctCharacterControllerManager.obj
 0001:000286a0       ?clear@?$Array@UPxDebugTriangle@physx@@VNamedAllocator@shdfnd@2@@shdfnd@physx@@QAEXXZ 100296a0 f i CctCharacterControllerManager.obj
 0001:000286e0       ?clear@?$Array@UPxExtendedCapsule@physx@@VNamedAllocator@shdfnd@2@@shdfnd@physx@@QAEXXZ 100296e0 f i CctCharacterControllerManager.obj
 0001:00028720       ?clear@?$Array@VPxExtendedBox@physx@@VNamedAllocator@shdfnd@2@@shdfnd@physx@@QAEXXZ 10029720 f i CctCharacterControllerManager.obj
 0001:00028760       ?clear@RenderBuffer@Cm@physx@@UAEXXZ 10029760 f i CctCharacterControllerManager.obj
 0001:000287c0       ?copy@?$Array@PAVController@Cct@physx@@VNamedAllocator@shdfnd@3@@shdfnd@physx@@KAXPAPAVController@Cct@3@0PBQAV453@@Z 100297c0 f i CctCharacterControllerManager.obj
 0001:00028820       ?copy@?$Array@PAVObstacleContext@Cct@physx@@VNamedAllocator@shdfnd@3@@shdfnd@physx@@KAXPAPAVObstacleContext@Cct@3@0PBQAV453@@Z 10029820 f i CctCharacterControllerManager.obj
 0001:00028880       ?copy@?$Array@UPxDebugLine@physx@@VNamedAllocator@shdfnd@2@@shdfnd@physx@@KAXPAUPxDebugLine@3@0PBU43@@Z 10029880 f i CctCharacterControllerManager.obj
 0001:000288e0       ?copy@?$Array@UPxDebugPoint@physx@@VNamedAllocator@shdfnd@2@@shdfnd@physx@@KAXPAUPxDebugPoint@3@0PBU43@@Z 100298e0 f i CctCharacterControllerManager.obj
 0001:00028940       ?copy@?$Array@UPxDebugText@physx@@VNamedAllocator@shdfnd@2@@shdfnd@physx@@KAXPAUPxDebugText@3@0PBU43@@Z 10029940 f i CctCharacterControllerManager.obj
 0001:000289a0       ?copy@?$Array@UPxDebugTriangle@physx@@VNamedAllocator@shdfnd@2@@shdfnd@physx@@KAXPAUPxDebugTriangle@3@0PBU43@@Z 100299a0 f i CctCharacterControllerManager.obj
 0001:00028a00       ?create@?$Array@PBXVNamedAllocator@shdfnd@physx@@@shdfnd@physx@@KAXPAPBX0ABQBX@Z 10029a00 f i CctCharacterControllerManager.obj
 0001:00028a50       ?create@?$Array@UPxExtendedCapsule@physx@@VNamedAllocator@shdfnd@2@@shdfnd@physx@@KAXPAUPxExtendedCapsule@3@0ABU43@@Z 10029a50 f i CctCharacterControllerManager.obj
 0001:00028aa0       ?create@?$Array@VPxExtendedBox@physx@@VNamedAllocator@shdfnd@2@@shdfnd@physx@@KAXPAVPxExtendedBox@3@0ABV43@@Z 10029aa0 f i CctCharacterControllerManager.obj
 0001:00028af0       ?create@?$HashBase@PAVPxShape@physx@@PAV12@U?$Hash@PAVPxShape@physx@@@shdfnd@2@UGetKey@?$HashSetBase@PAVPxShape@physx@@U?$Hash@PAVPxShape@physx@@@shdfnd@2@VAllocator@42@$0A@@internal@42@VAllocator@42@$0A@@internal@shdfnd@physx@@QAEPAPAVPxShape@4@ABQAV54@AA_N@Z 10029af0 f i CctCharacterControllerManager.obj
 0001:00028c90       ?createController@CharacterControllerManager@Cct@physx@@UAEPAVPxController@3@AAVPxPhysics@3@PAVPxScene@3@ABVPxControllerDesc@3@@Z 10029c90 f i CctCharacterControllerManager.obj
 0001:00028cc0       ?deallocate@?$Array@DVNamedAllocator@shdfnd@physx@@@shdfnd@physx@@IAEXPAX@Z 10029cc0 f i CctCharacterControllerManager.obj
 0001:00028ce0       ?deallocate@?$Array@PAVController@Cct@physx@@VNamedAllocator@shdfnd@3@@shdfnd@physx@@IAEXPAX@Z 10029ce0 f i CctCharacterControllerManager.obj
 0001:00028d00       ?deallocate@?$Array@PAVObstacleContext@Cct@physx@@VNamedAllocator@shdfnd@3@@shdfnd@physx@@IAEXPAX@Z 10029d00 f i CctCharacterControllerManager.obj
 0001:00028d20       ?deallocate@?$Array@UPxDebugLine@physx@@VNamedAllocator@shdfnd@2@@shdfnd@physx@@IAEXPAX@Z 10029d20 f i CctCharacterControllerManager.obj
 0001:00028d40       ?deallocate@?$Array@UPxDebugPoint@physx@@VNamedAllocator@shdfnd@2@@shdfnd@physx@@IAEXPAX@Z 10029d40 f i CctCharacterControllerManager.obj
 0001:00028d60       ?deallocate@?$Array@UPxDebugText@physx@@VNamedAllocator@shdfnd@2@@shdfnd@physx@@IAEXPAX@Z 10029d60 f i CctCharacterControllerManager.obj
 0001:00028d80       ?deallocate@?$Array@UPxDebugTriangle@physx@@VNamedAllocator@shdfnd@2@@shdfnd@physx@@IAEXPAX@Z 10029d80 f i CctCharacterControllerManager.obj
 0001:00028da0       ?destroy@?$Array@DVNamedAllocator@shdfnd@physx@@@shdfnd@physx@@KAXPAD0@Z 10029da0 f i CctCharacterControllerManager.obj
 0001:00028dc0       ?destroy@?$Array@PAVController@Cct@physx@@VNamedAllocator@shdfnd@3@@shdfnd@physx@@KAXPAPAVController@Cct@3@0@Z 10029dc0 f i CctCharacterControllerManager.obj
 0001:00028de0       ?destroy@?$Array@PAVObstacleContext@Cct@physx@@VNamedAllocator@shdfnd@3@@shdfnd@physx@@KAXPAPAVObstacleContext@Cct@3@0@Z 10029de0 f i CctCharacterControllerManager.obj
 0001:00028e00       ?destroy@?$Array@UPxDebugLine@physx@@VNamedAllocator@shdfnd@2@@shdfnd@physx@@KAXPAUPxDebugLine@3@0@Z 10029e00 f i CctCharacterControllerManager.obj
 0001:00028e20       ?destroy@?$Array@UPxDebugPoint@physx@@VNamedAllocator@shdfnd@2@@shdfnd@physx@@KAXPAUPxDebugPoint@3@0@Z 10029e20 f i CctCharacterControllerManager.obj
 0001:00028e40       ?destroy@?$Array@UPxDebugText@physx@@VNamedAllocator@shdfnd@2@@shdfnd@physx@@KAXPAUPxDebugText@3@0@Z 10029e40 f i CctCharacterControllerManager.obj
 0001:00028e60       ?destroy@?$Array@UPxDebugTriangle@physx@@VNamedAllocator@shdfnd@2@@shdfnd@physx@@KAXPAUPxDebugTriangle@3@0@Z 10029e60 f i CctCharacterControllerManager.obj
 0001:00028e80       ?destroy@?$HashBase@PAVPxShape@physx@@PAV12@U?$Hash@PAVPxShape@physx@@@shdfnd@2@UGetKey@?$HashSetBase@PAVPxShape@physx@@U?$Hash@PAVPxShape@physx@@@shdfnd@2@VAllocator@42@$0A@@internal@42@VAllocator@42@$0A@@internal@shdfnd@physx@@AAEXXZ 10029e80 f i CctCharacterControllerManager.obj
 0001:00028ef0       ?end@?$Array@PAVObstacleContext@Cct@physx@@VNamedAllocator@shdfnd@3@@shdfnd@physx@@QAEPAPAVObstacleContext@Cct@3@XZ 10029ef0 f i CctCharacterControllerManager.obj
 0001:00028f10       ?erase@?$HashBase@PAVPxShape@physx@@PAV12@U?$Hash@PAVPxShape@physx@@@shdfnd@2@UGetKey@?$HashSetBase@PAVPxShape@physx@@U?$Hash@PAVPxShape@physx@@@shdfnd@2@VAllocator@42@$0A@@internal@42@VAllocator@42@$0A@@internal@shdfnd@physx@@QAE_NABQAVPxShape@4@@Z 10029f10 f i CctCharacterControllerManager.obj
 0001:00029030       ?erase@?$HashSetBase@PAVPxShape@physx@@U?$Hash@PAVPxShape@physx@@@shdfnd@2@VAllocator@42@$0A@@internal@shdfnd@physx@@QAE_NABQAVPxShape@4@@Z 1002a030 f i CctCharacterControllerManager.obj
 0001:00029060       ?find@?$Array@PAVObstacleContext@Cct@physx@@VNamedAllocator@shdfnd@3@@shdfnd@physx@@QAEPAPAVObstacleContext@Cct@3@ABQAV453@@Z 1002a060 f i CctCharacterControllerManager.obj
 0001:000290c0       ?findAndReplaceWithLast@?$Array@PAVObstacleContext@Cct@physx@@VNamedAllocator@shdfnd@3@@shdfnd@physx@@QAE_NABQAVObstacleContext@Cct@3@@Z 1002a0c0 f i CctCharacterControllerManager.obj
 0001:00029140       ?freeListAdd@?$HashBase@PAVPxShape@physx@@PAV12@U?$Hash@PAVPxShape@physx@@@shdfnd@2@UGetKey@?$HashSetBase@PAVPxShape@physx@@U?$Hash@PAVPxShape@physx@@@shdfnd@2@VAllocator@42@$0A@@internal@42@VAllocator@42@$0A@@internal@shdfnd@physx@@AAEXI@Z 1002a140 f i CctCharacterControllerManager.obj
 0001:000291f0       ?freeListAdd@?$HashBase@PAVPxShape@physx@@PAV12@U?$Hash@PAVPxShape@physx@@@shdfnd@2@UGetKey@?$HashSetBase@PAVPxShape@physx@@U?$Hash@PAVPxShape@physx@@@shdfnd@2@VAllocator@42@$0A@@internal@42@VAllocator@42@$0A@@internal@shdfnd@physx@@AAEXII@Z 1002a1f0 f i CctCharacterControllerManager.obj
 0001:000292f0       ?freeListEmpty@?$HashBase@PAVPxShape@physx@@PAV12@U?$Hash@PAVPxShape@physx@@@shdfnd@2@UGetKey@?$HashSetBase@PAVPxShape@physx@@U?$Hash@PAVPxShape@physx@@@shdfnd@2@VAllocator@42@$0A@@internal@42@VAllocator@42@$0A@@internal@shdfnd@physx@@ABE_NXZ 1002a2f0 f i CctCharacterControllerManager.obj
 0001:00029360       ?freeListGetNext@?$HashBase@PAVPxShape@physx@@PAV12@U?$Hash@PAVPxShape@physx@@@shdfnd@2@UGetKey@?$HashSetBase@PAVPxShape@physx@@U?$Hash@PAVPxShape@physx@@@shdfnd@2@VAllocator@42@$0A@@internal@42@VAllocator@42@$0A@@internal@shdfnd@physx@@AAEIXZ 1002a360 f i CctCharacterControllerManager.obj
 0001:00029480       ?getFoundation@shdfnd@physx@@YAAAVFoundation@12@XZ 1002a480 f i CctCharacterControllerManager.obj
 0001:00029490       ?getLines@RenderBuffer@Cm@physx@@UBEPBUPxDebugLine@3@XZ 1002a490 f i CctCharacterControllerManager.obj
 0001:000294b0       ?getName@?$ReflectionAllocator@VBoxController@Cct@physx@@@shdfnd@physx@@CAPBDXZ 1002a4b0 f i CctCharacterControllerManager.obj
 0001:00029500       ?getName@?$ReflectionAllocator@VCapsuleController@Cct@physx@@@shdfnd@physx@@CAPBDXZ 1002a500 f i CctCharacterControllerManager.obj
 0001:00029550       ?getName@?$ReflectionAllocator@VCharacterControllerManager@Cct@physx@@@shdfnd@physx@@CAPBDXZ 1002a550 f i CctCharacterControllerManager.obj
 0001:000295a0       ?getName@?$ReflectionAllocator@VObstacleContext@Cct@physx@@@shdfnd@physx@@CAPBDXZ 1002a5a0 f i CctCharacterControllerManager.obj
 0001:000295f0       ?getName@?$ReflectionAllocator@VRenderBuffer@Cm@physx@@@shdfnd@physx@@CAPBDXZ 1002a5f0 f i CctCharacterControllerManager.obj
 0001:00029640       ?getNbLines@RenderBuffer@Cm@physx@@UBEIXZ 1002a640 f i CctCharacterControllerManager.obj
 0001:00029660       ?getNbPoints@RenderBuffer@Cm@physx@@UBEIXZ 1002a660 f i CctCharacterControllerManager.obj
 0001:00029680       ?getNbTexts@RenderBuffer@Cm@physx@@UBEIXZ 1002a680 f i CctCharacterControllerManager.obj
 0001:000296a0       ?getNbTriangles@RenderBuffer@Cm@physx@@UBEIXZ 1002a6a0 f i CctCharacterControllerManager.obj
 0001:000296c0       ?getPoints@RenderBuffer@Cm@physx@@UBEPBUPxDebugPoint@3@XZ 1002a6c0 f i CctCharacterControllerManager.obj
 0001:000296e0       ?getTexts@RenderBuffer@Cm@physx@@UBEPBUPxDebugText@3@XZ 1002a6e0 f i CctCharacterControllerManager.obj
 0001:00029700       ?getTriangles@RenderBuffer@Cm@physx@@UBEPBUPxDebugTriangle@3@XZ 1002a700 f i CctCharacterControllerManager.obj
 0001:00029720       ?getType@PxControllerDesc@physx@@QBE?AW4Enum@PxControllerShapeType@2@XZ 1002a720 f i CctCharacterControllerManager.obj
 0001:00029740       ?grow@?$Array@PBXVNamedAllocator@shdfnd@physx@@@shdfnd@physx@@IAEXI@Z 1002a740 f i CctCharacterControllerManager.obj
 0001:000297c0       ?grow@?$Array@UPxDebugLine@physx@@VNamedAllocator@shdfnd@2@@shdfnd@physx@@IAEXI@Z 1002a7c0 f i CctCharacterControllerManager.obj
 0001:00029840       ?grow@?$Array@UPxDebugPoint@physx@@VNamedAllocator@shdfnd@2@@shdfnd@physx@@IAEXI@Z 1002a840 f i CctCharacterControllerManager.obj
 0001:000298c0       ?grow@?$Array@UPxDebugText@physx@@VNamedAllocator@shdfnd@2@@shdfnd@physx@@IAEXI@Z 1002a8c0 f i CctCharacterControllerManager.obj
 0001:00029940       ?grow@?$Array@UPxDebugTriangle@physx@@VNamedAllocator@shdfnd@2@@shdfnd@physx@@IAEXI@Z 1002a940 f i CctCharacterControllerManager.obj
 0001:000299c0       ?grow@?$Array@UPxExtendedCapsule@physx@@VNamedAllocator@shdfnd@2@@shdfnd@physx@@IAEXI@Z 1002a9c0 f i CctCharacterControllerManager.obj
 0001:00029a40       ?grow@?$Array@VPxExtendedBox@physx@@VNamedAllocator@shdfnd@2@@shdfnd@physx@@IAEXI@Z 1002aa40 f i CctCharacterControllerManager.obj
 0001:00029ac0       ?grow@?$HashBase@PAVPxShape@physx@@PAV12@U?$Hash@PAVPxShape@physx@@@shdfnd@2@UGetKey@?$HashSetBase@PAVPxShape@physx@@U?$Hash@PAVPxShape@physx@@@shdfnd@2@VAllocator@42@$0A@@internal@42@VAllocator@42@$0A@@internal@shdfnd@physx@@AAEXXZ 1002aac0 f i CctCharacterControllerManager.obj
 0001:00029b70       ?growAndPushBack@?$Array@PAVController@Cct@physx@@VNamedAllocator@shdfnd@3@@shdfnd@physx@@IAEAAPAVController@Cct@3@ABQAV453@@Z 1002ab70 f i CctCharacterControllerManager.obj
 0001:00029ce0       ?growAndPushBack@?$Array@PAVObstacleContext@Cct@physx@@VNamedAllocator@shdfnd@3@@shdfnd@physx@@IAEAAPAVObstacleContext@Cct@3@ABQAV453@@Z 1002ace0 f i CctCharacterControllerManager.obj
 0001:00029e50       ?growAndPushBack@?$Array@UPxDebugLine@physx@@VNamedAllocator@shdfnd@2@@shdfnd@physx@@IAEAAUPxDebugLine@3@ABU43@@Z 1002ae50 f i CctCharacterControllerManager.obj
 0001:00029fd0       ?growAndPushBack@?$Array@UPxDebugPoint@physx@@VNamedAllocator@shdfnd@2@@shdfnd@physx@@IAEAAUPxDebugPoint@3@ABU43@@Z 1002afd0 f i CctCharacterControllerManager.obj
 0001:0002a150       ?growAndPushBack@?$Array@UPxDebugText@physx@@VNamedAllocator@shdfnd@2@@shdfnd@physx@@IAEAAUPxDebugText@3@ABU43@@Z 1002b150 f i CctCharacterControllerManager.obj
 0001:0002a2c0       ?growAndPushBack@?$Array@UPxDebugTriangle@physx@@VNamedAllocator@shdfnd@2@@shdfnd@physx@@IAEAAUPxDebugTriangle@3@ABU43@@Z 1002b2c0 f i CctCharacterControllerManager.obj
 0001:0002a430       ?init@?$HashBase@PAVPxShape@physx@@PAV12@U?$Hash@PAVPxShape@physx@@@shdfnd@2@UGetKey@?$HashSetBase@PAVPxShape@physx@@U?$Hash@PAVPxShape@physx@@@shdfnd@2@VAllocator@42@$0A@@internal@42@VAllocator@42@$0A@@internal@shdfnd@physx@@AAEXIM@Z 1002b430 f i CctCharacterControllerManager.obj
 0001:0002a4e0       ?insert@?$HashSetBase@PAVPxShape@physx@@U?$Hash@PAVPxShape@physx@@@shdfnd@2@VAllocator@42@$0A@@internal@shdfnd@physx@@QAE_NABQAVPxShape@4@@Z 1002b4e0 f i CctCharacterControllerManager.obj
 0001:0002a560       ?isInUserMemory@?$Array@DVNamedAllocator@shdfnd@physx@@@shdfnd@physx@@QBEIXZ 1002b560 f i CctCharacterControllerManager.obj
 0001:0002a580       ?isInUserMemory@?$Array@PAVController@Cct@physx@@VNamedAllocator@shdfnd@3@@shdfnd@physx@@QBEIXZ 1002b580 f i CctCharacterControllerManager.obj
 0001:0002a5a0       ?isInUserMemory@?$Array@PAVObstacleContext@Cct@physx@@VNamedAllocator@shdfnd@3@@shdfnd@physx@@QBEIXZ 1002b5a0 f i CctCharacterControllerManager.obj
 0001:0002a5c0       ?isInUserMemory@?$Array@UPxDebugLine@physx@@VNamedAllocator@shdfnd@2@@shdfnd@physx@@QBEIXZ 1002b5c0 f i CctCharacterControllerManager.obj
 0001:0002a5e0       ?isInUserMemory@?$Array@UPxDebugPoint@physx@@VNamedAllocator@shdfnd@2@@shdfnd@physx@@QBEIXZ 1002b5e0 f i CctCharacterControllerManager.obj
 0001:0002a600       ?isInUserMemory@?$Array@UPxDebugText@physx@@VNamedAllocator@shdfnd@2@@shdfnd@physx@@QBEIXZ 1002b600 f i CctCharacterControllerManager.obj
 0001:0002a620       ?isInUserMemory@?$Array@UPxDebugTriangle@physx@@VNamedAllocator@shdfnd@2@@shdfnd@physx@@QBEIXZ 1002b620 f i CctCharacterControllerManager.obj
 0001:0002a640       ?isPowerOfTwo@shdfnd@physx@@YA_NI@Z 1002b640 f i CctCharacterControllerManager.obj
 0001:0002a680       ?memCopy@intrinsics@physx@@YAPAXPIAXPIBXI@Z 1002b680 f i CctCharacterControllerManager.obj
 0001:0002a6a0       ?memSet@intrinsics@physx@@YAPAXPIAXHI@Z 1002b6a0 f i CctCharacterControllerManager.obj
 0001:0002a6c0       ?name@type_info@@QBEPBDXZ  1002b6c0 f i CctCharacterControllerManager.obj
 0001:0002a6f0       ?nextPowerOfTwo@shdfnd@physx@@YAII@Z 1002b6f0 f i CctCharacterControllerManager.obj
 0001:0002a750       ?pushBack@?$Array@PAVController@Cct@physx@@VNamedAllocator@shdfnd@3@@shdfnd@physx@@QAEAAPAVController@Cct@3@ABQAV453@@Z 1002b750 f i CctCharacterControllerManager.obj
 0001:0002a7f0       ?pushBack@?$Array@PAVObstacleContext@Cct@physx@@VNamedAllocator@shdfnd@3@@shdfnd@physx@@QAEAAPAVObstacleContext@Cct@3@ABQAV453@@Z 1002b7f0 f i CctCharacterControllerManager.obj
 0001:0002a890       ?pushBack@?$Array@UPxDebugLine@physx@@VNamedAllocator@shdfnd@2@@shdfnd@physx@@QAEAAUPxDebugLine@3@ABU43@@Z 1002b890 f i CctCharacterControllerManager.obj
 0001:0002a930       ?pushBack@?$Array@UPxDebugPoint@physx@@VNamedAllocator@shdfnd@2@@shdfnd@physx@@QAEAAUPxDebugPoint@3@ABU43@@Z 1002b930 f i CctCharacterControllerManager.obj
 0001:0002a9d0       ?pushBack@?$Array@UPxDebugText@physx@@VNamedAllocator@shdfnd@2@@shdfnd@physx@@QAEAAUPxDebugText@3@ABU43@@Z 1002b9d0 f i CctCharacterControllerManager.obj
 0001:0002aa70       ?pushBack@?$Array@UPxDebugTriangle@physx@@VNamedAllocator@shdfnd@2@@shdfnd@physx@@QAEAAUPxDebugTriangle@3@ABU43@@Z 1002ba70 f i CctCharacterControllerManager.obj
 0001:0002ab10       ?recreate@?$Array@PBXVNamedAllocator@shdfnd@physx@@@shdfnd@physx@@IAEXI@Z 1002bb10 f i CctCharacterControllerManager.obj
 0001:0002ac20       ?recreate@?$Array@UPxDebugLine@physx@@VNamedAllocator@shdfnd@2@@shdfnd@physx@@IAEXI@Z 1002bc20 f i CctCharacterControllerManager.obj
 0001:0002ad30       ?recreate@?$Array@UPxDebugPoint@physx@@VNamedAllocator@shdfnd@2@@shdfnd@physx@@IAEXI@Z 1002bd30 f i CctCharacterControllerManager.obj
 0001:0002ae40       ?recreate@?$Array@UPxDebugText@physx@@VNamedAllocator@shdfnd@2@@shdfnd@physx@@IAEXI@Z 1002be40 f i CctCharacterControllerManager.obj
 0001:0002af50       ?recreate@?$Array@UPxDebugTriangle@physx@@VNamedAllocator@shdfnd@2@@shdfnd@physx@@IAEXI@Z 1002bf50 f i CctCharacterControllerManager.obj
 0001:0002b060       ?recreate@?$Array@UPxExtendedCapsule@physx@@VNamedAllocator@shdfnd@2@@shdfnd@physx@@IAEXI@Z 1002c060 f i CctCharacterControllerManager.obj
 0001:0002b170       ?recreate@?$Array@VPxExtendedBox@physx@@VNamedAllocator@shdfnd@2@@shdfnd@physx@@IAEXI@Z 1002c170 f i CctCharacterControllerManager.obj
 0001:0002b280       ?replaceWithLast@?$Array@PAVController@Cct@physx@@VNamedAllocator@shdfnd@3@@shdfnd@physx@@QAEXI@Z 1002c280 f i CctCharacterControllerManager.obj
 0001:0002b340       ?replaceWithLast@?$Array@PAVObstacleContext@Cct@physx@@VNamedAllocator@shdfnd@3@@shdfnd@physx@@QAEXI@Z 1002c340 f i CctCharacterControllerManager.obj
 0001:0002b400       ?replaceWithLast@?$HashBase@PAVPxShape@physx@@PAV12@U?$Hash@PAVPxShape@physx@@@shdfnd@2@UGetKey@?$HashSetBase@PAVPxShape@physx@@U?$Hash@PAVPxShape@physx@@@shdfnd@2@VAllocator@42@$0A@@internal@42@VAllocator@42@$0A@@internal@shdfnd@physx@@AAEXI@Z 1002c400 f i CctCharacterControllerManager.obj
 0001:0002b540       ?reserve@?$Array@PBXVNamedAllocator@shdfnd@physx@@@shdfnd@physx@@QAEXI@Z 1002c540 f i CctCharacterControllerManager.obj
 0001:0002b570       ?reserve@?$Array@UPxDebugLine@physx@@VNamedAllocator@shdfnd@2@@shdfnd@physx@@QAEXI@Z 1002c570 f i CctCharacterControllerManager.obj
 0001:0002b5a0       ?reserve@?$Array@UPxDebugPoint@physx@@VNamedAllocator@shdfnd@2@@shdfnd@physx@@QAEXI@Z 1002c5a0 f i CctCharacterControllerManager.obj
 0001:0002b5d0       ?reserve@?$Array@UPxDebugText@physx@@VNamedAllocator@shdfnd@2@@shdfnd@physx@@QAEXI@Z 1002c5d0 f i CctCharacterControllerManager.obj
 0001:0002b600       ?reserve@?$Array@UPxDebugTriangle@physx@@VNamedAllocator@shdfnd@2@@shdfnd@physx@@QAEXI@Z 1002c600 f i CctCharacterControllerManager.obj
 0001:0002b630       ?reserve@?$Array@UPxExtendedCapsule@physx@@VNamedAllocator@shdfnd@2@@shdfnd@physx@@QAEXI@Z 1002c630 f i CctCharacterControllerManager.obj
 0001:0002b660       ?reserve@?$Array@VPxExtendedBox@physx@@VNamedAllocator@shdfnd@2@@shdfnd@physx@@QAEXI@Z 1002c660 f i CctCharacterControllerManager.obj
 0001:0002b690       ?reserve@?$HashBase@PAVPxShape@physx@@PAV12@U?$Hash@PAVPxShape@physx@@@shdfnd@2@UGetKey@?$HashSetBase@PAVPxShape@physx@@U?$Hash@PAVPxShape@physx@@@shdfnd@2@VAllocator@42@$0A@@internal@42@VAllocator@42@$0A@@internal@shdfnd@physx@@QAEXI@Z 1002c690 f i CctCharacterControllerManager.obj
 0001:0002b6c0       ?reserveInternal@?$HashBase@PAVPxShape@physx@@PAV12@U?$Hash@PAVPxShape@physx@@@shdfnd@2@UGetKey@?$HashSetBase@PAVPxShape@physx@@U?$Hash@PAVPxShape@physx@@@shdfnd@2@VAllocator@42@$0A@@internal@42@VAllocator@42@$0A@@internal@shdfnd@physx@@AAEXI@Z 1002c6c0 f i CctCharacterControllerManager.obj
 0001:0002bbe0       ?reset@?$Array@PBXVNamedAllocator@shdfnd@physx@@@shdfnd@physx@@QAEXXZ 1002cbe0 f i CctCharacterControllerManager.obj
 0001:0002bc20       ?reset@?$Array@UPxExtendedCapsule@physx@@VNamedAllocator@shdfnd@2@@shdfnd@physx@@QAEXXZ 1002cc20 f i CctCharacterControllerManager.obj
 0001:0002bc70       ?reset@?$Array@VPxExtendedBox@physx@@VNamedAllocator@shdfnd@2@@shdfnd@physx@@QAEXXZ 1002cc70 f i CctCharacterControllerManager.obj
 0001:0002bcb0       ?resize@?$Array@PBXVNamedAllocator@shdfnd@physx@@@shdfnd@physx@@QAEXIABQBX@Z 1002ccb0 f i CctCharacterControllerManager.obj
 0001:0002bd40       ?resize@?$Array@UPxExtendedCapsule@physx@@VNamedAllocator@shdfnd@2@@shdfnd@physx@@QAEXIABUPxExtendedCapsule@3@@Z 1002cd40 f i CctCharacterControllerManager.obj
 0001:0002bdc0       ?resize@?$Array@VPxExtendedBox@physx@@VNamedAllocator@shdfnd@2@@shdfnd@physx@@QAEXIABVPxExtendedBox@3@@Z 1002cdc0 f i CctCharacterControllerManager.obj
 0001:0002be40       ?shift@RenderBuffer@Cm@physx@@QAEXABVPxVec3@3@@Z 1002ce40 f i CctCharacterControllerManager.obj
 0001:0002c030       ?shrink@?$Array@PBXVNamedAllocator@shdfnd@physx@@@shdfnd@physx@@QAEXXZ 1002d030 f i CctCharacterControllerManager.obj
 0001:0002c050       ?shrink@?$Array@UPxExtendedCapsule@physx@@VNamedAllocator@shdfnd@2@@shdfnd@physx@@QAEXXZ 1002d050 f i CctCharacterControllerManager.obj
 0001:0002c070       ?shrink@?$Array@VPxExtendedBox@physx@@VNamedAllocator@shdfnd@2@@shdfnd@physx@@QAEXXZ 1002d070 f i CctCharacterControllerManager.obj
 0001:0002c090       ?size@?$Array@PAVController@Cct@physx@@VNamedAllocator@shdfnd@3@@shdfnd@physx@@QBEIXZ 1002d090 f i CctCharacterControllerManager.obj
 0001:0002c0b0       ?size@?$Array@PAVObstacleContext@Cct@physx@@VNamedAllocator@shdfnd@3@@shdfnd@physx@@QBEIXZ 1002d0b0 f i CctCharacterControllerManager.obj
 0001:0002c0d0       ?size@?$Array@UPxDebugLine@physx@@VNamedAllocator@shdfnd@2@@shdfnd@physx@@QBEIXZ 1002d0d0 f i CctCharacterControllerManager.obj
 0001:0002c0f0       ?size@?$Array@UPxDebugPoint@physx@@VNamedAllocator@shdfnd@2@@shdfnd@physx@@QBEIXZ 1002d0f0 f i CctCharacterControllerManager.obj
 0001:0002c110       ?size@?$Array@UPxDebugText@physx@@VNamedAllocator@shdfnd@2@@shdfnd@physx@@QBEIXZ 1002d110 f i CctCharacterControllerManager.obj
 0001:0002c130       ?size@?$Array@UPxDebugTriangle@physx@@VNamedAllocator@shdfnd@2@@shdfnd@physx@@QBEIXZ 1002d130 f i CctCharacterControllerManager.obj
 0001:0002c150       ??0Controller@Cct@physx@@QAE@ABVPxControllerDesc@2@PAVPxScene@2@@Z 1002d150 f   CctController.obj
 0001:0002c440       ??1Controller@Cct@physx@@UAE@XZ 1002d440 f   CctController.obj
 0001:0002c4e0       ?releaseInternal@Controller@Cct@physx@@QAEXXZ 1002d4e0 f   CctController.obj
 0001:0002c520       ?getInternalState@Controller@Cct@physx@@QBEXAAUPxControllerState@3@@Z 1002d520 f   CctController.obj
 0001:0002c640       ?getInternalStats@Controller@Cct@physx@@QBEXAAUPxControllerStats@3@@Z 1002d640 f   CctController.obj
 0001:0002c690       ?onRelease@Controller@Cct@physx@@UAEXPBVPxBase@3@PAXW4Enum@PxDeletionEventFlag@3@@Z 1002d690 f   CctController.obj
 0001:0002c750       ?onOriginShift@Controller@Cct@physx@@QAEXABVPxVec3@3@@Z 1002d750 f   CctController.obj
 0001:0002c7e0       ?setUpDirectionInternal@Controller@Cct@physx@@IAEXABVPxVec3@3@@Z 1002d7e0 f   CctController.obj
 0001:0002c8a0       ?getKineShape@Controller@Cct@physx@@IBEPAVPxShape@3@XZ 1002d8a0 f   CctController.obj
 0001:0002c930       ?createProxyActor@Controller@Cct@physx@@IAE_NAAVPxPhysics@3@ABVPxGeometry@3@ABVPxMaterial@3@@Z 1002d930 f   CctController.obj
 0001:0002ca70       ?setPos@Controller@Cct@physx@@IAE_NABUPxExtendedVec3@3@@Z 1002da70 f   CctController.obj
 0001:0002cdc0       ??$PX_UNUSED@W4Enum@PxDeletionEventFlag@physx@@@@YAXABW4Enum@PxDeletionEventFlag@physx@@@Z 1002ddc0 f i CctController.obj
 0001:0002cdd0       ??0?$MutexT@V?$ReflectionAllocator@VMutexImpl@shdfnd@physx@@@shdfnd@physx@@@shdfnd@physx@@QAE@ABV?$ReflectionAllocator@VMutexImpl@shdfnd@physx@@@12@@Z 1002ddd0 f i CctController.obj
 0001:0002ce40       ??0?$PxFlags@W4Enum@PxDeletionEventFlag@physx@@E@physx@@QAE@W4Enum@PxDeletionEventFlag@1@@Z 1002de40 f i CctController.obj
 0001:0002ce60       ??0?$PxFlags@W4Enum@PxShapeFlag@physx@@E@physx@@QAE@W4Enum@PxShapeFlag@1@@Z 1002de60 f i CctController.obj
 0001:0002ce80       ??0?$ReflectionAllocator@VMutexImpl@shdfnd@physx@@@shdfnd@physx@@QAE@ABV012@@Z 1002de80 f i CctController.obj
 0001:0002cea0       ??0?$ReflectionAllocator@VMutexImpl@shdfnd@physx@@@shdfnd@physx@@QAE@PBD@Z 1002dea0 f i CctController.obj
 0001:0002cec0       ??0PxDeletionListener@physx@@IAE@XZ 1002dec0 f i CctController.obj
 0001:0002cee0       ??1?$MutexT@V?$ReflectionAllocator@VMutexImpl@shdfnd@physx@@@shdfnd@physx@@@shdfnd@physx@@QAE@XZ 1002dee0 f i CctController.obj
 0001:0002cf20       ??1PxDeletionListener@physx@@MAE@XZ 1002df20 f i CctController.obj
 0001:0002cf40       ??8PxVec3@physx@@QBE_NABV01@@Z 1002df40 f i CctController.obj
 0001:0002cfc0       ??B?$PxFlags@W4Enum@PxControllerCollisionFlag@physx@@E@physx@@QBEIXZ 1002dfc0 f i CctController.obj
 0001:0002cfe0       ??U?$PxFlags@W4Enum@PxShapeFlag@physx@@E@physx@@QBE?AV01@W4Enum@PxShapeFlag@1@@Z 1002dfe0 f i CctController.obj
 0001:0002d030       ??Uphysx@@YA?AV?$PxFlags@W4Enum@PxShapeFlag@physx@@E@0@W4Enum@PxShapeFlag@0@0@Z 1002e030 f i CctController.obj
 0001:0002d070       ??_5?$PxFlags@W4Enum@PxShapeFlag@physx@@E@physx@@QAEAAV01@W4Enum@PxShapeFlag@1@@Z 1002e070 f i CctController.obj
 0001:0002d0a0       ??_GController@Cct@physx@@UAEPAXI@Z 1002e0a0 f i CctController.obj
 0001:0002d0a0       ??_EController@Cct@physx@@UAEPAXI@Z 1002e0a0 f i CctController.obj
 0001:0002d100       ??_GMutexImpl@shdfnd@physx@@QAEPAXI@Z 1002e100 f i CctController.obj
 0001:0002d140       ??_EPxDeletionListener@physx@@MAEPAXI@Z 1002e140 f i CctController.obj
 0001:0002d140       ??_GPxDeletionListener@physx@@MAEPAXI@Z 1002e140 f i CctController.obj
 0001:0002d180       ?allocate@?$ReflectionAllocator@VMutexImpl@shdfnd@physx@@@shdfnd@physx@@QAEPAXIPBDH@Z 1002e180 f i CctController.obj
 0001:0002d1f0       ?createShape@PxRigidActor@physx@@QAEPAVPxShape@2@ABVPxGeometry@2@ABVPxMaterial@2@V?$PxFlags@W4Enum@PxShapeFlag@physx@@E@2@@Z 1002e1f0 f i CctController.obj
 0001:0002d240       ?deallocate@?$ReflectionAllocator@VMutexImpl@shdfnd@physx@@@shdfnd@physx@@QAEXPAX@Z 1002e240 f i CctController.obj
 0001:0002d280       ?getName@?$ReflectionAllocator@VMutexImpl@shdfnd@physx@@@shdfnd@physx@@CAPBDXZ 1002e280 f i CctController.obj
 0001:0002d2d0       ?getNormalized@PxQuat@physx@@QBE?AV12@XZ 1002e2d0 f i CctController.obj
 0001:0002d380       ?isNormalized@PxVec3@physx@@QBE_NXZ 1002e380 f i CctController.obj
 0001:0002d410       ?rotationArc@shdfnd@physx@@YA?AVPxQuat@2@ABVPxVec3@2@0@Z 1002e410 f i CctController.obj
 0001:0002d610       ??0HandleManager@Cct@physx@@QAE@XZ 1002e610 f   CctObstacleContext.obj
 0001:0002d790       ??1HandleManager@Cct@physx@@QAE@XZ 1002e790 f   CctObstacleContext.obj
 0001:0002d7b0       ?Add@HandleManager@Cct@physx@@QAEIPAX@Z 1002e7b0 f   CctObstacleContext.obj
 0001:0002db60       ?Remove@HandleManager@Cct@physx@@QAEXI@Z 1002eb60 f   CctObstacleContext.obj
 0001:0002dcc0       ?GetObject@HandleManager@Cct@physx@@QBEPAXI@Z 1002ecc0 f   CctObstacleContext.obj
 0001:0002dd50       ?UpdateObject@HandleManager@Cct@physx@@QAE_NIPAX@Z 1002ed50 f   CctObstacleContext.obj
 0001:0002dde0       ?SetupLists@HandleManager@Cct@physx@@AAE_NPAPAXPAG11@Z 1002ede0 f   CctObstacleContext.obj
 0001:0002ded0       ??0ObstacleContext@Cct@physx@@QAE@AAVCharacterControllerManager@12@@Z 1002eed0 f   CctObstacleContext.obj
 0001:0002df60       ??1ObstacleContext@Cct@physx@@UAE@XZ 1002ef60 f   CctObstacleContext.obj
 0001:0002dfa0       ?release@ObstacleContext@Cct@physx@@UAEXXZ 1002efa0 f   CctObstacleContext.obj
 0001:0002dfd0       ?getControllerManager@ObstacleContext@Cct@physx@@UBEAAVPxControllerManager@3@XZ 1002efd0 f   CctObstacleContext.obj
 0001:0002dff0       ?addObstacle@ObstacleContext@Cct@physx@@UAEIABVPxObstacle@3@@Z 1002eff0 f   CctObstacleContext.obj
 0001:0002e130       ?removeObstacle@ObstacleContext@Cct@physx@@UAE_NI@Z 1002f130 f   CctObstacleContext.obj
 0001:0002e310       ?updateObstacle@ObstacleContext@Cct@physx@@UAE_NIABVPxObstacle@3@@Z 1002f310 f   CctObstacleContext.obj
 0001:0002e520       ?getNbObstacles@ObstacleContext@Cct@physx@@UBEIXZ 1002f520 f   CctObstacleContext.obj
 0001:0002e550       ?getObstacle@ObstacleContext@Cct@physx@@UBEPBVPxObstacle@3@I@Z 1002f550 f   CctObstacleContext.obj
 0001:0002e5d0       ?getObstacleByHandle@ObstacleContext@Cct@physx@@UBEPBVPxObstacle@3@I@Z 1002f5d0 f   CctObstacleContext.obj
 0001:0002e760       ?raycastSingle@ObstacleContext@Cct@physx@@QBEPBVPxObstacle@3@AAUPxRaycastHit@3@ABVPxVec3@3@1MAAI@Z 1002f760 f   CctObstacleContext.obj
 0001:0002ea20       ?raycastSingle@ObstacleContext@Cct@physx@@QBEPBVPxObstacle@3@AAUPxRaycastHit@3@ABIABVPxVec3@3@2M@Z 1002fa20 f   CctObstacleContext.obj
 0001:0002ec60       ?onOriginShift@ObstacleContext@Cct@physx@@QAEXABVPxVec3@3@@Z 1002fc60 f   CctObstacleContext.obj
 0001:0002f520       ??$PX_UNUSED@_N@@YAXAB_N@Z 10030520 f i CctObstacleContext.obj
 0001:0002f530       ??0?$Array@UInternalBoxObstacle@ObstacleContext@Cct@physx@@VNamedAllocator@shdfnd@4@@shdfnd@physx@@QAE@ABVNamedAllocator@12@@Z 10030530 f i CctObstacleContext.obj
 0001:0002f580       ??0?$Array@UInternalCapsuleObstacle@ObstacleContext@Cct@physx@@VNamedAllocator@shdfnd@4@@shdfnd@physx@@QAE@ABVNamedAllocator@12@@Z 10030580 f i CctObstacleContext.obj
 0001:0002f5d0       ??0InternalBoxObstacle@ObstacleContext@Cct@physx@@QAE@ABU0123@@Z 100305d0 f i CctObstacleContext.obj
 0001:0002f620       ??0InternalBoxObstacle@ObstacleContext@Cct@physx@@QAE@IABVPxBoxObstacle@3@@Z 10030620 f i CctObstacleContext.obj
 0001:0002f660       ??0InternalCapsuleObstacle@ObstacleContext@Cct@physx@@QAE@ABU0123@@Z 10030660 f i CctObstacleContext.obj
 0001:0002f6b0       ??0InternalCapsuleObstacle@ObstacleContext@Cct@physx@@QAE@IABVPxCapsuleObstacle@3@@Z 100306b0 f i CctObstacleContext.obj
 0001:0002f6f0       ??0PxBoxObstacle@physx@@QAE@ABV01@@Z 100306f0 f i CctObstacleContext.obj
 0001:0002f740       ??0PxCapsuleObstacle@physx@@QAE@ABV01@@Z 10030740 f i CctObstacleContext.obj
 0001:0002f790       ??0PxObstacle@physx@@QAE@ABV01@@Z 10030790 f i CctObstacleContext.obj
 0001:0002f820       ??0PxObstacleContext@physx@@QAE@XZ 10030820 f i CctObstacleContext.obj
 0001:0002f840       ??1?$Array@UInternalBoxObstacle@ObstacleContext@Cct@physx@@VNamedAllocator@shdfnd@4@@shdfnd@physx@@QAE@XZ 10030840 f i CctObstacleContext.obj
 0001:0002f8b0       ??1?$Array@UInternalCapsuleObstacle@ObstacleContext@Cct@physx@@VNamedAllocator@shdfnd@4@@shdfnd@physx@@QAE@XZ 100308b0 f i CctObstacleContext.obj
 0001:0002f920       ??1InternalBoxObstacle@ObstacleContext@Cct@physx@@QAE@XZ 10030920 f i CctObstacleContext.obj
 0001:0002f940       ??1InternalCapsuleObstacle@ObstacleContext@Cct@physx@@QAE@XZ 10030940 f i CctObstacleContext.obj
 0001:0002f960       ??1PxBoxObstacle@physx@@QAE@XZ 10030960 f i CctObstacleContext.obj
 0001:0002f980       ??1PxCapsuleObstacle@physx@@QAE@XZ 10030980 f i CctObstacleContext.obj
 0001:0002f9a0       ??1PxObstacle@physx@@IAE@XZ 100309a0 f i CctObstacleContext.obj
 0001:0002f9b0       ??1PxObstacleContext@physx@@UAE@XZ 100309b0 f i CctObstacleContext.obj
 0001:0002f9d0       ??4InternalBoxObstacle@ObstacleContext@Cct@physx@@QAEAAU0123@ABU0123@@Z 100309d0 f i CctObstacleContext.obj
 0001:0002fa10       ??4InternalCapsuleObstacle@ObstacleContext@Cct@physx@@QAEAAU0123@ABU0123@@Z 10030a10 f i CctObstacleContext.obj
 0001:0002fa50       ??4PxBoxObstacle@physx@@QAEAAV01@ABV01@@Z 10030a50 f i CctObstacleContext.obj
 0001:0002fa90       ??4PxCapsuleObstacle@physx@@QAEAAV01@ABV01@@Z 10030a90 f i CctObstacleContext.obj
 0001:0002fae0       ??4PxObstacle@physx@@QAEAAV01@ABV01@@Z 10030ae0 f i CctObstacleContext.obj
 0001:0002fb60       ??A?$Array@UInternalBoxObstacle@ObstacleContext@Cct@physx@@VNamedAllocator@shdfnd@4@@shdfnd@physx@@QAEAAUInternalBoxObstacle@ObstacleContext@Cct@2@I@Z 10030b60 f i CctObstacleContext.obj
 0001:0002fbe0       ??A?$Array@UInternalCapsuleObstacle@ObstacleContext@Cct@physx@@VNamedAllocator@shdfnd@4@@shdfnd@physx@@QAEAAUInternalCapsuleObstacle@ObstacleContext@Cct@2@I@Z 10030be0 f i CctObstacleContext.obj
 0001:0002fc60       ??_GInternalBoxObstacle@ObstacleContext@Cct@physx@@QAEPAXI@Z 10030c60 f i CctObstacleContext.obj
 0001:0002fca0       ??_GInternalCapsuleObstacle@ObstacleContext@Cct@physx@@QAEPAXI@Z 10030ca0 f i CctObstacleContext.obj
 0001:0002fce0       ??_GObstacleContext@Cct@physx@@UAEPAXI@Z 10030ce0 f i CctObstacleContext.obj
 0001:0002fce0       ??_EObstacleContext@Cct@physx@@UAEPAXI@Z 10030ce0 f i CctObstacleContext.obj
 0001:0002fd40       ??_GPxObstacleContext@physx@@UAEPAXI@Z 10030d40 f i CctObstacleContext.obj
 0001:0002fd40       ??_EPxObstacleContext@physx@@UAEPAXI@Z 10030d40 f i CctObstacleContext.obj
 0001:0002fd80       ?PxMemZero@physx@@YAPAXPIAXI@Z 10030d80 f i CctObstacleContext.obj
 0001:0002fda0       ?allocate@?$Array@UInternalBoxObstacle@ObstacleContext@Cct@physx@@VNamedAllocator@shdfnd@4@@shdfnd@physx@@IAEPAUInternalBoxObstacle@ObstacleContext@Cct@3@I@Z 10030da0 f i CctObstacleContext.obj
 0001:0002fe20       ?allocate@?$Array@UInternalCapsuleObstacle@ObstacleContext@Cct@physx@@VNamedAllocator@shdfnd@4@@shdfnd@physx@@IAEPAUInternalCapsuleObstacle@ObstacleContext@Cct@3@I@Z 10030e20 f i CctObstacleContext.obj
 0001:0002fea0       ?capacity@?$Array@UInternalBoxObstacle@ObstacleContext@Cct@physx@@VNamedAllocator@shdfnd@4@@shdfnd@physx@@QBEIXZ 10030ea0 f i CctObstacleContext.obj
 0001:0002fec0       ?capacity@?$Array@UInternalCapsuleObstacle@ObstacleContext@Cct@physx@@VNamedAllocator@shdfnd@4@@shdfnd@physx@@QBEIXZ 10030ec0 f i CctObstacleContext.obj
 0001:0002fee0       ?capacityIncrement@?$Array@UInternalBoxObstacle@ObstacleContext@Cct@physx@@VNamedAllocator@shdfnd@4@@shdfnd@physx@@IBEIXZ 10030ee0 f i CctObstacleContext.obj
 0001:0002ff20       ?capacityIncrement@?$Array@UInternalCapsuleObstacle@ObstacleContext@Cct@physx@@VNamedAllocator@shdfnd@4@@shdfnd@physx@@IBEIXZ 10030f20 f i CctObstacleContext.obj
 0001:0002ff60       ?copy@?$Array@UInternalBoxObstacle@ObstacleContext@Cct@physx@@VNamedAllocator@shdfnd@4@@shdfnd@physx@@KAXPAUInternalBoxObstacle@ObstacleContext@Cct@3@0PBU4563@@Z 10030f60 f i CctObstacleContext.obj
 0001:0002ffc0       ?copy@?$Array@UInternalCapsuleObstacle@ObstacleContext@Cct@physx@@VNamedAllocator@shdfnd@4@@shdfnd@physx@@KAXPAUInternalCapsuleObstacle@ObstacleContext@Cct@3@0PBU4563@@Z 10030fc0 f i CctObstacleContext.obj
 0001:00030020       ?deallocate@?$Array@UInternalBoxObstacle@ObstacleContext@Cct@physx@@VNamedAllocator@shdfnd@4@@shdfnd@physx@@IAEXPAX@Z 10031020 f i CctObstacleContext.obj
 0001:00030040       ?deallocate@?$Array@UInternalCapsuleObstacle@ObstacleContext@Cct@physx@@VNamedAllocator@shdfnd@4@@shdfnd@physx@@IAEXPAX@Z 10031040 f i CctObstacleContext.obj
 0001:00030060       ?destroy@?$Array@UInternalBoxObstacle@ObstacleContext@Cct@physx@@VNamedAllocator@shdfnd@4@@shdfnd@physx@@KAXPAUInternalBoxObstacle@ObstacleContext@Cct@3@0@Z 10031060 f i CctObstacleContext.obj
 0001:00030090       ?destroy@?$Array@UInternalCapsuleObstacle@ObstacleContext@Cct@physx@@VNamedAllocator@shdfnd@4@@shdfnd@physx@@KAXPAUInternalCapsuleObstacle@ObstacleContext@Cct@3@0@Z 10031090 f i CctObstacleContext.obj
 0001:000300c0       ?getType@PxObstacle@physx@@QBE?AW4Enum@PxGeometryType@2@XZ 100310c0 f i CctObstacleContext.obj
 0001:000300e0       ?growAndPushBack@?$Array@UInternalBoxObstacle@ObstacleContext@Cct@physx@@VNamedAllocator@shdfnd@4@@shdfnd@physx@@IAEAAUInternalBoxObstacle@ObstacleContext@Cct@3@ABU4563@@Z 100310e0 f i CctObstacleContext.obj
 0001:00030250       ?growAndPushBack@?$Array@UInternalCapsuleObstacle@ObstacleContext@Cct@physx@@VNamedAllocator@shdfnd@4@@shdfnd@physx@@IAEAAUInternalCapsuleObstacle@ObstacleContext@Cct@3@ABU4563@@Z 10031250 f i CctObstacleContext.obj
 0001:000303d0       ?isInUserMemory@?$Array@UInternalBoxObstacle@ObstacleContext@Cct@physx@@VNamedAllocator@shdfnd@4@@shdfnd@physx@@QBEIXZ 100313d0 f i CctObstacleContext.obj
 0001:000303f0       ?isInUserMemory@?$Array@UInternalCapsuleObstacle@ObstacleContext@Cct@physx@@VNamedAllocator@shdfnd@4@@shdfnd@physx@@QBEIXZ 100313f0 f i CctObstacleContext.obj
 0001:00030410       ?memZero@intrinsics@physx@@YAPAXPIAXI@Z 10031410 f i CctObstacleContext.obj
 0001:00030430       ?pushBack@?$Array@UInternalBoxObstacle@ObstacleContext@Cct@physx@@VNamedAllocator@shdfnd@4@@shdfnd@physx@@QAEAAUInternalBoxObstacle@ObstacleContext@Cct@3@ABU4563@@Z 10031430 f i CctObstacleContext.obj
 0001:000304d0       ?pushBack@?$Array@UInternalCapsuleObstacle@ObstacleContext@Cct@physx@@VNamedAllocator@shdfnd@4@@shdfnd@physx@@QAEAAUInternalCapsuleObstacle@ObstacleContext@Cct@3@ABU4563@@Z 100314d0 f i CctObstacleContext.obj
 0001:00030570       ?replaceWithLast@?$Array@UInternalBoxObstacle@ObstacleContext@Cct@physx@@VNamedAllocator@shdfnd@4@@shdfnd@physx@@QAEXI@Z 10031570 f i CctObstacleContext.obj
 0001:00030650       ?replaceWithLast@?$Array@UInternalCapsuleObstacle@ObstacleContext@Cct@physx@@VNamedAllocator@shdfnd@4@@shdfnd@physx@@QAEXI@Z 10031650 f i CctObstacleContext.obj
 0001:00030730       ?to16@shdfnd@physx@@YAGI@Z 10031730 f i CctObstacleContext.obj
 0001:00030790       ??0SweptBox@Cct@physx@@QAE@XZ 10031790 f   CctSweptBox.obj
 0001:000307d0       ??1SweptBox@Cct@physx@@UAE@XZ 100317d0 f   CctSweptBox.obj
 0001:000307f0       ?computeTemporalBox@SweptBox@Cct@physx@@UBEXABVSweepTest@23@AAUPxExtendedBounds3@3@ABUPxExtendedVec3@3@ABVPxVec3@3@@Z 100317f0 f   CctSweptBox.obj
 0001:000308e0       ??$PxMax@M@physx@@YAMMM@Z  100318e0 f i CctSweptBox.obj
 0001:00030910       ??_ESweptBox@Cct@physx@@UAEPAXI@Z 10031910 f i CctSweptBox.obj
 0001:00030910       ??_GSweptBox@Cct@physx@@UAEPAXI@Z 10031910 f i CctSweptBox.obj
 0001:00030950       ??0SweptCapsule@Cct@physx@@QAE@XZ 10031950 f   CctSweptCapsule.obj
 0001:00030980       ??1SweptCapsule@Cct@physx@@UAE@XZ 10031980 f   CctSweptCapsule.obj
 0001:000309a0       ?computeTemporalBox@SweptCapsule@Cct@physx@@UBEXABVSweepTest@23@AAUPxExtendedBounds3@3@ABUPxExtendedVec3@3@ABVPxVec3@3@@Z 100319a0 f   CctSweptCapsule.obj
 0001:00030a40       ??_GSweptCapsule@Cct@physx@@UAEPAXI@Z 10031a40 f i CctSweptCapsule.obj
 0001:00030a40       ??_ESweptCapsule@Cct@physx@@UAEPAXI@Z 10031a40 f i CctSweptCapsule.obj
 0001:00030a80       ??0SweptVolume@Cct@physx@@QAE@XZ 10031a80 f   CctSweptVolume.obj
 0001:00030ab0       ??1SweptVolume@Cct@physx@@UAE@XZ 10031ab0 f   CctSweptVolume.obj
 0001:00030ad0       ?computeTemporalBox@Cct@physx@@YAXAAUPxExtendedBounds3@2@MMMMABVPxVec3@2@ABUPxExtendedVec3@2@1@Z 10031ad0 f   CctSweptVolume.obj
 0001:00030d50       ??_GSweptVolume@Cct@physx@@UAEPAXI@Z 10031d50 f i CctSweptVolume.obj
 0001:00030d50       ??_ESweptVolume@Cct@physx@@UAEPAXI@Z 10031d50 f i CctSweptVolume.obj
 0001:00030d89       ?PxGetAssertHandler@physx@@YAAAVPxAssertHandler@1@XZ 10031d89 f   PhysX3CommonDEBUG_x86:PhysX3CommonDEBUG_x86.dll
 0001:00030d8f       _PxGetFoundation           10031d8f f   PhysX3CommonDEBUG_x86:PhysX3CommonDEBUG_x86.dll
 0001:00030d95       ??0Allocator@shdfnd@physx@@QAE@PBD@Z 10031d95 f   PhysX3CommonDEBUG_x86:PhysX3CommonDEBUG_x86.dll
 0001:00030d9b       ?deallocate@Allocator@shdfnd@physx@@QAEXPAX@Z 10031d9b f   PhysX3CommonDEBUG_x86:PhysX3CommonDEBUG_x86.dll
 0001:00030da1       ?lock@MutexImpl@shdfnd@physx@@QAEXXZ 10031da1 f   PhysX3CommonDEBUG_x86:PhysX3CommonDEBUG_x86.dll
 0001:00030da7       ?unlock@MutexImpl@shdfnd@physx@@QAEXXZ 10031da7 f   PhysX3CommonDEBUG_x86:PhysX3CommonDEBUG_x86.dll
 0001:00030dad       ?PxTransformFromSegment@physx@@YA?AVPxTransform@1@ABVPxVec3@1@0PAM@Z 10031dad f   PhysX3CommonDEBUG_x86:PhysX3CommonDEBUG_x86.dll
 0001:00030db3       ?sweep@PxGeometryQuery@physx@@SA_NABVPxVec3@2@MABVPxGeometry@2@ABVPxTransform@2@12AAUPxSweepHit@2@V?$PxFlags@W4Enum@PxHitFlag@physx@@G@2@M@Z 10031db3 f   PhysX3CommonDEBUG_x86:PhysX3CommonDEBUG_x86.dll
 0001:00030db9       ?computePenetration@PxGeometryQuery@physx@@SA_NAAVPxVec3@2@AAMABVPxGeometry@2@ABVPxTransform@2@23@Z 10031db9 f   PhysX3CommonDEBUG_x86:PhysX3CommonDEBUG_x86.dll
 0001:00030dbf       ??0NamedAllocator@shdfnd@physx@@QAE@PBD@Z 10031dbf f   PhysX3CommonDEBUG_x86:PhysX3CommonDEBUG_x86.dll
 0001:00030dc5       ??0NamedAllocator@shdfnd@physx@@QAE@ABV012@@Z 10031dc5 f   PhysX3CommonDEBUG_x86:PhysX3CommonDEBUG_x86.dll
 0001:00030dcb       ??1NamedAllocator@shdfnd@physx@@QAE@XZ 10031dcb f   PhysX3CommonDEBUG_x86:PhysX3CommonDEBUG_x86.dll
 0001:00030dd1       ?allocate@NamedAllocator@shdfnd@physx@@QAEPAXIPBDH@Z 10031dd1 f   PhysX3CommonDEBUG_x86:PhysX3CommonDEBUG_x86.dll
 0001:00030dd7       ?deallocate@NamedAllocator@shdfnd@physx@@QAEXPAX@Z 10031dd7 f   PhysX3CommonDEBUG_x86:PhysX3CommonDEBUG_x86.dll
 0001:00030ddd       ??0RenderOutput@Cm@physx@@QAE@AAVRenderBuffer@12@@Z 10031ddd f   PhysX3CommonDEBUG_x86:PhysX3CommonDEBUG_x86.dll
 0001:00030de3       ??6RenderOutput@Cm@physx@@QAEAAV012@I@Z 10031de3 f   PhysX3CommonDEBUG_x86:PhysX3CommonDEBUG_x86.dll
 0001:00030de9       ??6RenderOutput@Cm@physx@@QAEAAV012@ABVPxTransform@2@@Z 10031de9 f   PhysX3CommonDEBUG_x86:PhysX3CommonDEBUG_x86.dll
 0001:00030def       ?outputCapsule@RenderOutput@Cm@physx@@QAEAAV123@MMABVMatrix34@23@@Z 10031def f   PhysX3CommonDEBUG_x86:PhysX3CommonDEBUG_x86.dll
 0001:00030df5       ??6Cm@physx@@YAAAVRenderOutput@01@AAV201@ABUDebugBox@01@@Z 10031df5 f   PhysX3CommonDEBUG_x86:PhysX3CommonDEBUG_x86.dll
 0001:00030dfb       ??0Box@Gu@physx@@QAE@ABVPxVec3@2@0ABVPxMat33@2@@Z 10031dfb f   PhysX3CommonDEBUG_x86:PhysX3CommonDEBUG_x86.dll
 0001:00030e01       ??1Box@Gu@physx@@QAE@XZ    10031e01 f   PhysX3CommonDEBUG_x86:PhysX3CommonDEBUG_x86.dll
 0001:00030e07       ?intersectOBBOBB@Gu@physx@@YA_NABVPxVec3@2@0ABVPxMat33@2@001_N@Z 10031e07 f   PhysX3CommonDEBUG_x86:PhysX3CommonDEBUG_x86.dll
 0001:00030e0d       ?distanceSegmentBoxSquared@Gu@physx@@YAMABVPxVec3@2@000ABVPxMat33@2@PAMPAV32@@Z 10031e0d f   PhysX3CommonDEBUG_x86:PhysX3CommonDEBUG_x86.dll
 0001:00030e13       ?sweep@PxMeshQuery@physx@@SA_NABVPxVec3@2@MABVPxGeometry@2@ABVPxTransform@2@IPBVPxTriangle@2@AAUPxSweepHit@2@V?$PxFlags@W4Enum@PxHitFlag@physx@@G@2@PBIM_N@Z 10031e13 f   PhysX3CommonDEBUG_x86:PhysX3CommonDEBUG_x86.dll
 0001:00030e19       ?getTriangle@PxMeshQuery@physx@@SAXABVPxTriangleMeshGeometry@2@ABVPxTransform@2@IAAVPxTriangle@2@PAI3@Z 10031e19 f   PhysX3CommonDEBUG_x86:PhysX3CommonDEBUG_x86.dll
 0001:00030e1f       ?getTriangle@PxMeshQuery@physx@@SAXABVPxHeightFieldGeometry@2@ABVPxTransform@2@IAAVPxTriangle@2@PAI3@Z 10031e1f f   PhysX3CommonDEBUG_x86:PhysX3CommonDEBUG_x86.dll
 0001:00030e25       ??6RenderOutput@Cm@physx@@QAEAAV012@W4Primitive@012@@Z 10031e25 f   PhysX3CommonDEBUG_x86:PhysX3CommonDEBUG_x86.dll
 0001:00030e2b       ??6RenderOutput@Cm@physx@@QAEAAV012@VPxVec3@2@@Z 10031e2b f   PhysX3CommonDEBUG_x86:PhysX3CommonDEBUG_x86.dll
 0001:00030e31       ?intersectTriangleBox@Gu@physx@@YAHABVPxVec3@2@0000@Z 10031e31 f   PhysX3CommonDEBUG_x86:PhysX3CommonDEBUG_x86.dll
 0001:00030e37       ?getAllocator@shdfnd@physx@@YAAAVPxAllocatorCallback@2@XZ 10031e37 f   PhysX3CommonDEBUG_x86:PhysX3CommonDEBUG_x86.dll
 0001:00030e3d       ?allocate@Allocator@shdfnd@physx@@QAEPAXIPBDH@Z 10031e3d f   PhysX3CommonDEBUG_x86:PhysX3CommonDEBUG_x86.dll
 0001:00030e43       ?getInstance@Foundation@shdfnd@physx@@SAAAV123@XZ 10031e43 f   PhysX3CommonDEBUG_x86:PhysX3CommonDEBUG_x86.dll
 0001:00030e49       ?incRefCount@Foundation@shdfnd@physx@@SAXXZ 10031e49 f   PhysX3CommonDEBUG_x86:PhysX3CommonDEBUG_x86.dll
 0001:00030e4f       ?decRefCount@Foundation@shdfnd@physx@@SAXXZ 10031e4f f   PhysX3CommonDEBUG_x86:PhysX3CommonDEBUG_x86.dll
 0001:00030e55       ?error@Foundation@shdfnd@physx@@QAAXW4Enum@PxErrorCode@3@PBDH1ZZ 10031e55 f   PhysX3CommonDEBUG_x86:PhysX3CommonDEBUG_x86.dll
 0001:00030e5b       ?CompleteBoxPruning@Gu@physx@@YA_NPBVPxBounds3@2@IAAV?$Array@IVNamedAllocator@shdfnd@physx@@@shdfnd@2@ABVAxes@12@@Z 10031e5b f   PhysX3CommonDEBUG_x86:PhysX3CommonDEBUG_x86.dll
 0001:00030e61       ?distanceSegmentSegmentSquaredOLD@Gu@physx@@YAMABVPxVec3@2@000PAM1@Z 10031e61 f   PhysX3CommonDEBUG_x86:PhysX3CommonDEBUG_x86.dll
 0001:00030e67       ??0MutexImpl@shdfnd@physx@@QAE@XZ 10031e67 f   PhysX3CommonDEBUG_x86:PhysX3CommonDEBUG_x86.dll
 0001:00030e6d       ??1MutexImpl@shdfnd@physx@@QAE@XZ 10031e6d f   PhysX3CommonDEBUG_x86:PhysX3CommonDEBUG_x86.dll
 0001:00030e73       ?getSize@MutexImpl@shdfnd@physx@@SAABIXZ 10031e73 f   PhysX3CommonDEBUG_x86:PhysX3CommonDEBUG_x86.dll
 0001:00030e79       ?GetRaycastFuncTable@Gu@physx@@YAAAY06P6AIABVPxGeometry@2@ABVPxTransform@2@ABVPxVec3@2@2MV?$PxFlags@W4Enum@PxHitFlag@physx@@G@2@IPIAUPxRaycastHit@2@_NP6A_NAAU72@PAX@Z7@ZXZ 10031e79 f   PhysX3CommonDEBUG_x86:PhysX3CommonDEBUG_x86.dll
 0001:00030e80       ??0PxMeshOverlapUtil@physx@@QAE@XZ 10031e80 f   PhysX3ExtensionsDEBUG:ExtTriangleMeshExt.obj
 0001:00030ec0       ??1PxMeshOverlapUtil@physx@@QAE@XZ 10031ec0 f   PhysX3ExtensionsDEBUG:ExtTriangleMeshExt.obj
 0001:00030f00       ?findOverlap@PxMeshOverlapUtil@physx@@QAEIABVPxGeometry@2@ABVPxTransform@2@ABVPxTriangleMeshGeometry@2@1@Z 10031f00 f   PhysX3ExtensionsDEBUG:ExtTriangleMeshExt.obj
 0001:000310c0       ?findOverlap@PxMeshOverlapUtil@physx@@QAEIABVPxGeometry@2@ABVPxTransform@2@ABVPxHeightFieldGeometry@2@1@Z 100320c0 f   PhysX3ExtensionsDEBUG:ExtTriangleMeshExt.obj
 0001:000311c0       ?PxComputeMeshPenetration@physx@@YA?AVPxVec3@1@IABVPxGeometry@1@ABVPxTransform@1@ABVPxTriangleMeshGeometry@1@1AAI@Z 100321c0 f   PhysX3ExtensionsDEBUG:ExtTriangleMeshExt.obj
 0001:000312c0       ?PxComputeHeightFieldPenetration@physx@@YA?AVPxVec3@1@IABVPxGeometry@1@ABVPxTransform@1@ABVPxHeightFieldGeometry@1@1AAI@Z 100322c0 f   PhysX3ExtensionsDEBUG:ExtTriangleMeshExt.obj
 0001:00031510       ??0PxTransform@physx@@QAE@ABV01@@Z 10032510 f i PhysX3ExtensionsDEBUG:ExtTriangleMeshExt.obj
 0001:00031560       ?updateMassAndInertia@PxRigidBodyExt@physx@@SA_NAAVPxRigidBody@2@PBMIPBVPxVec3@2@_N@Z 10032560 f   PhysX3ExtensionsDEBUG:ExtRigidBodyExt.obj
 0001:00031590       ?updateMassAndInertia@PxRigidBodyExt@physx@@SA_NAAVPxRigidBody@2@MPBVPxVec3@2@_N@Z 10032590 f   PhysX3ExtensionsDEBUG:ExtRigidBodyExt.obj
 0001:000315c0       ?setMassAndUpdateInertia@PxRigidBodyExt@physx@@SA_NAAVPxRigidBody@2@PBMIPBVPxVec3@2@_N@Z 100325c0 f   PhysX3ExtensionsDEBUG:ExtRigidBodyExt.obj
 0001:000315f0       ?setMassAndUpdateInertia@PxRigidBodyExt@physx@@SA_NAAVPxRigidBody@2@MPBVPxVec3@2@_N@Z 100325f0 f   PhysX3ExtensionsDEBUG:ExtRigidBodyExt.obj
 0001:00031620       ?addForceAtPos@PxRigidBodyExt@physx@@SAXAAVPxRigidBody@2@ABVPxVec3@2@1W4Enum@PxForceMode@2@_N@Z 10032620 f   PhysX3ExtensionsDEBUG:ExtRigidBodyExt.obj
 0001:00031650       ?addForceAtLocalPos@PxRigidBodyExt@physx@@SAXAAVPxRigidBody@2@ABVPxVec3@2@1W4Enum@PxForceMode@2@_N@Z 10032650 f   PhysX3ExtensionsDEBUG:ExtRigidBodyExt.obj
 0001:000316a0       ?addLocalForceAtPos@PxRigidBodyExt@physx@@SAXAAVPxRigidBody@2@ABVPxVec3@2@1W4Enum@PxForceMode@2@_N@Z 100326a0 f   PhysX3ExtensionsDEBUG:ExtRigidBodyExt.obj
 0001:000316f0       ?addLocalForceAtLocalPos@PxRigidBodyExt@physx@@SAXAAVPxRigidBody@2@ABVPxVec3@2@1W4Enum@PxForceMode@2@_N@Z 100326f0 f   PhysX3ExtensionsDEBUG:ExtRigidBodyExt.obj
 0001:00031750       ?getVelocityAtPos@PxRigidBodyExt@physx@@SA?AVPxVec3@2@ABVPxRigidBody@2@ABV32@@Z 10032750 f   PhysX3ExtensionsDEBUG:ExtRigidBodyExt.obj
 0001:000317c0       ?getLocalVelocityAtLocalPos@PxRigidBodyExt@physx@@SA?AVPxVec3@2@ABVPxRigidBody@2@ABV32@@Z 100327c0 f   PhysX3ExtensionsDEBUG:ExtRigidBodyExt.obj
 0001:00031840       ?getVelocityAtOffset@PxRigidBodyExt@physx@@SA?AVPxVec3@2@ABVPxRigidBody@2@ABV32@@Z 10032840 f   PhysX3ExtensionsDEBUG:ExtRigidBodyExt.obj
 0001:000318b0       ?linearSweepSingle@PxRigidBodyExt@physx@@SA_NAAVPxRigidBody@2@AAVPxScene@2@ABVPxVec3@2@MV?$PxFlags@W4Enum@PxHitFlag@physx@@G@2@AAUPxSweepHit@2@AAIABUPxQueryFilterData@2@PAVPxQueryFilterCallback@2@PBUPxQueryCache@2@M@Z 100328b0 f   PhysX3ExtensionsDEBUG:ExtRigidBodyExt.obj
 0001:00031b00       ?linearSweepMultiple@PxRigidBodyExt@physx@@SAIAAVPxRigidBody@2@AAVPxScene@2@ABVPxVec3@2@MV?$PxFlags@W4Enum@PxHitFlag@physx@@G@2@PAUPxSweepHit@2@PAIIAAU72@AAHAA_NABUPxQueryFilterData@2@PAVPxQueryFilterCallback@2@PBUPxQueryCache@2@M@Z 10032b00 f   PhysX3ExtensionsDEBUG:ExtRigidBodyExt.obj
 0001:00031f70       ?computeVelocityDeltaFromImpulse@PxRigidBodyExt@physx@@SAXABVPxRigidBody@2@ABVPxVec3@2@1AAV42@2@Z 10032f70 f   PhysX3ExtensionsDEBUG:ExtRigidBodyExt.obj
 0001:000324a0       ?computeVelocityDeltaFromImpulse@PxRigidBodyExt@physx@@SAXABVPxRigidBody@2@ABVPxTransform@2@ABVPxVec3@2@2MMAAV52@3@Z 100334a0 f   PhysX3ExtensionsDEBUG:ExtRigidBodyExt.obj
 0001:000325c0       ?computeLinearAngularImpulse@PxRigidBodyExt@physx@@SAXABVPxRigidBody@2@ABVPxTransform@2@ABVPxVec3@2@2MMAAV52@3@Z 100335c0 f   PhysX3ExtensionsDEBUG:ExtRigidBodyExt.obj
 0001:00032660       ??0InertiaTensorComputer@Ext@physx@@QAE@_N@Z 10033660 f   PhysX3ExtensionsDEBUG:ExtRigidBodyExt.obj
 0001:000326a0       ??0InertiaTensorComputer@Ext@physx@@QAE@ABVPxMat33@2@ABVPxVec3@2@M@Z 100336a0 f   PhysX3ExtensionsDEBUG:ExtRigidBodyExt.obj
 0001:000326f0       ??1InertiaTensorComputer@Ext@physx@@QAE@XZ 100336f0 f   PhysX3ExtensionsDEBUG:ExtRigidBodyExt.obj
 0001:00032700       ?translate@InertiaTensorComputer@Ext@physx@@QAEXABVPxVec3@3@@Z 10033700 f   PhysX3ExtensionsDEBUG:ExtRigidBodyExt.obj
 0001:00032a60       ?setBox@InertiaTensorComputer@Ext@physx@@QAEXABVPxVec3@3@@Z 10033a60 f   PhysX3ExtensionsDEBUG:ExtRigidBodyExt.obj
 0001:00032b50       ?setSphere@InertiaTensorComputer@Ext@physx@@QAEXM@Z 10033b50 f   PhysX3ExtensionsDEBUG:ExtRigidBodyExt.obj
 0001:00032bd0       ?setCylinder@InertiaTensorComputer@Ext@physx@@QAEXHMM@Z 10033bd0 f   PhysX3ExtensionsDEBUG:ExtRigidBodyExt.obj
 0001:00032d30       ?setCapsule@InertiaTensorComputer@Ext@physx@@QAEXHMM@Z 10033d30 f   PhysX3ExtensionsDEBUG:ExtRigidBodyExt.obj
 0001:00032f20       ?setEllipsoid@InertiaTensorComputer@Ext@physx@@QAEXMMM@Z 10033f20 f   PhysX3ExtensionsDEBUG:ExtRigidBodyExt.obj
 0001:00032fe0       ?computeSphereMass@Ext@physx@@YAMMM@Z 10033fe0 f   PhysX3ExtensionsDEBUG:ExtRigidBodyExt.obj
 0001:00033020       ?computeSphereDensity@Ext@physx@@YAMMM@Z 10034020 f   PhysX3ExtensionsDEBUG:ExtRigidBodyExt.obj
 0001:00033060       ?computeBoxMass@Ext@physx@@YAMABVPxVec3@2@M@Z 10034060 f   PhysX3ExtensionsDEBUG:ExtRigidBodyExt.obj
 0001:00033090       ?computeBoxDensity@Ext@physx@@YAMABVPxVec3@2@M@Z 10034090 f   PhysX3ExtensionsDEBUG:ExtRigidBodyExt.obj
 0001:000330c0       ?computeEllipsoidMass@Ext@physx@@YAMABVPxVec3@2@M@Z 100340c0 f   PhysX3ExtensionsDEBUG:ExtRigidBodyExt.obj
 0001:000330f0       ?computeEllipsoidDensity@Ext@physx@@YAMABVPxVec3@2@M@Z 100340f0 f   PhysX3ExtensionsDEBUG:ExtRigidBodyExt.obj
 0001:00033120       ?computeCylinderMass@Ext@physx@@YAMMMM@Z 10034120 f   PhysX3ExtensionsDEBUG:ExtRigidBodyExt.obj
 0001:00033160       ?computeCylinderDensity@Ext@physx@@YAMMMM@Z 10034160 f   PhysX3ExtensionsDEBUG:ExtRigidBodyExt.obj
 0001:000331a0       ?computeCapsuleMass@Ext@physx@@YAMMMM@Z 100341a0 f   PhysX3ExtensionsDEBUG:ExtRigidBodyExt.obj
 0001:000331e0       ?computeCapsuleDensity@Ext@physx@@YAMMMM@Z 100341e0 f   PhysX3ExtensionsDEBUG:ExtRigidBodyExt.obj
 0001:00033220       ?computeConeMass@Ext@physx@@YAMMMM@Z 10034220 f   PhysX3ExtensionsDEBUG:ExtRigidBodyExt.obj
 0001:00033260       ?computeConeDensity@Ext@physx@@YAMMMM@Z 10034260 f   PhysX3ExtensionsDEBUG:ExtRigidBodyExt.obj
 0001:000332a0       ?computeBoxInertiaTensor@Ext@physx@@YAXAAVPxVec3@2@MMMM@Z 100342a0 f   PhysX3ExtensionsDEBUG:ExtRigidBodyExt.obj
 0001:00033460       ?computeSphereInertiaTensor@Ext@physx@@YAXAAVPxVec3@2@MM_N@Z 10034460 f   PhysX3ExtensionsDEBUG:ExtRigidBodyExt.obj
 0001:000359b0       ??$PX_UNUSED@PBUPxSweepHit@physx@@@@YAXABQBUPxSweepHit@physx@@@Z 100369b0 f i PhysX3ExtensionsDEBUG:ExtRigidBodyExt.obj
 0001:000359c0       ??$PX_UNUSED@W4PxZERO@physx@@@@YAXABW4PxZERO@physx@@@Z 100369c0 f i PhysX3ExtensionsDEBUG:ExtRigidBodyExt.obj
 0001:000359d0       ??$PxUnionCast@PAVPxGeometry@physx@@PAY03E@physx@@YAPAVPxGeometry@0@PAY03E@Z 100369d0 f i PhysX3ExtensionsDEBUG:ExtRigidBodyExt.obj
 0001:000359f0       ??0?$Array@PAVPxShape@physx@@V?$InlineAllocator@$0EA@VNamedAllocator@shdfnd@physx@@@shdfnd@2@@shdfnd@physx@@QAE@ABV?$InlineAllocator@$0EA@VNamedAllocator@shdfnd@physx@@@12@@Z 100369f0 f i PhysX3ExtensionsDEBUG:ExtRigidBodyExt.obj
 0001:00035a40       ??0?$InlineAllocator@$0EA@VNamedAllocator@shdfnd@physx@@@shdfnd@physx@@QAE@ABV012@@Z 10036a40 f i PhysX3ExtensionsDEBUG:ExtRigidBodyExt.obj
 0001:00035a70       ??0?$InlineAllocator@$0EA@VNamedAllocator@shdfnd@physx@@@shdfnd@physx@@QAE@ABVNamedAllocator@12@@Z 10036a70 f i PhysX3ExtensionsDEBUG:ExtRigidBodyExt.obj
 0001:00035aa0       ??0?$InlineArray@PAVPxShape@physx@@$0BA@VNamedAllocator@shdfnd@2@@shdfnd@physx@@QAE@ABVNamedAllocator@12@@Z 10036aa0 f i PhysX3ExtensionsDEBUG:ExtRigidBodyExt.obj
 0001:00035b00       ??0?$PxHitBuffer@UPxSweepHit@physx@@@physx@@QAE@PAUPxSweepHit@1@I@Z 10036b00 f i PhysX3ExtensionsDEBUG:ExtRigidBodyExt.obj
 0001:00035b40       ??0?$PxHitCallback@UPxSweepHit@physx@@@physx@@QAE@PAUPxSweepHit@1@I@Z 10036b40 f i PhysX3ExtensionsDEBUG:ExtRigidBodyExt.obj
 0001:00035ba0       ??0AB@?1???$PxUnionCast@PAVPxGeometry@physx@@PAY03E@physx@@YAPAVPxGeometry@1@PAY03E@Z@QAE@0@Z 10036ba0 f i PhysX3ExtensionsDEBUG:ExtRigidBodyExt.obj
 0001:00035bc0       ??0PxMat33@physx@@QAE@ABV01@@Z 10036bc0 f i PhysX3ExtensionsDEBUG:ExtRigidBodyExt.obj
 0001:00035c30       ??0PxMat33@physx@@QAE@W4PxZERO@1@@Z 10036c30 f i PhysX3ExtensionsDEBUG:ExtRigidBodyExt.obj
 0001:00035cc0       ??0PxMat33@physx@@QAE@XZ   10036cc0 f i PhysX3ExtensionsDEBUG:ExtRigidBodyExt.obj
 0001:00035d00       ??0PxQueryFilterData@physx@@QAE@XZ 10036d00 f i PhysX3ExtensionsDEBUG:ExtRigidBodyExt.obj
 0001:00035d40       ??1?$Array@PAVPxShape@physx@@V?$InlineAllocator@$0EA@VNamedAllocator@shdfnd@physx@@@shdfnd@2@@shdfnd@physx@@QAE@XZ 10036d40 f i PhysX3ExtensionsDEBUG:ExtRigidBodyExt.obj
 0001:00035db0       ??1?$InlineAllocator@$0EA@VNamedAllocator@shdfnd@physx@@@shdfnd@physx@@QAE@XZ 10036db0 f i PhysX3ExtensionsDEBUG:ExtRigidBodyExt.obj
 0001:00035dd0       ??1?$InlineArray@PAVPxShape@physx@@$0BA@VNamedAllocator@shdfnd@2@@shdfnd@physx@@QAE@XZ 10036dd0 f i PhysX3ExtensionsDEBUG:ExtRigidBodyExt.obj
 0001:00035df0       ??1?$PxHitBuffer@UPxSweepHit@physx@@@physx@@UAE@XZ 10036df0 f i PhysX3ExtensionsDEBUG:ExtRigidBodyExt.obj
 0001:00035e20       ??1?$PxHitCallback@UPxSweepHit@physx@@@physx@@UAE@XZ 10036e20 f i PhysX3ExtensionsDEBUG:ExtRigidBodyExt.obj
 0001:00035e40       ??4InertiaTensorComputer@Ext@physx@@QAEAAV012@ABV012@@Z 10036e40 f i PhysX3ExtensionsDEBUG:ExtRigidBodyExt.obj
 0001:00035e90       ??4PxMat33@physx@@QAEAAV01@ABV01@@Z 10036e90 f i PhysX3ExtensionsDEBUG:ExtRigidBodyExt.obj
 0001:00035ee0       ??4PxSweepHit@physx@@QAEAAU01@ABU01@@Z 10036ee0 f i PhysX3ExtensionsDEBUG:ExtRigidBodyExt.obj
 0001:00035f20       ??A?$Array@PAVPxShape@physx@@V?$InlineAllocator@$0EA@VNamedAllocator@shdfnd@physx@@@shdfnd@2@@shdfnd@physx@@QAEAAPAVPxShape@2@I@Z 10036f20 f i PhysX3ExtensionsDEBUG:ExtRigidBodyExt.obj
 0001:00035fa0       ??APxMat33@physx@@QAEAAVPxVec3@1@H@Z 10036fa0 f i PhysX3ExtensionsDEBUG:ExtRigidBodyExt.obj
 0001:00035fc0       ??APxMat33@physx@@QAEAAVPxVec3@1@I@Z 10036fc0 f i PhysX3ExtensionsDEBUG:ExtRigidBodyExt.obj
 0001:00035fe0       ??APxVec3@physx@@QAEAAMH@Z 10036fe0 f i PhysX3ExtensionsDEBUG:ExtRigidBodyExt.obj
 0001:00036050       ??APxVec3@physx@@QAEAAMI@Z 10037050 f i PhysX3ExtensionsDEBUG:ExtRigidBodyExt.obj
 0001:000360c0       ??DPxMat33@physx@@QBE?AV01@M@Z 100370c0 f i PhysX3ExtensionsDEBUG:ExtRigidBodyExt.obj
 0001:00036170       ??DPxMat33@physx@@QBE?AVPxVec3@1@ABV21@@Z 10037170 f i PhysX3ExtensionsDEBUG:ExtRigidBodyExt.obj
 0001:000361a0       ??GPxMat33@physx@@QBE?AV01@ABV01@@Z 100371a0 f i PhysX3ExtensionsDEBUG:ExtRigidBodyExt.obj
 0001:00036240       ??KPxVec3@physx@@QBE?AV01@M@Z 10037240 f i PhysX3ExtensionsDEBUG:ExtRigidBodyExt.obj
 0001:000362c0       ??RPxMat33@physx@@QAEAAMII@Z 100372c0 f i PhysX3ExtensionsDEBUG:ExtRigidBodyExt.obj
 0001:00036300       ??RPxMat33@physx@@QBEMII@Z 10037300 f i PhysX3ExtensionsDEBUG:ExtRigidBodyExt.obj
 0001:00036340       ??XPxMat33@physx@@QAEAAV01@M@Z 10037340 f i PhysX3ExtensionsDEBUG:ExtRigidBodyExt.obj
 0001:000363b0       ??YPxMat33@physx@@QAEAAV01@ABV01@@Z 100373b0 f i PhysX3ExtensionsDEBUG:ExtRigidBodyExt.obj
 0001:00036400       ??_E?$PxHitBuffer@UPxSweepHit@physx@@@physx@@UAEPAXI@Z 10037400 f i PhysX3ExtensionsDEBUG:ExtRigidBodyExt.obj
 0001:00036400       ??_G?$PxHitBuffer@UPxSweepHit@physx@@@physx@@UAEPAXI@Z 10037400 f i PhysX3ExtensionsDEBUG:ExtRigidBodyExt.obj
 0001:00036440       ??_E?$PxHitCallback@UPxSweepHit@physx@@@physx@@UAEPAXI@Z 10037440 f i PhysX3ExtensionsDEBUG:ExtRigidBodyExt.obj
 0001:00036440       ??_G?$PxHitCallback@UPxSweepHit@physx@@@physx@@UAEPAXI@Z 10037440 f i PhysX3ExtensionsDEBUG:ExtRigidBodyExt.obj
 0001:00036480       ?add@InertiaTensorComputer@Ext@physx@@QAEXABV123@@Z 10037480 f i PhysX3ExtensionsDEBUG:ExtRigidBodyExt.obj
 0001:000366c0       ?addForceAtPosInternal@@YAXAAVPxRigidBody@physx@@ABVPxVec3@2@1W4Enum@PxForceMode@2@_N@Z 100376c0 f i PhysX3ExtensionsDEBUG:ExtRigidBodyExt.obj
 0001:000367e0       ?allocate@?$Array@PAVPxShape@physx@@V?$InlineAllocator@$0EA@VNamedAllocator@shdfnd@physx@@@shdfnd@2@@shdfnd@physx@@IAEPAPAVPxShape@3@I@Z 100377e0 f i PhysX3ExtensionsDEBUG:ExtRigidBodyExt.obj
 0001:00036860       ?allocate@?$InlineAllocator@$0EA@VNamedAllocator@shdfnd@physx@@@shdfnd@physx@@QAEPAXIPBDH@Z 10037860 f i PhysX3ExtensionsDEBUG:ExtRigidBodyExt.obj
 0001:000368b0       ?any@PxGeometryHolder@physx@@QAEAAVPxGeometry@2@XZ 100378b0 f i PhysX3ExtensionsDEBUG:ExtRigidBodyExt.obj
 0001:000368d0       ?basisExtent@PxBounds3@physx@@SA?AV12@ABVPxVec3@2@ABVPxMat33@2@0@Z 100378d0 f i PhysX3ExtensionsDEBUG:ExtRigidBodyExt.obj
 0001:00036b50       ?begin@?$Array@PAVPxShape@physx@@V?$InlineAllocator@$0EA@VNamedAllocator@shdfnd@physx@@@shdfnd@2@@shdfnd@physx@@QAEPAPAVPxShape@3@XZ 10037b50 f i PhysX3ExtensionsDEBUG:ExtRigidBodyExt.obj
 0001:00036b70       ?capacity@?$Array@PAVPxShape@physx@@V?$InlineAllocator@$0EA@VNamedAllocator@shdfnd@physx@@@shdfnd@2@@shdfnd@physx@@QBEIXZ 10037b70 f i PhysX3ExtensionsDEBUG:ExtRigidBodyExt.obj
 0001:00036b90       ?center@InertiaTensorComputer@Ext@physx@@QAEXXZ 10037b90 f i PhysX3ExtensionsDEBUG:ExtRigidBodyExt.obj
 0001:00036bd0       ?computeBoxRatio@Ext@physx@@YAMABVPxVec3@2@@Z 10037bd0 f i PhysX3ExtensionsDEBUG:ExtRigidBodyExt.obj
 0001:00036bf0       ?computeCapsuleRatio@Ext@physx@@YAMMM@Z 10037bf0 f i PhysX3ExtensionsDEBUG:ExtRigidBodyExt.obj
 0001:00036c70       ?computeConeRatio@Ext@physx@@YAMMM@Z 10037c70 f i PhysX3ExtensionsDEBUG:ExtRigidBodyExt.obj
 0001:00036ce0       ?computeCylinderRatio@Ext@physx@@YAMMM@Z 10037ce0 f i PhysX3ExtensionsDEBUG:ExtRigidBodyExt.obj
 0001:00036d20       ?computeEllipsoidRatio@Ext@physx@@YAMABVPxVec3@2@@Z 10037d20 f i PhysX3ExtensionsDEBUG:ExtRigidBodyExt.obj
 0001:00036d60       ?computeSphereRatio@Ext@physx@@YAMM@Z 10037d60 f i PhysX3ExtensionsDEBUG:ExtRigidBodyExt.obj
 0001:00036d90       ?copy@?$Array@PAVPxShape@physx@@V?$InlineAllocator@$0EA@VNamedAllocator@shdfnd@physx@@@shdfnd@2@@shdfnd@physx@@KAXPAPAVPxShape@3@0PBQAV43@@Z 10037d90 f i PhysX3ExtensionsDEBUG:ExtRigidBodyExt.obj
 0001:00036df0       ?create@?$Array@PAVPxShape@physx@@V?$InlineAllocator@$0EA@VNamedAllocator@shdfnd@physx@@@shdfnd@2@@shdfnd@physx@@KAXPAPAVPxShape@3@0ABQAV43@@Z 10037df0 f i PhysX3ExtensionsDEBUG:ExtRigidBodyExt.obj
 0001:00036e40       ?createDiagonal@PxMat33@physx@@SA?AV12@ABVPxVec3@2@@Z 10037e40 f i PhysX3ExtensionsDEBUG:ExtRigidBodyExt.obj
 0001:00036f10       ?deallocate@?$Array@PAVPxShape@physx@@V?$InlineAllocator@$0EA@VNamedAllocator@shdfnd@physx@@@shdfnd@2@@shdfnd@physx@@IAEXPAX@Z 10037f10 f i PhysX3ExtensionsDEBUG:ExtRigidBodyExt.obj
 0001:00036f30       ?deallocate@?$InlineAllocator@$0EA@VNamedAllocator@shdfnd@physx@@@shdfnd@physx@@QAEXPAX@Z 10037f30 f i PhysX3ExtensionsDEBUG:ExtRigidBodyExt.obj
 0001:00036f70       ?destroy@?$Array@PAVPxShape@physx@@V?$InlineAllocator@$0EA@VNamedAllocator@shdfnd@physx@@@shdfnd@2@@shdfnd@physx@@KAXPAPAVPxShape@3@0@Z 10037f70 f i PhysX3ExtensionsDEBUG:ExtRigidBodyExt.obj
 0001:00036f90       ?finalizeQuery@?$PxHitCallback@UPxSweepHit@physx@@@physx@@UAEXXZ 10037f90 f i PhysX3ExtensionsDEBUG:ExtRigidBodyExt.obj
 0001:00036fa0       ?getCenterOfMass@InertiaTensorComputer@Ext@physx@@QBE?AVPxVec3@3@XZ 10037fa0 f i PhysX3ExtensionsDEBUG:ExtRigidBodyExt.obj
 0001:00036fd0       ?getConjugate@PxQuat@physx@@QBE?AV12@XZ 10037fd0 f i PhysX3ExtensionsDEBUG:ExtRigidBodyExt.obj
 0001:00037050       ?getInertia@InertiaTensorComputer@Ext@physx@@QBE?AVPxMat33@3@XZ 10038050 f i PhysX3ExtensionsDEBUG:ExtRigidBodyExt.obj
 0001:00037080       ?getInverse@PxTransform@physx@@QBE?AV12@XZ 10038080 f i PhysX3ExtensionsDEBUG:ExtRigidBodyExt.obj
 0001:00037150       ?getMass@InertiaTensorComputer@Ext@physx@@QBEMXZ 10038150 f i PhysX3ExtensionsDEBUG:ExtRigidBodyExt.obj
 0001:00037170       ?getNbTouches@?$PxHitBuffer@UPxSweepHit@physx@@@physx@@QBEIXZ 10038170 f i PhysX3ExtensionsDEBUG:ExtRigidBodyExt.obj
 0001:00037190       ?getVelocityAtPosInternal@@YA?AVPxVec3@physx@@ABVPxRigidBody@2@ABV12@@Z 10038190 f i PhysX3ExtensionsDEBUG:ExtRigidBodyExt.obj
 0001:00037210       ?grow@?$Array@PAVPxShape@physx@@V?$InlineAllocator@$0EA@VNamedAllocator@shdfnd@physx@@@shdfnd@2@@shdfnd@physx@@IAEXI@Z 10038210 f i PhysX3ExtensionsDEBUG:ExtRigidBodyExt.obj
 0001:00037290       ?isIdentity@PxMeshScale@physx@@QBE_NXZ 10038290 f i PhysX3ExtensionsDEBUG:ExtRigidBodyExt.obj
 0001:00037310       ?isInUserMemory@?$Array@PAVPxShape@physx@@V?$InlineAllocator@$0EA@VNamedAllocator@shdfnd@physx@@@shdfnd@2@@shdfnd@physx@@QBEIXZ 10038310 f i PhysX3ExtensionsDEBUG:ExtRigidBodyExt.obj
 0001:00037330       ?multiply@PxVec3@physx@@QBE?AV12@ABV12@@Z 10038330 f i PhysX3ExtensionsDEBUG:ExtRigidBodyExt.obj
 0001:000373a0       ?processTouches@?$PxHitBuffer@UPxSweepHit@physx@@@physx@@MAE_NPBUPxSweepHit@2@I@Z 100383a0 f i PhysX3ExtensionsDEBUG:ExtRigidBodyExt.obj
 0001:000373d0       ?recreate@?$Array@PAVPxShape@physx@@V?$InlineAllocator@$0EA@VNamedAllocator@shdfnd@physx@@@shdfnd@2@@shdfnd@physx@@IAEXI@Z 100383d0 f i PhysX3ExtensionsDEBUG:ExtRigidBodyExt.obj
 0001:000374e0       ?reserve@?$Array@PAVPxShape@physx@@V?$InlineAllocator@$0EA@VNamedAllocator@shdfnd@physx@@@shdfnd@2@@shdfnd@physx@@QAEXI@Z 100384e0 f i PhysX3ExtensionsDEBUG:ExtRigidBodyExt.obj
 0001:00037510       ?resize@?$Array@PAVPxShape@physx@@V?$InlineAllocator@$0EA@VNamedAllocator@shdfnd@physx@@@shdfnd@2@@shdfnd@physx@@QAEXIABQAVPxShape@3@@Z 10038510 f i PhysX3ExtensionsDEBUG:ExtRigidBodyExt.obj
 0001:000375a0       ?rotate@InertiaTensorComputer@Ext@physx@@QAEXABVPxMat33@3@@Z 100385a0 f i PhysX3ExtensionsDEBUG:ExtRigidBodyExt.obj
 0001:00037710       ?rotateInertia@MassProps@Ext@physx@@SA?AVPxMat33@3@ABV43@ABVPxQuat@3@@Z 10038710 f i PhysX3ExtensionsDEBUG:ExtRigidBodyExt.obj
 0001:00037770       ?scaleDensity@InertiaTensorComputer@Ext@physx@@QAEXM@Z 10038770 f i PhysX3ExtensionsDEBUG:ExtRigidBodyExt.obj
 0001:000378b0       ?scaleInertia@MassProps@Ext@physx@@SA?AVPxMat33@3@ABV43@ABVPxQuat@3@ABVPxVec3@3@@Z 100388b0 f i PhysX3ExtensionsDEBUG:ExtRigidBodyExt.obj
 0001:00037c60       ?setBox@InertiaTensorComputer@Ext@physx@@QAEXABVPxVec3@3@PBVPxTransform@3@@Z 10038c60 f i PhysX3ExtensionsDEBUG:ExtRigidBodyExt.obj
 0001:00037ca0       ?setCapsule@InertiaTensorComputer@Ext@physx@@QAEXHMMPBVPxTransform@3@@Z 10038ca0 f i PhysX3ExtensionsDEBUG:ExtRigidBodyExt.obj
 0001:00037d00       ?setDiagonal@InertiaTensorComputer@Ext@physx@@QAEXMABVPxVec3@3@@Z 10038d00 f i PhysX3ExtensionsDEBUG:ExtRigidBodyExt.obj
 0001:00037e60       ?setSphere@InertiaTensorComputer@Ext@physx@@QAEXMPBVPxTransform@3@@Z 10038e60 f i PhysX3ExtensionsDEBUG:ExtRigidBodyExt.obj
 0001:00037ea0       ?size@?$Array@PAVPxShape@physx@@V?$InlineAllocator@$0EA@VNamedAllocator@shdfnd@physx@@@shdfnd@2@@shdfnd@physx@@QBEIXZ 10038ea0 f i PhysX3ExtensionsDEBUG:ExtRigidBodyExt.obj
 0001:00037ec0       ?transform@InertiaTensorComputer@Ext@physx@@QAEXABVPxTransform@3@@Z 10038ec0 f i PhysX3ExtensionsDEBUG:ExtRigidBodyExt.obj
 0001:00037f00       ?transformFast@PxBounds3@physx@@SA?AV12@ABVPxTransform@2@ABV12@@Z 10038f00 f i PhysX3ExtensionsDEBUG:ExtRigidBodyExt.obj
 0001:00037fd0       ?volume@Ext@physx@@YAMABVPxVec3@2@@Z 10038fd0 f i PhysX3ExtensionsDEBUG:ExtRigidBodyExt.obj
 0001:00038080       ?zero@InertiaTensorComputer@Ext@physx@@QAEXXZ 10039080 f i PhysX3ExtensionsDEBUG:ExtRigidBodyExt.obj
 0001:000380e0       ??3@YAXPAXI@Z              100390e0 f   LIBCMTD:delete_scalar_size.obj
 0001:00038100       ??_V@YAXPAXI@Z             10039100 f   LIBCMTD:delete_array_size.obj
 0001:00038120       __alloca_probe_16          10039120 f   LIBCMTD:alloca16.obj
 0001:00038136       __alloca_probe_8           10039136     LIBCMTD:alloca16.obj
 0001:00038160       __ftoui3                   10039160 f   LIBCMTD:ftol3.obj
 0001:000381c0       __ftoul3                   100391c0 f   LIBCMTD:ftol3.obj
 0001:00038250       __ftol3                    10039250 f   LIBCMTD:ftol3.obj
 0001:000382e0       __dtoui3                   100392e0 f   LIBCMTD:ftol3.obj
 0001:00038380       __dtoul3                   10039380 f   LIBCMTD:ftol3.obj
 0001:00038450       __dtol3                    10039450 f   LIBCMTD:ftol3.obj
 0001:00038530       __ultod3                   10039530 f   LIBCMTD:ftol3.obj
 0001:000385a0       __ltod3                    100395a0 f   LIBCMTD:ftol3.obj
 0001:00038600       ??1type_info@@UAE@XZ       10039600 f   LIBCMTD:std_type_info_static.obj
 0001:00038620       ??_Gtype_info@@UAEPAXI@Z   10039620 f i LIBCMTD:std_type_info_static.obj
 0001:00038620       ??_Etype_info@@UAEPAXI@Z   10039620 f i LIBCMTD:std_type_info_static.obj
 0001:00038660       ?__scrt_initialize_type_info@@YAXXZ 10039660 f   LIBCMTD:tncleanup.obj
 0001:00038680       ?__scrt_uninitialize_type_info@@YAXXZ 10039680 f   LIBCMTD:tncleanup.obj
 0001:00038ca0       __CRT_INIT@12              10039ca0 f   LIBCMTD:dll_dllmain.obj
 0001:00038cc0       __DllMainCRTStartup@12     10039cc0 f   LIBCMTD:dll_dllmain.obj
 0001:00038cf0       ??3@YAXPAX@Z               10039cf0 f   LIBCMTD:delete_scalar.obj
 0001:00038d10       ??_V@YAXPAX@Z              10039d10 f   LIBCMTD:delete_array.obj
 0001:00038d30       __chkstk                   10039d30 f   LIBCMTD:chkstk.obj
 0001:00038d30       __alloca_probe             10039d30 f   LIBCMTD:chkstk.obj
 0001:00038d70       ___isa_available_init      10039d70 f   LIBCMTD:cpu_disp.obj
 0001:00039200       ___security_init_cookie    1003a200 f   LIBCMTD:gs_support.obj
 0001:000392a0       _DllMain@12                1003a2a0 f   LIBCMTD:dll_dllmain_stub.obj
 0001:000392b0       ___local_stdio_printf_options 1003a2b0 f i LIBCMTD:default_local_stdio_options.obj
 0001:000392c0       ___local_stdio_scanf_options 1003a2c0 f i LIBCMTD:default_local_stdio_options.obj
 0001:000392d0       ___scrt_initialize_default_local_stdio_options 1003a2d0 f   LIBCMTD:default_local_stdio_options.obj
 0001:00039320       ?configure_argv@__scrt_narrow_argv_policy@@SAHXZ 1003a320 f i LIBCMTD:utility.obj
 0001:000393f0       ?initialize_environment@__scrt_narrow_environment_policy@@SAHXZ 1003a3f0 f i LIBCMTD:utility.obj
 0001:00039490       _NtCurrentTeb              1003a490 f i LIBCMTD:utility.obj
 0001:000394a0       ___scrt_acquire_startup_lock 1003a4a0 f   LIBCMTD:utility.obj
 0001:00039500       ___scrt_dllmain_after_initialize_c 1003a500 f   LIBCMTD:utility.obj
 0001:00039540       ___scrt_dllmain_before_initialize_c 1003a540 f   LIBCMTD:utility.obj
 0001:00039570       ___scrt_dllmain_crt_thread_attach 1003a570 f   LIBCMTD:utility.obj
 0001:000395b0       ___scrt_dllmain_crt_thread_detach 1003a5b0 f   LIBCMTD:utility.obj
 0001:000395d0       ___scrt_dllmain_exception_filter 1003a5d0 f   LIBCMTD:utility.obj
 0001:00039630       ___scrt_dllmain_uninitialize_c 1003a630 f   LIBCMTD:utility.obj
 0001:00039670       ___scrt_dllmain_uninitialize_critical 1003a670 f   LIBCMTD:utility.obj
 0001:00039690       ___scrt_initialize_crt     1003a690 f   LIBCMTD:utility.obj
 0001:000396f0       ___scrt_initialize_onexit_tables 1003a6f0 f   LIBCMTD:utility.obj
 0001:00039800       ___scrt_is_nonwritable_in_current_image 1003a800 f   LIBCMTD:utility.obj
 0001:00039980       ___scrt_release_startup_lock 1003a980 f   LIBCMTD:utility.obj
 0001:000399b0       ___scrt_uninitialize_crt   1003a9b0 f   LIBCMTD:utility.obj
 0001:00039a00       __onexit                   1003aa00 f   LIBCMTD:utility.obj
 0001:00039a80       _at_quick_exit             1003aa80 f   LIBCMTD:utility.obj
 0001:00039ad0       _atexit                    1003aad0 f   LIBCMTD:utility.obj
 0001:00039b10       ___scrt_get_dyn_tls_init_callback 1003ab10 f   LIBCMTD:dyn_tls_init.obj
 0001:00039b20       ___scrt_fastfail           1003ab20 f   LIBCMTD:utility_desktop.obj
 0001:00039cb0       ___scrt_get_show_window_mode 1003acb0 f   LIBCMTD:utility_desktop.obj
 0001:00039d00       ___scrt_initialize_mta     1003ad00 f   LIBCMTD:utility_desktop.obj
 0001:00039d10       ___scrt_initialize_winrt   1003ad10 f   LIBCMTD:utility_desktop.obj
 0001:00039d20       ___scrt_is_managed_app     1003ad20 f   LIBCMTD:utility_desktop.obj
 0001:00039dd0       ___scrt_set_unhandled_exception_filter 1003add0 f   LIBCMTD:utility_desktop.obj
 0001:00039df0       ___scrt_exe_initialize_mta 1003adf0 f   LIBCMTD:utility_desktop.obj
 0001:00039df0       ___scrt_stub_for_initialize_mta 1003adf0 f   LIBCMTD:utility_desktop.obj
 0001:00039e00       ___scrt_unhandled_exception_filter@4 1003ae00 f   LIBCMTD:utility_desktop.obj
 0001:00039ea0       __crt_debugger_hook        1003aea0 f   LIBCMTD:utility_desktop.obj
 0001:00039ec0       __RTC_Initialize           1003aec0 f   LIBCMTD:initsect.obj
 0001:00039f00       __RTC_Terminate            1003af00 f   LIBCMTD:initsect.obj
 0001:00039f40       @_guard_check_icall_nop@4  1003af40 f i LIBCMTD:guard_support.obj
 0001:00039f50       _ReadNoFence               1003af50 f i LIBCMTD:guard_support.obj
 0001:00039f70       _ReadPointerNoFence        1003af70 f i LIBCMTD:guard_support.obj
 0001:00039f90       ___castguard_check_failure_debugbreak 1003af90 f i LIBCMTD:guard_support.obj
 0001:00039fb0       ___castguard_check_failure_fastfail 1003afb0 f i LIBCMTD:guard_support.obj
 0001:00039fe0       ___castguard_check_failure_nop 1003afe0 f i LIBCMTD:guard_support.obj
 0001:00039ff0       ___castguard_check_failure_os_handled 1003aff0 f i LIBCMTD:guard_support.obj
 0001:0003a090       ___castguard_slow_path_check_debugbreak 1003b090 f i LIBCMTD:guard_support.obj
 0001:0003a0d0       ___castguard_slow_path_check_fastfail 1003b0d0 f i LIBCMTD:guard_support.obj
 0001:0003a120       ___castguard_slow_path_check_nop 1003b120 f i LIBCMTD:guard_support.obj
 0001:0003a130       ___castguard_slow_path_check_os_handled 1003b130 f i LIBCMTD:guard_support.obj
 0001:0003a1f0       __guard_icall_checks_enforced 1003b1f0 f i LIBCMTD:guard_support.obj
 0001:0003a230       @__security_check_cookie@4 1003b230 f   LIBCMTD:secchk.obj
 0001:0003a250       __get_startup_argv_mode    1003b250 f   LIBCMTD:argv_mode.obj
 0001:0003a260       ___scrt_is_ucrt_dll_in_use 1003b260 f   LIBCMTD:ucrt_detection.obj
 0001:0003a290       ___raise_securityfailure   1003b290 f   LIBCMTD:gs_report.obj
 0001:0003a2d0       ___report_gsfailure        1003b2d0 f   LIBCMTD:gs_report.obj
 0001:0003a420       ___report_rangecheckfailure 1003b420 f   LIBCMTD:gs_report.obj
 0001:0003a430       ___report_securityfailure  1003b430 f   LIBCMTD:gs_report.obj
 0001:0003a540       ___report_securityfailureEx 1003b540 f   LIBCMTD:gs_report.obj
 0001:0003a6b0       ??$__crt_interlocked_exchange_pointer@$$A6AXXZP6AXXZ@@YAP6AXXZPDS6AXXZQ6AXXZ@Z 1003b6b0 f i libvcruntimed:purevirt.obj
 0001:0003a6c0       ??$__crt_interlocked_read_pointer@$$A6AXXZ@@YAP6AXXZPDS6AXXZ@Z 1003b6c0 f i libvcruntimed:purevirt.obj
 0001:0003a6e0       ?__crt_interlocked_read_32@@YAHPDH@Z 1003b6e0 f i libvcruntimed:purevirt.obj
 0001:0003a700       __get_purecall_handler     1003b700 f   libvcruntimed:purevirt.obj
 0001:0003a720       __purecall                 1003b720 f   libvcruntimed:purevirt.obj
 0001:0003a760       __set_purecall_handler     1003b760 f   libvcruntimed:purevirt.obj
 0001:0003a780       _memcpy                    1003b780 f   libvcruntimed:memcpy.obj
 0001:0003ae60       _memset                    1003be60 f   libvcruntimed:memset.obj
 0001:0003b050       ??$?RD@__crt_internal_free_policy@@QBEXQBD@Z 1003c050 f i libvcruntimed:std_type_info.obj
 0001:0003b080       ??$?RX@__crt_internal_free_policy@@QBEXQBX@Z 1003c080 f i libvcruntimed:std_type_info.obj
 0001:0003b0b0       ??$__crt_interlocked_compare_exchange_pointer@$$CBDPAD$$T@@YAPBDPDSBDQAD$$T@Z 1003c0b0 f i libvcruntimed:std_type_info.obj
 0001:0003b0d0       ??$__crt_interlocked_read_pointer@$$CBD@@YAPBDPDSBD@Z 1003c0d0 f i libvcruntimed:std_type_info.obj
 0001:0003b0f0       ??0?$__crt_unique_heap_ptr@DU__crt_internal_free_policy@@@@QAE@QAD@Z 1003c0f0 f i libvcruntimed:std_type_info.obj
 0001:0003b110       ??0?$__crt_unique_heap_ptr@XU__crt_internal_free_policy@@@@QAE@QAX@Z 1003c110 f i libvcruntimed:std_type_info.obj
 0001:0003b130       ??1?$__crt_unique_heap_ptr@DU__crt_internal_free_policy@@@@QAE@XZ 1003c130 f i libvcruntimed:std_type_info.obj
 0001:0003b150       ??1?$__crt_unique_heap_ptr@XU__crt_internal_free_policy@@@@QAE@XZ 1003c150 f i libvcruntimed:std_type_info.obj
 0001:0003b170       ??B?$__crt_unique_heap_ptr@DU__crt_internal_free_policy@@@@QBE_NXZ 1003c170 f i libvcruntimed:std_type_info.obj
 0001:0003b190       ??B?$__crt_unique_heap_ptr@XU__crt_internal_free_policy@@@@QBE_NXZ 1003c190 f i libvcruntimed:std_type_info.obj
 0001:0003b250       ?detach@?$__crt_unique_heap_ptr@XU__crt_internal_free_policy@@@@QAEPAXXZ 1003c250 f i libvcruntimed:std_type_info.obj
 0001:0003b280       ?get@?$__crt_unique_heap_ptr@DU__crt_internal_free_policy@@@@QBEPADXZ 1003c280 f i libvcruntimed:std_type_info.obj
 0001:0003b2a0       ?get@?$__crt_unique_heap_ptr@XU__crt_internal_free_policy@@@@QBEPAXXZ 1003c2a0 f i libvcruntimed:std_type_info.obj
 0001:0003b2c0       ?is_valid@?$__crt_unique_heap_ptr@DU__crt_internal_free_policy@@@@QBE_NXZ 1003c2c0 f i libvcruntimed:std_type_info.obj
 0001:0003b300       ?is_valid@?$__crt_unique_heap_ptr@XU__crt_internal_free_policy@@@@QBE_NXZ 1003c300 f i libvcruntimed:std_type_info.obj
 0001:0003b340       ?release@?$__crt_unique_heap_ptr@DU__crt_internal_free_policy@@@@QAEXXZ 1003c340 f i libvcruntimed:std_type_info.obj
 0001:0003b370       ?release@?$__crt_unique_heap_ptr@XU__crt_internal_free_policy@@@@QAEXXZ 1003c370 f i libvcruntimed:std_type_info.obj
 0001:0003b3a0       ___std_type_info_compare   1003c3a0 f   libvcruntimed:std_type_info.obj
 0001:0003b3d0       ___std_type_info_destroy_list 1003c3d0 f   libvcruntimed:std_type_info.obj
 0001:0003b420       ___std_type_info_hash      1003c420 f   libvcruntimed:std_type_info.obj
 0001:0003b490       ___std_type_info_name      1003c490 f   libvcruntimed:std_type_info.obj
 0001:0003b760       __except_handler4          1003c760 f   libvcruntimed:chandler4.obj
 0001:0003b9c0       ___vcrt_initialize         1003c9c0 f   libvcruntimed:initialization.obj
 0001:0003ba00       ___vcrt_thread_attach      1003ca00 f   libvcruntimed:initialization.obj
 0001:0003ba20       ___vcrt_thread_detach      1003ca20 f   libvcruntimed:initialization.obj
 0001:0003ba40       ___vcrt_uninitialize       1003ca40 f   libvcruntimed:initialization.obj
 0001:0003ba60       ___vcrt_uninitialize_critical 1003ca60 f   libvcruntimed:initialization.obj
 0001:0003ba80       ___DestructExceptionObject 1003ca80 f   libvcruntimed:ehhelpers.obj
 0001:0003bbf0       ?_CallMemberFunction0@@YGXQAX0@Z 1003cbf0 f i libvcruntimed:ehhelpers.obj
 0001:0003bcc0       ?raw_name@type_info@@QBEPBDXZ 1003ccc0 f i libvcruntimed:ehhelpers.obj
 0001:0003bce0       __IsExceptionObjectToBeDestroyed 1003cce0 f   libvcruntimed:ehhelpers.obj
 0001:0003bd30       __SetWinRTOutOfMemoryExceptionCallback 1003cd30 f   libvcruntimed:ehhelpers.obj
 0001:0003bd40       ___AdjustPointer           1003cd40 f   libvcruntimed:ehhelpers.obj
 0001:0003bda0       ___FrameUnwindFilter       1003cda0 f   libvcruntimed:ehhelpers.obj
 0001:0003be50       ___GetPlatformExceptionInfo 1003ce50 f   libvcruntimed:ehhelpers.obj
 0001:0003bef0       ___current_exception       1003cef0 f   libvcruntimed:ehhelpers.obj
 0001:0003bf00       ___current_exception_context 1003cf00 f   libvcruntimed:ehhelpers.obj
 0001:0003bf10       ___processing_throw        1003cf10 f   libvcruntimed:ehhelpers.obj
 0001:0003bf20       ___std_terminate           1003cf20 f   libvcruntimed:ehhelpers.obj
 0001:0003bf30       __is_exception_typeof      1003cf30 f   libvcruntimed:ehhelpers.obj
 0001:0003c040       ??$?0$00@DName@@QAE@PBDU?$StringLifeSelector@$00@@@Z 1003d040 f i libvcruntimed:undname.obj
 0001:0003c0b0       ??$?0$00@pcharNode@@QAE@PBDHU?$StringLifeSelector@$00@@@Z 1003d0b0 f i libvcruntimed:undname.obj
 0001:0003c0f0       ??$?0$01@DName@@QAE@PBDU?$StringLifeSelector@$01@@@Z 1003d0f0 f i libvcruntimed:undname.obj
 0001:0003c160       ??$?0$01@pcharNode@@QAE@PBDHU?$StringLifeSelector@$01@@@Z 1003d160 f i libvcruntimed:undname.obj
 0001:0003c200       ??$?0$0A@@DName@@QAE@PBDU?$StringLifeSelector@$0A@@@@Z 1003d200 f i libvcruntimed:undname.obj
 0001:0003c270       ??$?0$0A@@pcharNode@@QAE@PBDHU?$StringLifeSelector@$0A@@@@Z 1003d270 f i libvcruntimed:undname.obj
 0001:0003c310       ??$?0_K$0A@@?$optional@_K@std@@QAE@$$QA_K@Z 1003d310 f i libvcruntimed:undname.obj
 0001:0003c360       ??$?0_K@?$_Optional_construct_base@_K@std@@QAE@Uin_place_t@1@$$QA_K@Z 1003d360 f i libvcruntimed:undname.obj
 0001:0003c390       ??$?0_K@?$_Optional_destruct_base@_K$00@std@@QAE@Uin_place_t@1@$$QA_K@Z 1003d390 f i libvcruntimed:undname.obj
 0001:0003c3d0       ??$append@VDNameNode@@@DName@@AAEXPBVDNameNode@@@Z 1003d3d0 f i libvcruntimed:undname.obj
 0001:0003c480       ??$append@VDNameStatusNode@@@DName@@AAEXPBVDNameStatusNode@@@Z 1003d480 f i libvcruntimed:undname.obj
 0001:0003c530       ??$append@VcharNode@@@DName@@AAEXPBVcharNode@@@Z 1003d530 f i libvcruntimed:undname.obj
 0001:0003c5e0       ??$append@VpDNameNode@@@DName@@AAEXPBVpDNameNode@@@Z 1003d5e0 f i libvcruntimed:undname.obj
 0001:0003c690       ??$append@VpcharNode@@@DName@@AAEXPBVpcharNode@@@Z 1003d690 f i libvcruntimed:undname.obj
 0001:0003c740       ??$doPchar@$00@DName@@AAEXPBDH@Z 1003d740 f i libvcruntimed:undname.obj
 0001:0003c890       ??$doPchar@$01@DName@@AAEXPBDH@Z 1003d890 f i libvcruntimed:undname.obj
 0001:0003c9e0       ??$doPchar@$0A@@DName@@AAEXPBDH@Z 1003d9e0 f i libvcruntimed:undname.obj
 0001:0003cb30       ??$forward@_K@std@@YA$$QA_KAA_K@Z 1003db30 f i libvcruntimed:undname.obj
 0001:0003cb40       ??$size@D$04@std@@YAIAAY04$$CBD@Z 1003db40 f i libvcruntimed:undname.obj
 0001:0003cb50       ??$size@D$0EB@@std@@YAIAAY0EB@$$CBD@Z 1003db50 f i libvcruntimed:undname.obj
 0001:0003cb60       ??0?$_Optional_construct_base@_K@std@@QAE@XZ 1003db60 f i libvcruntimed:undname.obj
 0001:0003cb80       ??0?$_Optional_destruct_base@_K$00@std@@QAE@XZ 1003db80 f i libvcruntimed:undname.obj
 0001:0003cbb0       ??0?$optional@_K@std@@QAE@XZ 1003dbb0 f i libvcruntimed:undname.obj
 0001:0003cbd0       ??0Block@_HeapManager@@QAE@XZ 1003dbd0 f i libvcruntimed:undname.obj
 0001:0003cbf0       ??0DName@@QAE@AAPBDD@Z     1003dbf0 f   libvcruntimed:undname.obj
 0001:0003cdc0       ??0DName@@QAE@ABUStringLiteral@@@Z 1003ddc0 f   libvcruntimed:undname.obj
 0001:0003ce20       ??0DName@@QAE@ABV0@@Z      1003de20 f i libvcruntimed:undname.obj
 0001:0003ce50       ??0DName@@QAE@D@Z          1003de50 f   libvcruntimed:undname.obj
 0001:0003ce90       ??0DName@@QAE@PAV0@@Z      1003de90 f   libvcruntimed:undname.obj
 0001:0003cf70       ??0DName@@QAE@W4DNameStatus@@@Z 1003df70 f   libvcruntimed:undname.obj
 0001:0003d030       ??0DName@@QAE@XZ           1003e030 f i libvcruntimed:undname.obj
 0001:0003d060       ??0DName@@QAE@_J@Z         1003e060 f   libvcruntimed:undname.obj
 0001:0003d180       ??0DName@@QAE@_K@Z         1003e180 f   libvcruntimed:undname.obj
 0001:0003d250       ??0DNameNode@@IAE@XZ       1003e250 f i libvcruntimed:undname.obj
 0001:0003d270       ??0Replicator@@QAE@XZ      1003e270 f i libvcruntimed:undname.obj
 0001:0003d2c0       ??0UnDecorator@@QAE@PBDP6APADJ@ZK@Z 1003e2c0 f i libvcruntimed:undname.obj
 0001:0003d360       ??0_Nontrivial_dummy_type@std@@QAE@XZ 1003e360 f i libvcruntimed:undname.obj
 0001:0003d380       ??0charNode@@QAE@D@Z       1003e380 f i libvcruntimed:undname.obj
 0001:0003d3c0       ??0pDNameNode@@QAE@PAVDName@@@Z 1003e3c0 f   libvcruntimed:undname.obj
 0001:0003d440       ??0pairNode@@QAE@PBVDNameNode@@0@Z 1003e440 f i libvcruntimed:undname.obj
 0001:0003d4b0       ??2@YAPAXIAAV_HeapManager@@H@Z 1003e4b0 f   libvcruntimed:undname.obj
 0001:0003d500       ??4DName@@QAEAAV0@ABUStringLiteral@@@Z 1003e500 f   libvcruntimed:undname.obj
 0001:0003d550       ??4DName@@QAEAAV0@ABV0@@Z  1003e550 f   libvcruntimed:undname.obj
 0001:0003d580       ??4DName@@QAEAAV0@D@Z      1003e580 f i libvcruntimed:undname.obj
 0001:0003d5c0       ??4DName@@QAEAAV0@PAV0@@Z  1003e5c0 f   libvcruntimed:undname.obj
 0001:0003d680       ??4DName@@QAEAAV0@W4DNameStatus@@@Z 1003e680 f   libvcruntimed:undname.obj
 0001:0003d720       ??AReplicator@@QBE?AVDName@@H@Z 1003e720 f   libvcruntimed:undname.obj
 0001:0003d7a0       ??B?$optional@_K@std@@QBE_NXZ 1003e7a0 f i libvcruntimed:undname.obj
 0001:0003d7c0       ??D?$optional@_K@std@@QGAEAA_KXZ 1003e7c0 f i libvcruntimed:undname.obj
 0001:0003d840       ??H@YA?AVDName@@ABUStringLiteral@@ABV0@@Z 1003e840 f i libvcruntimed:undname.obj
 0001:0003d880       ??H@YA?AVDName@@DABV0@@Z   1003e880 f i libvcruntimed:undname.obj
 0001:0003d8c0       ??H@YA?AVDName@@W4DNameStatus@@ABV0@@Z 1003e8c0 f i libvcruntimed:undname.obj
 0001:0003d900       ??HDName@@QBE?AV0@ABUStringLiteral@@@Z 1003e900 f   libvcruntimed:undname.obj
 0001:0003d950       ??HDName@@QBE?AV0@ABV0@@Z  1003e950 f   libvcruntimed:undname.obj
 0001:0003d9a0       ??HDName@@QBE?AV0@D@Z      1003e9a0 f   libvcruntimed:undname.obj
 0001:0003d9f0       ??HDName@@QBE?AV0@PAV0@@Z  1003e9f0 f   libvcruntimed:undname.obj
 0001:0003da40       ??HDName@@QBE?AV0@W4DNameStatus@@@Z 1003ea40 f   libvcruntimed:undname.obj
 0001:0003da90       ??HStringLiteral@@QBE?AU0@H@Z 1003ea90 f i libvcruntimed:undname.obj
 0001:0003dad0       ??YDName@@QAEAAV0@ABUStringLiteral@@@Z 1003ead0 f   libvcruntimed:undname.obj
 0001:0003db90       ??YDName@@QAEAAV0@ABV0@@Z  1003eb90 f   libvcruntimed:undname.obj
 0001:0003dc50       ??YDName@@QAEAAV0@D@Z      1003ec50 f   libvcruntimed:undname.obj
 0001:0003dcf0       ??YDName@@QAEAAV0@PAV0@@Z  1003ecf0 f   libvcruntimed:undname.obj
 0001:0003ddd0       ??YDName@@QAEAAV0@W4DNameStatus@@@Z 1003edd0 f   libvcruntimed:undname.obj
 0001:0003de50       ??YReplicator@@QAEAAV0@ABVDName@@@Z 1003ee50 f   libvcruntimed:undname.obj
 0001:0003df00       ??_5DName@@QAEAAV0@ABV0@@Z 1003ef00 f   libvcruntimed:undname.obj
 0001:0003df70       ??__K_l@@YA?AUStringLiteral@@PBDI@Z 1003ef70 f i libvcruntimed:undname.obj
 0001:0003dfa0       ?Constructor@_HeapManager@@QAEXP6APAXI@ZP6AXPAX@Z@Z 1003efa0 f i libvcruntimed:undname.obj
 0001:0003dff0       ?Destructor@_HeapManager@@QAEXXZ 1003eff0 f i libvcruntimed:undname.obj
 0001:0003e090       ?UScore@UnDecorator@@SA?AUStringLiteral@@W4Tokens@@@Z 1003f090 f   libvcruntimed:undname.obj
 0001:0003e0f0       ?composeDeclaration@UnDecorator@@CA?AVDName@@ABV2@@Z 1003f0f0 f i libvcruntimed:undname.obj
 0001:00040840       ?dbGetString@DName@@QBEPADXZ 10041840 f   libvcruntimed:undname.obj
 0001:00040870       ?doAccessSpecifiers@UnDecorator@@SAHXZ 10041870 f i libvcruntimed:undname.obj
 0001:000408a0       ?doAllocationLanguage@UnDecorator@@SAHXZ 100418a0 f i libvcruntimed:undname.obj
 0001:000408d0       ?doAllocationModel@UnDecorator@@SAHXZ 100418d0 f i libvcruntimed:undname.obj
 0001:00040900       ?doEcsu@UnDecorator@@SAHXZ 10041900 f i libvcruntimed:undname.obj
 0001:00040930       ?doEllipsis@UnDecorator@@SAHXZ 10041930 f i libvcruntimed:undname.obj
 0001:00040960       ?doFunctionReturns@UnDecorator@@SAHXZ 10041960 f i libvcruntimed:undname.obj
 0001:00040990       ?doMSKeywords@UnDecorator@@SAHXZ 10041990 f i libvcruntimed:undname.obj
 0001:000409c0       ?doMemberTypes@UnDecorator@@SAHXZ 100419c0 f i libvcruntimed:undname.obj
 0001:000409f0       ?doNameOnly@UnDecorator@@SAHXZ 100419f0 f i libvcruntimed:undname.obj
 0001:00040a10       ?doNoIdentCharCheck@UnDecorator@@SAHXZ 10041a10 f i libvcruntimed:undname.obj
 0001:00040a30       ?doPchar@DName@@AAEXD@Z    10041a30 f   libvcruntimed:undname.obj
 0001:00040ac0       ?doPtr64@UnDecorator@@SAHXZ 10041ac0 f i libvcruntimed:undname.obj
 0001:00040af0       ?doRestrictionSpec@UnDecorator@@SAHXZ 10041af0 f i libvcruntimed:undname.obj
 0001:00040b20       ?doThisTypes@UnDecorator@@SAHXZ 10041b20 f i libvcruntimed:undname.obj
 0001:00040b60       ?doThrowTypes@UnDecorator@@SAHXZ 10041b60 f i libvcruntimed:undname.obj
 0001:00040b90       ?doTypeOnly@UnDecorator@@SAHXZ 10041b90 f i libvcruntimed:undname.obj
 0001:00040bb0       ?doUnderScore@UnDecorator@@SAHXZ 10041bb0 f i libvcruntimed:undname.obj
 0001:00040be0       ?getAddressOf@UnDecorator@@CA?AVDName@@XZ 10041be0 f   libvcruntimed:undname.obj
 0001:00040c80       ?getArgumentList@UnDecorator@@CA?AVDName@@XZ 10041c80 f   libvcruntimed:undname.obj
 0001:00040e20       ?getArgumentTypes@UnDecorator@@CA?AVDName@@XZ 10041e20 f   libvcruntimed:undname.obj
 0001:000410b0       ?getArrayAccess@UnDecorator@@CA?AVDName@@XZ 100420b0 f   libvcruntimed:undname.obj
 0001:00041170       ?getArrayObject@UnDecorator@@CA?AVDName@@XZ 10042170 f   libvcruntimed:undname.obj
 0001:00041290       ?getArrayType@UnDecorator@@CA?AVDName@@ABV2@@Z 10042290 f i libvcruntimed:undname.obj
 0001:000415d0       ?getBasedType@UnDecorator@@CA?AVDName@@XZ 100425d0 f   libvcruntimed:undname.obj
 0001:00041700       ?getBasicDataType@UnDecorator@@CA?AVDName@@ABV2@@Z 10042700 f   libvcruntimed:undname.obj
 0001:000422d0       ?getCHPEName@UnDecorator@@QAEPADPADH@Z 100432d0 f i libvcruntimed:undname.obj
 0001:00042490       ?getCallIndex@UnDecorator@@CA?AVDName@@XZ 10043490 f i libvcruntimed:undname.obj
 0001:000424b0       ?getCallingConvention@UnDecorator@@CA?AVDName@@XZ 100434b0 f   libvcruntimed:undname.obj
 0001:00042770       ?getDataIndirectType@UnDecorator@@CA?AVDName@@ABV2@W4IndirectionKind@@0H@Z 10043770 f   libvcruntimed:undname.obj
 0001:000432d0       ?getDataIndirectType@UnDecorator@@CA?AVDName@@XZ 100442d0 f i libvcruntimed:undname.obj
 0001:00043320       ?getDataType@UnDecorator@@CA?AVDName@@PAV2@@Z 10044320 f   libvcruntimed:undname.obj
 0001:000434b0       ?getDecoratedName@UnDecorator@@CA?AVDName@@XZ 100444b0 f   libvcruntimed:undname.obj
 0001:000439f0       ?getDimension@UnDecorator@@CA?AVDName@@_N@Z 100449f0 f   libvcruntimed:undname.obj
 0001:00043cf0       ?getDispatchTarget@UnDecorator@@CA?AVDName@@XZ 10044cf0 f   libvcruntimed:undname.obj
 0001:00043dc0       ?getDisplacement@UnDecorator@@CA?AVDName@@XZ 10044dc0 f i libvcruntimed:undname.obj
 0001:00043de0       ?getECSUDataType@UnDecorator@@CA?AVDName@@XZ 10044de0 f   libvcruntimed:undname.obj
 0001:000440d0       ?getECSUName@UnDecorator@@CA?AVDName@@XZ 100450d0 f i libvcruntimed:undname.obj
 0001:000440f0       ?getEnumType@UnDecorator@@CA?AVDName@@XZ 100450f0 f i libvcruntimed:undname.obj
 0001:00044320       ?getExtendedDataIndirectType@UnDecorator@@CA?AVDName@@AAW4IndirectionKind@@AA_NH@Z 10045320 f   libvcruntimed:undname.obj
 0001:00044600       ?getExternalDataType@UnDecorator@@CA?AVDName@@ABV2@@Z 10045600 f i libvcruntimed:undname.obj
 0001:000446c0       ?getFloatingPoint@UnDecorator@@CA?AVDName@@H@Z 100456c0 f   libvcruntimed:undname.obj
 0001:000448f0       ?getFunctionIndirectType@UnDecorator@@CA?AVDName@@ABV2@@Z 100458f0 f   libvcruntimed:undname.obj
 0001:00044f10       ?getGuardNumber@UnDecorator@@CA?AVDName@@XZ 10045f10 f i libvcruntimed:undname.obj
 0001:00044f30       ?getLastChar@DName@@QBEDXZ 10045f30 f i libvcruntimed:undname.obj
 0001:00044f80       ?getLastChar@DNameStatusNode@@UBEDXZ 10045f80 f i libvcruntimed:undname.obj
 0001:00044fc0       ?getLastChar@charNode@@UBEDXZ 10045fc0 f i libvcruntimed:undname.obj
 0001:00044fe0       ?getLastChar@pDNameNode@@UBEDXZ 10045fe0 f i libvcruntimed:undname.obj
 0001:00045020       ?getLastChar@pairNode@@UBEDXZ 10046020 f i libvcruntimed:undname.obj
 0001:000450a0       ?getLastChar@pcharNode@@UBEDXZ 100460a0 f i libvcruntimed:undname.obj
 0001:000450e0       ?getLexicalFrame@UnDecorator@@CA?AVDName@@XZ 100460e0 f i libvcruntimed:undname.obj
 0001:00045130       ?getMemberAccess@UnDecorator@@CA?AVDName@@XZ 10046130 f   libvcruntimed:undname.obj
 0001:000451e0       ?getMemoryWithBuffer@_HeapManager@@QAEPAXI@Z 100461e0 f   libvcruntimed:undname.obj
 0001:00045300       ?getMemoryWithoutBuffer@_HeapManager@@QAEPAXI@Z 10046300 f   libvcruntimed:undname.obj
 0001:00045350       ?getNoexcept@UnDecorator@@CA?AVDName@@XZ 10046350 f   libvcruntimed:undname.obj
 0001:000453f0       ?getNumberOfDimensions@UnDecorator@@CAHXZ 100463f0 f   libvcruntimed:undname.obj
 0001:00045530       ?getOperatorName@UnDecorator@@CA?AVDName@@_NPA_N@Z 10046530 f i libvcruntimed:undname.obj
 0001:000462f0       ?getPointerToMember@UnDecorator@@CA?AVDName@@XZ 100472f0 f   libvcruntimed:undname.obj
 0001:00046420       ?getPointerType@UnDecorator@@CA?AVDName@@ABV2@0@Z 10047420 f i libvcruntimed:undname.obj
 0001:00046450       ?getPointerTypeArray@UnDecorator@@CA?AVDName@@ABV2@0@Z 10047450 f i libvcruntimed:undname.obj
 0001:00046480       ?getPrimaryDataType@UnDecorator@@CA?AVDName@@ABV2@@Z 10047480 f   libvcruntimed:undname.obj
 0001:00046a30       ?getPtrRefDataType@UnDecorator@@CA?AVDName@@ABV2@H@Z 10047a30 f   libvcruntimed:undname.obj
 0001:00046d80       ?getPtrRefType@UnDecorator@@CA?AVDName@@ABV2@0W4IndirectionKind@@@Z 10047d80 f   libvcruntimed:undname.obj
 0001:00046f60       ?getReferenceType@UnDecorator@@CA?AVDName@@ABV2@0W4IndirectionKind@@@Z 10047f60 f i libvcruntimed:undname.obj
 0001:00046f90       ?getRestrictionSpec@UnDecorator@@CA?AVDName@@XZ 10047f90 f   libvcruntimed:undname.obj
 0001:000471c0       ?getReturnType@UnDecorator@@CA?AVDName@@PAV2@@Z 100481c0 f   libvcruntimed:undname.obj
 0001:00047220       ?getScope@UnDecorator@@CA?AVDName@@XZ 10048220 f   libvcruntimed:undname.obj
 0001:00047910       ?getScopedName@UnDecorator@@CA?AVDName@@XZ 10048910 f   libvcruntimed:undname.obj
 0001:00047ab0       ?getSignedDimension@UnDecorator@@CA?AVDName@@XZ 10048ab0 f   libvcruntimed:undname.obj
 0001:00047b50       ?getStorageConvention@UnDecorator@@CA?AVDName@@XZ 10048b50 f i libvcruntimed:undname.obj
 0001:00047b70       ?getString@DName@@QBEPADPAD0@Z 10048b70 f i libvcruntimed:undname.obj
 0001:00047be0       ?getString@DName@@QBEPADPADH@Z 10048be0 f i libvcruntimed:undname.obj
 0001:00047c90       ?getString@DNameStatusNode@@UBEPADPAD0@Z 10048c90 f i libvcruntimed:undname.obj
 0001:00047cd0       ?getString@charNode@@UBEPADPAD0@Z 10048cd0 f i libvcruntimed:undname.obj
 0001:00047d10       ?getString@pDNameNode@@UBEPADPAD0@Z 10048d10 f i libvcruntimed:undname.obj
 0001:00047d60       ?getString@pairNode@@UBEPADPAD0@Z 10048d60 f i libvcruntimed:undname.obj
 0001:00047e10       ?getString@pcharNode@@UBEPADPAD0@Z 10048e10 f i libvcruntimed:undname.obj
 0001:00047e50       ?getStringEncoding@UnDecorator@@CA?AVDName@@W4PrefixKind@@H@Z 10048e50 f   libvcruntimed:undname.obj
 0001:00047fa0       ?getStringHelper@@YAPADPADPBD1H@Z 10048fa0 f i libvcruntimed:undname.obj
 0001:00047ff0       ?getStringObject@UnDecorator@@CA?AVDName@@XZ 10048ff0 f   libvcruntimed:undname.obj
 0001:000480c0       ?getSymbolName@UnDecorator@@CA?AVDName@@XZ 100490c0 f i libvcruntimed:undname.obj
 0001:00048170       ?getTemplateArgumentList@UnDecorator@@CA?AVDName@@XZ 10049170 f   libvcruntimed:undname.obj
 0001:00048510       ?getTemplateName@UnDecorator@@CA?AVDName@@_N@Z 10049510 f   libvcruntimed:undname.obj
 0001:00048740       ?getTemplateNonTypeArgument@UnDecorator@@CA?AVDName@@XZ 10049740 f   libvcruntimed:undname.obj
 0001:00048ec0       ?getTemplateTypeArgument@UnDecorator@@CA?AVDName@@XZ 10049ec0 f   libvcruntimed:undname.obj
 0001:000490d0       ?getThisType@UnDecorator@@CA?AVDName@@XZ 1004a0d0 f i libvcruntimed:undname.obj
 0001:00049120       ?getThrowTypes@UnDecorator@@CA?AVDName@@XZ 1004a120 f   libvcruntimed:undname.obj
 0001:00049170       ?getTypeEncoding@UnDecorator@@CAHXZ 1004a170 f i libvcruntimed:undname.obj
 0001:00049ee0       ?getUndecoratedName@UnDecorator@@QAEPADPADH@Z 1004aee0 f i libvcruntimed:undname.obj
 0001:0004a090       ?getUnionObject@UnDecorator@@CA?AVDName@@XZ 1004b090 f   libvcruntimed:undname.obj
 0001:0004a1a0       ?getVCallThunkType@UnDecorator@@CA?AVDName@@XZ 1004b1a0 f i libvcruntimed:undname.obj
 0001:0004a230       ?getValue@UnDecorator@@CA?AV?$optional@_K@std@@XZ 1004b230 f   libvcruntimed:undname.obj
 0001:0004a320       ?getValueObject@UnDecorator@@CA?AVDName@@XZ 1004b320 f   libvcruntimed:undname.obj
 0001:0004a570       ?getVbTableType@UnDecorator@@CA?AVDName@@ABV2@@Z 1004b570 f i libvcruntimed:undname.obj
 0001:0004a590       ?getVdispMapType@UnDecorator@@CA?AVDName@@ABV2@@Z 1004b590 f i libvcruntimed:undname.obj
 0001:0004a640       ?getVfTableType@UnDecorator@@CA?AVDName@@ABV2@@Z 1004b640 f i libvcruntimed:undname.obj
 0001:0004a8c0       ?getZName@UnDecorator@@CA?AVDName@@_N0@Z 1004b8c0 f   libvcruntimed:undname.obj
 0001:0004acd0       ?haveTemplateParameters@UnDecorator@@SAHXZ 1004bcd0 f i libvcruntimed:undname.obj
 0001:0004acf0       ?isArray@DName@@QBEHXZ     1004bcf0 f i libvcruntimed:undname.obj
 0001:0004ad10       ?isComArray@DName@@QBEHXZ  1004bd10 f i libvcruntimed:undname.obj
 0001:0004ad30       ?isEmpty@DName@@QBEHXZ     1004bd30 f i libvcruntimed:undname.obj
 0001:0004ad70       ?isFull@Replicator@@QBEHXZ 1004bd70 f i libvcruntimed:undname.obj
 0001:0004adb0       ?isNoTE@DName@@QBEHXZ      1004bdb0 f i libvcruntimed:undname.obj
 0001:0004add0       ?isPinPtr@DName@@QBEHXZ    1004bdd0 f i libvcruntimed:undname.obj
 0001:0004adf0       ?isPtrRef@DName@@QBEHXZ    1004bdf0 f i libvcruntimed:undname.obj
 0001:0004ae10       ?isUDC@DName@@QBEHXZ       1004be10 f i libvcruntimed:undname.obj
 0001:0004ae60       ?isUDTThunk@DName@@QBEHXZ  1004be60 f i libvcruntimed:undname.obj
 0001:0004aeb0       ?isVCallThunk@DName@@QBEHXZ 1004beb0 f i libvcruntimed:undname.obj
 0001:0004aed0       ?isValid@DName@@QBEHXZ     1004bed0 f i libvcruntimed:undname.obj
 0001:0004af10       ?length@DName@@QBEHXZ      1004bf10 f i libvcruntimed:undname.obj
 0001:0004af60       ?length@DNameStatusNode@@UBEHXZ 1004bf60 f i libvcruntimed:undname.obj
 0001:0004af80       ?length@charNode@@UBEHXZ   1004bf80 f i libvcruntimed:undname.obj
 0001:0004afa0       ?length@pDNameNode@@UBEHXZ 1004bfa0 f i libvcruntimed:undname.obj
 0001:0004afe0       ?length@pairNode@@UBEHXZ   1004bfe0 f i libvcruntimed:undname.obj
 0001:0004b070       ?length@pcharNode@@UBEHXZ  1004c070 f i libvcruntimed:undname.obj
 0001:0004b090       ?make@DNameStatusNode@@SAPBV1@W4DNameStatus@@@Z 1004c090 f i libvcruntimed:undname.obj
 0001:0004b0d0       ?parseDecoratedName@UnDecorator@@CA?AVDName@@XZ 1004c0d0 f   libvcruntimed:undname.obj
 0001:0004b2c0       ?raw_length@DNameStatusNode@@UBEHXZ 1004c2c0 f i libvcruntimed:undname.obj
 0001:0004b2e0       ?raw_length@charNode@@UBEHXZ 1004c2e0 f i libvcruntimed:undname.obj
 0001:0004b300       ?raw_length@pDNameNode@@UBEHXZ 1004c300 f i libvcruntimed:undname.obj
 0001:0004b320       ?raw_length@pairNode@@UBEHXZ 1004c320 f i libvcruntimed:undname.obj
 0001:0004b340       ?raw_length@pcharNode@@UBEHXZ 1004c340 f i libvcruntimed:undname.obj
 0001:0004b360       ?setIsArray@DName@@QAEXXZ  1004c360 f i libvcruntimed:undname.obj
 0001:0004b390       ?setIsComArray@DName@@QAEXXZ 1004c390 f i libvcruntimed:undname.obj
 0001:0004b3c0       ?setIsNoTE@DName@@QAEXXZ   1004c3c0 f i libvcruntimed:undname.obj
 0001:0004b3f0       ?setIsPinPtr@DName@@QAEXXZ 1004c3f0 f i libvcruntimed:undname.obj
 0001:0004b420       ?setIsUDC@DName@@QAEXXZ    1004c420 f i libvcruntimed:undname.obj
 0001:0004b460       ?setIsVCallThunk@DName@@QAEXXZ 1004c460 f i libvcruntimed:undname.obj
 0001:0004b490       ?setPtrRef@DName@@QAEAAV1@XZ 1004c490 f i libvcruntimed:undname.obj
 0001:0004b4c0       ?status@DName@@QBE?AW4DNameStatus@@XZ 1004c4c0 f i libvcruntimed:undname.obj
 0001:0004b5e0       ___unDName                 1004c5e0 f   libvcruntimed:undname.obj
 0001:0004b620       ___unDNameEx               1004c620 f   libvcruntimed:undname.obj
 0001:0004b720       __vsprintf_s_l             1004c720 f i libvcruntimed:undname.obj
 0001:0004b780       _sprintf_s                 1004c780 f i libvcruntimed:undname.obj
 0001:0004b7d0       _unDNameGenerateCHPE       1004c7d0 f   libvcruntimed:undname.obj
 0001:0004b850       __local_unwind4            1004c850 f   libvcruntimed:exsup4.obj
 0001:0004b980       __seh_longjmp_unwind4@4    1004c980 f   libvcruntimed:exsup4.obj
 0001:0004b9c0       @_EH4_CallFilterFunc@8     1004c9c0 f   libvcruntimed:exsup4.obj
 0001:0004b9e0       @_EH4_TransferToHandler@8  1004c9e0 f   libvcruntimed:exsup4.obj
 0001:0004ba00       @_EH4_GlobalUnwind2@8      1004ca00 f   libvcruntimed:exsup4.obj
 0001:0004ba20       @_EH4_LocalUnwind@16       1004ca20 f   libvcruntimed:exsup4.obj
 0001:0004ba50       ___except_validate_context_record 1004ca50 f   libvcruntimed:jbcxrval.obj
 0001:0004bab0       ___except_validate_jump_buffer 1004cab0 f   libvcruntimed:jbcxrval.obj
 0001:0004bad0       ___except_validate_jump_buffer_common 1004cad0 f i libvcruntimed:jbcxrval.obj
 0001:0004bb40       ??$?RU__vcrt_ptd@@@__crt_internal_free_policy@@QBEXQBU__vcrt_ptd@@@Z 1004cb40 f i libvcruntimed:per_thread_data.obj
 0001:0004bb70       ??0?$__crt_unique_heap_ptr@U__vcrt_ptd@@U__crt_internal_free_policy@@@@QAE@QAU__vcrt_ptd@@@Z 1004cb70 f i libvcruntimed:per_thread_data.obj
 0001:0004bbb0       ??1?$__crt_unique_heap_ptr@U__vcrt_ptd@@U__crt_internal_free_policy@@@@QAE@XZ 1004cbb0 f i libvcruntimed:per_thread_data.obj
 0001:0004bbf0       ??B?$__crt_unique_heap_ptr@U__vcrt_ptd@@U__crt_internal_free_policy@@@@QBE_NXZ 1004cbf0 f i libvcruntimed:per_thread_data.obj
 0001:0004bc10       ?detach@?$__crt_unique_heap_ptr@U__vcrt_ptd@@U__crt_internal_free_policy@@@@QAEPAU__vcrt_ptd@@XZ 1004cc10 f i libvcruntimed:per_thread_data.obj
 0001:0004bc40       ?get@?$__crt_unique_heap_ptr@U__vcrt_ptd@@U__crt_internal_free_policy@@@@QBEPAU__vcrt_ptd@@XZ 1004cc40 f i libvcruntimed:per_thread_data.obj
 0001:0004bc60       ?is_valid@?$__crt_unique_heap_ptr@U__vcrt_ptd@@U__crt_internal_free_policy@@@@QBE_NXZ 1004cc60 f i libvcruntimed:per_thread_data.obj
 0001:0004bca0       ?release@?$__crt_unique_heap_ptr@U__vcrt_ptd@@U__crt_internal_free_policy@@@@QAEXXZ 1004cca0 f i libvcruntimed:per_thread_data.obj
 0001:0004bd00       ___vcrt_freefls@4          1004cd00 f   libvcruntimed:per_thread_data.obj
 0001:0004bd30       ___vcrt_freeptd            1004cd30 f   libvcruntimed:per_thread_data.obj
 0001:0004bda0       ___vcrt_getptd             1004cda0 f   libvcruntimed:per_thread_data.obj
 0001:0004bdd0       ___vcrt_getptd_noexit      1004cdd0 f   libvcruntimed:per_thread_data.obj
 0001:0004bf80       ___vcrt_getptd_noinit      1004cf80 f   libvcruntimed:per_thread_data.obj
 0001:0004bff0       ___vcrt_initialize_ptd     1004cff0 f   libvcruntimed:per_thread_data.obj
 0001:0004c050       ___vcrt_uninitialize_ptd   1004d050 f   libvcruntimed:per_thread_data.obj
 0001:0004c090       ___vcrt_initialize_locks   1004d090 f   libvcruntimed:locks.obj
 0001:0004c100       ___vcrt_lock               1004d100 f   libvcruntimed:locks.obj
 0001:0004c120       ___vcrt_uninitialize_locks 1004d120 f   libvcruntimed:locks.obj
 0001:0004c180       ___vcrt_unlock             1004d180 f   libvcruntimed:locks.obj
 0001:0004c1a0       ??$?0AAViterator@TryBlockMap@__FrameHandler3@@AAV012@$0A@@?$pair@Viterator@TryBlockMap@__FrameHandler3@@V123@@std@@QAE@AAViterator@TryBlockMap@__FrameHandler3@@0@Z 1004d1a0 f i libvcruntimed:trnsctrl.obj
 0001:0004c200       ??$forward@AAViterator@TryBlockMap@__FrameHandler3@@@std@@YAAAViterator@TryBlockMap@__FrameHandler3@@AAV123@@Z 1004d200 f i libvcruntimed:trnsctrl.obj
 0001:0004c210       ??0iterator@TryBlockMap@__FrameHandler3@@QAE@AAV12@I@Z 1004d210 f i libvcruntimed:trnsctrl.obj
 0001:0004c240       ?GetRangeOfTrysToCheck@__FrameHandler3@@SA?AU?$pair@Viterator@TryBlockMap@__FrameHandler3@@V123@@std@@AAVTryBlockMap@1@HPAXPBU_s_FuncInfo@@H@Z 1004d240 f   libvcruntimed:trnsctrl.obj
 0001:0004c360       ?_CallCatchBlock2@@YAPAXPAUEHRegistrationNode@@PBU_s_FuncInfo@@PAXHK@Z 1004d360 f   libvcruntimed:trnsctrl.obj
 0001:0004c3f0       ?_CallSETranslator@@YAHPAUEHExceptionRecord@@PAUEHRegistrationNode@@PAX2PBU_s_FuncInfo@@H1@Z 1004d3f0 f   libvcruntimed:trnsctrl.obj
 0001:0004c550       ?_JumpToContinuation@@YGXPAXPAUEHRegistrationNode@@@Z 1004d550 f   libvcruntimed:trnsctrl.obj
 0001:0004c590       ?_UnwindNestedFrames@@YGXPAUEHRegistrationNode@@PAUEHExceptionRecord@@@Z 1004d590 f   libvcruntimed:trnsctrl.obj
 0001:0004c600       __CatchGuardHandler        1004d600 f   libvcruntimed:trnsctrl.obj
 0001:0004c660       __CreateFrameInfo          1004d660 f   libvcruntimed:trnsctrl.obj
 0001:0004c6a0       __FindAndUnlinkFrame       1004d6a0 f   libvcruntimed:trnsctrl.obj
 0001:0004c730       __TranslatorGuardHandler   1004d730 f   libvcruntimed:trnsctrl.obj
 0001:0004c810       ___CxxFrameHandler         1004d810 f   libvcruntimed:trnsctrl.obj
 0001:0004c860       ___CxxFrameHandler2        1004d860 f   libvcruntimed:trnsctrl.obj
 0001:0004c8b0       ___CxxFrameHandler3        1004d8b0 f   libvcruntimed:trnsctrl.obj
 0001:0004c900       ___CxxLongjmpUnwind@4      1004d900 f   libvcruntimed:trnsctrl.obj
 0001:0004c950       __global_unwind2           1004d950 f   libvcruntimed:exsup.obj
 0001:0004c9e0       __local_unwind2            1004d9e0 f   libvcruntimed:exsup.obj
 0001:0004caa0       __abnormal_termination     1004daa0 f   libvcruntimed:exsup.obj
 0001:0004cae0       __NLG_Notify1              1004dae0 f   libvcruntimed:exsup.obj
 0001:0004caf0       __NLG_Notify               1004daf0 f   libvcruntimed:exsup.obj
 0001:0004cb07       __NLG_Dispatch             1004db07     libvcruntimed:exsup.obj
 0001:0004cb07       __NLG_Dispatch2            1004db07     libvcruntimed:exsup.obj
 0001:0004cb20       __NLG_Call                 1004db20 f   libvcruntimed:exsup.obj
 0001:0004cb22       __NLG_Return2              1004db22     libvcruntimed:exsup.obj
 0001:0004cb30       ??$__crt_interlocked_exchange_pointer@UHINSTANCE__@@PAU1@@@YAPAUHINSTANCE__@@PDSAU0@QAU0@@Z 1004db30 f i libvcruntimed:winapi_downlevel.obj
 0001:0004cb40       ??$__crt_interlocked_exchange_pointer@UHINSTANCE__@@PAX@@YAPAUHINSTANCE__@@PDSAU0@QAX@Z 1004db40 f i libvcruntimed:winapi_downlevel.obj
 0001:0004cb50       ??$__crt_interlocked_exchange_pointer@XPAX@@YAPAXPDSAXQAX@Z 1004db50 f i libvcruntimed:winapi_downlevel.obj
 0001:0004cb60       ??$__crt_interlocked_read_pointer@UHINSTANCE__@@@@YAPAUHINSTANCE__@@PDSAU0@@Z 1004db60 f i libvcruntimed:winapi_downlevel.obj
 0001:0004cb80       ??$__crt_interlocked_read_pointer@X@@YAPAXPDSAX@Z 1004db80 f i libvcruntimed:winapi_downlevel.obj
 0001:0004d050       ___vcrt_FlsAlloc           1004e050 f   libvcruntimed:winapi_downlevel.obj
 0001:0004d0a0       ___vcrt_FlsFree            1004e0a0 f   libvcruntimed:winapi_downlevel.obj
 0001:0004d0f0       ___vcrt_FlsGetValue        1004e0f0 f   libvcruntimed:winapi_downlevel.obj
 0001:0004d140       ___vcrt_FlsSetValue        1004e140 f   libvcruntimed:winapi_downlevel.obj
 0001:0004d1a0       ___vcrt_InitializeCriticalSectionEx 1004e1a0 f   libvcruntimed:winapi_downlevel.obj
 0001:0004e020       ??$TypeMatchHelper@V__FrameHandler3@@@@YAHPBU_s_HandlerType@@PBU_s_CatchableType@@PBU_s_ThrowInfo@@@Z 1004f020 f i libvcruntimed:frame.obj
 0001:0004e130       ??$__InternalCxxFrameHandler@V__FrameHandler3@@@@YA?AW4_EXCEPTION_DISPOSITION@@PAUEHExceptionRecord@@PAUEHRegistrationNode@@PAU_CONTEXT@@PAXPBU_s_FuncInfo@@H1E@Z 1004f130 f i libvcruntimed:frame.obj
 0001:0004e360       ??0HandlerMap@__FrameHandler3@@QAE@PBU_s_TryBlockMapEntry@@II@Z 1004f360 f i libvcruntimed:frame.obj
 0001:0004e390       ??0TryBlockMap@__FrameHandler3@@QAE@PBU_s_FuncInfo@@I@Z 1004f390 f i libvcruntimed:frame.obj
 0001:0004e3c0       ??0bad_exception@std@@QAE@ABV01@@Z 1004f3c0 f i libvcruntimed:frame.obj
 0001:0004e3f0       ??0bad_exception@std@@QAE@XZ 1004f3f0 f i libvcruntimed:frame.obj
 0001:0004e420       ??0exception@std@@QAE@ABV01@@Z 1004f420 f i libvcruntimed:frame.obj
 0001:0004e470       ??0exception@std@@QAE@QBDH@Z 1004f470 f i libvcruntimed:frame.obj
 0001:0004e4b0       ??0iterator@HandlerMap@__FrameHandler3@@QAE@AAV12@I@Z 1004f4b0 f i libvcruntimed:frame.obj
 0001:0004e4e0       ??1bad_exception@std@@UAE@XZ 1004f4e0 f i libvcruntimed:frame.obj
 0001:0004e500       ??1exception@std@@UAE@XZ   1004f500 f i libvcruntimed:frame.obj
 0001:0004e530       ??8iterator@HandlerMap@__FrameHandler3@@QBE_NABV012@@Z 1004f530 f i libvcruntimed:frame.obj
 0001:0004e570       ??8type_info@@QBE_NABV0@@Z 1004f570 f i libvcruntimed:frame.obj
 0001:0004e5c0       ??9iterator@HandlerMap@__FrameHandler3@@QBE_NABV012@@Z 1004f5c0 f i libvcruntimed:frame.obj
 0001:0004e610       ??Diterator@HandlerMap@__FrameHandler3@@QAE?BU_s_HandlerType@@XZ 1004f610 f i libvcruntimed:frame.obj
 0001:0004e660       ??Diterator@TryBlockMap@__FrameHandler3@@QAE?BU_s_TryBlockMapEntry@@XZ 1004f660 f i libvcruntimed:frame.obj
 0001:0004e6c0       ??Eiterator@HandlerMap@__FrameHandler3@@QAEAAV012@XZ 1004f6c0 f i libvcruntimed:frame.obj
 0001:0004e6f0       ??Eiterator@TryBlockMap@__FrameHandler3@@QAEAAV012@XZ 1004f6f0 f i libvcruntimed:frame.obj
 0001:0004e720       ??Miterator@TryBlockMap@__FrameHandler3@@QBE_NABV012@@Z 1004f720 f i libvcruntimed:frame.obj
 0001:0004e760       ??_Ebad_exception@std@@UAEPAXI@Z 1004f760 f i libvcruntimed:frame.obj
 0001:0004e760       ??_Gbad_exception@std@@UAEPAXI@Z 1004f760 f i libvcruntimed:frame.obj
 0001:0004e7a0       ??_Gexception@std@@UAEPAXI@Z 1004f7a0 f i libvcruntimed:frame.obj
 0001:0004e7a0       ??_Eexception@std@@UAEPAXI@Z 1004f7a0 f i libvcruntimed:frame.obj
 0001:0004e7e0       ?BuildCatchObject@__FrameHandler3@@SAXPAUEHExceptionRecord@@PAXPBU_s_HandlerType@@PBU_s_CatchableType@@@Z 1004f7e0 f   libvcruntimed:frame.obj
 0001:0004e810       ?BuildCatchObjectHelper@__FrameHandler3@@SAHPAUEHExceptionRecord@@PAXPBU_s_HandlerType@@PBU_s_CatchableType@@@Z 1004f810 f   libvcruntimed:frame.obj
 0001:0004ec90       ?FrameUnwindToEmptyState@__FrameHandler3@@SAXPAUEHRegistrationNode@@PAXPBU_s_FuncInfo@@@Z 1004fc90 f   libvcruntimed:frame.obj
 0001:0004ecc0       ?FrameUnwindToState@__FrameHandler3@@SAXPAUEHRegistrationNode@@PAXPBU_s_FuncInfo@@H@Z 1004fcc0 f   libvcruntimed:frame.obj
 0001:0004eea0       ?GetMaxState@__FrameHandler3@@SAHPAXPBU_s_FuncInfo@@@Z 1004fea0 f i libvcruntimed:frame.obj
 0001:0004eff0       ?TypeMatch@__FrameHandler3@@SAHPBU_s_HandlerType@@PBU_s_CatchableType@@PBU_s_ThrowInfo@@@Z 1004fff0 f   libvcruntimed:frame.obj
 0001:0004f010       ?_CallMemberFunction1@@YGXQAX00@Z 10050010 f i libvcruntimed:frame.obj
 0001:0004f040       ?_CallMemberFunction2@@YGXQAX00H@Z 10050040 f i libvcruntimed:frame.obj
 0001:0004f070       ?begin@HandlerMap@__FrameHandler3@@QAE?AViterator@12@XZ 10050070 f i libvcruntimed:frame.obj
 0001:0004f0a0       ?end@HandlerMap@__FrameHandler3@@QAE?AViterator@12@XZ 100500a0 f i libvcruntimed:frame.obj
 0001:0004f0d0       ?getESTypes@__FrameHandler3@@SAPBU_s_ESTypeList@@PBU_s_FuncInfo@@@Z 100500d0 f i libvcruntimed:frame.obj
 0001:0004f0e0       ?getLastEntry@HandlerMap@__FrameHandler3@@QAEPBU_s_HandlerType@@XZ 100500e0 f i libvcruntimed:frame.obj
 0001:0004f110       ?getMagicNum@__FrameHandler3@@SAIPBU_s_FuncInfo@@@Z 10050110 f i libvcruntimed:frame.obj
 0001:0004f130       ?getNumTryBlocks@TryBlockMap@__FrameHandler3@@QAEIXZ 10050130 f i libvcruntimed:frame.obj
 0001:0004f150       ?isEHs@__FrameHandler3@@SA_NPBU_s_FuncInfo@@@Z 10050150 f i libvcruntimed:frame.obj
 0001:0004f180       ?isNoExcept@__FrameHandler3@@SA_NPBU_s_FuncInfo@@@Z 10050180 f i libvcruntimed:frame.obj
 0001:0004f1b0       ?what@exception@std@@UBEPBDXZ 100501b0 f i libvcruntimed:frame.obj
 0001:0004f1f0       ___BuildCatchObject        100501f0 f   libvcruntimed:frame.obj
 0001:0004f220       ___BuildCatchObjectHelper  10050220 f   libvcruntimed:frame.obj
 0001:0004f250       ___TypeMatch               10050250 f   libvcruntimed:frame.obj
 0001:0004f270       ___vcrt_EncodePointer      10050270 f i libvcruntimed:frame.obj
 0001:0004f290       __CallSettingFrame@12      10050290 f   libvcruntimed:lowhelpr.obj
 0001:0004f2b7       __NLG_Return               100502b7     libvcruntimed:lowhelpr.obj
 0001:0004f320       __get_unexpected           10050320 f   libvcruntimed:unexpected.obj
 0001:0004f340       _set_unexpected            10050340 f   libvcruntimed:unexpected.obj
 0001:0004f380       _unexpected                10050380 f   libvcruntimed:unexpected.obj
 0001:0004f3c0       _memmove                   100503c0 f   libvcruntimed:memmove.obj
 0001:0004faa0       ?GetCurrentState@__FrameHandler3@@SAHPAUEHRegistrationNode@@PAXPBU_s_FuncInfo@@@Z 10050aa0 f   libvcruntimed:ehstate.obj
 0001:0004fae0       ?SetState@__FrameHandler3@@SAXPAUEHRegistrationNode@@PBU_s_FuncInfo@@H@Z 10050ae0 f   libvcruntimed:ehstate.obj
 0001:0004fb00       ??$?RD@__crt_public_free_policy@@QBEXQBD@Z 10050b00 f i libvcruntimed:std_exception.obj
 0001:0004fb20       ??0?$__crt_unique_heap_ptr@DU__crt_public_free_policy@@@@QAE@QAD@Z 10050b20 f i libvcruntimed:std_exception.obj
 0001:0004fb40       ??1?$__crt_unique_heap_ptr@DU__crt_public_free_policy@@@@QAE@XZ 10050b40 f i libvcruntimed:std_exception.obj
 0001:0004fb60       ??B?$__crt_unique_heap_ptr@DU__crt_public_free_policy@@@@QBE_NXZ 10050b60 f i libvcruntimed:std_exception.obj
 0001:0004fb80       ?detach@?$__crt_unique_heap_ptr@DU__crt_public_free_policy@@@@QAEPADXZ 10050b80 f i libvcruntimed:std_exception.obj
 0001:0004fbb0       ?get@?$__crt_unique_heap_ptr@DU__crt_public_free_policy@@@@QBEPADXZ 10050bb0 f i libvcruntimed:std_exception.obj
 0001:0004fbd0       ?is_valid@?$__crt_unique_heap_ptr@DU__crt_public_free_policy@@@@QBE_NXZ 10050bd0 f i libvcruntimed:std_exception.obj
 0001:0004fc10       ?release@?$__crt_unique_heap_ptr@DU__crt_public_free_policy@@@@QAEXXZ 10050c10 f i libvcruntimed:std_exception.obj
 0001:0004fc40       ___std_exception_copy      10050c40 f   libvcruntimed:std_exception.obj
 0001:0004fd70       ___std_exception_destroy   10050d70 f   libvcruntimed:std_exception.obj
 0001:0004fdb0       __CxxThrowException@8      10050db0 f   libvcruntimed:throw.obj
 0001:0004fe90       _fabs                      10050e90 f   libucrtd:fabs.obj
 0001:0004ff50       _sqrt                      10050f50 f   libucrtd:sqrt.obj
 0001:0004ff70       __chgsign                  10050f70 f   libucrtd:ieeemisc.obj
 0001:0004ffb0       __chgsignf                 10050fb0 f   libucrtd:ieeemisc.obj
 0001:00050000       __copysign                 10051000 f   libucrtd:ieeemisc.obj
 0001:00050040       __copysignf                10051040 f   libucrtd:ieeemisc.obj
 0001:000500a0       __finite                   100510a0 f   libucrtd:ieeemisc.obj
 0001:000500d0       __fpclass                  100510d0 f   libucrtd:ieeemisc.obj
 0001:00050200       __isnan                    10051200 f   libucrtd:ieeemisc.obj
 0001:00050260       __logb                     10051260 f   libucrtd:ieeemisc.obj
 0001:000503c0       __nextafter                100513c0 f   libucrtd:ieeemisc.obj
 0001:000503f0       __scalb                    100513f0 f   libucrtd:ieeemisc.obj
 0001:00050420       ?should_round_up@__crt_strtox@@YA_N_N000@Z 10051420 f i libucrtd:fpexcept.obj
 0001:00050550       __errcode                  10051550 f   libucrtd:fpexcept.obj
 0001:000505e0       __except1                  100515e0 f   libucrtd:fpexcept.obj
 0001:00050720       __except2                  10051720 f   libucrtd:fpexcept.obj
 0001:000508d0       __handle_exc               100518d0 f   libucrtd:fpexcept.obj
 0001:00050d40       __handle_qnan2             10051d40 f   libucrtd:fpexcept.obj
 0001:00050d60       __raise_exc                10051d60 f   libucrtd:fpexcept.obj
 0001:00050da0       __raise_exc_ex             10051da0 f   libucrtd:fpexcept.obj
 0001:00051480       __raise_excf               10052480 f   libucrtd:fpexcept.obj
 0001:000514c0       __set_errno_from_matherr   100524c0 f   libucrtd:fpexcept.obj
 0001:00051510       __umatherr                 10052510 f   libucrtd:fpexcept.obj
 0001:000515e0       __initterm                 100525e0 f   libucrtd:initterm.obj
 0001:00051640       __initterm_e               10052640 f   libucrtd:initterm.obj
 0001:000516b0       ??0_LocaleUpdate@@QAE@QAU__crt_locale_pointers@@@Z 100526b0 f i libucrtd:debug_heap.obj
 0001:000517c0       ??1_LocaleUpdate@@QAE@XZ   100527c0 f i libucrtd:debug_heap.obj
 0001:00051800       ?GetLocaleT@_LocaleUpdate@@QAEPAU__crt_locale_pointers@@XZ 10052800 f i libucrtd:debug_heap.obj
 0001:000538d0       __CrtCheckMemory           100548d0 f   libucrtd:debug_heap.obj
 0001:00053ac0       __CrtDoForAllClientObjects 10054ac0 f   libucrtd:debug_heap.obj
 0001:00053c70       __CrtDumpMemoryLeaks       10054c70 f   libucrtd:debug_heap.obj
 0001:00053d30       __CrtGetAllocHook          10054d30 f   libucrtd:debug_heap.obj
 0001:00053d40       __CrtGetDumpClient         10054d40 f   libucrtd:debug_heap.obj
 0001:00053d50       __CrtIsMemoryBlock         10054d50 f   libucrtd:debug_heap.obj
 0001:00053ef0       __CrtIsValidHeapPointer    10054ef0 f   libucrtd:debug_heap.obj
 0001:00053f40       __CrtIsValidPointer        10054f40 f   libucrtd:debug_heap.obj
 0001:00053f70       __CrtMemCheckpoint         10054f70 f   libucrtd:debug_heap.obj
 0001:00054230       __CrtMemDifference         10055230 f   libucrtd:debug_heap.obj
 0001:00054540       __CrtMemDumpAllObjectsSince 10055540 f   libucrtd:debug_heap.obj
 0001:00054600       __CrtMemDumpStatistics     10055600 f   libucrtd:debug_heap.obj
 0001:00054770       __CrtReportBlockType       10055770 f   libucrtd:debug_heap.obj
 0001:000547b0       __CrtSetAllocHook          100557b0 f   libucrtd:debug_heap.obj
 0001:000547e0       __CrtSetBreakAlloc         100557e0 f   libucrtd:debug_heap.obj
 0001:00054810       __CrtSetDbgBlockType       10055810 f   libucrtd:debug_heap.obj
 0001:00054920       __CrtSetDbgFlag            10055920 f   libucrtd:debug_heap.obj
 0001:00054af0       __CrtSetDumpClient         10055af0 f   libucrtd:debug_heap.obj
 0001:00054b20       ___acrt_disable_global_locale_sync 10055b20 f i libucrtd:debug_heap.obj
 0001:00054b50       ___acrt_enable_global_locale_sync 10055b50 f i libucrtd:debug_heap.obj
 0001:00054b80       ___acrt_get_locale_data_prefix 10055b80 f i libucrtd:debug_heap.obj
 0001:00054ba0       ___acrt_locale_changed     10055ba0 f i libucrtd:debug_heap.obj
 0001:00054bd0       ___p__crtBreakAlloc        10055bd0 f   libucrtd:debug_heap.obj
 0001:00054be0       ___p__crtDbgFlag           10055be0 f   libucrtd:debug_heap.obj
 0001:00054bf0       __aligned_free_dbg         10055bf0 f   libucrtd:debug_heap.obj
 0001:00054cd0       __aligned_malloc_dbg       10055cd0 f   libucrtd:debug_heap.obj
 0001:00054d00       __aligned_msize_dbg        10055d00 f   libucrtd:debug_heap.obj
 0001:00054e70       __aligned_offset_malloc_dbg 10055e70 f   libucrtd:debug_heap.obj
 0001:000550c0       __aligned_offset_realloc_dbg 100560c0 f   libucrtd:debug_heap.obj
 0001:00055490       __aligned_offset_recalloc_dbg 10056490 f   libucrtd:debug_heap.obj
 0001:00055580       __aligned_realloc_dbg      10056580 f   libucrtd:debug_heap.obj
 0001:000555b0       __aligned_recalloc_dbg     100565b0 f   libucrtd:debug_heap.obj
 0001:000555f0       __calloc_dbg               100565f0 f   libucrtd:debug_heap.obj
 0001:00055680       __chvalidchk_l             10056680 f i libucrtd:debug_heap.obj
 0001:000556b0       __expand_dbg               100566b0 f   libucrtd:debug_heap.obj
 0001:00055830       __free_dbg                 10056830 f   libucrtd:debug_heap.obj
 0001:00055910       __invoke_watson_if_oneof   10056910 f i libucrtd:debug_heap.obj
 0001:00055960       __ischartype_l             10056960 f i libucrtd:debug_heap.obj
 0001:00055a00       __malloc_dbg               10056a00 f   libucrtd:debug_heap.obj
 0001:00055a30       __msize_dbg                10056a30 f   libucrtd:debug_heap.obj
 0001:00055c20       __realloc_dbg              10056c20 f   libucrtd:debug_heap.obj
 0001:00055cf0       __recalloc_dbg             10056cf0 f   libucrtd:debug_heap.obj
 0001:00055e30       __seh_filter_dll           10056e30 f   libucrtd:exception_filter.obj
 0001:00055e60       __seh_filter_exe           10056e60 f   libucrtd:exception_filter.obj
 0001:00056100       ??$?B$$A6GXPAXK0@Z@__crt_fast_encoded_nullptr_t@@QBEP6GXPAXK0@ZXZ 10057100 f i libucrtd:exit.obj
 0001:00056250       ??$__crt_fast_decode_pointer@P6GXPAXK0@Z@@YAP6GXPAXK0@ZQ6GX0K0@Z@Z 10057250 f i libucrtd:exit.obj
 0001:00056290       ??$__crt_fast_encode_pointer@P6GXPAXK0@Z@@YAP6GXPAXK0@ZQ6GX0K0@Z@Z 10057290 f i libucrtd:exit.obj
 0001:000562d0       ??$__crt_get_proc_address@P6GXI@Z@@YAP6GXI@ZQAUHINSTANCE__@@QBD@Z 100572d0 f i libucrtd:exit.obj
 0001:000562f0       ??$__crt_interlocked_read@J@@YAJPDJ@Z 100572f0 f i libucrtd:exit.obj
 0001:000563b0       ??0?$__crt_unique_handle_t@U__crt_hmodule_traits@@@@QAE@QAUHINSTANCE__@@@Z 100573b0 f i libucrtd:exit.obj
 0001:000563d0       ??1?$__crt_unique_handle_t@U__crt_hmodule_traits@@@@QAE@XZ 100573d0 f i libucrtd:exit.obj
 0001:00056610       ?__acrt_select_exit_lock@@YA?AW4__acrt_lock_id@@XZ 10057610 f i libucrtd:exit.obj
 0001:00056620       ?__crt_fast_encode_pointer@@YA?AU__crt_fast_encoded_nullptr_t@@$$T@Z 10057620 f i libucrtd:exit.obj
 0001:00056630       ?__crt_rotate_pointer_value@@YAIIH@Z 10057630 f i libucrtd:exit.obj
 0001:00056670       ?close@?$__crt_unique_handle_t@U__crt_hmodule_traits@@@@QAEXXZ 10057670 f i libucrtd:exit.obj
 0001:000566b0       ?close@__crt_hmodule_traits@@SA_NPAUHINSTANCE__@@@Z 100576b0 f i libucrtd:exit.obj
 0001:00056820       ?get@?$__crt_unique_handle_t@U__crt_hmodule_traits@@@@QBEPAUHINSTANCE__@@XZ 10057820 f i libucrtd:exit.obj
 0001:00056840       ?get_address_of@?$__crt_unique_handle_t@U__crt_hmodule_traits@@@@QAEPAPAUHINSTANCE__@@XZ 10057840 f i libucrtd:exit.obj
 0001:00056860       ?get_invalid_value@__crt_hmodule_traits@@SAPAUHINSTANCE__@@XZ 10057860 f i libucrtd:exit.obj
 0001:00056a40       __Exit                     10057a40 f   libucrtd:exit.obj
 0001:00056a60       ___acrt_initialize_thread_local_exit_callback 10057a60 f   libucrtd:exit.obj
 0001:00056a80       __c_exit                   10057a80 f   libucrtd:exit.obj
 0001:00056aa0       __cexit                    10057aa0 f   libucrtd:exit.obj
 0001:00056ac0       __exit                     10057ac0 f   libucrtd:exit.obj
 0001:00056ae0       __is_c_termination_complete 10057ae0 f   libucrtd:exit.obj
 0001:00056b00       __register_thread_local_exe_atexit_callback 10057b00 f   libucrtd:exit.obj
 0001:00056b50       _exit                      10057b50 f   libucrtd:exit.obj
 0001:00056b70       _quick_exit                10057b70 f   libucrtd:exit.obj
 0001:00056b90       ??$?RE@__crt_internal_free_policy@@QBEXQBE@Z 10057b90 f i libucrtd:argv_parsing.obj
 0001:00056bc0       ??$?RPAD@__crt_internal_free_policy@@QBEXQBQAD@Z 10057bc0 f i libucrtd:argv_parsing.obj
 0001:00056bf0       ??$?RPA_W@__crt_internal_free_policy@@QBEXQBQA_W@Z 10057bf0 f i libucrtd:argv_parsing.obj
 0001:00057340       ??$get_module_file_name@$$TAAY0BAF@DH@?$__crt_char_traits@D@@SAK$$QA$$TAAY0BAF@D$$QAH@Z 10058340 f i libucrtd:argv_parsing.obj
 0001:00057370       ??$get_module_file_name@$$TAAY0BAF@_WH@?$__crt_char_traits@_W@@SAK$$QA$$TAAY0BAF@_W$$QAH@Z 10058370 f i libucrtd:argv_parsing.obj
 0001:00057c80       ??$set_program_name@PAD@?$__crt_char_traits@D@@SAX$$QAPAD@Z 10058c80 f i libucrtd:argv_parsing.obj
 0001:00057ca0       ??$set_program_name@PA_W@?$__crt_char_traits@_W@@SAX$$QAPA_W@Z 10058ca0 f i libucrtd:argv_parsing.obj
 0001:00057d00       ??0?$__crt_unique_heap_ptr@EU__crt_internal_free_policy@@@@QAE@QAE@Z 10058d00 f i libucrtd:argv_parsing.obj
 0001:00057d20       ??0?$__crt_unique_heap_ptr@PADU__crt_internal_free_policy@@@@QAE@QAPAD@Z 10058d20 f i libucrtd:argv_parsing.obj
 0001:00057d40       ??0?$__crt_unique_heap_ptr@PA_WU__crt_internal_free_policy@@@@QAE@QAPA_W@Z 10058d40 f i libucrtd:argv_parsing.obj
 0001:00057d60       ??1?$__crt_unique_heap_ptr@EU__crt_internal_free_policy@@@@QAE@XZ 10058d60 f i libucrtd:argv_parsing.obj
 0001:00057d80       ??1?$__crt_unique_heap_ptr@PADU__crt_internal_free_policy@@@@QAE@XZ 10058d80 f i libucrtd:argv_parsing.obj
 0001:00057da0       ??1?$__crt_unique_heap_ptr@PA_WU__crt_internal_free_policy@@@@QAE@XZ 10058da0 f i libucrtd:argv_parsing.obj
 0001:00057dc0       ??B?$__crt_unique_heap_ptr@EU__crt_internal_free_policy@@@@QBE_NXZ 10058dc0 f i libucrtd:argv_parsing.obj
 0001:00057ea0       ?detach@?$__crt_unique_heap_ptr@EU__crt_internal_free_policy@@@@QAEPAEXZ 10058ea0 f i libucrtd:argv_parsing.obj
 0001:00057ed0       ?detach@?$__crt_unique_heap_ptr@PADU__crt_internal_free_policy@@@@QAEPAPADXZ 10058ed0 f i libucrtd:argv_parsing.obj
 0001:00057f00       ?detach@?$__crt_unique_heap_ptr@PA_WU__crt_internal_free_policy@@@@QAEPAPA_WXZ 10058f00 f i libucrtd:argv_parsing.obj
 0001:00057f90       ?get@?$__crt_unique_heap_ptr@EU__crt_internal_free_policy@@@@QBEPAEXZ 10058f90 f i libucrtd:argv_parsing.obj
 0001:00057fb0       ?get@?$__crt_unique_heap_ptr@PADU__crt_internal_free_policy@@@@QBEPAPADXZ 10058fb0 f i libucrtd:argv_parsing.obj
 0001:00057fd0       ?get@?$__crt_unique_heap_ptr@PA_WU__crt_internal_free_policy@@@@QBEPAPA_WXZ 10058fd0 f i libucrtd:argv_parsing.obj
 0001:00057ff0       ?get_address_of@?$__crt_unique_heap_ptr@PADU__crt_internal_free_policy@@@@QAEPAPAPADXZ 10058ff0 f i libucrtd:argv_parsing.obj
 0001:00058010       ?get_address_of@?$__crt_unique_heap_ptr@PA_WU__crt_internal_free_policy@@@@QAEPAPAPA_WXZ 10059010 f i libucrtd:argv_parsing.obj
 0001:00058070       ?is_valid@?$__crt_unique_heap_ptr@EU__crt_internal_free_policy@@@@QBE_NXZ 10059070 f i libucrtd:argv_parsing.obj
 0001:000580b0       ?release@?$__crt_unique_heap_ptr@EU__crt_internal_free_policy@@@@QAEXXZ 100590b0 f i libucrtd:argv_parsing.obj
 0001:000580e0       ?release@?$__crt_unique_heap_ptr@PADU__crt_internal_free_policy@@@@QAEXXZ 100590e0 f i libucrtd:argv_parsing.obj
 0001:00058110       ?release@?$__crt_unique_heap_ptr@PA_WU__crt_internal_free_policy@@@@QAEXXZ 10059110 f i libucrtd:argv_parsing.obj
 0001:00058190       ___acrt_allocate_buffer_for_argv 10059190 f   libucrtd:argv_parsing.obj
 0001:00058280       __configure_narrow_argv    10059280 f   libucrtd:argv_parsing.obj
 0001:000582a0       __configure_wide_argv      100592a0 f   libucrtd:argv_parsing.obj
 0001:000582c0       __set_pgmptr               100592c0 f i libucrtd:argv_parsing.obj
 0001:000582e0       __set_wpgmptr              100592e0 f i libucrtd:argv_parsing.obj
 0001:00058300       ??$?R_W@__crt_internal_free_policy@@QBEXQB_W@Z 10059300 f i libucrtd:environment_initialization.obj
 0001:00058cd0       ??$get_environment_from_os@$$V@?$__crt_char_traits@D@@SAPADXZ 10059cd0 f i libucrtd:environment_initialization.obj
 0001:00058ce0       ??$get_environment_from_os@$$V@?$__crt_char_traits@_W@@SAPA_WXZ 10059ce0 f i libucrtd:environment_initialization.obj
 0001:00059050       ??$set_variable_in_environment_nolock@PADH@?$__crt_char_traits@D@@SAH$$QAPAD$$QAH@Z 1005a050 f i libucrtd:environment_initialization.obj
 0001:00059080       ??$set_variable_in_environment_nolock@PA_WH@?$__crt_char_traits@_W@@SAH$$QAPA_W$$QAH@Z 1005a080 f i libucrtd:environment_initialization.obj
 0001:000590b0       ??$tcscpy_s@PADABIAAPAD@?$__crt_char_traits@D@@SAH$$QAPADABIAAPAD@Z 1005a0b0 f i libucrtd:environment_initialization.obj
 0001:000590e0       ??$tcscpy_s@PA_WABIAAPA_W@?$__crt_char_traits@_W@@SAH$$QAPA_WABIAAPA_W@Z 1005a0e0 f i libucrtd:environment_initialization.obj
 0001:00059110       ??$tcslen@AAPAD@?$__crt_char_traits@D@@SAIAAPAD@Z 1005a110 f i libucrtd:environment_initialization.obj
 0001:00059130       ??$tcslen@AAPA_W@?$__crt_char_traits@_W@@SAIAAPA_W@Z 1005a130 f i libucrtd:environment_initialization.obj
 0001:00059150       ??$uninitialize@A6AXAAPAPAD@_E@?$dual_state_global@PAPAD@__crt_state_management@@QAEXA6AXAAPAPAD@_E@Z 1005a150 f i libucrtd:environment_initialization.obj
 0001:000591f0       ??$uninitialize@A6AXAAPAPA_W@_E@?$dual_state_global@PAPA_W@__crt_state_management@@QAEXA6AXAAPAPA_W@_E@Z 1005a1f0 f i libucrtd:environment_initialization.obj
 0001:00059310       ??0?$__crt_unique_heap_ptr@_WU__crt_internal_free_policy@@@@QAE@QA_W@Z 1005a310 f i libucrtd:environment_initialization.obj
 0001:00059330       ??1?$__crt_unique_heap_ptr@_WU__crt_internal_free_policy@@@@QAE@XZ 1005a330 f i libucrtd:environment_initialization.obj
 0001:00059350       ??B?$__crt_unique_heap_ptr@PADU__crt_internal_free_policy@@@@QBE_NXZ 1005a350 f i libucrtd:environment_initialization.obj
 0001:00059370       ??B?$__crt_unique_heap_ptr@PA_WU__crt_internal_free_policy@@@@QBE_NXZ 1005a370 f i libucrtd:environment_initialization.obj
 0001:00059390       ??B?$__crt_unique_heap_ptr@_WU__crt_internal_free_policy@@@@QBE_NXZ 1005a390 f i libucrtd:environment_initialization.obj
 0001:000593b0       ?__crt_compute_required_transform_buffer_count@@YAIIQBD@Z 1005a3b0 f i libucrtd:environment_initialization.obj
 0001:000593e0       ?__crt_compute_required_transform_buffer_count@@YAIIQB_W@Z 1005a3e0 f i libucrtd:environment_initialization.obj
 0001:00059410       ?__crt_transform_string@@YAIIQBDQA_WI@Z 1005a410 f i libucrtd:environment_initialization.obj
 0001:00059450       ?__crt_transform_string@@YAIIQB_WQADI@Z 1005a450 f i libucrtd:environment_initialization.obj
 0001:00059490       ?detach@?$__crt_unique_heap_ptr@DU__crt_internal_free_policy@@@@QAEPADXZ 1005a490 f i libucrtd:environment_initialization.obj
 0001:000594c0       ?detach@?$__crt_unique_heap_ptr@_WU__crt_internal_free_policy@@@@QAEPA_WXZ 1005a4c0 f i libucrtd:environment_initialization.obj
 0001:000594f0       ?get@?$__crt_unique_heap_ptr@_WU__crt_internal_free_policy@@@@QBEPA_WXZ 1005a4f0 f i libucrtd:environment_initialization.obj
 0001:00059510       ?get_current_state_index@__crt_state_management@@YAIXZ 1005a510 f i libucrtd:environment_initialization.obj
 0001:000595a0       ?initialize@?$dual_state_global@PAPAD@__crt_state_management@@QAEXQAPAD@Z 1005a5a0 f i libucrtd:environment_initialization.obj
 0001:000595f0       ?initialize@?$dual_state_global@PAPA_W@__crt_state_management@@QAEXQAPA_W@Z 1005a5f0 f i libucrtd:environment_initialization.obj
 0001:00059640       ?is_valid@?$__crt_unique_heap_ptr@PADU__crt_internal_free_policy@@@@QBE_NXZ 1005a640 f i libucrtd:environment_initialization.obj
 0001:00059680       ?is_valid@?$__crt_unique_heap_ptr@PA_WU__crt_internal_free_policy@@@@QBE_NXZ 1005a680 f i libucrtd:environment_initialization.obj
 0001:000596c0       ?is_valid@?$__crt_unique_heap_ptr@_WU__crt_internal_free_policy@@@@QBE_NXZ 1005a6c0 f i libucrtd:environment_initialization.obj
 0001:00059720       ?release@?$__crt_unique_heap_ptr@_WU__crt_internal_free_policy@@@@QAEXXZ 1005a720 f i libucrtd:environment_initialization.obj
 0001:00059750       ?value@?$dual_state_global@PAPAD@__crt_state_management@@QAEAAPAPADXZ 1005a750 f i libucrtd:environment_initialization.obj
 0001:00059770       ?value@?$dual_state_global@PAPA_W@__crt_state_management@@QAEAAPAPA_WXZ 1005a770 f i libucrtd:environment_initialization.obj
 0001:00059790       ___dcrt_get_or_create_narrow_environment_nolock 1005a790 f   libucrtd:environment_initialization.obj
 0001:000597a0       ___dcrt_get_or_create_wide_environment_nolock 1005a7a0 f   libucrtd:environment_initialization.obj
 0001:000597b0       ___dcrt_uninitialize_environments_nolock 1005a7b0 f   libucrtd:environment_initialization.obj
 0001:00059810       ___p__environ              1005a810 f   libucrtd:environment_initialization.obj
 0001:00059830       ___p__wenviron             1005a830 f   libucrtd:environment_initialization.obj
 0001:00059850       __get_initial_narrow_environment 1005a850 f   libucrtd:environment_initialization.obj
 0001:00059860       __get_initial_wide_environment 1005a860 f   libucrtd:environment_initialization.obj
 0001:00059870       __initialize_narrow_environment 1005a870 f   libucrtd:environment_initialization.obj
 0001:00059880       __initialize_wide_environment 1005a880 f   libucrtd:environment_initialization.obj
 0001:00059890       __invoke_watson_if_error   1005a890 f i libucrtd:environment_initialization.obj
 0001:000598d0       ??$?B$$A6AXXZ@__crt_fast_encoded_nullptr_t@@QBEP6AXXZXZ 1005a8d0 f i libucrtd:onexit.obj
 0001:000598f0       ??$?BP6AXXZ@__crt_fast_encoded_nullptr_t@@QBEPAP6AXXZXZ 1005a8f0 f i libucrtd:onexit.obj
 0001:00059910       ??$?RP6AXXZ@__crt_internal_free_policy@@QBEXQBQ6AXXZ@Z 1005a910 f i libucrtd:onexit.obj
 0001:00059bc0       ??$__crt_fast_decode_pointer@P6AXXZ@@YAP6AXXZQ6AXXZ@Z 1005abc0 f i libucrtd:onexit.obj
 0001:00059c00       ??$__crt_fast_decode_pointer@PAP6AXXZ@@YAPAP6AXXZQAP6AXXZ@Z 1005ac00 f i libucrtd:onexit.obj
 0001:00059c40       ??$__crt_fast_encode_pointer@P6AHXZ@@YAP6AHXZQ6AHXZ@Z 1005ac40 f i libucrtd:onexit.obj
 0001:00059c80       ??$__crt_fast_encode_pointer@P6AXXZ@@YAP6AXXZQ6AXXZ@Z 1005ac80 f i libucrtd:onexit.obj
 0001:00059cc0       ??$__crt_fast_encode_pointer@PAP6AXXZ@@YAPAP6AXXZQAP6AXXZ@Z 1005acc0 f i libucrtd:onexit.obj
 0001:00059e10       ??0?$__crt_unique_heap_ptr@P6AXXZU__crt_internal_free_policy@@@@QAE@QAP6AXXZ@Z 1005ae10 f i libucrtd:onexit.obj
 0001:00059e30       ??1?$__crt_unique_heap_ptr@P6AXXZU__crt_internal_free_policy@@@@QAE@XZ 1005ae30 f i libucrtd:onexit.obj
 0001:00059e50       ??1scoped_global_state_reset@__crt_state_management@@QAE@XZ 1005ae50 f i libucrtd:onexit.obj
 0001:0005a400       ?detach@?$__crt_unique_heap_ptr@P6AXXZU__crt_internal_free_policy@@@@QAEPAP6AXXZXZ 1005b400 f i libucrtd:onexit.obj
 0001:0005a430       ?release@?$__crt_unique_heap_ptr@P6AXXZU__crt_internal_free_policy@@@@QAEXXZ 1005b430 f i libucrtd:onexit.obj
 0001:0005a460       __crt_at_quick_exit        1005b460 f   libucrtd:onexit.obj
 0001:0005a480       __crt_atexit               1005b480 f   libucrtd:onexit.obj
 0001:0005a4a0       __execute_onexit_table     1005b4a0 f   libucrtd:onexit.obj
 0001:0005a4e0       __initialize_onexit_table  1005b4e0 f   libucrtd:onexit.obj
 0001:0005a560       __register_onexit_function 1005b560 f   libucrtd:onexit.obj
 0001:0005a7f0       ??$?BX@__crt_fast_encoded_nullptr_t@@QBEPAXXZ 1005b7f0 f i libucrtd:initialization.obj
 0001:0005a810       ??$__crt_fast_encode_pointer@PAX@@YAPAXQAX@Z 1005b810 f i libucrtd:initialization.obj
 0001:0005a940       ?initialize@?$dual_state_global@PAU__crt_locale_data@@@__crt_state_management@@QAEXQAU__crt_locale_data@@@Z 1005b940 f i libucrtd:initialization.obj
 0001:0005a990       ___acrt_initialize         1005b990 f   libucrtd:initialization.obj
 0001:0005a9b0       ___acrt_thread_attach      1005b9b0 f   libucrtd:initialization.obj
 0001:0005a9d0       ___acrt_thread_detach      1005b9d0 f   libucrtd:initialization.obj
 0001:0005a9f0       ___acrt_uninitialize       1005b9f0 f   libucrtd:initialization.obj
 0001:0005aa10       ___acrt_uninitialize_critical 1005ba10 f   libucrtd:initialization.obj
 0001:0005aa70       __get_terminate            1005ba70 f   libucrtd:terminate.obj
 0001:0005aa90       _set_terminate             1005ba90 f   libucrtd:terminate.obj
 0001:0005aad0       _terminate                 1005bad0 f   libucrtd:terminate.obj
 0001:0005ab90       __set_abort_behavior       1005bb90 f   libucrtd:abort.obj
 0001:0005abd0       _abort                     1005bbd0 f   libucrtd:abort.obj
 0001:0005b030       _strcpy_s                  1005c030 f   libucrtd:strcpy_s.obj
 0001:0005b060       _strcmp                    1005c060 f   libucrtd:strcmp.obj
 0001:0005b110       _strlen                    1005c110 f   libucrtd:strlen.obj
 0001:0005b1c0       ??$__crt_fast_decode_pointer@P6AXPB_W00II@Z@@YAP6AXPB_W00II@ZQ6AX000II@Z@Z 1005c1c0 f i libucrtd:invalid_parameter.obj
 0001:0005b200       ??$__crt_fast_encode_pointer@P6AXPB_W00II@Z@@YAP6AXPB_W00II@ZQ6AX000II@Z@Z 1005c200 f i libucrtd:invalid_parameter.obj
 0001:0005b240       ??$initialize_from_array@$$BY00Q6AXPB_W00II@Z@?$dual_state_global@P6AXPB_W00II@Z@__crt_state_management@@QAAXAAY00Q6AXPB_W00II@Z@Z 1005c240 f i libucrtd:invalid_parameter.obj
 0001:0005b2a0       ??0?$cached@H@__crt_cached_ptd_host@@QAE@XZ 1005c2a0 f i libucrtd:invalid_parameter.obj
 0001:0005b2c0       ??0?$cached@K@__crt_cached_ptd_host@@QAE@XZ 1005c2c0 f i libucrtd:invalid_parameter.obj
 0001:0005b2e0       ??0__crt_cached_ptd_host@@QAE@QAU__crt_locale_pointers@@@Z 1005c2e0 f i libucrtd:invalid_parameter.obj
 0001:0005b390       ??0__crt_scoped_get_last_error_reset@@QAE@XZ 1005c390 f i libucrtd:invalid_parameter.obj
 0001:0005b3c0       ??1__crt_cached_ptd_host@@QAE@XZ 1005c3c0 f i libucrtd:invalid_parameter.obj
 0001:0005b470       ??1__crt_scoped_get_last_error_reset@@QAE@XZ 1005c470 f i libucrtd:invalid_parameter.obj
 0001:0005b490       ?check_synchronize_global_state_index@__crt_cached_ptd_host@@AAEIABV__crt_scoped_get_last_error_reset@@@Z 1005c490 f i libucrtd:invalid_parameter.obj
 0001:0005b4d0       ?check_synchronize_global_state_index@__crt_cached_ptd_host@@AAEIXZ 1005c4d0 f i libucrtd:invalid_parameter.obj
 0001:0005b530       ?check_synchronize_per_thread_data@__crt_cached_ptd_host@@AAEPAU__acrt_ptd@@XZ 1005c530 f i libucrtd:invalid_parameter.obj
 0001:0005b570       ?dangerous_get_state_array@?$dual_state_global@P6AXPB_W00II@Z@__crt_state_management@@QAEPAP6AXPB_W00II@ZXZ 1005c570 f i libucrtd:invalid_parameter.obj
 0001:0005b590       ?force_synchronize_global_state_index@__crt_cached_ptd_host@@AAEIABV__crt_scoped_get_last_error_reset@@@Z 1005c590 f i libucrtd:invalid_parameter.obj
 0001:0005b5d0       ?force_synchronize_per_thread_data@__crt_cached_ptd_host@@AAEPAU__acrt_ptd@@XZ 1005c5d0 f i libucrtd:invalid_parameter.obj
 0001:0005b630       ?get_current_global_state_index@__crt_cached_ptd_host@@QAEIXZ 1005c630 f i libucrtd:invalid_parameter.obj
 0001:0005b650       ?get_current_state_index@__crt_state_management@@YAIABV__crt_scoped_get_last_error_reset@@@Z 1005c650 f i libucrtd:invalid_parameter.obj
 0001:0005b660       ?get_raw_ptd@__crt_cached_ptd_host@@QAEPAU__acrt_ptd@@XZ 1005c660 f i libucrtd:invalid_parameter.obj
 0001:0005b680       ?get_raw_ptd_noexit@__crt_cached_ptd_host@@QAEPAU__acrt_ptd@@XZ 1005c680 f i libucrtd:invalid_parameter.obj
 0001:0005b6a0       ?try_synchronize_per_thread_data@__crt_cached_ptd_host@@AAEPAU__acrt_ptd@@XZ 1005c6a0 f i libucrtd:invalid_parameter.obj
 0001:0005b6d0       ?unsafe_value@?$cached@H@__crt_cached_ptd_host@@QAEHXZ 1005c6d0 f i libucrtd:invalid_parameter.obj
 0001:0005b6f0       ?unsafe_value@?$cached@K@__crt_cached_ptd_host@@QAEKXZ 1005c6f0 f i libucrtd:invalid_parameter.obj
 0001:0005b710       ?valid@?$cached@H@__crt_cached_ptd_host@@QBE_NXZ 1005c710 f i libucrtd:invalid_parameter.obj
 0001:0005b730       ?valid@?$cached@K@__crt_cached_ptd_host@@QBE_NXZ 1005c730 f i libucrtd:invalid_parameter.obj
 0001:0005b750       ?value@?$dual_state_global@P6AXPB_W00II@Z@__crt_state_management@@QAEAAP6AXPB_W00II@ZAAV__crt_cached_ptd_host@@@Z 1005c750 f i libucrtd:invalid_parameter.obj
 0001:0005b780       ?value@?$dual_state_global@P6AXPB_W00II@Z@__crt_state_management@@QAEAAP6AXPB_W00II@ZXZ 1005c780 f i libucrtd:invalid_parameter.obj
 0001:0005b7a0       ___acrt_call_reportfault   1005c7a0 f   libucrtd:invalid_parameter.obj
 0001:0005b950       ___acrt_initialize_invalid_parameter_handler 1005c950 f   libucrtd:invalid_parameter.obj
 0001:0005b980       __get_invalid_parameter_handler 1005c980 f   libucrtd:invalid_parameter.obj
 0001:0005b9b0       __get_thread_local_invalid_parameter_handler 1005c9b0 f   libucrtd:invalid_parameter.obj
 0001:0005b9e0       __invalid_parameter        1005c9e0 f   libucrtd:invalid_parameter.obj
 0001:0005ba30       __invalid_parameter_internal 1005ca30 f   libucrtd:invalid_parameter.obj
 0001:0005bb30       __invalid_parameter_noinfo 1005cb30 f   libucrtd:invalid_parameter.obj
 0001:0005bb50       __invalid_parameter_noinfo_noreturn 1005cb50 f   libucrtd:invalid_parameter.obj
 0001:0005bb90       __invoke_watson            1005cb90 f   libucrtd:invalid_parameter.obj
 0001:0005bbe0       __set_invalid_parameter_handler 1005cbe0 f   libucrtd:invalid_parameter.obj
 0001:0005bc40       __set_thread_local_invalid_parameter_handler 1005cc40 f   libucrtd:invalid_parameter.obj
 0001:0005bc80       ??$?0ABV?$stream_output_adapter@D@__crt_stdio_output@@AB_KABQBDAAV__crt_cached_ptd_host@@ABQAD@?$format_validation_base@DV?$stream_output_adapter@D@__crt_stdio_output@@@__crt_stdio_output@@IAE@ABV?$stream_output_adapter@D@1@AB_KABQBDAAV__crt_cached_ptd_host@@ABQAD@Z 1005cc80 f i libucrtd:output.obj
 0001:0005bcc0       ??$?0ABV?$stream_output_adapter@D@__crt_stdio_output@@AB_KABQBDAAV__crt_cached_ptd_host@@ABQAD@?$positional_parameter_base@DV?$stream_output_adapter@D@__crt_stdio_output@@@__crt_stdio_output@@IAE@ABV?$stream_output_adapter@D@1@AB_KABQBDAAV__crt_cached_ptd_host@@ABQAD@Z 1005ccc0 f i libucrtd:output.obj
 0001:0005bd50       ??$?0ABV?$stream_output_adapter@D@__crt_stdio_output@@AB_KABQBDAAV__crt_cached_ptd_host@@ABQAD@?$standard_base@DV?$stream_output_adapter@D@__crt_stdio_output@@@__crt_stdio_output@@IAE@ABV?$stream_output_adapter@D@1@AB_KABQBDAAV__crt_cached_ptd_host@@ABQAD@Z 1005cd50 f i libucrtd:output.obj
 0001:0005bdb0       ??$?0ABV?$stream_output_adapter@_W@__crt_stdio_output@@AB_KABQB_WAAV__crt_cached_ptd_host@@ABQAD@?$format_validation_base@_WV?$stream_output_adapter@_W@__crt_stdio_output@@@__crt_stdio_output@@IAE@ABV?$stream_output_adapter@_W@1@AB_KABQB_WAAV__crt_cached_ptd_host@@ABQAD@Z 1005cdb0 f i libucrtd:output.obj
 0001:0005bdf0       ??$?0ABV?$stream_output_adapter@_W@__crt_stdio_output@@AB_KABQB_WAAV__crt_cached_ptd_host@@ABQAD@?$positional_parameter_base@_WV?$stream_output_adapter@_W@__crt_stdio_output@@@__crt_stdio_output@@IAE@ABV?$stream_output_adapter@_W@1@AB_KABQB_WAAV__crt_cached_ptd_host@@ABQAD@Z 1005cdf0 f i libucrtd:output.obj
 0001:0005be80       ??$?0ABV?$stream_output_adapter@_W@__crt_stdio_output@@AB_KABQB_WAAV__crt_cached_ptd_host@@ABQAD@?$standard_base@_WV?$stream_output_adapter@_W@__crt_stdio_output@@@__crt_stdio_output@@IAE@ABV?$stream_output_adapter@_W@1@AB_KABQB_WAAV__crt_cached_ptd_host@@ABQAD@Z 1005ce80 f i libucrtd:output.obj
 0001:0005bee0       ??$?0ABV?$string_output_adapter@D@__crt_stdio_output@@AB_KABQBDAAV__crt_cached_ptd_host@@ABQAD@?$format_validation_base@DV?$string_output_adapter@D@__crt_stdio_output@@@__crt_stdio_output@@IAE@ABV?$string_output_adapter@D@1@AB_KABQBDAAV__crt_cached_ptd_host@@ABQAD@Z 1005cee0 f i libucrtd:output.obj
 0001:0005bf20       ??$?0ABV?$string_output_adapter@D@__crt_stdio_output@@AB_KABQBDAAV__crt_cached_ptd_host@@ABQAD@?$positional_parameter_base@DV?$string_output_adapter@D@__crt_stdio_output@@@__crt_stdio_output@@IAE@ABV?$string_output_adapter@D@1@AB_KABQBDAAV__crt_cached_ptd_host@@ABQAD@Z 1005cf20 f i libucrtd:output.obj
 0001:0005bfb0       ??$?0ABV?$string_output_adapter@D@__crt_stdio_output@@AB_KABQBDAAV__crt_cached_ptd_host@@ABQAD@?$standard_base@DV?$string_output_adapter@D@__crt_stdio_output@@@__crt_stdio_output@@IAE@ABV?$string_output_adapter@D@1@AB_KABQBDAAV__crt_cached_ptd_host@@ABQAD@Z 1005cfb0 f i libucrtd:output.obj
 0001:0005c010       ??$?0ABV?$string_output_adapter@_W@__crt_stdio_output@@AB_KABQB_WAAV__crt_cached_ptd_host@@ABQAD@?$format_validation_base@_WV?$string_output_adapter@_W@__crt_stdio_output@@@__crt_stdio_output@@IAE@ABV?$string_output_adapter@_W@1@AB_KABQB_WAAV__crt_cached_ptd_host@@ABQAD@Z 1005d010 f i libucrtd:output.obj
 0001:0005c050       ??$?0ABV?$string_output_adapter@_W@__crt_stdio_output@@AB_KABQB_WAAV__crt_cached_ptd_host@@ABQAD@?$positional_parameter_base@_WV?$string_output_adapter@_W@__crt_stdio_output@@@__crt_stdio_output@@IAE@ABV?$string_output_adapter@_W@1@AB_KABQB_WAAV__crt_cached_ptd_host@@ABQAD@Z 1005d050 f i libucrtd:output.obj
 0001:0005c0e0       ??$?0ABV?$string_output_adapter@_W@__crt_stdio_output@@AB_KABQB_WAAV__crt_cached_ptd_host@@ABQAD@?$standard_base@_WV?$string_output_adapter@_W@__crt_stdio_output@@@__crt_stdio_output@@IAE@ABV?$string_output_adapter@_W@1@AB_KABQB_WAAV__crt_cached_ptd_host@@ABQAD@Z 1005d0e0 f i libucrtd:output.obj
 0001:0005c8c0       ??$_tcstol_internal@DPAPAD$0A@@@YAJAAV__crt_cached_ptd_host@@QBDQAPADH@Z 1005d8c0 f i libucrtd:output.obj
 0001:0005c910       ??$_tcstol_internal@_WPAPA_W$0A@@@YAJAAV__crt_cached_ptd_host@@QB_WQAPA_WH@Z 1005d910 f i libucrtd:output.obj
 0001:000604b0       ??$count@D@formatting_buffer@__crt_stdio_output@@QBEIXZ 100614b0 f i libucrtd:output.obj
 0001:00060500       ??$count@_W@formatting_buffer@__crt_stdio_output@@QBEIXZ 10061500 f i libucrtd:output.obj
 0001:00060550       ??$data@D@formatting_buffer@__crt_stdio_output@@QAEPADXZ 10061550 f i libucrtd:output.obj
 0001:000605a0       ??$data@_W@formatting_buffer@__crt_stdio_output@@QAEPA_WXZ 100615a0 f i libucrtd:output.obj
 0001:000605f0       ??$ensure_buffer_is_big_enough@D@formatting_buffer@__crt_stdio_output@@QAE_NIAAV__crt_cached_ptd_host@@@Z 100615f0 f i libucrtd:output.obj
 0001:00060720       ??$ensure_buffer_is_big_enough@_W@formatting_buffer@__crt_stdio_output@@QAE_NIAAV__crt_cached_ptd_host@@@Z 10061720 f i libucrtd:output.obj
 0001:00060850       ??$extract_argument_from_va_list@C_J@?$positional_parameter_base@DV?$stream_output_adapter@D@__crt_stdio_output@@@__crt_stdio_output@@IAE_NAA_J@Z 10061850 f i libucrtd:output.obj
 0001:00060a10       ??$extract_argument_from_va_list@C_J@?$positional_parameter_base@DV?$string_output_adapter@D@__crt_stdio_output@@@__crt_stdio_output@@IAE_NAA_J@Z 10061a10 f i libucrtd:output.obj
 0001:00060bd0       ??$extract_argument_from_va_list@C_J@?$positional_parameter_base@_WV?$stream_output_adapter@_W@__crt_stdio_output@@@__crt_stdio_output@@IAE_NAA_J@Z 10061bd0 f i libucrtd:output.obj
 0001:00060d90       ??$extract_argument_from_va_list@C_J@?$positional_parameter_base@_WV?$string_output_adapter@_W@__crt_stdio_output@@@__crt_stdio_output@@IAE_NAA_J@Z 10061d90 f i libucrtd:output.obj
 0001:00060f50       ??$extract_argument_from_va_list@C_J@?$standard_base@DV?$stream_output_adapter@D@__crt_stdio_output@@@__crt_stdio_output@@IAE_NAA_J@Z 10061f50 f i libucrtd:output.obj
 0001:00060f90       ??$extract_argument_from_va_list@C_J@?$standard_base@DV?$string_output_adapter@D@__crt_stdio_output@@@__crt_stdio_output@@IAE_NAA_J@Z 10061f90 f i libucrtd:output.obj
 0001:00060fd0       ??$extract_argument_from_va_list@C_J@?$standard_base@_WV?$stream_output_adapter@_W@__crt_stdio_output@@@__crt_stdio_output@@IAE_NAA_J@Z 10061fd0 f i libucrtd:output.obj
 0001:00061010       ??$extract_argument_from_va_list@C_J@?$standard_base@_WV?$string_output_adapter@_W@__crt_stdio_output@@@__crt_stdio_output@@IAE_NAA_J@Z 10062010 f i libucrtd:output.obj
 0001:00061050       ??$extract_argument_from_va_list@E_J@?$positional_parameter_base@DV?$stream_output_adapter@D@__crt_stdio_output@@@__crt_stdio_output@@IAE_NAA_J@Z 10062050 f i libucrtd:output.obj
 0001:00061210       ??$extract_argument_from_va_list@E_J@?$positional_parameter_base@DV?$string_output_adapter@D@__crt_stdio_output@@@__crt_stdio_output@@IAE_NAA_J@Z 10062210 f i libucrtd:output.obj
 0001:000613d0       ??$extract_argument_from_va_list@E_J@?$positional_parameter_base@_WV?$stream_output_adapter@_W@__crt_stdio_output@@@__crt_stdio_output@@IAE_NAA_J@Z 100623d0 f i libucrtd:output.obj
 0001:00061590       ??$extract_argument_from_va_list@E_J@?$positional_parameter_base@_WV?$string_output_adapter@_W@__crt_stdio_output@@@__crt_stdio_output@@IAE_NAA_J@Z 10062590 f i libucrtd:output.obj
 0001:00061750       ??$extract_argument_from_va_list@E_J@?$standard_base@DV?$stream_output_adapter@D@__crt_stdio_output@@@__crt_stdio_output@@IAE_NAA_J@Z 10062750 f i libucrtd:output.obj
 0001:00061790       ??$extract_argument_from_va_list@E_J@?$standard_base@DV?$string_output_adapter@D@__crt_stdio_output@@@__crt_stdio_output@@IAE_NAA_J@Z 10062790 f i libucrtd:output.obj
 0001:000617d0       ??$extract_argument_from_va_list@E_J@?$standard_base@_WV?$stream_output_adapter@_W@__crt_stdio_output@@@__crt_stdio_output@@IAE_NAA_J@Z 100627d0 f i libucrtd:output.obj
 0001:00061810       ??$extract_argument_from_va_list@E_J@?$standard_base@_WV?$string_output_adapter@_W@__crt_stdio_output@@@__crt_stdio_output@@IAE_NAA_J@Z 10062810 f i libucrtd:output.obj
 0001:00061850       ??$extract_argument_from_va_list@F_J@?$positional_parameter_base@DV?$stream_output_adapter@D@__crt_stdio_output@@@__crt_stdio_output@@IAE_NAA_J@Z 10062850 f i libucrtd:output.obj
 0001:00061a10       ??$extract_argument_from_va_list@F_J@?$positional_parameter_base@DV?$string_output_adapter@D@__crt_stdio_output@@@__crt_stdio_output@@IAE_NAA_J@Z 10062a10 f i libucrtd:output.obj
 0001:00061bd0       ??$extract_argument_from_va_list@F_J@?$positional_parameter_base@_WV?$stream_output_adapter@_W@__crt_stdio_output@@@__crt_stdio_output@@IAE_NAA_J@Z 10062bd0 f i libucrtd:output.obj
 0001:00061d90       ??$extract_argument_from_va_list@F_J@?$positional_parameter_base@_WV?$string_output_adapter@_W@__crt_stdio_output@@@__crt_stdio_output@@IAE_NAA_J@Z 10062d90 f i libucrtd:output.obj
 0001:00061f50       ??$extract_argument_from_va_list@F_J@?$standard_base@DV?$stream_output_adapter@D@__crt_stdio_output@@@__crt_stdio_output@@IAE_NAA_J@Z 10062f50 f i libucrtd:output.obj
 0001:00061f90       ??$extract_argument_from_va_list@F_J@?$standard_base@DV?$string_output_adapter@D@__crt_stdio_output@@@__crt_stdio_output@@IAE_NAA_J@Z 10062f90 f i libucrtd:output.obj
 0001:00061fd0       ??$extract_argument_from_va_list@F_J@?$standard_base@_WV?$stream_output_adapter@_W@__crt_stdio_output@@@__crt_stdio_output@@IAE_NAA_J@Z 10062fd0 f i libucrtd:output.obj
 0001:00062010       ??$extract_argument_from_va_list@F_J@?$standard_base@_WV?$string_output_adapter@_W@__crt_stdio_output@@@__crt_stdio_output@@IAE_NAA_J@Z 10063010 f i libucrtd:output.obj
 0001:00062050       ??$extract_argument_from_va_list@GD@?$positional_parameter_base@DV?$stream_output_adapter@D@__crt_stdio_output@@@__crt_stdio_output@@IAE_NAAD@Z 10063050 f i libucrtd:output.obj
 0001:00062200       ??$extract_argument_from_va_list@GD@?$positional_parameter_base@DV?$string_output_adapter@D@__crt_stdio_output@@@__crt_stdio_output@@IAE_NAAD@Z 10063200 f i libucrtd:output.obj
 0001:000623b0       ??$extract_argument_from_va_list@GD@?$standard_base@DV?$stream_output_adapter@D@__crt_stdio_output@@@__crt_stdio_output@@IAE_NAAD@Z 100633b0 f i libucrtd:output.obj
 0001:000623e0       ??$extract_argument_from_va_list@GD@?$standard_base@DV?$string_output_adapter@D@__crt_stdio_output@@@__crt_stdio_output@@IAE_NAAD@Z 100633e0 f i libucrtd:output.obj
 0001:00062410       ??$extract_argument_from_va_list@G_J@?$positional_parameter_base@DV?$stream_output_adapter@D@__crt_stdio_output@@@__crt_stdio_output@@IAE_NAA_J@Z 10063410 f i libucrtd:output.obj
 0001:000625d0       ??$extract_argument_from_va_list@G_J@?$positional_parameter_base@DV?$string_output_adapter@D@__crt_stdio_output@@@__crt_stdio_output@@IAE_NAA_J@Z 100635d0 f i libucrtd:output.obj
 0001:00062790       ??$extract_argument_from_va_list@G_J@?$positional_parameter_base@_WV?$stream_output_adapter@_W@__crt_stdio_output@@@__crt_stdio_output@@IAE_NAA_J@Z 10063790 f i libucrtd:output.obj
 0001:00062950       ??$extract_argument_from_va_list@G_J@?$positional_parameter_base@_WV?$string_output_adapter@_W@__crt_stdio_output@@@__crt_stdio_output@@IAE_NAA_J@Z 10063950 f i libucrtd:output.obj
 0001:00062b10       ??$extract_argument_from_va_list@G_J@?$standard_base@DV?$stream_output_adapter@D@__crt_stdio_output@@@__crt_stdio_output@@IAE_NAA_J@Z 10063b10 f i libucrtd:output.obj
 0001:00062b50       ??$extract_argument_from_va_list@G_J@?$standard_base@DV?$string_output_adapter@D@__crt_stdio_output@@@__crt_stdio_output@@IAE_NAA_J@Z 10063b50 f i libucrtd:output.obj
 0001:00062b90       ??$extract_argument_from_va_list@G_J@?$standard_base@_WV?$stream_output_adapter@_W@__crt_stdio_output@@@__crt_stdio_output@@IAE_NAA_J@Z 10063b90 f i libucrtd:output.obj
 0001:00062bd0       ??$extract_argument_from_va_list@G_J@?$standard_base@_WV?$string_output_adapter@_W@__crt_stdio_output@@@__crt_stdio_output@@IAE_NAA_J@Z 10063bd0 f i libucrtd:output.obj
 0001:00062c10       ??$extract_argument_from_va_list@H_J@?$positional_parameter_base@DV?$stream_output_adapter@D@__crt_stdio_output@@@__crt_stdio_output@@IAE_NAA_J@Z 10063c10 f i libucrtd:output.obj
 0001:00062dd0       ??$extract_argument_from_va_list@H_J@?$positional_parameter_base@DV?$string_output_adapter@D@__crt_stdio_output@@@__crt_stdio_output@@IAE_NAA_J@Z 10063dd0 f i libucrtd:output.obj
 0001:00062f90       ??$extract_argument_from_va_list@H_J@?$positional_parameter_base@_WV?$stream_output_adapter@_W@__crt_stdio_output@@@__crt_stdio_output@@IAE_NAA_J@Z 10063f90 f i libucrtd:output.obj
 0001:00063150       ??$extract_argument_from_va_list@H_J@?$positional_parameter_base@_WV?$string_output_adapter@_W@__crt_stdio_output@@@__crt_stdio_output@@IAE_NAA_J@Z 10064150 f i libucrtd:output.obj
 0001:00063310       ??$extract_argument_from_va_list@H_J@?$standard_base@DV?$stream_output_adapter@D@__crt_stdio_output@@@__crt_stdio_output@@IAE_NAA_J@Z 10064310 f i libucrtd:output.obj
 0001:00063350       ??$extract_argument_from_va_list@H_J@?$standard_base@DV?$string_output_adapter@D@__crt_stdio_output@@@__crt_stdio_output@@IAE_NAA_J@Z 10064350 f i libucrtd:output.obj
 0001:00063390       ??$extract_argument_from_va_list@H_J@?$standard_base@_WV?$stream_output_adapter@_W@__crt_stdio_output@@@__crt_stdio_output@@IAE_NAA_J@Z 10064390 f i libucrtd:output.obj
 0001:000633d0       ??$extract_argument_from_va_list@H_J@?$standard_base@_WV?$string_output_adapter@_W@__crt_stdio_output@@@__crt_stdio_output@@IAE_NAA_J@Z 100643d0 f i libucrtd:output.obj
 0001:00063410       ??$extract_argument_from_va_list@I_J@?$positional_parameter_base@DV?$stream_output_adapter@D@__crt_stdio_output@@@__crt_stdio_output@@IAE_NAA_J@Z 10064410 f i libucrtd:output.obj
 0001:000635d0       ??$extract_argument_from_va_list@I_J@?$positional_parameter_base@DV?$string_output_adapter@D@__crt_stdio_output@@@__crt_stdio_output@@IAE_NAA_J@Z 100645d0 f i libucrtd:output.obj
 0001:00063790       ??$extract_argument_from_va_list@I_J@?$positional_parameter_base@_WV?$stream_output_adapter@_W@__crt_stdio_output@@@__crt_stdio_output@@IAE_NAA_J@Z 10064790 f i libucrtd:output.obj
 0001:00063950       ??$extract_argument_from_va_list@I_J@?$positional_parameter_base@_WV?$string_output_adapter@_W@__crt_stdio_output@@@__crt_stdio_output@@IAE_NAA_J@Z 10064950 f i libucrtd:output.obj
 0001:00063b10       ??$extract_argument_from_va_list@I_J@?$standard_base@DV?$stream_output_adapter@D@__crt_stdio_output@@@__crt_stdio_output@@IAE_NAA_J@Z 10064b10 f i libucrtd:output.obj
 0001:00063b50       ??$extract_argument_from_va_list@I_J@?$standard_base@DV?$string_output_adapter@D@__crt_stdio_output@@@__crt_stdio_output@@IAE_NAA_J@Z 10064b50 f i libucrtd:output.obj
 0001:00063b90       ??$extract_argument_from_va_list@I_J@?$standard_base@_WV?$stream_output_adapter@_W@__crt_stdio_output@@@__crt_stdio_output@@IAE_NAA_J@Z 10064b90 f i libucrtd:output.obj
 0001:00063bd0       ??$extract_argument_from_va_list@I_J@?$standard_base@_WV?$string_output_adapter@_W@__crt_stdio_output@@@__crt_stdio_output@@IAE_NAA_J@Z 10064bd0 f i libucrtd:output.obj
 0001:00063c10       ??$extract_argument_from_va_list@PADPAD@?$positional_parameter_base@DV?$stream_output_adapter@D@__crt_stdio_output@@@__crt_stdio_output@@IAE_NAAPAD@Z 10064c10 f i libucrtd:output.obj
 0001:00063dc0       ??$extract_argument_from_va_list@PADPAD@?$positional_parameter_base@DV?$string_output_adapter@D@__crt_stdio_output@@@__crt_stdio_output@@IAE_NAAPAD@Z 10064dc0 f i libucrtd:output.obj
 0001:00063f70       ??$extract_argument_from_va_list@PADPAD@?$positional_parameter_base@_WV?$stream_output_adapter@_W@__crt_stdio_output@@@__crt_stdio_output@@IAE_NAAPAD@Z 10064f70 f i libucrtd:output.obj
 0001:00064130       ??$extract_argument_from_va_list@PADPAD@?$positional_parameter_base@_WV?$string_output_adapter@_W@__crt_stdio_output@@@__crt_stdio_output@@IAE_NAAPAD@Z 10065130 f i libucrtd:output.obj
 0001:000642f0       ??$extract_argument_from_va_list@PADPAD@?$standard_base@DV?$stream_output_adapter@D@__crt_stdio_output@@@__crt_stdio_output@@IAE_NAAPAD@Z 100652f0 f i libucrtd:output.obj
 0001:00064320       ??$extract_argument_from_va_list@PADPAD@?$standard_base@DV?$string_output_adapter@D@__crt_stdio_output@@@__crt_stdio_output@@IAE_NAAPAD@Z 10065320 f i libucrtd:output.obj
 0001:00064350       ??$extract_argument_from_va_list@PADPAD@?$standard_base@_WV?$stream_output_adapter@_W@__crt_stdio_output@@@__crt_stdio_output@@IAE_NAAPAD@Z 10065350 f i libucrtd:output.obj
 0001:00064380       ??$extract_argument_from_va_list@PADPAD@?$standard_base@_WV?$string_output_adapter@_W@__crt_stdio_output@@@__crt_stdio_output@@IAE_NAAPAD@Z 10065380 f i libucrtd:output.obj
 0001:000643b0       ??$extract_argument_from_va_list@PAUansi_string@?1??type_case_Z@?$output_processor@DV?$stream_output_adapter@D@__crt_stdio_output@@V?$format_validation_base@DV?$stream_output_adapter@D@__crt_stdio_output@@@2@@__crt_stdio_output@@AAE_NXZ@PAU1?1??234@AAE_NXZ@@?$standard_base@DV?$stream_output_adapter@D@__crt_stdio_output@@@__crt_stdio_output@@IAE_NAAPAUansi_string@?1??type_case_Z@?$output_processor@DV?$stream_output_adapter@D@__crt_stdio_output@@V?$format_validation_base@DV?$stream_output_adapter@D@__crt_stdio_output@@@2@@1@AAE_NXZ@@Z 100653b0 f i libucrtd:output.obj
 0001:000643e0       ??$extract_argument_from_va_list@PAUansi_string@?1??type_case_Z@?$output_processor@DV?$stream_output_adapter@D@__crt_stdio_output@@V?$positional_parameter_base@DV?$stream_output_adapter@D@__crt_stdio_output@@@2@@__crt_stdio_output@@AAE_NXZ@PAU1?1??234@AAE_NXZ@@?$positional_parameter_base@DV?$stream_output_adapter@D@__crt_stdio_output@@@__crt_stdio_output@@IAE_NAAPAUansi_string@?1??type_case_Z@?$output_processor@DV?$stream_output_adapter@D@__crt_stdio_output@@V?$positional_parameter_base@DV?$stream_output_adapter@D@__crt_stdio_output@@@2@@1@AAE_NXZ@@Z 100653e0 f i libucrtd:output.obj
 0001:00064590       ??$extract_argument_from_va_list@PAUansi_string@?1??type_case_Z@?$output_processor@DV?$stream_output_adapter@D@__crt_stdio_output@@V?$positional_parameter_base@DV?$stream_output_adapter@D@__crt_stdio_output@@@2@@__crt_stdio_output@@AAE_NXZ@PAU1?1??234@AAE_NXZ@@?$standard_base@DV?$stream_output_adapter@D@__crt_stdio_output@@@__crt_stdio_output@@IAE_NAAPAUansi_string@?1??type_case_Z@?$output_processor@DV?$stream_output_adapter@D@__crt_stdio_output@@V?$positional_parameter_base@DV?$stream_output_adapter@D@__crt_stdio_output@@@2@@1@AAE_NXZ@@Z 10065590 f i libucrtd:output.obj
 0001:000645c0       ??$extract_argument_from_va_list@PAUansi_string@?1??type_case_Z@?$output_processor@DV?$stream_output_adapter@D@__crt_stdio_output@@V?$standard_base@DV?$stream_output_adapter@D@__crt_stdio_output@@@2@@__crt_stdio_output@@AAE_NXZ@PAU1?1??234@AAE_NXZ@@?$standard_base@DV?$stream_output_adapter@D@__crt_stdio_output@@@__crt_stdio_output@@IAE_NAAPAUansi_string@?1??type_case_Z@?$output_processor@DV?$stream_output_adapter@D@__crt_stdio_output@@V?$standard_base@DV?$stream_output_adapter@D@__crt_stdio_output@@@2@@1@AAE_NXZ@@Z 100655c0 f i libucrtd:output.obj
 0001:000645f0       ??$extract_argument_from_va_list@PAUansi_string@?1??type_case_Z@?$output_processor@DV?$string_output_adapter@D@__crt_stdio_output@@V?$format_validation_base@DV?$string_output_adapter@D@__crt_stdio_output@@@2@@__crt_stdio_output@@AAE_NXZ@PAU1?1??234@AAE_NXZ@@?$standard_base@DV?$string_output_adapter@D@__crt_stdio_output@@@__crt_stdio_output@@IAE_NAAPAUansi_string@?1??type_case_Z@?$output_processor@DV?$string_output_adapter@D@__crt_stdio_output@@V?$format_validation_base@DV?$string_output_adapter@D@__crt_stdio_output@@@2@@1@AAE_NXZ@@Z 100655f0 f i libucrtd:output.obj
 0001:00064620       ??$extract_argument_from_va_list@PAUansi_string@?1??type_case_Z@?$output_processor@DV?$string_output_adapter@D@__crt_stdio_output@@V?$positional_parameter_base@DV?$string_output_adapter@D@__crt_stdio_output@@@2@@__crt_stdio_output@@AAE_NXZ@PAU1?1??234@AAE_NXZ@@?$positional_parameter_base@DV?$string_output_adapter@D@__crt_stdio_output@@@__crt_stdio_output@@IAE_NAAPAUansi_string@?1??type_case_Z@?$output_processor@DV?$string_output_adapter@D@__crt_stdio_output@@V?$positional_parameter_base@DV?$string_output_adapter@D@__crt_stdio_output@@@2@@1@AAE_NXZ@@Z 10065620 f i libucrtd:output.obj
 0001:000647d0       ??$extract_argument_from_va_list@PAUansi_string@?1??type_case_Z@?$output_processor@DV?$string_output_adapter@D@__crt_stdio_output@@V?$positional_parameter_base@DV?$string_output_adapter@D@__crt_stdio_output@@@2@@__crt_stdio_output@@AAE_NXZ@PAU1?1??234@AAE_NXZ@@?$standard_base@DV?$string_output_adapter@D@__crt_stdio_output@@@__crt_stdio_output@@IAE_NAAPAUansi_string@?1??type_case_Z@?$output_processor@DV?$string_output_adapter@D@__crt_stdio_output@@V?$positional_parameter_base@DV?$string_output_adapter@D@__crt_stdio_output@@@2@@1@AAE_NXZ@@Z 100657d0 f i libucrtd:output.obj
 0001:00064800       ??$extract_argument_from_va_list@PAUansi_string@?1??type_case_Z@?$output_processor@DV?$string_output_adapter@D@__crt_stdio_output@@V?$standard_base@DV?$string_output_adapter@D@__crt_stdio_output@@@2@@__crt_stdio_output@@AAE_NXZ@PAU1?1??234@AAE_NXZ@@?$standard_base@DV?$string_output_adapter@D@__crt_stdio_output@@@__crt_stdio_output@@IAE_NAAPAUansi_string@?1??type_case_Z@?$output_processor@DV?$string_output_adapter@D@__crt_stdio_output@@V?$standard_base@DV?$string_output_adapter@D@__crt_stdio_output@@@2@@1@AAE_NXZ@@Z 10065800 f i libucrtd:output.obj
 0001:00064830       ??$extract_argument_from_va_list@PAUansi_string@?1??type_case_Z@?$output_processor@_WV?$stream_output_adapter@_W@__crt_stdio_output@@V?$format_validation_base@_WV?$stream_output_adapter@_W@__crt_stdio_output@@@2@@__crt_stdio_output@@AAE_NXZ@PAU1?1??234@AAE_NXZ@@?$standard_base@_WV?$stream_output_adapter@_W@__crt_stdio_output@@@__crt_stdio_output@@IAE_NAAPAUansi_string@?1??type_case_Z@?$output_processor@_WV?$stream_output_adapter@_W@__crt_stdio_output@@V?$format_validation_base@_WV?$stream_output_adapter@_W@__crt_stdio_output@@@2@@1@AAE_NXZ@@Z 10065830 f i libucrtd:output.obj
 0001:00064860       ??$extract_argument_from_va_list@PAUansi_string@?1??type_case_Z@?$output_processor@_WV?$stream_output_adapter@_W@__crt_stdio_output@@V?$positional_parameter_base@_WV?$stream_output_adapter@_W@__crt_stdio_output@@@2@@__crt_stdio_output@@AAE_NXZ@PAU1?1??234@AAE_NXZ@@?$positional_parameter_base@_WV?$stream_output_adapter@_W@__crt_stdio_output@@@__crt_stdio_output@@IAE_NAAPAUansi_string@?1??type_case_Z@?$output_processor@_WV?$stream_output_adapter@_W@__crt_stdio_output@@V?$positional_parameter_base@_WV?$stream_output_adapter@_W@__crt_stdio_output@@@2@@1@AAE_NXZ@@Z 10065860 f i libucrtd:output.obj
 0001:00064a20       ??$extract_argument_from_va_list@PAUansi_string@?1??type_case_Z@?$output_processor@_WV?$stream_output_adapter@_W@__crt_stdio_output@@V?$positional_parameter_base@_WV?$stream_output_adapter@_W@__crt_stdio_output@@@2@@__crt_stdio_output@@AAE_NXZ@PAU1?1??234@AAE_NXZ@@?$standard_base@_WV?$stream_output_adapter@_W@__crt_stdio_output@@@__crt_stdio_output@@IAE_NAAPAUansi_string@?1??type_case_Z@?$output_processor@_WV?$stream_output_adapter@_W@__crt_stdio_output@@V?$positional_parameter_base@_WV?$stream_output_adapter@_W@__crt_stdio_output@@@2@@1@AAE_NXZ@@Z 10065a20 f i libucrtd:output.obj
 0001:00064a50       ??$extract_argument_from_va_list@PAUansi_string@?1??type_case_Z@?$output_processor@_WV?$stream_output_adapter@_W@__crt_stdio_output@@V?$standard_base@_WV?$stream_output_adapter@_W@__crt_stdio_output@@@2@@__crt_stdio_output@@AAE_NXZ@PAU1?1??234@AAE_NXZ@@?$standard_base@_WV?$stream_output_adapter@_W@__crt_stdio_output@@@__crt_stdio_output@@IAE_NAAPAUansi_string@?1??type_case_Z@?$output_processor@_WV?$stream_output_adapter@_W@__crt_stdio_output@@V?$standard_base@_WV?$stream_output_adapter@_W@__crt_stdio_output@@@2@@1@AAE_NXZ@@Z 10065a50 f i libucrtd:output.obj
 0001:00064a80       ??$extract_argument_from_va_list@PAUansi_string@?1??type_case_Z@?$output_processor@_WV?$string_output_adapter@_W@__crt_stdio_output@@V?$format_validation_base@_WV?$string_output_adapter@_W@__crt_stdio_output@@@2@@__crt_stdio_output@@AAE_NXZ@PAU1?1??234@AAE_NXZ@@?$standard_base@_WV?$string_output_adapter@_W@__crt_stdio_output@@@__crt_stdio_output@@IAE_NAAPAUansi_string@?1??type_case_Z@?$output_processor@_WV?$string_output_adapter@_W@__crt_stdio_output@@V?$format_validation_base@_WV?$string_output_adapter@_W@__crt_stdio_output@@@2@@1@AAE_NXZ@@Z 10065a80 f i libucrtd:output.obj
 0001:00064ab0       ??$extract_argument_from_va_list@PAUansi_string@?1??type_case_Z@?$output_processor@_WV?$string_output_adapter@_W@__crt_stdio_output@@V?$positional_parameter_base@_WV?$string_output_adapter@_W@__crt_stdio_output@@@2@@__crt_stdio_output@@AAE_NXZ@PAU1?1??234@AAE_NXZ@@?$positional_parameter_base@_WV?$string_output_adapter@_W@__crt_stdio_output@@@__crt_stdio_output@@IAE_NAAPAUansi_string@?1??type_case_Z@?$output_processor@_WV?$string_output_adapter@_W@__crt_stdio_output@@V?$positional_parameter_base@_WV?$string_output_adapter@_W@__crt_stdio_output@@@2@@1@AAE_NXZ@@Z 10065ab0 f i libucrtd:output.obj
 0001:00064c70       ??$extract_argument_from_va_list@PAUansi_string@?1??type_case_Z@?$output_processor@_WV?$string_output_adapter@_W@__crt_stdio_output@@V?$positional_parameter_base@_WV?$string_output_adapter@_W@__crt_stdio_output@@@2@@__crt_stdio_output@@AAE_NXZ@PAU1?1??234@AAE_NXZ@@?$standard_base@_WV?$string_output_adapter@_W@__crt_stdio_output@@@__crt_stdio_output@@IAE_NAAPAUansi_string@?1??type_case_Z@?$output_processor@_WV?$string_output_adapter@_W@__crt_stdio_output@@V?$positional_parameter_base@_WV?$string_output_adapter@_W@__crt_stdio_output@@@2@@1@AAE_NXZ@@Z 10065c70 f i libucrtd:output.obj
 0001:00064ca0       ??$extract_argument_from_va_list@PAUansi_string@?1??type_case_Z@?$output_processor@_WV?$string_output_adapter@_W@__crt_stdio_output@@V?$standard_base@_WV?$string_output_adapter@_W@__crt_stdio_output@@@2@@__crt_stdio_output@@AAE_NXZ@PAU1?1??234@AAE_NXZ@@?$standard_base@_WV?$string_output_adapter@_W@__crt_stdio_output@@@__crt_stdio_output@@IAE_NAAPAUansi_string@?1??type_case_Z@?$output_processor@_WV?$string_output_adapter@_W@__crt_stdio_output@@V?$standard_base@_WV?$string_output_adapter@_W@__crt_stdio_output@@@2@@1@AAE_NXZ@@Z 10065ca0 f i libucrtd:output.obj
 0001:00064cd0       ??$extract_argument_from_va_list@PAXPAX@?$positional_parameter_base@DV?$stream_output_adapter@D@__crt_stdio_output@@@__crt_stdio_output@@IAE_NAAPAX@Z 10065cd0 f i libucrtd:output.obj
 0001:00064e80       ??$extract_argument_from_va_list@PAXPAX@?$positional_parameter_base@DV?$string_output_adapter@D@__crt_stdio_output@@@__crt_stdio_output@@IAE_NAAPAX@Z 10065e80 f i libucrtd:output.obj
 0001:00065030       ??$extract_argument_from_va_list@PAXPAX@?$positional_parameter_base@_WV?$stream_output_adapter@_W@__crt_stdio_output@@@__crt_stdio_output@@IAE_NAAPAX@Z 10066030 f i libucrtd:output.obj
 0001:000651f0       ??$extract_argument_from_va_list@PAXPAX@?$positional_parameter_base@_WV?$string_output_adapter@_W@__crt_stdio_output@@@__crt_stdio_output@@IAE_NAAPAX@Z 100661f0 f i libucrtd:output.obj
 0001:000653b0       ??$extract_argument_from_va_list@PAXPAX@?$standard_base@DV?$stream_output_adapter@D@__crt_stdio_output@@@__crt_stdio_output@@IAE_NAAPAX@Z 100663b0 f i libucrtd:output.obj
 0001:000653e0       ??$extract_argument_from_va_list@PAXPAX@?$standard_base@DV?$string_output_adapter@D@__crt_stdio_output@@@__crt_stdio_output@@IAE_NAAPAX@Z 100663e0 f i libucrtd:output.obj
 0001:00065410       ??$extract_argument_from_va_list@PAXPAX@?$standard_base@_WV?$stream_output_adapter@_W@__crt_stdio_output@@@__crt_stdio_output@@IAE_NAAPAX@Z 10066410 f i libucrtd:output.obj
 0001:00065440       ??$extract_argument_from_va_list@PAXPAX@?$standard_base@_WV?$string_output_adapter@_W@__crt_stdio_output@@@__crt_stdio_output@@IAE_NAAPAX@Z 10066440 f i libucrtd:output.obj
 0001:00065470       ??$extract_argument_from_va_list@U_CRT_DOUBLE@@U1@@?$positional_parameter_base@DV?$stream_output_adapter@D@__crt_stdio_output@@@__crt_stdio_output@@IAE_NAAU_CRT_DOUBLE@@@Z 10066470 f i libucrtd:output.obj
 0001:00065660       ??$extract_argument_from_va_list@U_CRT_DOUBLE@@U1@@?$positional_parameter_base@DV?$string_output_adapter@D@__crt_stdio_output@@@__crt_stdio_output@@IAE_NAAU_CRT_DOUBLE@@@Z 10066660 f i libucrtd:output.obj
 0001:00065850       ??$extract_argument_from_va_list@U_CRT_DOUBLE@@U1@@?$positional_parameter_base@_WV?$stream_output_adapter@_W@__crt_stdio_output@@@__crt_stdio_output@@IAE_NAAU_CRT_DOUBLE@@@Z 10066850 f i libucrtd:output.obj
 0001:00065a40       ??$extract_argument_from_va_list@U_CRT_DOUBLE@@U1@@?$positional_parameter_base@_WV?$string_output_adapter@_W@__crt_stdio_output@@@__crt_stdio_output@@IAE_NAAU_CRT_DOUBLE@@@Z 10066a40 f i libucrtd:output.obj
 0001:00065c30       ??$extract_argument_from_va_list@U_CRT_DOUBLE@@U1@@?$standard_base@DV?$stream_output_adapter@D@__crt_stdio_output@@@__crt_stdio_output@@IAE_NAAU_CRT_DOUBLE@@@Z 10066c30 f i libucrtd:output.obj
 0001:00065c90       ??$extract_argument_from_va_list@U_CRT_DOUBLE@@U1@@?$standard_base@DV?$string_output_adapter@D@__crt_stdio_output@@@__crt_stdio_output@@IAE_NAAU_CRT_DOUBLE@@@Z 10066c90 f i libucrtd:output.obj
 0001:00065cf0       ??$extract_argument_from_va_list@U_CRT_DOUBLE@@U1@@?$standard_base@_WV?$stream_output_adapter@_W@__crt_stdio_output@@@__crt_stdio_output@@IAE_NAAU_CRT_DOUBLE@@@Z 10066cf0 f i libucrtd:output.obj
 0001:00065d50       ??$extract_argument_from_va_list@U_CRT_DOUBLE@@U1@@?$standard_base@_WV?$string_output_adapter@_W@__crt_stdio_output@@@__crt_stdio_output@@IAE_NAAU_CRT_DOUBLE@@@Z 10066d50 f i libucrtd:output.obj
 0001:00065db0       ??$extract_argument_from_va_list@_J_J@?$positional_parameter_base@DV?$stream_output_adapter@D@__crt_stdio_output@@@__crt_stdio_output@@IAE_NAA_J@Z 10066db0 f i libucrtd:output.obj
 0001:00065f70       ??$extract_argument_from_va_list@_J_J@?$positional_parameter_base@DV?$string_output_adapter@D@__crt_stdio_output@@@__crt_stdio_output@@IAE_NAA_J@Z 10066f70 f i libucrtd:output.obj
 0001:00066130       ??$extract_argument_from_va_list@_J_J@?$positional_parameter_base@_WV?$stream_output_adapter@_W@__crt_stdio_output@@@__crt_stdio_output@@IAE_NAA_J@Z 10067130 f i libucrtd:output.obj
 0001:000662f0       ??$extract_argument_from_va_list@_J_J@?$positional_parameter_base@_WV?$string_output_adapter@_W@__crt_stdio_output@@@__crt_stdio_output@@IAE_NAA_J@Z 100672f0 f i libucrtd:output.obj
 0001:000664b0       ??$extract_argument_from_va_list@_J_J@?$standard_base@DV?$stream_output_adapter@D@__crt_stdio_output@@@__crt_stdio_output@@IAE_NAA_J@Z 100674b0 f i libucrtd:output.obj
 0001:000664f0       ??$extract_argument_from_va_list@_J_J@?$standard_base@DV?$string_output_adapter@D@__crt_stdio_output@@@__crt_stdio_output@@IAE_NAA_J@Z 100674f0 f i libucrtd:output.obj
 0001:00066530       ??$extract_argument_from_va_list@_J_J@?$standard_base@_WV?$stream_output_adapter@_W@__crt_stdio_output@@@__crt_stdio_output@@IAE_NAA_J@Z 10067530 f i libucrtd:output.obj
 0001:00066570       ??$extract_argument_from_va_list@_J_J@?$standard_base@_WV?$string_output_adapter@_W@__crt_stdio_output@@@__crt_stdio_output@@IAE_NAA_J@Z 10067570 f i libucrtd:output.obj
 0001:000665b0       ??$extract_argument_from_va_list@_K_J@?$positional_parameter_base@DV?$stream_output_adapter@D@__crt_stdio_output@@@__crt_stdio_output@@IAE_NAA_J@Z 100675b0 f i libucrtd:output.obj
 0001:00066770       ??$extract_argument_from_va_list@_K_J@?$positional_parameter_base@DV?$string_output_adapter@D@__crt_stdio_output@@@__crt_stdio_output@@IAE_NAA_J@Z 10067770 f i libucrtd:output.obj
 0001:00066930       ??$extract_argument_from_va_list@_K_J@?$positional_parameter_base@_WV?$stream_output_adapter@_W@__crt_stdio_output@@@__crt_stdio_output@@IAE_NAA_J@Z 10067930 f i libucrtd:output.obj
 0001:00066af0       ??$extract_argument_from_va_list@_K_J@?$positional_parameter_base@_WV?$string_output_adapter@_W@__crt_stdio_output@@@__crt_stdio_output@@IAE_NAA_J@Z 10067af0 f i libucrtd:output.obj
 0001:00066cb0       ??$extract_argument_from_va_list@_K_J@?$standard_base@DV?$stream_output_adapter@D@__crt_stdio_output@@@__crt_stdio_output@@IAE_NAA_J@Z 10067cb0 f i libucrtd:output.obj
 0001:00066cf0       ??$extract_argument_from_va_list@_K_J@?$standard_base@DV?$string_output_adapter@D@__crt_stdio_output@@@__crt_stdio_output@@IAE_NAA_J@Z 10067cf0 f i libucrtd:output.obj
 0001:00066d30       ??$extract_argument_from_va_list@_K_J@?$standard_base@_WV?$stream_output_adapter@_W@__crt_stdio_output@@@__crt_stdio_output@@IAE_NAA_J@Z 10067d30 f i libucrtd:output.obj
 0001:00066d70       ??$extract_argument_from_va_list@_K_J@?$standard_base@_WV?$string_output_adapter@_W@__crt_stdio_output@@@__crt_stdio_output@@IAE_NAA_J@Z 10067d70 f i libucrtd:output.obj
 0001:00066db0       ??$extract_argument_from_va_list@_W_W@?$positional_parameter_base@DV?$stream_output_adapter@D@__crt_stdio_output@@@__crt_stdio_output@@IAE_NAA_W@Z 10067db0 f i libucrtd:output.obj
 0001:00066f60       ??$extract_argument_from_va_list@_W_W@?$positional_parameter_base@DV?$string_output_adapter@D@__crt_stdio_output@@@__crt_stdio_output@@IAE_NAA_W@Z 10067f60 f i libucrtd:output.obj
 0001:00067110       ??$extract_argument_from_va_list@_W_W@?$positional_parameter_base@_WV?$stream_output_adapter@_W@__crt_stdio_output@@@__crt_stdio_output@@IAE_NAA_W@Z 10068110 f i libucrtd:output.obj
 0001:000672d0       ??$extract_argument_from_va_list@_W_W@?$positional_parameter_base@_WV?$string_output_adapter@_W@__crt_stdio_output@@@__crt_stdio_output@@IAE_NAA_W@Z 100682d0 f i libucrtd:output.obj
 0001:00067490       ??$extract_argument_from_va_list@_W_W@?$standard_base@DV?$stream_output_adapter@D@__crt_stdio_output@@@__crt_stdio_output@@IAE_NAA_W@Z 10068490 f i libucrtd:output.obj
 0001:000674c0       ??$extract_argument_from_va_list@_W_W@?$standard_base@DV?$string_output_adapter@D@__crt_stdio_output@@@__crt_stdio_output@@IAE_NAA_W@Z 100684c0 f i libucrtd:output.obj
 0001:000674f0       ??$extract_argument_from_va_list@_W_W@?$standard_base@_WV?$stream_output_adapter@_W@__crt_stdio_output@@@__crt_stdio_output@@IAE_NAA_W@Z 100684f0 f i libucrtd:output.obj
 0001:00067520       ??$extract_argument_from_va_list@_W_W@?$standard_base@_WV?$string_output_adapter@_W@__crt_stdio_output@@@__crt_stdio_output@@IAE_NAA_W@Z 10068520 f i libucrtd:output.obj
 0001:00067550       ??$get_parameter_type@D@?$positional_parameter_base@DV?$stream_output_adapter@D@__crt_stdio_output@@@__crt_stdio_output@@CA?AW4parameter_type@01@PAD@Z 10068550 f i libucrtd:output.obj
 0001:00067560       ??$get_parameter_type@D@?$positional_parameter_base@DV?$string_output_adapter@D@__crt_stdio_output@@@__crt_stdio_output@@CA?AW4parameter_type@01@PAD@Z 10068560 f i libucrtd:output.obj
 0001:00067570       ??$get_parameter_type@D@?$positional_parameter_base@_WV?$stream_output_adapter@_W@__crt_stdio_output@@@__crt_stdio_output@@CA?AW4parameter_type@01@PAD@Z 10068570 f i libucrtd:output.obj
 0001:00067580       ??$get_parameter_type@D@?$positional_parameter_base@_WV?$string_output_adapter@_W@__crt_stdio_output@@@__crt_stdio_output@@CA?AW4parameter_type@01@PAD@Z 10068580 f i libucrtd:output.obj
 0001:00067590       ??$get_parameter_type@Uansi_string@?1??type_case_Z@?$output_processor@DV?$stream_output_adapter@D@__crt_stdio_output@@V?$positional_parameter_base@DV?$stream_output_adapter@D@__crt_stdio_output@@@2@@__crt_stdio_output@@AAE_NXZ@@?$positional_parameter_base@DV?$stream_output_adapter@D@__crt_stdio_output@@@__crt_stdio_output@@CA?AW4parameter_type@01@PAUansi_string@?1??type_case_Z@?$output_processor@DV?$stream_output_adapter@D@__crt_stdio_output@@V?$positional_parameter_base@DV?$stream_output_adapter@D@__crt_stdio_output@@@2@@1@AAE_NXZ@@Z 10068590 f i libucrtd:output.obj
 0001:000675a0       ??$get_parameter_type@Uansi_string@?1??type_case_Z@?$output_processor@DV?$string_output_adapter@D@__crt_stdio_output@@V?$positional_parameter_base@DV?$string_output_adapter@D@__crt_stdio_output@@@2@@__crt_stdio_output@@AAE_NXZ@@?$positional_parameter_base@DV?$string_output_adapter@D@__crt_stdio_output@@@__crt_stdio_output@@CA?AW4parameter_type@01@PAUansi_string@?1??type_case_Z@?$output_processor@DV?$string_output_adapter@D@__crt_stdio_output@@V?$positional_parameter_base@DV?$string_output_adapter@D@__crt_stdio_output@@@2@@1@AAE_NXZ@@Z 100685a0 f i libucrtd:output.obj
 0001:000675b0       ??$get_parameter_type@Uansi_string@?1??type_case_Z@?$output_processor@_WV?$stream_output_adapter@_W@__crt_stdio_output@@V?$positional_parameter_base@_WV?$stream_output_adapter@_W@__crt_stdio_output@@@2@@__crt_stdio_output@@AAE_NXZ@@?$positional_parameter_base@_WV?$stream_output_adapter@_W@__crt_stdio_output@@@__crt_stdio_output@@CA?AW4parameter_type@01@PAUansi_string@?1??type_case_Z@?$output_processor@_WV?$stream_output_adapter@_W@__crt_stdio_output@@V?$positional_parameter_base@_WV?$stream_output_adapter@_W@__crt_stdio_output@@@2@@1@AAE_NXZ@@Z 100685b0 f i libucrtd:output.obj
 0001:000675c0       ??$get_parameter_type@Uansi_string@?1??type_case_Z@?$output_processor@_WV?$string_output_adapter@_W@__crt_stdio_output@@V?$positional_parameter_base@_WV?$string_output_adapter@_W@__crt_stdio_output@@@2@@__crt_stdio_output@@AAE_NXZ@@?$positional_parameter_base@_WV?$string_output_adapter@_W@__crt_stdio_output@@@__crt_stdio_output@@CA?AW4parameter_type@01@PAUansi_string@?1??type_case_Z@?$output_processor@_WV?$string_output_adapter@_W@__crt_stdio_output@@V?$positional_parameter_base@_WV?$string_output_adapter@_W@__crt_stdio_output@@@2@@1@AAE_NXZ@@Z 100685c0 f i libucrtd:output.obj
 0001:000675d0       ??$get_parameter_type@X@?$positional_parameter_base@DV?$stream_output_adapter@D@__crt_stdio_output@@@__crt_stdio_output@@CA?AW4parameter_type@01@PAX@Z 100685d0 f i libucrtd:output.obj
 0001:000675e0       ??$get_parameter_type@X@?$positional_parameter_base@DV?$string_output_adapter@D@__crt_stdio_output@@@__crt_stdio_output@@CA?AW4parameter_type@01@PAX@Z 100685e0 f i libucrtd:output.obj
 0001:000675f0       ??$get_parameter_type@X@?$positional_parameter_base@_WV?$stream_output_adapter@_W@__crt_stdio_output@@@__crt_stdio_output@@CA?AW4parameter_type@01@PAX@Z 100685f0 f i libucrtd:output.obj
 0001:00067600       ??$get_parameter_type@X@?$positional_parameter_base@_WV?$string_output_adapter@_W@__crt_stdio_output@@@__crt_stdio_output@@CA?AW4parameter_type@01@PAX@Z 10068600 f i libucrtd:output.obj
 0001:00067610       ??$is_character_specifier@D@?$positional_parameter_base@DV?$stream_output_adapter@D@__crt_stdio_output@@@__crt_stdio_output@@CA_ND@Z 10068610 f i libucrtd:output.obj
 0001:00067650       ??$is_character_specifier@D@?$positional_parameter_base@DV?$string_output_adapter@D@__crt_stdio_output@@@__crt_stdio_output@@CA_ND@Z 10068650 f i libucrtd:output.obj
 0001:00067690       ??$is_character_specifier@_W@?$positional_parameter_base@_WV?$stream_output_adapter@_W@__crt_stdio_output@@@__crt_stdio_output@@CA_N_W@Z 10068690 f i libucrtd:output.obj
 0001:000676d0       ??$is_character_specifier@_W@?$positional_parameter_base@_WV?$string_output_adapter@_W@__crt_stdio_output@@@__crt_stdio_output@@CA_N_W@Z 100686d0 f i libucrtd:output.obj
 0001:00067710       ??$is_integral_specifier@D@?$positional_parameter_base@DV?$stream_output_adapter@D@__crt_stdio_output@@@__crt_stdio_output@@CA_ND@Z 10068710 f i libucrtd:output.obj
 0001:00067790       ??$is_integral_specifier@D@?$positional_parameter_base@DV?$string_output_adapter@D@__crt_stdio_output@@@__crt_stdio_output@@CA_ND@Z 10068790 f i libucrtd:output.obj
 0001:00067810       ??$is_integral_specifier@_W@?$positional_parameter_base@_WV?$stream_output_adapter@_W@__crt_stdio_output@@@__crt_stdio_output@@CA_N_W@Z 10068810 f i libucrtd:output.obj
 0001:00067890       ??$is_integral_specifier@_W@?$positional_parameter_base@_WV?$string_output_adapter@_W@__crt_stdio_output@@@__crt_stdio_output@@CA_N_W@Z 10068890 f i libucrtd:output.obj
 0001:00067910       ??$is_overflow_condition@K@__crt_strtox@@YA_NIK@Z 10068910 f i libucrtd:output.obj
 0001:00067980       ??$is_pointer_specifier@D@?$positional_parameter_base@DV?$stream_output_adapter@D@__crt_stdio_output@@@__crt_stdio_output@@CA_ND@Z 10068980 f i libucrtd:output.obj
 0001:000679b0       ??$is_pointer_specifier@D@?$positional_parameter_base@DV?$string_output_adapter@D@__crt_stdio_output@@@__crt_stdio_output@@CA_ND@Z 100689b0 f i libucrtd:output.obj
 0001:000679e0       ??$is_pointer_specifier@_W@?$positional_parameter_base@_WV?$stream_output_adapter@_W@__crt_stdio_output@@@__crt_stdio_output@@CA_N_W@Z 100689e0 f i libucrtd:output.obj
 0001:00067a10       ??$is_pointer_specifier@_W@?$positional_parameter_base@_WV?$string_output_adapter@_W@__crt_stdio_output@@@__crt_stdio_output@@CA_N_W@Z 10068a10 f i libucrtd:output.obj
 0001:00067a40       ??$is_string_specifier@D@?$positional_parameter_base@DV?$stream_output_adapter@D@__crt_stdio_output@@@__crt_stdio_output@@CA_ND@Z 10068a40 f i libucrtd:output.obj
 0001:00067a80       ??$is_string_specifier@D@?$positional_parameter_base@DV?$string_output_adapter@D@__crt_stdio_output@@@__crt_stdio_output@@CA_ND@Z 10068a80 f i libucrtd:output.obj
 0001:00067ac0       ??$is_string_specifier@_W@?$positional_parameter_base@_WV?$stream_output_adapter@_W@__crt_stdio_output@@@__crt_stdio_output@@CA_N_W@Z 10068ac0 f i libucrtd:output.obj
 0001:00067b00       ??$is_string_specifier@_W@?$positional_parameter_base@_WV?$string_output_adapter@_W@__crt_stdio_output@@@__crt_stdio_output@@CA_N_W@Z 10068b00 f i libucrtd:output.obj
 0001:00067b40       ??$is_wide_character_specifier@D@__crt_stdio_output@@YA_N_KDW4length_modifier@0@@Z 10068b40 f i libucrtd:output.obj
 0001:00067be0       ??$is_wide_character_specifier@_W@__crt_stdio_output@@YA_N_K_WW4length_modifier@0@@Z 10068be0 f i libucrtd:output.obj
 0001:00067cd0       ??$make_c_string_character_source@DPAPAD@__crt_strtox@@YA?AV?$c_string_character_source@D@0@QBDQAPAD@Z 10068cd0 f i libucrtd:output.obj
 0001:00067cf0       ??$make_c_string_character_source@_WPAPA_W@__crt_strtox@@YA?AV?$c_string_character_source@_W@0@QB_WQAPA_W@Z 10068cf0 f i libucrtd:output.obj
 0001:00067d10       ??$parse_integer@KV?$c_string_character_source@D@__crt_strtox@@$0A@@__crt_strtox@@YAKAAV__crt_cached_ptd_host@@V?$c_string_character_source@D@0@H_N@Z 10068d10 f i libucrtd:output.obj
 0001:00068110       ??$parse_integer@KV?$c_string_character_source@_W@__crt_strtox@@$0A@@__crt_strtox@@YAKAAV__crt_cached_ptd_host@@V?$c_string_character_source@_W@0@H_N@Z 10069110 f i libucrtd:output.obj
 0001:00068510       ??$peek_va_arg@C@__crt_stdio_output@@YACPAD@Z 10069510 f i libucrtd:output.obj
 0001:00068530       ??$peek_va_arg@E@__crt_stdio_output@@YAEPAD@Z 10069530 f i libucrtd:output.obj
 0001:00068550       ??$peek_va_arg@F@__crt_stdio_output@@YAFPAD@Z 10069550 f i libucrtd:output.obj
 0001:00068570       ??$peek_va_arg@G@__crt_stdio_output@@YAGPAD@Z 10069570 f i libucrtd:output.obj
 0001:00068590       ??$peek_va_arg@H@__crt_stdio_output@@YAHPAD@Z 10069590 f i libucrtd:output.obj
 0001:000685b0       ??$peek_va_arg@I@__crt_stdio_output@@YAIPAD@Z 100695b0 f i libucrtd:output.obj
 0001:000685d0       ??$peek_va_arg@PAD@__crt_stdio_output@@YAPADPAD@Z 100695d0 f i libucrtd:output.obj
 0001:000685f0       ??$peek_va_arg@PAUansi_string@?1??type_case_Z@?$output_processor@DV?$stream_output_adapter@D@__crt_stdio_output@@V?$positional_parameter_base@DV?$stream_output_adapter@D@__crt_stdio_output@@@2@@__crt_stdio_output@@AAE_NXZ@@__crt_stdio_output@@YAPAUansi_string@?1??type_case_Z@?$output_processor@DV?$stream_output_adapter@D@__crt_stdio_output@@V?$positional_parameter_base@DV?$stream_output_adapter@D@__crt_stdio_output@@@2@@0@AAE_NXZ@PAD@Z 100695f0 f i libucrtd:output.obj
 0001:00068610       ??$peek_va_arg@PAUansi_string@?1??type_case_Z@?$output_processor@DV?$string_output_adapter@D@__crt_stdio_output@@V?$positional_parameter_base@DV?$string_output_adapter@D@__crt_stdio_output@@@2@@__crt_stdio_output@@AAE_NXZ@@__crt_stdio_output@@YAPAUansi_string@?1??type_case_Z@?$output_processor@DV?$string_output_adapter@D@__crt_stdio_output@@V?$positional_parameter_base@DV?$string_output_adapter@D@__crt_stdio_output@@@2@@0@AAE_NXZ@PAD@Z 10069610 f i libucrtd:output.obj
 0001:00068630       ??$peek_va_arg@PAUansi_string@?1??type_case_Z@?$output_processor@_WV?$stream_output_adapter@_W@__crt_stdio_output@@V?$positional_parameter_base@_WV?$stream_output_adapter@_W@__crt_stdio_output@@@2@@__crt_stdio_output@@AAE_NXZ@@__crt_stdio_output@@YAPAUansi_string@?1??type_case_Z@?$output_processor@_WV?$stream_output_adapter@_W@__crt_stdio_output@@V?$positional_parameter_base@_WV?$stream_output_adapter@_W@__crt_stdio_output@@@2@@0@AAE_NXZ@PAD@Z 10069630 f i libucrtd:output.obj
 0001:00068650       ??$peek_va_arg@PAUansi_string@?1??type_case_Z@?$output_processor@_WV?$string_output_adapter@_W@__crt_stdio_output@@V?$positional_parameter_base@_WV?$string_output_adapter@_W@__crt_stdio_output@@@2@@__crt_stdio_output@@AAE_NXZ@@__crt_stdio_output@@YAPAUansi_string@?1??type_case_Z@?$output_processor@_WV?$string_output_adapter@_W@__crt_stdio_output@@V?$positional_parameter_base@_WV?$string_output_adapter@_W@__crt_stdio_output@@@2@@0@AAE_NXZ@PAD@Z 10069650 f i libucrtd:output.obj
 0001:00068670       ??$peek_va_arg@PAX@__crt_stdio_output@@YAPAXPAD@Z 10069670 f i libucrtd:output.obj
 0001:00068690       ??$peek_va_arg@U_CRT_DOUBLE@@@__crt_stdio_output@@YA?AU_CRT_DOUBLE@@PAD@Z 10069690 f i libucrtd:output.obj
 0001:000686b0       ??$peek_va_arg@_J@__crt_stdio_output@@YA_JPAD@Z 100696b0 f i libucrtd:output.obj
 0001:000686d0       ??$peek_va_arg@_K@__crt_stdio_output@@YA_KPAD@Z 100696d0 f i libucrtd:output.obj
 0001:000686f0       ??$peek_va_arg@_W@__crt_stdio_output@@YA_WPAD@Z 100696f0 f i libucrtd:output.obj
 0001:00068710       ??$puttc_nolock_internal@ABDPAU_iobuf@@AAV__crt_cached_ptd_host@@@?$__crt_char_traits@D@@SAHABD$$QAPAU_iobuf@@AAV__crt_cached_ptd_host@@@Z 10069710 f i libucrtd:output.obj
 0001:00068740       ??$puttc_nolock_internal@AB_WPAU_iobuf@@AAV__crt_cached_ptd_host@@@?$__crt_char_traits@_W@@SAGAB_W$$QAPAU_iobuf@@AAV__crt_cached_ptd_host@@@Z 10069740 f i libucrtd:output.obj
 0001:00068770       ??$read_va_arg@C@__crt_stdio_output@@YACAAPAD@Z 10069770 f i libucrtd:output.obj
 0001:000687a0       ??$read_va_arg@E@__crt_stdio_output@@YAEAAPAD@Z 100697a0 f i libucrtd:output.obj
 0001:000687d0       ??$read_va_arg@F@__crt_stdio_output@@YAFAAPAD@Z 100697d0 f i libucrtd:output.obj
 0001:00068800       ??$read_va_arg@G@__crt_stdio_output@@YAGAAPAD@Z 10069800 f i libucrtd:output.obj
 0001:00068830       ??$read_va_arg@H@__crt_stdio_output@@YAHAAPAD@Z 10069830 f i libucrtd:output.obj
 0001:00068860       ??$read_va_arg@I@__crt_stdio_output@@YAIAAPAD@Z 10069860 f i libucrtd:output.obj
 0001:00068890       ??$read_va_arg@PAD@__crt_stdio_output@@YAPADAAPAD@Z 10069890 f i libucrtd:output.obj
 0001:000688c0       ??$read_va_arg@PAUansi_string@?1??type_case_Z@?$output_processor@DV?$stream_output_adapter@D@__crt_stdio_output@@V?$format_validation_base@DV?$stream_output_adapter@D@__crt_stdio_output@@@2@@__crt_stdio_output@@AAE_NXZ@@__crt_stdio_output@@YAPAUansi_string@?1??type_case_Z@?$output_processor@DV?$stream_output_adapter@D@__crt_stdio_output@@V?$format_validation_base@DV?$stream_output_adapter@D@__crt_stdio_output@@@2@@0@AAE_NXZ@AAPAD@Z 100698c0 f i libucrtd:output.obj
 0001:000688f0       ??$read_va_arg@PAUansi_string@?1??type_case_Z@?$output_processor@DV?$stream_output_adapter@D@__crt_stdio_output@@V?$positional_parameter_base@DV?$stream_output_adapter@D@__crt_stdio_output@@@2@@__crt_stdio_output@@AAE_NXZ@@__crt_stdio_output@@YAPAUansi_string@?1??type_case_Z@?$output_processor@DV?$stream_output_adapter@D@__crt_stdio_output@@V?$positional_parameter_base@DV?$stream_output_adapter@D@__crt_stdio_output@@@2@@0@AAE_NXZ@AAPAD@Z 100698f0 f i libucrtd:output.obj
 0001:00068920       ??$read_va_arg@PAUansi_string@?1??type_case_Z@?$output_processor@DV?$stream_output_adapter@D@__crt_stdio_output@@V?$standard_base@DV?$stream_output_adapter@D@__crt_stdio_output@@@2@@__crt_stdio_output@@AAE_NXZ@@__crt_stdio_output@@YAPAUansi_string@?1??type_case_Z@?$output_processor@DV?$stream_output_adapter@D@__crt_stdio_output@@V?$standard_base@DV?$stream_output_adapter@D@__crt_stdio_output@@@2@@0@AAE_NXZ@AAPAD@Z 10069920 f i libucrtd:output.obj
 0001:00068950       ??$read_va_arg@PAUansi_string@?1??type_case_Z@?$output_processor@DV?$string_output_adapter@D@__crt_stdio_output@@V?$format_validation_base@DV?$string_output_adapter@D@__crt_stdio_output@@@2@@__crt_stdio_output@@AAE_NXZ@@__crt_stdio_output@@YAPAUansi_string@?1??type_case_Z@?$output_processor@DV?$string_output_adapter@D@__crt_stdio_output@@V?$format_validation_base@DV?$string_output_adapter@D@__crt_stdio_output@@@2@@0@AAE_NXZ@AAPAD@Z 10069950 f i libucrtd:output.obj
 0001:00068980       ??$read_va_arg@PAUansi_string@?1??type_case_Z@?$output_processor@DV?$string_output_adapter@D@__crt_stdio_output@@V?$positional_parameter_base@DV?$string_output_adapter@D@__crt_stdio_output@@@2@@__crt_stdio_output@@AAE_NXZ@@__crt_stdio_output@@YAPAUansi_string@?1??type_case_Z@?$output_processor@DV?$string_output_adapter@D@__crt_stdio_output@@V?$positional_parameter_base@DV?$string_output_adapter@D@__crt_stdio_output@@@2@@0@AAE_NXZ@AAPAD@Z 10069980 f i libucrtd:output.obj
 0001:000689b0       ??$read_va_arg@PAUansi_string@?1??type_case_Z@?$output_processor@DV?$string_output_adapter@D@__crt_stdio_output@@V?$standard_base@DV?$string_output_adapter@D@__crt_stdio_output@@@2@@__crt_stdio_output@@AAE_NXZ@@__crt_stdio_output@@YAPAUansi_string@?1??type_case_Z@?$output_processor@DV?$string_output_adapter@D@__crt_stdio_output@@V?$standard_base@DV?$string_output_adapter@D@__crt_stdio_output@@@2@@0@AAE_NXZ@AAPAD@Z 100699b0 f i libucrtd:output.obj
 0001:000689e0       ??$read_va_arg@PAUansi_string@?1??type_case_Z@?$output_processor@_WV?$stream_output_adapter@_W@__crt_stdio_output@@V?$format_validation_base@_WV?$stream_output_adapter@_W@__crt_stdio_output@@@2@@__crt_stdio_output@@AAE_NXZ@@__crt_stdio_output@@YAPAUansi_string@?1??type_case_Z@?$output_processor@_WV?$stream_output_adapter@_W@__crt_stdio_output@@V?$format_validation_base@_WV?$stream_output_adapter@_W@__crt_stdio_output@@@2@@0@AAE_NXZ@AAPAD@Z 100699e0 f i libucrtd:output.obj
 0001:00068a10       ??$read_va_arg@PAUansi_string@?1??type_case_Z@?$output_processor@_WV?$stream_output_adapter@_W@__crt_stdio_output@@V?$positional_parameter_base@_WV?$stream_output_adapter@_W@__crt_stdio_output@@@2@@__crt_stdio_output@@AAE_NXZ@@__crt_stdio_output@@YAPAUansi_string@?1??type_case_Z@?$output_processor@_WV?$stream_output_adapter@_W@__crt_stdio_output@@V?$positional_parameter_base@_WV?$stream_output_adapter@_W@__crt_stdio_output@@@2@@0@AAE_NXZ@AAPAD@Z 10069a10 f i libucrtd:output.obj
 0001:00068a40       ??$read_va_arg@PAUansi_string@?1??type_case_Z@?$output_processor@_WV?$stream_output_adapter@_W@__crt_stdio_output@@V?$standard_base@_WV?$stream_output_adapter@_W@__crt_stdio_output@@@2@@__crt_stdio_output@@AAE_NXZ@@__crt_stdio_output@@YAPAUansi_string@?1??type_case_Z@?$output_processor@_WV?$stream_output_adapter@_W@__crt_stdio_output@@V?$standard_base@_WV?$stream_output_adapter@_W@__crt_stdio_output@@@2@@0@AAE_NXZ@AAPAD@Z 10069a40 f i libucrtd:output.obj
 0001:00068a70       ??$read_va_arg@PAUansi_string@?1??type_case_Z@?$output_processor@_WV?$string_output_adapter@_W@__crt_stdio_output@@V?$format_validation_base@_WV?$string_output_adapter@_W@__crt_stdio_output@@@2@@__crt_stdio_output@@AAE_NXZ@@__crt_stdio_output@@YAPAUansi_string@?1??type_case_Z@?$output_processor@_WV?$string_output_adapter@_W@__crt_stdio_output@@V?$format_validation_base@_WV?$string_output_adapter@_W@__crt_stdio_output@@@2@@0@AAE_NXZ@AAPAD@Z 10069a70 f i libucrtd:output.obj
 0001:00068aa0       ??$read_va_arg@PAUansi_string@?1??type_case_Z@?$output_processor@_WV?$string_output_adapter@_W@__crt_stdio_output@@V?$positional_parameter_base@_WV?$string_output_adapter@_W@__crt_stdio_output@@@2@@__crt_stdio_output@@AAE_NXZ@@__crt_stdio_output@@YAPAUansi_string@?1??type_case_Z@?$output_processor@_WV?$string_output_adapter@_W@__crt_stdio_output@@V?$positional_parameter_base@_WV?$string_output_adapter@_W@__crt_stdio_output@@@2@@0@AAE_NXZ@AAPAD@Z 10069aa0 f i libucrtd:output.obj
 0001:00068ad0       ??$read_va_arg@PAUansi_string@?1??type_case_Z@?$output_processor@_WV?$string_output_adapter@_W@__crt_stdio_output@@V?$standard_base@_WV?$string_output_adapter@_W@__crt_stdio_output@@@2@@__crt_stdio_output@@AAE_NXZ@@__crt_stdio_output@@YAPAUansi_string@?1??type_case_Z@?$output_processor@_WV?$string_output_adapter@_W@__crt_stdio_output@@V?$standard_base@_WV?$string_output_adapter@_W@__crt_stdio_output@@@2@@0@AAE_NXZ@AAPAD@Z 10069ad0 f i libucrtd:output.obj
 0001:00068b00       ??$read_va_arg@PAX@__crt_stdio_output@@YAPAXAAPAD@Z 10069b00 f i libucrtd:output.obj
 0001:00068b30       ??$read_va_arg@U_CRT_DOUBLE@@@__crt_stdio_output@@YA?AU_CRT_DOUBLE@@AAPAD@Z 10069b30 f i libucrtd:output.obj
 0001:00068b60       ??$read_va_arg@_J@__crt_stdio_output@@YA_JAAPAD@Z 10069b60 f i libucrtd:output.obj
 0001:00068b90       ??$read_va_arg@_K@__crt_stdio_output@@YA_KAAPAD@Z 10069b90 f i libucrtd:output.obj
 0001:00068bc0       ??$read_va_arg@_W@__crt_stdio_output@@YA_WAAPAD@Z 10069bc0 f i libucrtd:output.obj
 0001:00068bf0       ??$scratch_count@D@formatting_buffer@__crt_stdio_output@@QBEIXZ 10069bf0 f i libucrtd:output.obj
 0001:00068c10       ??$scratch_data@D@formatting_buffer@__crt_stdio_output@@QAEPADXZ 10069c10 f i libucrtd:output.obj
 0001:00068c70       ??$type_case_integer@$07@?$output_processor@DV?$stream_output_adapter@D@__crt_stdio_output@@V?$format_validation_base@DV?$stream_output_adapter@D@__crt_stdio_output@@@2@@__crt_stdio_output@@AAE_N_N@Z 10069c70 f i libucrtd:output.obj
 0001:000690b0       ??$type_case_integer@$07@?$output_processor@DV?$stream_output_adapter@D@__crt_stdio_output@@V?$positional_parameter_base@DV?$stream_output_adapter@D@__crt_stdio_output@@@2@@__crt_stdio_output@@AAE_N_N@Z 1006a0b0 f i libucrtd:output.obj
 0001:000694f0       ??$type_case_integer@$07@?$output_processor@DV?$stream_output_adapter@D@__crt_stdio_output@@V?$standard_base@DV?$stream_output_adapter@D@__crt_stdio_output@@@2@@__crt_stdio_output@@AAE_N_N@Z 1006a4f0 f i libucrtd:output.obj
 0001:00069930       ??$type_case_integer@$07@?$output_processor@DV?$string_output_adapter@D@__crt_stdio_output@@V?$format_validation_base@DV?$string_output_adapter@D@__crt_stdio_output@@@2@@__crt_stdio_output@@AAE_N_N@Z 1006a930 f i libucrtd:output.obj
 0001:00069d70       ??$type_case_integer@$07@?$output_processor@DV?$string_output_adapter@D@__crt_stdio_output@@V?$positional_parameter_base@DV?$string_output_adapter@D@__crt_stdio_output@@@2@@__crt_stdio_output@@AAE_N_N@Z 1006ad70 f i libucrtd:output.obj
 0001:0006a1b0       ??$type_case_integer@$07@?$output_processor@DV?$string_output_adapter@D@__crt_stdio_output@@V?$standard_base@DV?$string_output_adapter@D@__crt_stdio_output@@@2@@__crt_stdio_output@@AAE_N_N@Z 1006b1b0 f i libucrtd:output.obj
 0001:0006a5f0       ??$type_case_integer@$07@?$output_processor@_WV?$stream_output_adapter@_W@__crt_stdio_output@@V?$format_validation_base@_WV?$stream_output_adapter@_W@__crt_stdio_output@@@2@@__crt_stdio_output@@AAE_N_N@Z 1006b5f0 f i libucrtd:output.obj
 0001:0006aa30       ??$type_case_integer@$07@?$output_processor@_WV?$stream_output_adapter@_W@__crt_stdio_output@@V?$positional_parameter_base@_WV?$stream_output_adapter@_W@__crt_stdio_output@@@2@@__crt_stdio_output@@AAE_N_N@Z 1006ba30 f i libucrtd:output.obj
 0001:0006ae70       ??$type_case_integer@$07@?$output_processor@_WV?$stream_output_adapter@_W@__crt_stdio_output@@V?$standard_base@_WV?$stream_output_adapter@_W@__crt_stdio_output@@@2@@__crt_stdio_output@@AAE_N_N@Z 1006be70 f i libucrtd:output.obj
 0001:0006b2b0       ??$type_case_integer@$07@?$output_processor@_WV?$string_output_adapter@_W@__crt_stdio_output@@V?$format_validation_base@_WV?$string_output_adapter@_W@__crt_stdio_output@@@2@@__crt_stdio_output@@AAE_N_N@Z 1006c2b0 f i libucrtd:output.obj
 0001:0006b6f0       ??$type_case_integer@$07@?$output_processor@_WV?$string_output_adapter@_W@__crt_stdio_output@@V?$positional_parameter_base@_WV?$string_output_adapter@_W@__crt_stdio_output@@@2@@__crt_stdio_output@@AAE_N_N@Z 1006c6f0 f i libucrtd:output.obj
 0001:0006bb30       ??$type_case_integer@$07@?$output_processor@_WV?$string_output_adapter@_W@__crt_stdio_output@@V?$standard_base@_WV?$string_output_adapter@_W@__crt_stdio_output@@@2@@__crt_stdio_output@@AAE_N_N@Z 1006cb30 f i libucrtd:output.obj
 0001:0006bf70       ??$type_case_integer@$09@?$output_processor@DV?$stream_output_adapter@D@__crt_stdio_output@@V?$format_validation_base@DV?$stream_output_adapter@D@__crt_stdio_output@@@2@@__crt_stdio_output@@AAE_N_N@Z 1006cf70 f i libucrtd:output.obj
 0001:0006c3b0       ??$type_case_integer@$09@?$output_processor@DV?$stream_output_adapter@D@__crt_stdio_output@@V?$positional_parameter_base@DV?$stream_output_adapter@D@__crt_stdio_output@@@2@@__crt_stdio_output@@AAE_N_N@Z 1006d3b0 f i libucrtd:output.obj
 0001:0006c7f0       ??$type_case_integer@$09@?$output_processor@DV?$stream_output_adapter@D@__crt_stdio_output@@V?$standard_base@DV?$stream_output_adapter@D@__crt_stdio_output@@@2@@__crt_stdio_output@@AAE_N_N@Z 1006d7f0 f i libucrtd:output.obj
 0001:0006cc30       ??$type_case_integer@$09@?$output_processor@DV?$string_output_adapter@D@__crt_stdio_output@@V?$format_validation_base@DV?$string_output_adapter@D@__crt_stdio_output@@@2@@__crt_stdio_output@@AAE_N_N@Z 1006dc30 f i libucrtd:output.obj
 0001:0006d070       ??$type_case_integer@$09@?$output_processor@DV?$string_output_adapter@D@__crt_stdio_output@@V?$positional_parameter_base@DV?$string_output_adapter@D@__crt_stdio_output@@@2@@__crt_stdio_output@@AAE_N_N@Z 1006e070 f i libucrtd:output.obj
 0001:0006d4b0       ??$type_case_integer@$09@?$output_processor@DV?$string_output_adapter@D@__crt_stdio_output@@V?$standard_base@DV?$string_output_adapter@D@__crt_stdio_output@@@2@@__crt_stdio_output@@AAE_N_N@Z 1006e4b0 f i libucrtd:output.obj
 0001:0006d8f0       ??$type_case_integer@$09@?$output_processor@_WV?$stream_output_adapter@_W@__crt_stdio_output@@V?$format_validation_base@_WV?$stream_output_adapter@_W@__crt_stdio_output@@@2@@__crt_stdio_output@@AAE_N_N@Z 1006e8f0 f i libucrtd:output.obj
 0001:0006dd30       ??$type_case_integer@$09@?$output_processor@_WV?$stream_output_adapter@_W@__crt_stdio_output@@V?$positional_parameter_base@_WV?$stream_output_adapter@_W@__crt_stdio_output@@@2@@__crt_stdio_output@@AAE_N_N@Z 1006ed30 f i libucrtd:output.obj
 0001:0006e170       ??$type_case_integer@$09@?$output_processor@_WV?$stream_output_adapter@_W@__crt_stdio_output@@V?$standard_base@_WV?$stream_output_adapter@_W@__crt_stdio_output@@@2@@__crt_stdio_output@@AAE_N_N@Z 1006f170 f i libucrtd:output.obj
 0001:0006e5b0       ??$type_case_integer@$09@?$output_processor@_WV?$string_output_adapter@_W@__crt_stdio_output@@V?$format_validation_base@_WV?$string_output_adapter@_W@__crt_stdio_output@@@2@@__crt_stdio_output@@AAE_N_N@Z 1006f5b0 f i libucrtd:output.obj
 0001:0006e9f0       ??$type_case_integer@$09@?$output_processor@_WV?$string_output_adapter@_W@__crt_stdio_output@@V?$positional_parameter_base@_WV?$string_output_adapter@_W@__crt_stdio_output@@@2@@__crt_stdio_output@@AAE_N_N@Z 1006f9f0 f i libucrtd:output.obj
 0001:0006ee30       ??$type_case_integer@$09@?$output_processor@_WV?$string_output_adapter@_W@__crt_stdio_output@@V?$standard_base@_WV?$string_output_adapter@_W@__crt_stdio_output@@@2@@__crt_stdio_output@@AAE_N_N@Z 1006fe30 f i libucrtd:output.obj
 0001:0006f270       ??$type_case_integer@$0BA@@?$output_processor@DV?$stream_output_adapter@D@__crt_stdio_output@@V?$format_validation_base@DV?$stream_output_adapter@D@__crt_stdio_output@@@2@@__crt_stdio_output@@AAE_N_N@Z 10070270 f i libucrtd:output.obj
 0001:0006f6b0       ??$type_case_integer@$0BA@@?$output_processor@DV?$stream_output_adapter@D@__crt_stdio_output@@V?$positional_parameter_base@DV?$stream_output_adapter@D@__crt_stdio_output@@@2@@__crt_stdio_output@@AAE_N_N@Z 100706b0 f i libucrtd:output.obj
 0001:0006faf0       ??$type_case_integer@$0BA@@?$output_processor@DV?$stream_output_adapter@D@__crt_stdio_output@@V?$standard_base@DV?$stream_output_adapter@D@__crt_stdio_output@@@2@@__crt_stdio_output@@AAE_N_N@Z 10070af0 f i libucrtd:output.obj
 0001:0006ff30       ??$type_case_integer@$0BA@@?$output_processor@DV?$string_output_adapter@D@__crt_stdio_output@@V?$format_validation_base@DV?$string_output_adapter@D@__crt_stdio_output@@@2@@__crt_stdio_output@@AAE_N_N@Z 10070f30 f i libucrtd:output.obj
 0001:00070370       ??$type_case_integer@$0BA@@?$output_processor@DV?$string_output_adapter@D@__crt_stdio_output@@V?$positional_parameter_base@DV?$string_output_adapter@D@__crt_stdio_output@@@2@@__crt_stdio_output@@AAE_N_N@Z 10071370 f i libucrtd:output.obj
 0001:000707b0       ??$type_case_integer@$0BA@@?$output_processor@DV?$string_output_adapter@D@__crt_stdio_output@@V?$standard_base@DV?$string_output_adapter@D@__crt_stdio_output@@@2@@__crt_stdio_output@@AAE_N_N@Z 100717b0 f i libucrtd:output.obj
 0001:00070bf0       ??$type_case_integer@$0BA@@?$output_processor@_WV?$stream_output_adapter@_W@__crt_stdio_output@@V?$format_validation_base@_WV?$stream_output_adapter@_W@__crt_stdio_output@@@2@@__crt_stdio_output@@AAE_N_N@Z 10071bf0 f i libucrtd:output.obj
 0001:00071030       ??$type_case_integer@$0BA@@?$output_processor@_WV?$stream_output_adapter@_W@__crt_stdio_output@@V?$positional_parameter_base@_WV?$stream_output_adapter@_W@__crt_stdio_output@@@2@@__crt_stdio_output@@AAE_N_N@Z 10072030 f i libucrtd:output.obj
 0001:00071470       ??$type_case_integer@$0BA@@?$output_processor@_WV?$stream_output_adapter@_W@__crt_stdio_output@@V?$standard_base@_WV?$stream_output_adapter@_W@__crt_stdio_output@@@2@@__crt_stdio_output@@AAE_N_N@Z 10072470 f i libucrtd:output.obj
 0001:000718b0       ??$type_case_integer@$0BA@@?$output_processor@_WV?$string_output_adapter@_W@__crt_stdio_output@@V?$format_validation_base@_WV?$string_output_adapter@_W@__crt_stdio_output@@@2@@__crt_stdio_output@@AAE_N_N@Z 100728b0 f i libucrtd:output.obj
 0001:00071cf0       ??$type_case_integer@$0BA@@?$output_processor@_WV?$string_output_adapter@_W@__crt_stdio_output@@V?$positional_parameter_base@_WV?$string_output_adapter@_W@__crt_stdio_output@@@2@@__crt_stdio_output@@AAE_N_N@Z 10072cf0 f i libucrtd:output.obj
 0001:00072130       ??$type_case_integer@$0BA@@?$output_processor@_WV?$string_output_adapter@_W@__crt_stdio_output@@V?$standard_base@_WV?$string_output_adapter@_W@__crt_stdio_output@@@2@@__crt_stdio_output@@AAE_N_N@Z 10073130 f i libucrtd:output.obj
 0001:00072570       ??$type_case_integer_parse_into_buffer@I$07@?$output_processor@DV?$stream_output_adapter@D@__crt_stdio_output@@V?$format_validation_base@DV?$stream_output_adapter@D@__crt_stdio_output@@@2@@__crt_stdio_output@@AAEXI_N@Z 10073570 f i libucrtd:output.obj
 0001:00072680       ??$type_case_integer_parse_into_buffer@I$07@?$output_processor@DV?$stream_output_adapter@D@__crt_stdio_output@@V?$positional_parameter_base@DV?$stream_output_adapter@D@__crt_stdio_output@@@2@@__crt_stdio_output@@AAEXI_N@Z 10073680 f i libucrtd:output.obj
 0001:00072790       ??$type_case_integer_parse_into_buffer@I$07@?$output_processor@DV?$stream_output_adapter@D@__crt_stdio_output@@V?$standard_base@DV?$stream_output_adapter@D@__crt_stdio_output@@@2@@__crt_stdio_output@@AAEXI_N@Z 10073790 f i libucrtd:output.obj
 0001:000728a0       ??$type_case_integer_parse_into_buffer@I$07@?$output_processor@DV?$string_output_adapter@D@__crt_stdio_output@@V?$format_validation_base@DV?$string_output_adapter@D@__crt_stdio_output@@@2@@__crt_stdio_output@@AAEXI_N@Z 100738a0 f i libucrtd:output.obj
 0001:000729b0       ??$type_case_integer_parse_into_buffer@I$07@?$output_processor@DV?$string_output_adapter@D@__crt_stdio_output@@V?$positional_parameter_base@DV?$string_output_adapter@D@__crt_stdio_output@@@2@@__crt_stdio_output@@AAEXI_N@Z 100739b0 f i libucrtd:output.obj
 0001:00072ac0       ??$type_case_integer_parse_into_buffer@I$07@?$output_processor@DV?$string_output_adapter@D@__crt_stdio_output@@V?$standard_base@DV?$string_output_adapter@D@__crt_stdio_output@@@2@@__crt_stdio_output@@AAEXI_N@Z 10073ac0 f i libucrtd:output.obj
 0001:00072bd0       ??$type_case_integer_parse_into_buffer@I$07@?$output_processor@_WV?$stream_output_adapter@_W@__crt_stdio_output@@V?$format_validation_base@_WV?$stream_output_adapter@_W@__crt_stdio_output@@@2@@__crt_stdio_output@@AAEXI_N@Z 10073bd0 f i libucrtd:output.obj
 0001:00072ce0       ??$type_case_integer_parse_into_buffer@I$07@?$output_processor@_WV?$stream_output_adapter@_W@__crt_stdio_output@@V?$positional_parameter_base@_WV?$stream_output_adapter@_W@__crt_stdio_output@@@2@@__crt_stdio_output@@AAEXI_N@Z 10073ce0 f i libucrtd:output.obj
 0001:00072df0       ??$type_case_integer_parse_into_buffer@I$07@?$output_processor@_WV?$stream_output_adapter@_W@__crt_stdio_output@@V?$standard_base@_WV?$stream_output_adapter@_W@__crt_stdio_output@@@2@@__crt_stdio_output@@AAEXI_N@Z 10073df0 f i libucrtd:output.obj
 0001:00072f00       ??$type_case_integer_parse_into_buffer@I$07@?$output_processor@_WV?$string_output_adapter@_W@__crt_stdio_output@@V?$format_validation_base@_WV?$string_output_adapter@_W@__crt_stdio_output@@@2@@__crt_stdio_output@@AAEXI_N@Z 10073f00 f i libucrtd:output.obj
 0001:00073010       ??$type_case_integer_parse_into_buffer@I$07@?$output_processor@_WV?$string_output_adapter@_W@__crt_stdio_output@@V?$positional_parameter_base@_WV?$string_output_adapter@_W@__crt_stdio_output@@@2@@__crt_stdio_output@@AAEXI_N@Z 10074010 f i libucrtd:output.obj
 0001:00073120       ??$type_case_integer_parse_into_buffer@I$07@?$output_processor@_WV?$string_output_adapter@_W@__crt_stdio_output@@V?$standard_base@_WV?$string_output_adapter@_W@__crt_stdio_output@@@2@@__crt_stdio_output@@AAEXI_N@Z 10074120 f i libucrtd:output.obj
 0001:00073230       ??$type_case_integer_parse_into_buffer@I$09@?$output_processor@DV?$stream_output_adapter@D@__crt_stdio_output@@V?$format_validation_base@DV?$stream_output_adapter@D@__crt_stdio_output@@@2@@__crt_stdio_output@@AAEXI_N@Z 10074230 f i libucrtd:output.obj
 0001:00073340       ??$type_case_integer_parse_into_buffer@I$09@?$output_processor@DV?$stream_output_adapter@D@__crt_stdio_output@@V?$positional_parameter_base@DV?$stream_output_adapter@D@__crt_stdio_output@@@2@@__crt_stdio_output@@AAEXI_N@Z 10074340 f i libucrtd:output.obj
 0001:00073450       ??$type_case_integer_parse_into_buffer@I$09@?$output_processor@DV?$stream_output_adapter@D@__crt_stdio_output@@V?$standard_base@DV?$stream_output_adapter@D@__crt_stdio_output@@@2@@__crt_stdio_output@@AAEXI_N@Z 10074450 f i libucrtd:output.obj
 0001:00073560       ??$type_case_integer_parse_into_buffer@I$09@?$output_processor@DV?$string_output_adapter@D@__crt_stdio_output@@V?$format_validation_base@DV?$string_output_adapter@D@__crt_stdio_output@@@2@@__crt_stdio_output@@AAEXI_N@Z 10074560 f i libucrtd:output.obj
 0001:00073670       ??$type_case_integer_parse_into_buffer@I$09@?$output_processor@DV?$string_output_adapter@D@__crt_stdio_output@@V?$positional_parameter_base@DV?$string_output_adapter@D@__crt_stdio_output@@@2@@__crt_stdio_output@@AAEXI_N@Z 10074670 f i libucrtd:output.obj
 0001:00073780       ??$type_case_integer_parse_into_buffer@I$09@?$output_processor@DV?$string_output_adapter@D@__crt_stdio_output@@V?$standard_base@DV?$string_output_adapter@D@__crt_stdio_output@@@2@@__crt_stdio_output@@AAEXI_N@Z 10074780 f i libucrtd:output.obj
 0001:00073890       ??$type_case_integer_parse_into_buffer@I$09@?$output_processor@_WV?$stream_output_adapter@_W@__crt_stdio_output@@V?$format_validation_base@_WV?$stream_output_adapter@_W@__crt_stdio_output@@@2@@__crt_stdio_output@@AAEXI_N@Z 10074890 f i libucrtd:output.obj
 0001:000739b0       ??$type_case_integer_parse_into_buffer@I$09@?$output_processor@_WV?$stream_output_adapter@_W@__crt_stdio_output@@V?$positional_parameter_base@_WV?$stream_output_adapter@_W@__crt_stdio_output@@@2@@__crt_stdio_output@@AAEXI_N@Z 100749b0 f i libucrtd:output.obj
 0001:00073ad0       ??$type_case_integer_parse_into_buffer@I$09@?$output_processor@_WV?$stream_output_adapter@_W@__crt_stdio_output@@V?$standard_base@_WV?$stream_output_adapter@_W@__crt_stdio_output@@@2@@__crt_stdio_output@@AAEXI_N@Z 10074ad0 f i libucrtd:output.obj
 0001:00073bf0       ??$type_case_integer_parse_into_buffer@I$09@?$output_processor@_WV?$string_output_adapter@_W@__crt_stdio_output@@V?$format_validation_base@_WV?$string_output_adapter@_W@__crt_stdio_output@@@2@@__crt_stdio_output@@AAEXI_N@Z 10074bf0 f i libucrtd:output.obj
 0001:00073d10       ??$type_case_integer_parse_into_buffer@I$09@?$output_processor@_WV?$string_output_adapter@_W@__crt_stdio_output@@V?$positional_parameter_base@_WV?$string_output_adapter@_W@__crt_stdio_output@@@2@@__crt_stdio_output@@AAEXI_N@Z 10074d10 f i libucrtd:output.obj
 0001:00073e30       ??$type_case_integer_parse_into_buffer@I$09@?$output_processor@_WV?$string_output_adapter@_W@__crt_stdio_output@@V?$standard_base@_WV?$string_output_adapter@_W@__crt_stdio_output@@@2@@__crt_stdio_output@@AAEXI_N@Z 10074e30 f i libucrtd:output.obj
 0001:00073f50       ??$type_case_integer_parse_into_buffer@I$0BA@@?$output_processor@DV?$stream_output_adapter@D@__crt_stdio_output@@V?$format_validation_base@DV?$stream_output_adapter@D@__crt_stdio_output@@@2@@__crt_stdio_output@@AAEXI_N@Z 10074f50 f i libucrtd:output.obj
 0001:00074060       ??$type_case_integer_parse_into_buffer@I$0BA@@?$output_processor@DV?$stream_output_adapter@D@__crt_stdio_output@@V?$positional_parameter_base@DV?$stream_output_adapter@D@__crt_stdio_output@@@2@@__crt_stdio_output@@AAEXI_N@Z 10075060 f i libucrtd:output.obj
 0001:00074170       ??$type_case_integer_parse_into_buffer@I$0BA@@?$output_processor@DV?$stream_output_adapter@D@__crt_stdio_output@@V?$standard_base@DV?$stream_output_adapter@D@__crt_stdio_output@@@2@@__crt_stdio_output@@AAEXI_N@Z 10075170 f i libucrtd:output.obj
 0001:00074280       ??$type_case_integer_parse_into_buffer@I$0BA@@?$output_processor@DV?$string_output_adapter@D@__crt_stdio_output@@V?$format_validation_base@DV?$string_output_adapter@D@__crt_stdio_output@@@2@@__crt_stdio_output@@AAEXI_N@Z 10075280 f i libucrtd:output.obj
 0001:00074390       ??$type_case_integer_parse_into_buffer@I$0BA@@?$output_processor@DV?$string_output_adapter@D@__crt_stdio_output@@V?$positional_parameter_base@DV?$string_output_adapter@D@__crt_stdio_output@@@2@@__crt_stdio_output@@AAEXI_N@Z 10075390 f i libucrtd:output.obj
 0001:000744a0       ??$type_case_integer_parse_into_buffer@I$0BA@@?$output_processor@DV?$string_output_adapter@D@__crt_stdio_output@@V?$standard_base@DV?$string_output_adapter@D@__crt_stdio_output@@@2@@__crt_stdio_output@@AAEXI_N@Z 100754a0 f i libucrtd:output.obj
 0001:000745b0       ??$type_case_integer_parse_into_buffer@I$0BA@@?$output_processor@_WV?$stream_output_adapter@_W@__crt_stdio_output@@V?$format_validation_base@_WV?$stream_output_adapter@_W@__crt_stdio_output@@@2@@__crt_stdio_output@@AAEXI_N@Z 100755b0 f i libucrtd:output.obj
 0001:000746c0       ??$type_case_integer_parse_into_buffer@I$0BA@@?$output_processor@_WV?$stream_output_adapter@_W@__crt_stdio_output@@V?$positional_parameter_base@_WV?$stream_output_adapter@_W@__crt_stdio_output@@@2@@__crt_stdio_output@@AAEXI_N@Z 100756c0 f i libucrtd:output.obj
 0001:000747d0       ??$type_case_integer_parse_into_buffer@I$0BA@@?$output_processor@_WV?$stream_output_adapter@_W@__crt_stdio_output@@V?$standard_base@_WV?$stream_output_adapter@_W@__crt_stdio_output@@@2@@__crt_stdio_output@@AAEXI_N@Z 100757d0 f i libucrtd:output.obj
 0001:000748e0       ??$type_case_integer_parse_into_buffer@I$0BA@@?$output_processor@_WV?$string_output_adapter@_W@__crt_stdio_output@@V?$format_validation_base@_WV?$string_output_adapter@_W@__crt_stdio_output@@@2@@__crt_stdio_output@@AAEXI_N@Z 100758e0 f i libucrtd:output.obj
 0001:000749f0       ??$type_case_integer_parse_into_buffer@I$0BA@@?$output_processor@_WV?$string_output_adapter@_W@__crt_stdio_output@@V?$positional_parameter_base@_WV?$string_output_adapter@_W@__crt_stdio_output@@@2@@__crt_stdio_output@@AAEXI_N@Z 100759f0 f i libucrtd:output.obj
 0001:00074b00       ??$type_case_integer_parse_into_buffer@I$0BA@@?$output_processor@_WV?$string_output_adapter@_W@__crt_stdio_output@@V?$standard_base@_WV?$string_output_adapter@_W@__crt_stdio_output@@@2@@__crt_stdio_output@@AAEXI_N@Z 10075b00 f i libucrtd:output.obj
 0001:00074c10       ??$type_case_integer_parse_into_buffer@_K$07@?$output_processor@DV?$stream_output_adapter@D@__crt_stdio_output@@V?$format_validation_base@DV?$stream_output_adapter@D@__crt_stdio_output@@@2@@__crt_stdio_output@@AAEX_K_N@Z 10075c10 f i libucrtd:output.obj
 0001:00074d40       ??$type_case_integer_parse_into_buffer@_K$07@?$output_processor@DV?$stream_output_adapter@D@__crt_stdio_output@@V?$positional_parameter_base@DV?$stream_output_adapter@D@__crt_stdio_output@@@2@@__crt_stdio_output@@AAEX_K_N@Z 10075d40 f i libucrtd:output.obj
 0001:00074e70       ??$type_case_integer_parse_into_buffer@_K$07@?$output_processor@DV?$stream_output_adapter@D@__crt_stdio_output@@V?$standard_base@DV?$stream_output_adapter@D@__crt_stdio_output@@@2@@__crt_stdio_output@@AAEX_K_N@Z 10075e70 f i libucrtd:output.obj
 0001:00074fa0       ??$type_case_integer_parse_into_buffer@_K$07@?$output_processor@DV?$string_output_adapter@D@__crt_stdio_output@@V?$format_validation_base@DV?$string_output_adapter@D@__crt_stdio_output@@@2@@__crt_stdio_output@@AAEX_K_N@Z 10075fa0 f i libucrtd:output.obj
 0001:000750d0       ??$type_case_integer_parse_into_buffer@_K$07@?$output_processor@DV?$string_output_adapter@D@__crt_stdio_output@@V?$positional_parameter_base@DV?$string_output_adapter@D@__crt_stdio_output@@@2@@__crt_stdio_output@@AAEX_K_N@Z 100760d0 f i libucrtd:output.obj
 0001:00075200       ??$type_case_integer_parse_into_buffer@_K$07@?$output_processor@DV?$string_output_adapter@D@__crt_stdio_output@@V?$standard_base@DV?$string_output_adapter@D@__crt_stdio_output@@@2@@__crt_stdio_output@@AAEX_K_N@Z 10076200 f i libucrtd:output.obj
 0001:00075330       ??$type_case_integer_parse_into_buffer@_K$07@?$output_processor@_WV?$stream_output_adapter@_W@__crt_stdio_output@@V?$format_validation_base@_WV?$stream_output_adapter@_W@__crt_stdio_output@@@2@@__crt_stdio_output@@AAEX_K_N@Z 10076330 f i libucrtd:output.obj
 0001:00075460       ??$type_case_integer_parse_into_buffer@_K$07@?$output_processor@_WV?$stream_output_adapter@_W@__crt_stdio_output@@V?$positional_parameter_base@_WV?$stream_output_adapter@_W@__crt_stdio_output@@@2@@__crt_stdio_output@@AAEX_K_N@Z 10076460 f i libucrtd:output.obj
 0001:00075590       ??$type_case_integer_parse_into_buffer@_K$07@?$output_processor@_WV?$stream_output_adapter@_W@__crt_stdio_output@@V?$standard_base@_WV?$stream_output_adapter@_W@__crt_stdio_output@@@2@@__crt_stdio_output@@AAEX_K_N@Z 10076590 f i libucrtd:output.obj
 0001:000756c0       ??$type_case_integer_parse_into_buffer@_K$07@?$output_processor@_WV?$string_output_adapter@_W@__crt_stdio_output@@V?$format_validation_base@_WV?$string_output_adapter@_W@__crt_stdio_output@@@2@@__crt_stdio_output@@AAEX_K_N@Z 100766c0 f i libucrtd:output.obj
 0001:000757f0       ??$type_case_integer_parse_into_buffer@_K$07@?$output_processor@_WV?$string_output_adapter@_W@__crt_stdio_output@@V?$positional_parameter_base@_WV?$string_output_adapter@_W@__crt_stdio_output@@@2@@__crt_stdio_output@@AAEX_K_N@Z 100767f0 f i libucrtd:output.obj
 0001:00075920       ??$type_case_integer_parse_into_buffer@_K$07@?$output_processor@_WV?$string_output_adapter@_W@__crt_stdio_output@@V?$standard_base@_WV?$string_output_adapter@_W@__crt_stdio_output@@@2@@__crt_stdio_output@@AAEX_K_N@Z 10076920 f i libucrtd:output.obj
 0001:00075a50       ??$type_case_integer_parse_into_buffer@_K$09@?$output_processor@DV?$stream_output_adapter@D@__crt_stdio_output@@V?$format_validation_base@DV?$stream_output_adapter@D@__crt_stdio_output@@@2@@__crt_stdio_output@@AAEX_K_N@Z 10076a50 f i libucrtd:output.obj
 0001:00075b80       ??$type_case_integer_parse_into_buffer@_K$09@?$output_processor@DV?$stream_output_adapter@D@__crt_stdio_output@@V?$positional_parameter_base@DV?$stream_output_adapter@D@__crt_stdio_output@@@2@@__crt_stdio_output@@AAEX_K_N@Z 10076b80 f i libucrtd:output.obj
 0001:00075cb0       ??$type_case_integer_parse_into_buffer@_K$09@?$output_processor@DV?$stream_output_adapter@D@__crt_stdio_output@@V?$standard_base@DV?$stream_output_adapter@D@__crt_stdio_output@@@2@@__crt_stdio_output@@AAEX_K_N@Z 10076cb0 f i libucrtd:output.obj
 0001:00075de0       ??$type_case_integer_parse_into_buffer@_K$09@?$output_processor@DV?$string_output_adapter@D@__crt_stdio_output@@V?$format_validation_base@DV?$string_output_adapter@D@__crt_stdio_output@@@2@@__crt_stdio_output@@AAEX_K_N@Z 10076de0 f i libucrtd:output.obj
 0001:00075f10       ??$type_case_integer_parse_into_buffer@_K$09@?$output_processor@DV?$string_output_adapter@D@__crt_stdio_output@@V?$positional_parameter_base@DV?$string_output_adapter@D@__crt_stdio_output@@@2@@__crt_stdio_output@@AAEX_K_N@Z 10076f10 f i libucrtd:output.obj
 0001:00076040       ??$type_case_integer_parse_into_buffer@_K$09@?$output_processor@DV?$string_output_adapter@D@__crt_stdio_output@@V?$standard_base@DV?$string_output_adapter@D@__crt_stdio_output@@@2@@__crt_stdio_output@@AAEX_K_N@Z 10077040 f i libucrtd:output.obj
 0001:00076170       ??$type_case_integer_parse_into_buffer@_K$09@?$output_processor@_WV?$stream_output_adapter@_W@__crt_stdio_output@@V?$format_validation_base@_WV?$stream_output_adapter@_W@__crt_stdio_output@@@2@@__crt_stdio_output@@AAEX_K_N@Z 10077170 f i libucrtd:output.obj
 0001:000762a0       ??$type_case_integer_parse_into_buffer@_K$09@?$output_processor@_WV?$stream_output_adapter@_W@__crt_stdio_output@@V?$positional_parameter_base@_WV?$stream_output_adapter@_W@__crt_stdio_output@@@2@@__crt_stdio_output@@AAEX_K_N@Z 100772a0 f i libucrtd:output.obj
 0001:000763d0       ??$type_case_integer_parse_into_buffer@_K$09@?$output_processor@_WV?$stream_output_adapter@_W@__crt_stdio_output@@V?$standard_base@_WV?$stream_output_adapter@_W@__crt_stdio_output@@@2@@__crt_stdio_output@@AAEX_K_N@Z 100773d0 f i libucrtd:output.obj
 0001:00076500       ??$type_case_integer_parse_into_buffer@_K$09@?$output_processor@_WV?$string_output_adapter@_W@__crt_stdio_output@@V?$format_validation_base@_WV?$string_output_adapter@_W@__crt_stdio_output@@@2@@__crt_stdio_output@@AAEX_K_N@Z 10077500 f i libucrtd:output.obj
 0001:00076630       ??$type_case_integer_parse_into_buffer@_K$09@?$output_processor@_WV?$string_output_adapter@_W@__crt_stdio_output@@V?$positional_parameter_base@_WV?$string_output_adapter@_W@__crt_stdio_output@@@2@@__crt_stdio_output@@AAEX_K_N@Z 10077630 f i libucrtd:output.obj
 0001:00076760       ??$type_case_integer_parse_into_buffer@_K$09@?$output_processor@_WV?$string_output_adapter@_W@__crt_stdio_output@@V?$standard_base@_WV?$string_output_adapter@_W@__crt_stdio_output@@@2@@__crt_stdio_output@@AAEX_K_N@Z 10077760 f i libucrtd:output.obj
 0001:00076890       ??$type_case_integer_parse_into_buffer@_K$0BA@@?$output_processor@DV?$stream_output_adapter@D@__crt_stdio_output@@V?$format_validation_base@DV?$stream_output_adapter@D@__crt_stdio_output@@@2@@__crt_stdio_output@@AAEX_K_N@Z 10077890 f i libucrtd:output.obj
 0001:000769c0       ??$type_case_integer_parse_into_buffer@_K$0BA@@?$output_processor@DV?$stream_output_adapter@D@__crt_stdio_output@@V?$positional_parameter_base@DV?$stream_output_adapter@D@__crt_stdio_output@@@2@@__crt_stdio_output@@AAEX_K_N@Z 100779c0 f i libucrtd:output.obj
 0001:00076af0       ??$type_case_integer_parse_into_buffer@_K$0BA@@?$output_processor@DV?$stream_output_adapter@D@__crt_stdio_output@@V?$standard_base@DV?$stream_output_adapter@D@__crt_stdio_output@@@2@@__crt_stdio_output@@AAEX_K_N@Z 10077af0 f i libucrtd:output.obj
 0001:00076c20       ??$type_case_integer_parse_into_buffer@_K$0BA@@?$output_processor@DV?$string_output_adapter@D@__crt_stdio_output@@V?$format_validation_base@DV?$string_output_adapter@D@__crt_stdio_output@@@2@@__crt_stdio_output@@AAEX_K_N@Z 10077c20 f i libucrtd:output.obj
 0001:00076d50       ??$type_case_integer_parse_into_buffer@_K$0BA@@?$output_processor@DV?$string_output_adapter@D@__crt_stdio_output@@V?$positional_parameter_base@DV?$string_output_adapter@D@__crt_stdio_output@@@2@@__crt_stdio_output@@AAEX_K_N@Z 10077d50 f i libucrtd:output.obj
 0001:00076e80       ??$type_case_integer_parse_into_buffer@_K$0BA@@?$output_processor@DV?$string_output_adapter@D@__crt_stdio_output@@V?$standard_base@DV?$string_output_adapter@D@__crt_stdio_output@@@2@@__crt_stdio_output@@AAEX_K_N@Z 10077e80 f i libucrtd:output.obj
 0001:00076fb0       ??$type_case_integer_parse_into_buffer@_K$0BA@@?$output_processor@_WV?$stream_output_adapter@_W@__crt_stdio_output@@V?$format_validation_base@_WV?$stream_output_adapter@_W@__crt_stdio_output@@@2@@__crt_stdio_output@@AAEX_K_N@Z 10077fb0 f i libucrtd:output.obj
 0001:000770e0       ??$type_case_integer_parse_into_buffer@_K$0BA@@?$output_processor@_WV?$stream_output_adapter@_W@__crt_stdio_output@@V?$positional_parameter_base@_WV?$stream_output_adapter@_W@__crt_stdio_output@@@2@@__crt_stdio_output@@AAEX_K_N@Z 100780e0 f i libucrtd:output.obj
 0001:00077210       ??$type_case_integer_parse_into_buffer@_K$0BA@@?$output_processor@_WV?$stream_output_adapter@_W@__crt_stdio_output@@V?$standard_base@_WV?$stream_output_adapter@_W@__crt_stdio_output@@@2@@__crt_stdio_output@@AAEX_K_N@Z 10078210 f i libucrtd:output.obj
 0001:00077340       ??$type_case_integer_parse_into_buffer@_K$0BA@@?$output_processor@_WV?$string_output_adapter@_W@__crt_stdio_output@@V?$format_validation_base@_WV?$string_output_adapter@_W@__crt_stdio_output@@@2@@__crt_stdio_output@@AAEX_K_N@Z 10078340 f i libucrtd:output.obj
 0001:00077470       ??$type_case_integer_parse_into_buffer@_K$0BA@@?$output_processor@_WV?$string_output_adapter@_W@__crt_stdio_output@@V?$positional_parameter_base@_WV?$string_output_adapter@_W@__crt_stdio_output@@@2@@__crt_stdio_output@@AAEX_K_N@Z 10078470 f i libucrtd:output.obj
 0001:000775a0       ??$type_case_integer_parse_into_buffer@_K$0BA@@?$output_processor@_WV?$string_output_adapter@_W@__crt_stdio_output@@V?$standard_base@_WV?$string_output_adapter@_W@__crt_stdio_output@@@2@@__crt_stdio_output@@AAEX_K_N@Z 100785a0 f i libucrtd:output.obj
 0001:000776d0       ??$write_multiple_characters@V?$stream_output_adapter@D@__crt_stdio_output@@D@__crt_stdio_output@@YAXABV?$stream_output_adapter@D@0@DHQAHAAV__crt_cached_ptd_host@@@Z 100786d0 f i libucrtd:output.obj
 0001:00077730       ??$write_multiple_characters@V?$stream_output_adapter@_W@__crt_stdio_output@@D@__crt_stdio_output@@YAXABV?$stream_output_adapter@_W@0@DHQAHAAV__crt_cached_ptd_host@@@Z 10078730 f i libucrtd:output.obj
 0001:00077790       ??$write_multiple_characters@V?$string_output_adapter@D@__crt_stdio_output@@D@__crt_stdio_output@@YAXABV?$string_output_adapter@D@0@DHQAHAAV__crt_cached_ptd_host@@@Z 10078790 f i libucrtd:output.obj
 0001:000777f0       ??$write_multiple_characters@V?$string_output_adapter@_W@__crt_stdio_output@@D@__crt_stdio_output@@YAXABV?$string_output_adapter@_W@0@DHQAHAAV__crt_cached_ptd_host@@@Z 100787f0 f i libucrtd:output.obj
 0001:00077c70       ??0?$c_string_character_source@D@__crt_strtox@@QAE@QBDQAPBD@Z 10078c70 f i libucrtd:output.obj
 0001:00077cb0       ??0?$c_string_character_source@_W@__crt_strtox@@QAE@QB_WQAPB_W@Z 10078cb0 f i libucrtd:output.obj
 0001:00077cf0       ??0?$common_data@D@__crt_stdio_output@@IAE@AAV__crt_cached_ptd_host@@@Z 10078cf0 f i libucrtd:output.obj
 0001:00077db0       ??0?$common_data@_W@__crt_stdio_output@@IAE@AAV__crt_cached_ptd_host@@@Z 10078db0 f i libucrtd:output.obj
 0001:00077e70       ??0?$output_adapter_data@DV?$stream_output_adapter@D@__crt_stdio_output@@@__crt_stdio_output@@IAE@ABV?$stream_output_adapter@D@1@_KQBDAAV__crt_cached_ptd_host@@QAD@Z 10078e70 f i libucrtd:output.obj
 0001:00077f10       ??0?$output_adapter_data@DV?$string_output_adapter@D@__crt_stdio_output@@@__crt_stdio_output@@IAE@ABV?$string_output_adapter@D@1@_KQBDAAV__crt_cached_ptd_host@@QAD@Z 10078f10 f i libucrtd:output.obj
 0001:00077fb0       ??0?$output_adapter_data@_WV?$stream_output_adapter@_W@__crt_stdio_output@@@__crt_stdio_output@@IAE@ABV?$stream_output_adapter@_W@1@_KQB_WAAV__crt_cached_ptd_host@@QAD@Z 10078fb0 f i libucrtd:output.obj
 0001:00078050       ??0?$output_adapter_data@_WV?$string_output_adapter@_W@__crt_stdio_output@@@__crt_stdio_output@@IAE@ABV?$string_output_adapter@_W@1@_KQB_WAAV__crt_cached_ptd_host@@QAD@Z 10079050 f i libucrtd:output.obj
 0001:000780f0       ??0?$output_processor@DV?$stream_output_adapter@D@__crt_stdio_output@@V?$format_validation_base@DV?$stream_output_adapter@D@__crt_stdio_output@@@2@@__crt_stdio_output@@QAE@ABV?$stream_output_adapter@D@1@_KQBDAAV__crt_cached_ptd_host@@QAD@Z 100790f0 f i libucrtd:output.obj
 0001:00078130       ??0?$output_processor@DV?$stream_output_adapter@D@__crt_stdio_output@@V?$positional_parameter_base@DV?$stream_output_adapter@D@__crt_stdio_output@@@2@@__crt_stdio_output@@QAE@ABV?$stream_output_adapter@D@1@_KQBDAAV__crt_cached_ptd_host@@QAD@Z 10079130 f i libucrtd:output.obj
 0001:00078170       ??0?$output_processor@DV?$stream_output_adapter@D@__crt_stdio_output@@V?$standard_base@DV?$stream_output_adapter@D@__crt_stdio_output@@@2@@__crt_stdio_output@@QAE@ABV?$stream_output_adapter@D@1@_KQBDAAV__crt_cached_ptd_host@@QAD@Z 10079170 f i libucrtd:output.obj
 0001:000781b0       ??0?$output_processor@DV?$string_output_adapter@D@__crt_stdio_output@@V?$format_validation_base@DV?$string_output_adapter@D@__crt_stdio_output@@@2@@__crt_stdio_output@@QAE@ABV?$string_output_adapter@D@1@_KQBDAAV__crt_cached_ptd_host@@QAD@Z 100791b0 f i libucrtd:output.obj
 0001:000781f0       ??0?$output_processor@DV?$string_output_adapter@D@__crt_stdio_output@@V?$positional_parameter_base@DV?$string_output_adapter@D@__crt_stdio_output@@@2@@__crt_stdio_output@@QAE@ABV?$string_output_adapter@D@1@_KQBDAAV__crt_cached_ptd_host@@QAD@Z 100791f0 f i libucrtd:output.obj
 0001:00078230       ??0?$output_processor@DV?$string_output_adapter@D@__crt_stdio_output@@V?$standard_base@DV?$string_output_adapter@D@__crt_stdio_output@@@2@@__crt_stdio_output@@QAE@ABV?$string_output_adapter@D@1@_KQBDAAV__crt_cached_ptd_host@@QAD@Z 10079230 f i libucrtd:output.obj
 0001:00078270       ??0?$output_processor@_WV?$stream_output_adapter@_W@__crt_stdio_output@@V?$format_validation_base@_WV?$stream_output_adapter@_W@__crt_stdio_output@@@2@@__crt_stdio_output@@QAE@ABV?$stream_output_adapter@_W@1@_KQB_WAAV__crt_cached_ptd_host@@QAD@Z 10079270 f i libucrtd:output.obj
 0001:000782b0       ??0?$output_processor@_WV?$stream_output_adapter@_W@__crt_stdio_output@@V?$positional_parameter_base@_WV?$stream_output_adapter@_W@__crt_stdio_output@@@2@@__crt_stdio_output@@QAE@ABV?$stream_output_adapter@_W@1@_KQB_WAAV__crt_cached_ptd_host@@QAD@Z 100792b0 f i libucrtd:output.obj
 0001:000782f0       ??0?$output_processor@_WV?$stream_output_adapter@_W@__crt_stdio_output@@V?$standard_base@_WV?$stream_output_adapter@_W@__crt_stdio_output@@@2@@__crt_stdio_output@@QAE@ABV?$stream_output_adapter@_W@1@_KQB_WAAV__crt_cached_ptd_host@@QAD@Z 100792f0 f i libucrtd:output.obj
 0001:00078330       ??0?$output_processor@_WV?$string_output_adapter@_W@__crt_stdio_output@@V?$format_validation_base@_WV?$string_output_adapter@_W@__crt_stdio_output@@@2@@__crt_stdio_output@@QAE@ABV?$string_output_adapter@_W@1@_KQB_WAAV__crt_cached_ptd_host@@QAD@Z 10079330 f i libucrtd:output.obj
 0001:00078370       ??0?$output_processor@_WV?$string_output_adapter@_W@__crt_stdio_output@@V?$positional_parameter_base@_WV?$string_output_adapter@_W@__crt_stdio_output@@@2@@__crt_stdio_output@@QAE@ABV?$string_output_adapter@_W@1@_KQB_WAAV__crt_cached_ptd_host@@QAD@Z 10079370 f i libucrtd:output.obj
 0001:000783b0       ??0?$output_processor@_WV?$string_output_adapter@_W@__crt_stdio_output@@V?$standard_base@_WV?$string_output_adapter@_W@__crt_stdio_output@@@2@@__crt_stdio_output@@QAE@ABV?$string_output_adapter@_W@1@_KQB_WAAV__crt_cached_ptd_host@@QAD@Z 100793b0 f i libucrtd:output.obj
 0001:000783f0       ??0?$stream_output_adapter@D@__crt_stdio_output@@QAE@QAU_iobuf@@@Z 100793f0 f i libucrtd:output.obj
 0001:00078420       ??0?$stream_output_adapter@_W@__crt_stdio_output@@QAE@QAU_iobuf@@@Z 10079420 f i libucrtd:output.obj
 0001:00078450       ??0?$string_output_adapter@D@__crt_stdio_output@@QAE@QAU?$string_output_adapter_context@D@1@@Z 10079450 f i libucrtd:output.obj
 0001:00078470       ??0?$string_output_adapter@_W@__crt_stdio_output@@QAE@QAU?$string_output_adapter_context@_W@1@@Z 10079470 f i libucrtd:output.obj
 0001:00078490       ??0__acrt_stdio_temporary_buffering_guard@@QAE@QAU_iobuf@@AAV__crt_cached_ptd_host@@@Z 10079490 f i libucrtd:output.obj
 0001:000784e0       ??0__crt_stdio_stream@@QAE@QAU_iobuf@@@Z 100794e0 f i libucrtd:output.obj
 0001:00078500       ??0formatting_buffer@__crt_stdio_output@@QAE@XZ 10079500 f i libucrtd:output.obj
 0001:00078550       ??0guard@?$cached@H@__crt_cached_ptd_host@@QAE@AAU12@@Z 10079550 f i libucrtd:output.obj
 0001:00078590       ??1?$c_string_character_source@D@__crt_strtox@@QAE@XZ 10079590 f i libucrtd:output.obj
 0001:000785c0       ??1?$c_string_character_source@_W@__crt_strtox@@QAE@XZ 100795c0 f i libucrtd:output.obj
 0001:000785f0       ??1?$common_data@D@__crt_stdio_output@@QAE@XZ 100795f0 f i libucrtd:output.obj
 0001:00078610       ??1?$common_data@_W@__crt_stdio_output@@QAE@XZ 10079610 f i libucrtd:output.obj
 0001:00078630       ??1?$format_validation_base@DV?$stream_output_adapter@D@__crt_stdio_output@@@__crt_stdio_output@@QAE@XZ 10079630 f i libucrtd:output.obj
 0001:00078650       ??1?$format_validation_base@DV?$string_output_adapter@D@__crt_stdio_output@@@__crt_stdio_output@@QAE@XZ 10079650 f i libucrtd:output.obj
 0001:00078670       ??1?$format_validation_base@_WV?$stream_output_adapter@_W@__crt_stdio_output@@@__crt_stdio_output@@QAE@XZ 10079670 f i libucrtd:output.obj
 0001:00078690       ??1?$format_validation_base@_WV?$string_output_adapter@_W@__crt_stdio_output@@@__crt_stdio_output@@QAE@XZ 10079690 f i libucrtd:output.obj
 0001:000786b0       ??1?$output_adapter_data@DV?$stream_output_adapter@D@__crt_stdio_output@@@__crt_stdio_output@@QAE@XZ 100796b0 f i libucrtd:output.obj
 0001:000786d0       ??1?$output_adapter_data@DV?$string_output_adapter@D@__crt_stdio_output@@@__crt_stdio_output@@QAE@XZ 100796d0 f i libucrtd:output.obj
 0001:000786f0       ??1?$output_adapter_data@_WV?$stream_output_adapter@_W@__crt_stdio_output@@@__crt_stdio_output@@QAE@XZ 100796f0 f i libucrtd:output.obj
 0001:00078710       ??1?$output_adapter_data@_WV?$string_output_adapter@_W@__crt_stdio_output@@@__crt_stdio_output@@QAE@XZ 10079710 f i libucrtd:output.obj
 0001:00078730       ??1?$output_processor@DV?$stream_output_adapter@D@__crt_stdio_output@@V?$format_validation_base@DV?$stream_output_adapter@D@__crt_stdio_output@@@2@@__crt_stdio_output@@QAE@XZ 10079730 f i libucrtd:output.obj
 0001:00078750       ??1?$output_processor@DV?$stream_output_adapter@D@__crt_stdio_output@@V?$positional_parameter_base@DV?$stream_output_adapter@D@__crt_stdio_output@@@2@@__crt_stdio_output@@QAE@XZ 10079750 f i libucrtd:output.obj
 0001:00078770       ??1?$output_processor@DV?$stream_output_adapter@D@__crt_stdio_output@@V?$standard_base@DV?$stream_output_adapter@D@__crt_stdio_output@@@2@@__crt_stdio_output@@QAE@XZ 10079770 f i libucrtd:output.obj
 0001:00078790       ??1?$output_processor@DV?$string_output_adapter@D@__crt_stdio_output@@V?$format_validation_base@DV?$string_output_adapter@D@__crt_stdio_output@@@2@@__crt_stdio_output@@QAE@XZ 10079790 f i libucrtd:output.obj
 0001:000787b0       ??1?$output_processor@DV?$string_output_adapter@D@__crt_stdio_output@@V?$positional_parameter_base@DV?$string_output_adapter@D@__crt_stdio_output@@@2@@__crt_stdio_output@@QAE@XZ 100797b0 f i libucrtd:output.obj
 0001:000787d0       ??1?$output_processor@DV?$string_output_adapter@D@__crt_stdio_output@@V?$standard_base@DV?$string_output_adapter@D@__crt_stdio_output@@@2@@__crt_stdio_output@@QAE@XZ 100797d0 f i libucrtd:output.obj
 0001:000787f0       ??1?$output_processor@_WV?$stream_output_adapter@_W@__crt_stdio_output@@V?$format_validation_base@_WV?$stream_output_adapter@_W@__crt_stdio_output@@@2@@__crt_stdio_output@@QAE@XZ 100797f0 f i libucrtd:output.obj
 0001:00078810       ??1?$output_processor@_WV?$stream_output_adapter@_W@__crt_stdio_output@@V?$positional_parameter_base@_WV?$stream_output_adapter@_W@__crt_stdio_output@@@2@@__crt_stdio_output@@QAE@XZ 10079810 f i libucrtd:output.obj
 0001:00078830       ??1?$output_processor@_WV?$stream_output_adapter@_W@__crt_stdio_output@@V?$standard_base@_WV?$stream_output_adapter@_W@__crt_stdio_output@@@2@@__crt_stdio_output@@QAE@XZ 10079830 f i libucrtd:output.obj
 0001:00078850       ??1?$output_processor@_WV?$string_output_adapter@_W@__crt_stdio_output@@V?$format_validation_base@_WV?$string_output_adapter@_W@__crt_stdio_output@@@2@@__crt_stdio_output@@QAE@XZ 10079850 f i libucrtd:output.obj
 0001:00078870       ??1?$output_processor@_WV?$string_output_adapter@_W@__crt_stdio_output@@V?$positional_parameter_base@_WV?$string_output_adapter@_W@__crt_stdio_output@@@2@@__crt_stdio_output@@QAE@XZ 10079870 f i libucrtd:output.obj
 0001:00078890       ??1?$output_processor@_WV?$string_output_adapter@_W@__crt_stdio_output@@V?$standard_base@_WV?$string_output_adapter@_W@__crt_stdio_output@@@2@@__crt_stdio_output@@QAE@XZ 10079890 f i libucrtd:output.obj
 0001:000788b0       ??1?$positional_parameter_base@DV?$stream_output_adapter@D@__crt_stdio_output@@@__crt_stdio_output@@QAE@XZ 100798b0 f i libucrtd:output.obj
 0001:000788d0       ??1?$positional_parameter_base@DV?$string_output_adapter@D@__crt_stdio_output@@@__crt_stdio_output@@QAE@XZ 100798d0 f i libucrtd:output.obj
 0001:000788f0       ??1?$positional_parameter_base@_WV?$stream_output_adapter@_W@__crt_stdio_output@@@__crt_stdio_output@@QAE@XZ 100798f0 f i libucrtd:output.obj
 0001:00078910       ??1?$positional_parameter_base@_WV?$string_output_adapter@_W@__crt_stdio_output@@@__crt_stdio_output@@QAE@XZ 10079910 f i libucrtd:output.obj
 0001:00078930       ??1?$standard_base@DV?$stream_output_adapter@D@__crt_stdio_output@@@__crt_stdio_output@@QAE@XZ 10079930 f i libucrtd:output.obj
 0001:00078950       ??1?$standard_base@DV?$string_output_adapter@D@__crt_stdio_output@@@__crt_stdio_output@@QAE@XZ 10079950 f i libucrtd:output.obj
 0001:00078970       ??1?$standard_base@_WV?$stream_output_adapter@_W@__crt_stdio_output@@@__crt_stdio_output@@QAE@XZ 10079970 f i libucrtd:output.obj
 0001:00078990       ??1?$standard_base@_WV?$string_output_adapter@_W@__crt_stdio_output@@@__crt_stdio_output@@QAE@XZ 10079990 f i libucrtd:output.obj
 0001:000789b0       ??1__acrt_stdio_temporary_buffering_guard@@QAE@XZ 100799b0 f i libucrtd:output.obj
 0001:000789f0       ??1formatting_buffer@__crt_stdio_output@@QAE@XZ 100799f0 f i libucrtd:output.obj
 0001:00078a20       ??1guard@?$cached@H@__crt_cached_ptd_host@@QAE@XZ 10079a20 f i libucrtd:output.obj
 0001:00078a60       ??4?$__crt_unique_heap_ptr@DU__crt_internal_free_policy@@@@QAEAAV0@$$QAV0@@Z 10079a60 f i libucrtd:output.obj
 0001:00078aa0       ??A?$spectre_mitigated_lookup_table@Ustate_transition_pair@__crt_stdio_output@@$0IA@@__crt_stdio_output@@QBEABUstate_transition_pair@1@I@Z 10079aa0 f i libucrtd:output.obj
 0001:00078ad0       ??C__crt_stdio_stream@@QBEPAU__crt_stdio_stream_data@@XZ 10079ad0 f i libucrtd:output.obj
 0001:00079570       ?adjust_hexit@?$output_processor@DV?$stream_output_adapter@D@__crt_stdio_output@@V?$format_validation_base@DV?$stream_output_adapter@D@__crt_stdio_output@@@2@@__crt_stdio_output@@CADH_N@Z 1007a570 f i libucrtd:output.obj
 0001:000795c0       ?adjust_hexit@?$output_processor@DV?$stream_output_adapter@D@__crt_stdio_output@@V?$positional_parameter_base@DV?$stream_output_adapter@D@__crt_stdio_output@@@2@@__crt_stdio_output@@CADH_N@Z 1007a5c0 f i libucrtd:output.obj
 0001:00079610       ?adjust_hexit@?$output_processor@DV?$stream_output_adapter@D@__crt_stdio_output@@V?$standard_base@DV?$stream_output_adapter@D@__crt_stdio_output@@@2@@__crt_stdio_output@@CADH_N@Z 1007a610 f i libucrtd:output.obj
 0001:00079660       ?adjust_hexit@?$output_processor@DV?$string_output_adapter@D@__crt_stdio_output@@V?$format_validation_base@DV?$string_output_adapter@D@__crt_stdio_output@@@2@@__crt_stdio_output@@CADH_N@Z 1007a660 f i libucrtd:output.obj
 0001:000796b0       ?adjust_hexit@?$output_processor@DV?$string_output_adapter@D@__crt_stdio_output@@V?$positional_parameter_base@DV?$string_output_adapter@D@__crt_stdio_output@@@2@@__crt_stdio_output@@CADH_N@Z 1007a6b0 f i libucrtd:output.obj
 0001:00079700       ?adjust_hexit@?$output_processor@DV?$string_output_adapter@D@__crt_stdio_output@@V?$standard_base@DV?$string_output_adapter@D@__crt_stdio_output@@@2@@__crt_stdio_output@@CADH_N@Z 1007a700 f i libucrtd:output.obj
 0001:00079750       ?adjust_hexit@?$output_processor@_WV?$stream_output_adapter@_W@__crt_stdio_output@@V?$format_validation_base@_WV?$stream_output_adapter@_W@__crt_stdio_output@@@2@@__crt_stdio_output@@CADH_N@Z 1007a750 f i libucrtd:output.obj
 0001:000797a0       ?adjust_hexit@?$output_processor@_WV?$stream_output_adapter@_W@__crt_stdio_output@@V?$positional_parameter_base@_WV?$stream_output_adapter@_W@__crt_stdio_output@@@2@@__crt_stdio_output@@CADH_N@Z 1007a7a0 f i libucrtd:output.obj
 0001:000797f0       ?adjust_hexit@?$output_processor@_WV?$stream_output_adapter@_W@__crt_stdio_output@@V?$standard_base@_WV?$stream_output_adapter@_W@__crt_stdio_output@@@2@@__crt_stdio_output@@CADH_N@Z 1007a7f0 f i libucrtd:output.obj
 0001:00079840       ?adjust_hexit@?$output_processor@_WV?$string_output_adapter@_W@__crt_stdio_output@@V?$format_validation_base@_WV?$string_output_adapter@_W@__crt_stdio_output@@@2@@__crt_stdio_output@@CADH_N@Z 1007a840 f i libucrtd:output.obj
 0001:00079890       ?adjust_hexit@?$output_processor@_WV?$string_output_adapter@_W@__crt_stdio_output@@V?$positional_parameter_base@_WV?$string_output_adapter@_W@__crt_stdio_output@@@2@@__crt_stdio_output@@CADH_N@Z 1007a890 f i libucrtd:output.obj
 0001:000798e0       ?adjust_hexit@?$output_processor@_WV?$string_output_adapter@_W@__crt_stdio_output@@V?$standard_base@_WV?$string_output_adapter@_W@__crt_stdio_output@@@2@@__crt_stdio_output@@CADH_N@Z 1007a8e0 f i libucrtd:output.obj
 0001:00079930       ?advance_to_next_pass@?$positional_parameter_base@DV?$stream_output_adapter@D@__crt_stdio_output@@@__crt_stdio_output@@IAE_NXZ 1007a930 f i libucrtd:output.obj
 0001:000799f0       ?advance_to_next_pass@?$positional_parameter_base@DV?$string_output_adapter@D@__crt_stdio_output@@@__crt_stdio_output@@IAE_NXZ 1007a9f0 f i libucrtd:output.obj
 0001:00079ab0       ?advance_to_next_pass@?$positional_parameter_base@_WV?$stream_output_adapter@_W@__crt_stdio_output@@@__crt_stdio_output@@IAE_NXZ 1007aab0 f i libucrtd:output.obj
 0001:00079b70       ?advance_to_next_pass@?$positional_parameter_base@_WV?$string_output_adapter@_W@__crt_stdio_output@@@__crt_stdio_output@@IAE_NXZ 1007ab70 f i libucrtd:output.obj
 0001:00079c30       ?advance_to_next_pass@?$standard_base@DV?$stream_output_adapter@D@__crt_stdio_output@@@__crt_stdio_output@@IAE_NXZ 1007ac30 f i libucrtd:output.obj
 0001:00079c90       ?advance_to_next_pass@?$standard_base@DV?$string_output_adapter@D@__crt_stdio_output@@@__crt_stdio_output@@IAE_NXZ 1007ac90 f i libucrtd:output.obj
 0001:00079cf0       ?advance_to_next_pass@?$standard_base@_WV?$stream_output_adapter@_W@__crt_stdio_output@@@__crt_stdio_output@@IAE_NXZ 1007acf0 f i libucrtd:output.obj
 0001:00079d50       ?advance_to_next_pass@?$standard_base@_WV?$string_output_adapter@_W@__crt_stdio_output@@@__crt_stdio_output@@IAE_NXZ 1007ad50 f i libucrtd:output.obj
 0001:00079db0       ?check@?$cached@H@__crt_cached_ptd_host@@QBE_NH@Z 1007adb0 f i libucrtd:output.obj
 0001:00079e00       ?create_guard@?$cached@H@__crt_cached_ptd_host@@QAE?AVguard@12@XZ 1007ae00 f i libucrtd:output.obj
 0001:00079e30       ?crop_zeroes@__crt_stdio_output@@YAXPADQAU__crt_locale_pointers@@@Z 1007ae30 f i libucrtd:output.obj
 0001:00079f70       ?disable@guard@?$cached@H@__crt_cached_ptd_host@@QAEXXZ 1007af70 f i libucrtd:output.obj
 0001:00079f90       ?enable@guard@?$cached@H@__crt_cached_ptd_host@@QAEXXZ 1007af90 f i libucrtd:output.obj
 0001:00079fb0       ?find_next_state@?$output_processor@DV?$stream_output_adapter@D@__crt_stdio_output@@V?$format_validation_base@DV?$stream_output_adapter@D@__crt_stdio_output@@@2@@__crt_stdio_output@@ABE?AW4state@2@DW432@@Z 1007afb0 f i libucrtd:output.obj
 0001:0007a080       ?find_next_state@?$output_processor@DV?$stream_output_adapter@D@__crt_stdio_output@@V?$positional_parameter_base@DV?$stream_output_adapter@D@__crt_stdio_output@@@2@@__crt_stdio_output@@ABE?AW4state@2@DW432@@Z 1007b080 f i libucrtd:output.obj
 0001:0007a150       ?find_next_state@?$output_processor@DV?$stream_output_adapter@D@__crt_stdio_output@@V?$standard_base@DV?$stream_output_adapter@D@__crt_stdio_output@@@2@@__crt_stdio_output@@ABE?AW4state@2@DW432@@Z 1007b150 f i libucrtd:output.obj
 0001:0007a220       ?find_next_state@?$output_processor@DV?$string_output_adapter@D@__crt_stdio_output@@V?$format_validation_base@DV?$string_output_adapter@D@__crt_stdio_output@@@2@@__crt_stdio_output@@ABE?AW4state@2@DW432@@Z 1007b220 f i libucrtd:output.obj
 0001:0007a2f0       ?find_next_state@?$output_processor@DV?$string_output_adapter@D@__crt_stdio_output@@V?$positional_parameter_base@DV?$string_output_adapter@D@__crt_stdio_output@@@2@@__crt_stdio_output@@ABE?AW4state@2@DW432@@Z 1007b2f0 f i libucrtd:output.obj
 0001:0007a3c0       ?find_next_state@?$output_processor@DV?$string_output_adapter@D@__crt_stdio_output@@V?$standard_base@DV?$string_output_adapter@D@__crt_stdio_output@@@2@@__crt_stdio_output@@ABE?AW4state@2@DW432@@Z 1007b3c0 f i libucrtd:output.obj
 0001:0007a490       ?find_next_state@?$output_processor@_WV?$stream_output_adapter@_W@__crt_stdio_output@@V?$format_validation_base@_WV?$stream_output_adapter@_W@__crt_stdio_output@@@2@@__crt_stdio_output@@ABE?AW4state@2@_WW432@@Z 1007b490 f i libucrtd:output.obj
 0001:0007a560       ?find_next_state@?$output_processor@_WV?$stream_output_adapter@_W@__crt_stdio_output@@V?$positional_parameter_base@_WV?$stream_output_adapter@_W@__crt_stdio_output@@@2@@__crt_stdio_output@@ABE?AW4state@2@_WW432@@Z 1007b560 f i libucrtd:output.obj
 0001:0007a630       ?find_next_state@?$output_processor@_WV?$stream_output_adapter@_W@__crt_stdio_output@@V?$standard_base@_WV?$stream_output_adapter@_W@__crt_stdio_output@@@2@@__crt_stdio_output@@ABE?AW4state@2@_WW432@@Z 1007b630 f i libucrtd:output.obj
 0001:0007a700       ?find_next_state@?$output_processor@_WV?$string_output_adapter@_W@__crt_stdio_output@@V?$format_validation_base@_WV?$string_output_adapter@_W@__crt_stdio_output@@@2@@__crt_stdio_output@@ABE?AW4state@2@_WW432@@Z 1007b700 f i libucrtd:output.obj
 0001:0007a7d0       ?find_next_state@?$output_processor@_WV?$string_output_adapter@_W@__crt_stdio_output@@V?$positional_parameter_base@_WV?$string_output_adapter@_W@__crt_stdio_output@@@2@@__crt_stdio_output@@ABE?AW4state@2@_WW432@@Z 1007b7d0 f i libucrtd:output.obj
 0001:0007a8a0       ?find_next_state@?$output_processor@_WV?$string_output_adapter@_W@__crt_stdio_output@@V?$standard_base@_WV?$string_output_adapter@_W@__crt_stdio_output@@@2@@__crt_stdio_output@@ABE?AW4state@2@_WW432@@Z 1007b8a0 f i libucrtd:output.obj
 0001:0007a970       ?force_decimal_point@__crt_stdio_output@@YAXPADQAU__crt_locale_pointers@@@Z 1007b970 f i libucrtd:output.obj
 0001:0007aa70       ?get@?$c_string_character_source@D@__crt_strtox@@QAEDXZ 1007ba70 f i libucrtd:output.obj
 0001:0007aab0       ?get@?$c_string_character_source@_W@__crt_strtox@@QAE_WXZ 1007bab0 f i libucrtd:output.obj
 0001:0007aaf0       ?get_errno@__crt_cached_ptd_host@@QAE@XZ 1007baf0 f i libucrtd:output.obj
 0001:0007ab10       ?get_flags@__crt_stdio_stream@@QBEJXZ 1007bb10 f i libucrtd:output.obj
 0001:0007ab40       ?get_locale@__crt_cached_ptd_host@@QAEPAU__crt_locale_pointers@@XZ 1007bb40 f i libucrtd:output.obj
 0001:0007ab70       ?get_parameter_type@?$positional_parameter_base@DV?$stream_output_adapter@D@__crt_stdio_output@@@__crt_stdio_output@@CA?AW4parameter_type@12@F@Z 1007bb70 f i libucrtd:output.obj
 0001:0007ab80       ?get_parameter_type@?$positional_parameter_base@DV?$stream_output_adapter@D@__crt_stdio_output@@@__crt_stdio_output@@CA?AW4parameter_type@12@G@Z 1007bb80 f i libucrtd:output.obj
 0001:0007ab90       ?get_parameter_type@?$positional_parameter_base@DV?$stream_output_adapter@D@__crt_stdio_output@@@__crt_stdio_output@@CA?AW4parameter_type@12@H@Z 1007bb90 f i libucrtd:output.obj
 0001:0007aba0       ?get_parameter_type@?$positional_parameter_base@DV?$stream_output_adapter@D@__crt_stdio_output@@@__crt_stdio_output@@CA?AW4parameter_type@12@I@Z 1007bba0 f i libucrtd:output.obj
 0001:0007abb0       ?get_parameter_type@?$positional_parameter_base@DV?$stream_output_adapter@D@__crt_stdio_output@@@__crt_stdio_output@@CA?AW4parameter_type@12@U_CRT_DOUBLE@@@Z 1007bbb0 f i libucrtd:output.obj
 0001:0007abc0       ?get_parameter_type@?$positional_parameter_base@DV?$stream_output_adapter@D@__crt_stdio_output@@@__crt_stdio_output@@CA?AW4parameter_type@12@_J@Z 1007bbc0 f i libucrtd:output.obj
 0001:0007abd0       ?get_parameter_type@?$positional_parameter_base@DV?$stream_output_adapter@D@__crt_stdio_output@@@__crt_stdio_output@@CA?AW4parameter_type@12@_K@Z 1007bbd0 f i libucrtd:output.obj
 0001:0007abe0       ?get_parameter_type@?$positional_parameter_base@DV?$stream_output_adapter@D@__crt_stdio_output@@@__crt_stdio_output@@CA?AW4parameter_type@12@_W@Z 1007bbe0 f i libucrtd:output.obj
 0001:0007abf0       ?get_parameter_type@?$positional_parameter_base@DV?$string_output_adapter@D@__crt_stdio_output@@@__crt_stdio_output@@CA?AW4parameter_type@12@F@Z 1007bbf0 f i libucrtd:output.obj
 0001:0007ac00       ?get_parameter_type@?$positional_parameter_base@DV?$string_output_adapter@D@__crt_stdio_output@@@__crt_stdio_output@@CA?AW4parameter_type@12@G@Z 1007bc00 f i libucrtd:output.obj
 0001:0007ac10       ?get_parameter_type@?$positional_parameter_base@DV?$string_output_adapter@D@__crt_stdio_output@@@__crt_stdio_output@@CA?AW4parameter_type@12@H@Z 1007bc10 f i libucrtd:output.obj
 0001:0007ac20       ?get_parameter_type@?$positional_parameter_base@DV?$string_output_adapter@D@__crt_stdio_output@@@__crt_stdio_output@@CA?AW4parameter_type@12@I@Z 1007bc20 f i libucrtd:output.obj
 0001:0007ac30       ?get_parameter_type@?$positional_parameter_base@DV?$string_output_adapter@D@__crt_stdio_output@@@__crt_stdio_output@@CA?AW4parameter_type@12@U_CRT_DOUBLE@@@Z 1007bc30 f i libucrtd:output.obj
 0001:0007ac40       ?get_parameter_type@?$positional_parameter_base@DV?$string_output_adapter@D@__crt_stdio_output@@@__crt_stdio_output@@CA?AW4parameter_type@12@_J@Z 1007bc40 f i libucrtd:output.obj
 0001:0007ac50       ?get_parameter_type@?$positional_parameter_base@DV?$string_output_adapter@D@__crt_stdio_output@@@__crt_stdio_output@@CA?AW4parameter_type@12@_K@Z 1007bc50 f i libucrtd:output.obj
 0001:0007ac60       ?get_parameter_type@?$positional_parameter_base@DV?$string_output_adapter@D@__crt_stdio_output@@@__crt_stdio_output@@CA?AW4parameter_type@12@_W@Z 1007bc60 f i libucrtd:output.obj
 0001:0007ac70       ?get_parameter_type@?$positional_parameter_base@_WV?$stream_output_adapter@_W@__crt_stdio_output@@@__crt_stdio_output@@CA?AW4parameter_type@12@F@Z 1007bc70 f i libucrtd:output.obj
 0001:0007ac80       ?get_parameter_type@?$positional_parameter_base@_WV?$stream_output_adapter@_W@__crt_stdio_output@@@__crt_stdio_output@@CA?AW4parameter_type@12@G@Z 1007bc80 f i libucrtd:output.obj
 0001:0007ac90       ?get_parameter_type@?$positional_parameter_base@_WV?$stream_output_adapter@_W@__crt_stdio_output@@@__crt_stdio_output@@CA?AW4parameter_type@12@H@Z 1007bc90 f i libucrtd:output.obj
 0001:0007aca0       ?get_parameter_type@?$positional_parameter_base@_WV?$stream_output_adapter@_W@__crt_stdio_output@@@__crt_stdio_output@@CA?AW4parameter_type@12@I@Z 1007bca0 f i libucrtd:output.obj
 0001:0007acb0       ?get_parameter_type@?$positional_parameter_base@_WV?$stream_output_adapter@_W@__crt_stdio_output@@@__crt_stdio_output@@CA?AW4parameter_type@12@U_CRT_DOUBLE@@@Z 1007bcb0 f i libucrtd:output.obj
 0001:0007acc0       ?get_parameter_type@?$positional_parameter_base@_WV?$stream_output_adapter@_W@__crt_stdio_output@@@__crt_stdio_output@@CA?AW4parameter_type@12@_J@Z 1007bcc0 f i libucrtd:output.obj
 0001:0007acd0       ?get_parameter_type@?$positional_parameter_base@_WV?$stream_output_adapter@_W@__crt_stdio_output@@@__crt_stdio_output@@CA?AW4parameter_type@12@_K@Z 1007bcd0 f i libucrtd:output.obj
 0001:0007ace0       ?get_parameter_type@?$positional_parameter_base@_WV?$stream_output_adapter@_W@__crt_stdio_output@@@__crt_stdio_output@@CA?AW4parameter_type@12@_W@Z 1007bce0 f i libucrtd:output.obj
 0001:0007acf0       ?get_parameter_type@?$positional_parameter_base@_WV?$string_output_adapter@_W@__crt_stdio_output@@@__crt_stdio_output@@CA?AW4parameter_type@12@F@Z 1007bcf0 f i libucrtd:output.obj
 0001:0007ad00       ?get_parameter_type@?$positional_parameter_base@_WV?$string_output_adapter@_W@__crt_stdio_output@@@__crt_stdio_output@@CA?AW4parameter_type@12@G@Z 1007bd00 f i libucrtd:output.obj
 0001:0007ad10       ?get_parameter_type@?$positional_parameter_base@_WV?$string_output_adapter@_W@__crt_stdio_output@@@__crt_stdio_output@@CA?AW4parameter_type@12@H@Z 1007bd10 f i libucrtd:output.obj
 0001:0007ad20       ?get_parameter_type@?$positional_parameter_base@_WV?$string_output_adapter@_W@__crt_stdio_output@@@__crt_stdio_output@@CA?AW4parameter_type@12@I@Z 1007bd20 f i libucrtd:output.obj
 0001:0007ad30       ?get_parameter_type@?$positional_parameter_base@_WV?$string_output_adapter@_W@__crt_stdio_output@@@__crt_stdio_output@@CA?AW4parameter_type@12@U_CRT_DOUBLE@@@Z 1007bd30 f i libucrtd:output.obj
 0001:0007ad40       ?get_parameter_type@?$positional_parameter_base@_WV?$string_output_adapter@_W@__crt_stdio_output@@@__crt_stdio_output@@CA?AW4parameter_type@12@_J@Z 1007bd40 f i libucrtd:output.obj
 0001:0007ad50       ?get_parameter_type@?$positional_parameter_base@_WV?$string_output_adapter@_W@__crt_stdio_output@@@__crt_stdio_output@@CA?AW4parameter_type@12@_K@Z 1007bd50 f i libucrtd:output.obj
 0001:0007ad60       ?get_parameter_type@?$positional_parameter_base@_WV?$string_output_adapter@_W@__crt_stdio_output@@@__crt_stdio_output@@CA?AW4parameter_type@12@_W@Z 1007bd60 f i libucrtd:output.obj
 0001:0007ad70       ?has_flag@?$output_processor@DV?$stream_output_adapter@D@__crt_stdio_output@@V?$format_validation_base@DV?$stream_output_adapter@D@__crt_stdio_output@@@2@@__crt_stdio_output@@ABE_NI@Z 1007bd70 f i libucrtd:output.obj
 0001:0007adb0       ?has_flag@?$output_processor@DV?$stream_output_adapter@D@__crt_stdio_output@@V?$positional_parameter_base@DV?$stream_output_adapter@D@__crt_stdio_output@@@2@@__crt_stdio_output@@ABE_NI@Z 1007bdb0 f i libucrtd:output.obj
 0001:0007adf0       ?has_flag@?$output_processor@DV?$stream_output_adapter@D@__crt_stdio_output@@V?$standard_base@DV?$stream_output_adapter@D@__crt_stdio_output@@@2@@__crt_stdio_output@@ABE_NI@Z 1007bdf0 f i libucrtd:output.obj
 0001:0007ae30       ?has_flag@?$output_processor@DV?$string_output_adapter@D@__crt_stdio_output@@V?$format_validation_base@DV?$string_output_adapter@D@__crt_stdio_output@@@2@@__crt_stdio_output@@ABE_NI@Z 1007be30 f i libucrtd:output.obj
 0001:0007ae70       ?has_flag@?$output_processor@DV?$string_output_adapter@D@__crt_stdio_output@@V?$positional_parameter_base@DV?$string_output_adapter@D@__crt_stdio_output@@@2@@__crt_stdio_output@@ABE_NI@Z 1007be70 f i libucrtd:output.obj
 0001:0007aeb0       ?has_flag@?$output_processor@DV?$string_output_adapter@D@__crt_stdio_output@@V?$standard_base@DV?$string_output_adapter@D@__crt_stdio_output@@@2@@__crt_stdio_output@@ABE_NI@Z 1007beb0 f i libucrtd:output.obj
 0001:0007aef0       ?has_flag@?$output_processor@_WV?$stream_output_adapter@_W@__crt_stdio_output@@V?$format_validation_base@_WV?$stream_output_adapter@_W@__crt_stdio_output@@@2@@__crt_stdio_output@@ABE_NI@Z 1007bef0 f i libucrtd:output.obj
 0001:0007af30       ?has_flag@?$output_processor@_WV?$stream_output_adapter@_W@__crt_stdio_output@@V?$positional_parameter_base@_WV?$stream_output_adapter@_W@__crt_stdio_output@@@2@@__crt_stdio_output@@ABE_NI@Z 1007bf30 f i libucrtd:output.obj
 0001:0007af70       ?has_flag@?$output_processor@_WV?$stream_output_adapter@_W@__crt_stdio_output@@V?$standard_base@_WV?$stream_output_adapter@_W@__crt_stdio_output@@@2@@__crt_stdio_output@@ABE_NI@Z 1007bf70 f i libucrtd:output.obj
 0001:0007afb0       ?has_flag@?$output_processor@_WV?$string_output_adapter@_W@__crt_stdio_output@@V?$format_validation_base@_WV?$string_output_adapter@_W@__crt_stdio_output@@@2@@__crt_stdio_output@@ABE_NI@Z 1007bfb0 f i libucrtd:output.obj
 0001:0007aff0       ?has_flag@?$output_processor@_WV?$string_output_adapter@_W@__crt_stdio_output@@V?$positional_parameter_base@_WV?$string_output_adapter@_W@__crt_stdio_output@@@2@@__crt_stdio_output@@ABE_NI@Z 1007bff0 f i libucrtd:output.obj
 0001:0007b030       ?has_flag@?$output_processor@_WV?$string_output_adapter@_W@__crt_stdio_output@@V?$standard_base@_WV?$string_output_adapter@_W@__crt_stdio_output@@@2@@__crt_stdio_output@@ABE_NI@Z 1007c030 f i libucrtd:output.obj
 0001:0007b070       ?is_positional_parameter_reappearance_consistent@?$positional_parameter_base@DV?$stream_output_adapter@D@__crt_stdio_output@@@__crt_stdio_output@@AAE_NABUparameter_data@12@W4parameter_type@12@DW4length_modifier@2@@Z 1007c070 f i libucrtd:output.obj
 0001:0007b320       ?is_positional_parameter_reappearance_consistent@?$positional_parameter_base@DV?$string_output_adapter@D@__crt_stdio_output@@@__crt_stdio_output@@AAE_NABUparameter_data@12@W4parameter_type@12@DW4length_modifier@2@@Z 1007c320 f i libucrtd:output.obj
 0001:0007b5d0       ?is_positional_parameter_reappearance_consistent@?$positional_parameter_base@_WV?$stream_output_adapter@_W@__crt_stdio_output@@@__crt_stdio_output@@AAE_NABUparameter_data@12@W4parameter_type@12@_WW4length_modifier@2@@Z 1007c5d0 f i libucrtd:output.obj
 0001:0007b880       ?is_positional_parameter_reappearance_consistent@?$positional_parameter_base@_WV?$string_output_adapter@_W@__crt_stdio_output@@@__crt_stdio_output@@AAE_NABUparameter_data@12@W4parameter_type@12@_WW4length_modifier@2@@Z 1007c880 f i libucrtd:output.obj
 0001:0007bb30       ?is_string_backed@__crt_stdio_stream@@QBE_NXZ 1007cb30 f i libucrtd:output.obj
 0001:0007bb70       ?maximum_signed_value@__crt_strtox@@YAJK@Z 1007cb70 f i libucrtd:output.obj
 0001:0007bb80       ?minimum_signed_value@__crt_strtox@@YAJK@Z 1007cb80 f i libucrtd:output.obj
 0001:0007bb90       ?narrow_null_string@?$output_processor@DV?$stream_output_adapter@D@__crt_stdio_output@@V?$format_validation_base@DV?$stream_output_adapter@D@__crt_stdio_output@@@2@@__crt_stdio_output@@CAPADXZ 1007cb90 f i libucrtd:output.obj
 0001:0007bba0       ?narrow_null_string@?$output_processor@DV?$stream_output_adapter@D@__crt_stdio_output@@V?$positional_parameter_base@DV?$stream_output_adapter@D@__crt_stdio_output@@@2@@__crt_stdio_output@@CAPADXZ 1007cba0 f i libucrtd:output.obj
 0001:0007bbb0       ?narrow_null_string@?$output_processor@DV?$stream_output_adapter@D@__crt_stdio_output@@V?$standard_base@DV?$stream_output_adapter@D@__crt_stdio_output@@@2@@__crt_stdio_output@@CAPADXZ 1007cbb0 f i libucrtd:output.obj
 0001:0007bbc0       ?narrow_null_string@?$output_processor@DV?$string_output_adapter@D@__crt_stdio_output@@V?$format_validation_base@DV?$string_output_adapter@D@__crt_stdio_output@@@2@@__crt_stdio_output@@CAPADXZ 1007cbc0 f i libucrtd:output.obj
 0001:0007bbd0       ?narrow_null_string@?$output_processor@DV?$string_output_adapter@D@__crt_stdio_output@@V?$positional_parameter_base@DV?$string_output_adapter@D@__crt_stdio_output@@@2@@__crt_stdio_output@@CAPADXZ 1007cbd0 f i libucrtd:output.obj
 0001:0007bbe0       ?narrow_null_string@?$output_processor@DV?$string_output_adapter@D@__crt_stdio_output@@V?$standard_base@DV?$string_output_adapter@D@__crt_stdio_output@@@2@@__crt_stdio_output@@CAPADXZ 1007cbe0 f i libucrtd:output.obj
 0001:0007bbf0       ?narrow_null_string@?$output_processor@_WV?$stream_output_adapter@_W@__crt_stdio_output@@V?$format_validation_base@_WV?$stream_output_adapter@_W@__crt_stdio_output@@@2@@__crt_stdio_output@@CAPADXZ 1007cbf0 f i libucrtd:output.obj
 0001:0007bc00       ?narrow_null_string@?$output_processor@_WV?$stream_output_adapter@_W@__crt_stdio_output@@V?$positional_parameter_base@_WV?$stream_output_adapter@_W@__crt_stdio_output@@@2@@__crt_stdio_output@@CAPADXZ 1007cc00 f i libucrtd:output.obj
 0001:0007bc10       ?narrow_null_string@?$output_processor@_WV?$stream_output_adapter@_W@__crt_stdio_output@@V?$standard_base@_WV?$stream_output_adapter@_W@__crt_stdio_output@@@2@@__crt_stdio_output@@CAPADXZ 1007cc10 f i libucrtd:output.obj
 0001:0007bc20       ?narrow_null_string@?$output_processor@_WV?$string_output_adapter@_W@__crt_stdio_output@@V?$format_validation_base@_WV?$string_output_adapter@_W@__crt_stdio_output@@@2@@__crt_stdio_output@@CAPADXZ 1007cc20 f i libucrtd:output.obj
 0001:0007bc30       ?narrow_null_string@?$output_processor@_WV?$string_output_adapter@_W@__crt_stdio_output@@V?$positional_parameter_base@_WV?$string_output_adapter@_W@__crt_stdio_output@@@2@@__crt_stdio_output@@CAPADXZ 1007cc30 f i libucrtd:output.obj
 0001:0007bc40       ?narrow_null_string@?$output_processor@_WV?$string_output_adapter@_W@__crt_stdio_output@@V?$standard_base@_WV?$string_output_adapter@_W@__crt_stdio_output@@@2@@__crt_stdio_output@@CAPADXZ 1007cc40 f i libucrtd:output.obj
 0001:0007bc50       ?parse_digit@__crt_strtox@@YAID@Z 1007cc50 f i libucrtd:output.obj
 0001:0007bcd0       ?parse_digit@__crt_strtox@@YAI_W@Z 1007ccd0 f i libucrtd:output.obj
 0001:0007bd30       ?parse_int_from_format_string@?$output_processor@DV?$stream_output_adapter@D@__crt_stdio_output@@V?$format_validation_base@DV?$stream_output_adapter@D@__crt_stdio_output@@@2@@__crt_stdio_output@@AAE_NQAH@Z 1007cd30 f i libucrtd:output.obj
 0001:0007be20       ?parse_int_from_format_string@?$output_processor@DV?$stream_output_adapter@D@__crt_stdio_output@@V?$positional_parameter_base@DV?$stream_output_adapter@D@__crt_stdio_output@@@2@@__crt_stdio_output@@AAE_NQAH@Z 1007ce20 f i libucrtd:output.obj
 0001:0007bf10       ?parse_int_from_format_string@?$output_processor@DV?$stream_output_adapter@D@__crt_stdio_output@@V?$standard_base@DV?$stream_output_adapter@D@__crt_stdio_output@@@2@@__crt_stdio_output@@AAE_NQAH@Z 1007cf10 f i libucrtd:output.obj
 0001:0007c000       ?parse_int_from_format_string@?$output_processor@DV?$string_output_adapter@D@__crt_stdio_output@@V?$format_validation_base@DV?$string_output_adapter@D@__crt_stdio_output@@@2@@__crt_stdio_output@@AAE_NQAH@Z 1007d000 f i libucrtd:output.obj
 0001:0007c0f0       ?parse_int_from_format_string@?$output_processor@DV?$string_output_adapter@D@__crt_stdio_output@@V?$positional_parameter_base@DV?$string_output_adapter@D@__crt_stdio_output@@@2@@__crt_stdio_output@@AAE_NQAH@Z 1007d0f0 f i libucrtd:output.obj
 0001:0007c1e0       ?parse_int_from_format_string@?$output_processor@DV?$string_output_adapter@D@__crt_stdio_output@@V?$standard_base@DV?$string_output_adapter@D@__crt_stdio_output@@@2@@__crt_stdio_output@@AAE_NQAH@Z 1007d1e0 f i libucrtd:output.obj
 0001:0007c2d0       ?parse_int_from_format_string@?$output_processor@_WV?$stream_output_adapter@_W@__crt_stdio_output@@V?$format_validation_base@_WV?$stream_output_adapter@_W@__crt_stdio_output@@@2@@__crt_stdio_output@@AAE_NQAH@Z 1007d2d0 f i libucrtd:output.obj
 0001:0007c3c0       ?parse_int_from_format_string@?$output_processor@_WV?$stream_output_adapter@_W@__crt_stdio_output@@V?$positional_parameter_base@_WV?$stream_output_adapter@_W@__crt_stdio_output@@@2@@__crt_stdio_output@@AAE_NQAH@Z 1007d3c0 f i libucrtd:output.obj
 0001:0007c4b0       ?parse_int_from_format_string@?$output_processor@_WV?$stream_output_adapter@_W@__crt_stdio_output@@V?$standard_base@_WV?$stream_output_adapter@_W@__crt_stdio_output@@@2@@__crt_stdio_output@@AAE_NQAH@Z 1007d4b0 f i libucrtd:output.obj
 0001:0007c5a0       ?parse_int_from_format_string@?$output_processor@_WV?$string_output_adapter@_W@__crt_stdio_output@@V?$format_validation_base@_WV?$string_output_adapter@_W@__crt_stdio_output@@@2@@__crt_stdio_output@@AAE_NQAH@Z 1007d5a0 f i libucrtd:output.obj
 0001:0007c690       ?parse_int_from_format_string@?$output_processor@_WV?$string_output_adapter@_W@__crt_stdio_output@@V?$positional_parameter_base@_WV?$string_output_adapter@_W@__crt_stdio_output@@@2@@__crt_stdio_output@@AAE_NQAH@Z 1007d690 f i libucrtd:output.obj
 0001:0007c780       ?parse_int_from_format_string@?$output_processor@_WV?$string_output_adapter@_W@__crt_stdio_output@@V?$standard_base@_WV?$string_output_adapter@_W@__crt_stdio_output@@@2@@__crt_stdio_output@@AAE_NQAH@Z 1007d780 f i libucrtd:output.obj
 0001:0007c870       ?process@?$output_processor@DV?$stream_output_adapter@D@__crt_stdio_output@@V?$format_validation_base@DV?$stream_output_adapter@D@__crt_stdio_output@@@2@@__crt_stdio_output@@QAEHXZ 1007d870 f i libucrtd:output.obj
 0001:0007cc00       ?process@?$output_processor@DV?$stream_output_adapter@D@__crt_stdio_output@@V?$positional_parameter_base@DV?$stream_output_adapter@D@__crt_stdio_output@@@2@@__crt_stdio_output@@QAEHXZ 1007dc00 f i libucrtd:output.obj
 0001:0007cf90       ?process@?$output_processor@DV?$stream_output_adapter@D@__crt_stdio_output@@V?$standard_base@DV?$stream_output_adapter@D@__crt_stdio_output@@@2@@__crt_stdio_output@@QAEHXZ 1007df90 f i libucrtd:output.obj
 0001:0007d320       ?process@?$output_processor@DV?$string_output_adapter@D@__crt_stdio_output@@V?$format_validation_base@DV?$string_output_adapter@D@__crt_stdio_output@@@2@@__crt_stdio_output@@QAEHXZ 1007e320 f i libucrtd:output.obj
 0001:0007d6b0       ?process@?$output_processor@DV?$string_output_adapter@D@__crt_stdio_output@@V?$positional_parameter_base@DV?$string_output_adapter@D@__crt_stdio_output@@@2@@__crt_stdio_output@@QAEHXZ 1007e6b0 f i libucrtd:output.obj
 0001:0007da40       ?process@?$output_processor@DV?$string_output_adapter@D@__crt_stdio_output@@V?$standard_base@DV?$string_output_adapter@D@__crt_stdio_output@@@2@@__crt_stdio_output@@QAEHXZ 1007ea40 f i libucrtd:output.obj
 0001:0007ddd0       ?process@?$output_processor@_WV?$stream_output_adapter@_W@__crt_stdio_output@@V?$format_validation_base@_WV?$stream_output_adapter@_W@__crt_stdio_output@@@2@@__crt_stdio_output@@QAEHXZ 1007edd0 f i libucrtd:output.obj
 0001:0007e170       ?process@?$output_processor@_WV?$stream_output_adapter@_W@__crt_stdio_output@@V?$positional_parameter_base@_WV?$stream_output_adapter@_W@__crt_stdio_output@@@2@@__crt_stdio_output@@QAEHXZ 1007f170 f i libucrtd:output.obj
 0001:0007e510       ?process@?$output_processor@_WV?$stream_output_adapter@_W@__crt_stdio_output@@V?$standard_base@_WV?$stream_output_adapter@_W@__crt_stdio_output@@@2@@__crt_stdio_output@@QAEHXZ 1007f510 f i libucrtd:output.obj
 0001:0007e8b0       ?process@?$output_processor@_WV?$string_output_adapter@_W@__crt_stdio_output@@V?$format_validation_base@_WV?$string_output_adapter@_W@__crt_stdio_output@@@2@@__crt_stdio_output@@QAEHXZ 1007f8b0 f i libucrtd:output.obj
 0001:0007ec50       ?process@?$output_processor@_WV?$string_output_adapter@_W@__crt_stdio_output@@V?$positional_parameter_base@_WV?$string_output_adapter@_W@__crt_stdio_output@@@2@@__crt_stdio_output@@QAEHXZ 1007fc50 f i libucrtd:output.obj
 0001:0007eff0       ?process@?$output_processor@_WV?$string_output_adapter@_W@__crt_stdio_output@@V?$standard_base@_WV?$string_output_adapter@_W@__crt_stdio_output@@@2@@__crt_stdio_output@@QAEHXZ 1007fff0 f i libucrtd:output.obj
 0001:0007f390       ?public_stream@__crt_stdio_stream@@QBEPAU_iobuf@@XZ 10080390 f i libucrtd:output.obj
 0001:0007f3b0       ?restore_state@?$c_string_character_source@D@__crt_strtox@@QAE_NQBD@Z 100803b0 f i libucrtd:output.obj
 0001:0007f3d0       ?restore_state@?$c_string_character_source@_W@__crt_strtox@@QAE_NQB_W@Z 100803d0 f i libucrtd:output.obj
 0001:0007f3f0       ?save_state@?$c_string_character_source@D@__crt_strtox@@QBEPBDXZ 100803f0 f i libucrtd:output.obj
 0001:0007f410       ?save_state@?$c_string_character_source@_W@__crt_strtox@@QBEPB_WXZ 10080410 f i libucrtd:output.obj
 0001:0007f430       ?set@?$cached@H@__crt_cached_ptd_host@@QAEHH@Z 10080430 f i libucrtd:output.obj
 0001:0007f460       ?set_flag@?$output_processor@DV?$stream_output_adapter@D@__crt_stdio_output@@V?$format_validation_base@DV?$stream_output_adapter@D@__crt_stdio_output@@@2@@__crt_stdio_output@@AAEXI@Z 10080460 f i libucrtd:output.obj
 0001:0007f490       ?set_flag@?$output_processor@DV?$stream_output_adapter@D@__crt_stdio_output@@V?$positional_parameter_base@DV?$stream_output_adapter@D@__crt_stdio_output@@@2@@__crt_stdio_output@@AAEXI@Z 10080490 f i libucrtd:output.obj
 0001:0007f4c0       ?set_flag@?$output_processor@DV?$stream_output_adapter@D@__crt_stdio_output@@V?$standard_base@DV?$stream_output_adapter@D@__crt_stdio_output@@@2@@__crt_stdio_output@@AAEXI@Z 100804c0 f i libucrtd:output.obj
 0001:0007f4f0       ?set_flag@?$output_processor@DV?$string_output_adapter@D@__crt_stdio_output@@V?$format_validation_base@DV?$string_output_adapter@D@__crt_stdio_output@@@2@@__crt_stdio_output@@AAEXI@Z 100804f0 f i libucrtd:output.obj
 0001:0007f520       ?set_flag@?$output_processor@DV?$string_output_adapter@D@__crt_stdio_output@@V?$positional_parameter_base@DV?$string_output_adapter@D@__crt_stdio_output@@@2@@__crt_stdio_output@@AAEXI@Z 10080520 f i libucrtd:output.obj
 0001:0007f550       ?set_flag@?$output_processor@DV?$string_output_adapter@D@__crt_stdio_output@@V?$standard_base@DV?$string_output_adapter@D@__crt_stdio_output@@@2@@__crt_stdio_output@@AAEXI@Z 10080550 f i libucrtd:output.obj
 0001:0007f580       ?set_flag@?$output_processor@_WV?$stream_output_adapter@_W@__crt_stdio_output@@V?$format_validation_base@_WV?$stream_output_adapter@_W@__crt_stdio_output@@@2@@__crt_stdio_output@@AAEXI@Z 10080580 f i libucrtd:output.obj
 0001:0007f5b0       ?set_flag@?$output_processor@_WV?$stream_output_adapter@_W@__crt_stdio_output@@V?$positional_parameter_base@_WV?$stream_output_adapter@_W@__crt_stdio_output@@@2@@__crt_stdio_output@@AAEXI@Z 100805b0 f i libucrtd:output.obj
 0001:0007f5e0       ?set_flag@?$output_processor@_WV?$stream_output_adapter@_W@__crt_stdio_output@@V?$standard_base@_WV?$stream_output_adapter@_W@__crt_stdio_output@@@2@@__crt_stdio_output@@AAEXI@Z 100805e0 f i libucrtd:output.obj
 0001:0007f610       ?set_flag@?$output_processor@_WV?$string_output_adapter@_W@__crt_stdio_output@@V?$format_validation_base@_WV?$string_output_adapter@_W@__crt_stdio_output@@@2@@__crt_stdio_output@@AAEXI@Z 10080610 f i libucrtd:output.obj
 0001:0007f640       ?set_flag@?$output_processor@_WV?$string_output_adapter@_W@__crt_stdio_output@@V?$positional_parameter_base@_WV?$string_output_adapter@_W@__crt_stdio_output@@@2@@__crt_stdio_output@@AAEXI@Z 10080640 f i libucrtd:output.obj
 0001:0007f670       ?set_flag@?$output_processor@_WV?$string_output_adapter@_W@__crt_stdio_output@@V?$standard_base@_WV?$string_output_adapter@_W@__crt_stdio_output@@@2@@__crt_stdio_output@@AAEXI@Z 10080670 f i libucrtd:output.obj
 0001:0007f6a0       ?should_format@?$positional_parameter_base@DV?$stream_output_adapter@D@__crt_stdio_output@@@__crt_stdio_output@@IAE_NXZ 100806a0 f i libucrtd:output.obj
 0001:0007f6f0       ?should_format@?$positional_parameter_base@DV?$string_output_adapter@D@__crt_stdio_output@@@__crt_stdio_output@@IAE_NXZ 100806f0 f i libucrtd:output.obj
 0001:0007f740       ?should_format@?$positional_parameter_base@_WV?$stream_output_adapter@_W@__crt_stdio_output@@@__crt_stdio_output@@IAE_NXZ 10080740 f i libucrtd:output.obj
 0001:0007f790       ?should_format@?$positional_parameter_base@_WV?$string_output_adapter@_W@__crt_stdio_output@@@__crt_stdio_output@@IAE_NXZ 10080790 f i libucrtd:output.obj
 0001:0007f7e0       ?should_format@?$standard_base@DV?$stream_output_adapter@D@__crt_stdio_output@@@__crt_stdio_output@@IAE_NXZ 100807e0 f i libucrtd:output.obj
 0001:0007f800       ?should_format@?$standard_base@DV?$string_output_adapter@D@__crt_stdio_output@@@__crt_stdio_output@@IAE_NXZ 10080800 f i libucrtd:output.obj
 0001:0007f820       ?should_format@?$standard_base@_WV?$stream_output_adapter@_W@__crt_stdio_output@@@__crt_stdio_output@@IAE_NXZ 10080820 f i libucrtd:output.obj
 0001:0007f840       ?should_format@?$standard_base@_WV?$string_output_adapter@_W@__crt_stdio_output@@@__crt_stdio_output@@IAE_NXZ 10080840 f i libucrtd:output.obj
 0001:0007f860       ?should_skip_normal_state_processing@?$positional_parameter_base@DV?$stream_output_adapter@D@__crt_stdio_output@@@__crt_stdio_output@@IAE_NXZ 10080860 f i libucrtd:output.obj
 0001:0007f8c0       ?should_skip_normal_state_processing@?$positional_parameter_base@DV?$string_output_adapter@D@__crt_stdio_output@@@__crt_stdio_output@@IAE_NXZ 100808c0 f i libucrtd:output.obj
 0001:0007f920       ?should_skip_normal_state_processing@?$positional_parameter_base@_WV?$stream_output_adapter@_W@__crt_stdio_output@@@__crt_stdio_output@@IAE_NXZ 10080920 f i libucrtd:output.obj
 0001:0007f980       ?should_skip_normal_state_processing@?$positional_parameter_base@_WV?$string_output_adapter@_W@__crt_stdio_output@@@__crt_stdio_output@@IAE_NXZ 10080980 f i libucrtd:output.obj
 0001:0007f9e0       ?should_skip_normal_state_processing@?$standard_base@DV?$stream_output_adapter@D@__crt_stdio_output@@@__crt_stdio_output@@IAE_NXZ 100809e0 f i libucrtd:output.obj
 0001:0007fa00       ?should_skip_normal_state_processing@?$standard_base@DV?$string_output_adapter@D@__crt_stdio_output@@@__crt_stdio_output@@IAE_NXZ 10080a00 f i libucrtd:output.obj
 0001:0007fa20       ?should_skip_normal_state_processing@?$standard_base@_WV?$stream_output_adapter@_W@__crt_stdio_output@@@__crt_stdio_output@@IAE_NXZ 10080a20 f i libucrtd:output.obj
 0001:0007fa40       ?should_skip_normal_state_processing@?$standard_base@_WV?$string_output_adapter@_W@__crt_stdio_output@@@__crt_stdio_output@@IAE_NXZ 10080a40 f i libucrtd:output.obj
 0001:0007fa60       ?should_skip_type_state_output@?$positional_parameter_base@DV?$stream_output_adapter@D@__crt_stdio_output@@@__crt_stdio_output@@IBE_NXZ 10080a60 f i libucrtd:output.obj
 0001:0007fab0       ?should_skip_type_state_output@?$positional_parameter_base@DV?$string_output_adapter@D@__crt_stdio_output@@@__crt_stdio_output@@IBE_NXZ 10080ab0 f i libucrtd:output.obj
 0001:0007fb00       ?should_skip_type_state_output@?$positional_parameter_base@_WV?$stream_output_adapter@_W@__crt_stdio_output@@@__crt_stdio_output@@IBE_NXZ 10080b00 f i libucrtd:output.obj
 0001:0007fb50       ?should_skip_type_state_output@?$positional_parameter_base@_WV?$string_output_adapter@_W@__crt_stdio_output@@@__crt_stdio_output@@IBE_NXZ 10080b50 f i libucrtd:output.obj
 0001:0007fba0       ?should_skip_type_state_output@?$standard_base@DV?$stream_output_adapter@D@__crt_stdio_output@@@__crt_stdio_output@@IBE_NXZ 10080ba0 f i libucrtd:output.obj
 0001:0007fbc0       ?should_skip_type_state_output@?$standard_base@DV?$string_output_adapter@D@__crt_stdio_output@@@__crt_stdio_output@@IBE_NXZ 10080bc0 f i libucrtd:output.obj
 0001:0007fbe0       ?should_skip_type_state_output@?$standard_base@_WV?$stream_output_adapter@_W@__crt_stdio_output@@@__crt_stdio_output@@IBE_NXZ 10080be0 f i libucrtd:output.obj
 0001:0007fc00       ?should_skip_type_state_output@?$standard_base@_WV?$string_output_adapter@_W@__crt_stdio_output@@@__crt_stdio_output@@IBE_NXZ 10080c00 f i libucrtd:output.obj
 0001:0007fc20       ?state_case_dot@?$output_processor@DV?$stream_output_adapter@D@__crt_stdio_output@@V?$format_validation_base@DV?$stream_output_adapter@D@__crt_stdio_output@@@2@@__crt_stdio_output@@AAE_NXZ 10080c20 f i libucrtd:output.obj
 0001:0007fc40       ?state_case_dot@?$output_processor@DV?$stream_output_adapter@D@__crt_stdio_output@@V?$positional_parameter_base@DV?$stream_output_adapter@D@__crt_stdio_output@@@2@@__crt_stdio_output@@AAE_NXZ 10080c40 f i libucrtd:output.obj
 0001:0007fc60       ?state_case_dot@?$output_processor@DV?$stream_output_adapter@D@__crt_stdio_output@@V?$standard_base@DV?$stream_output_adapter@D@__crt_stdio_output@@@2@@__crt_stdio_output@@AAE_NXZ 10080c60 f i libucrtd:output.obj
 0001:0007fc80       ?state_case_dot@?$output_processor@DV?$string_output_adapter@D@__crt_stdio_output@@V?$format_validation_base@DV?$string_output_adapter@D@__crt_stdio_output@@@2@@__crt_stdio_output@@AAE_NXZ 10080c80 f i libucrtd:output.obj
 0001:0007fca0       ?state_case_dot@?$output_processor@DV?$string_output_adapter@D@__crt_stdio_output@@V?$positional_parameter_base@DV?$string_output_adapter@D@__crt_stdio_output@@@2@@__crt_stdio_output@@AAE_NXZ 10080ca0 f i libucrtd:output.obj
 0001:0007fcc0       ?state_case_dot@?$output_processor@DV?$string_output_adapter@D@__crt_stdio_output@@V?$standard_base@DV?$string_output_adapter@D@__crt_stdio_output@@@2@@__crt_stdio_output@@AAE_NXZ 10080cc0 f i libucrtd:output.obj
 0001:0007fce0       ?state_case_dot@?$output_processor@_WV?$stream_output_adapter@_W@__crt_stdio_output@@V?$format_validation_base@_WV?$stream_output_adapter@_W@__crt_stdio_output@@@2@@__crt_stdio_output@@AAE_NXZ 10080ce0 f i libucrtd:output.obj
 0001:0007fd00       ?state_case_dot@?$output_processor@_WV?$stream_output_adapter@_W@__crt_stdio_output@@V?$positional_parameter_base@_WV?$stream_output_adapter@_W@__crt_stdio_output@@@2@@__crt_stdio_output@@AAE_NXZ 10080d00 f i libucrtd:output.obj
 0001:0007fd20       ?state_case_dot@?$output_processor@_WV?$stream_output_adapter@_W@__crt_stdio_output@@V?$standard_base@_WV?$stream_output_adapter@_W@__crt_stdio_output@@@2@@__crt_stdio_output@@AAE_NXZ 10080d20 f i libucrtd:output.obj
 0001:0007fd40       ?state_case_dot@?$output_processor@_WV?$string_output_adapter@_W@__crt_stdio_output@@V?$format_validation_base@_WV?$string_output_adapter@_W@__crt_stdio_output@@@2@@__crt_stdio_output@@AAE_NXZ 10080d40 f i libucrtd:output.obj
 0001:0007fd60       ?state_case_dot@?$output_processor@_WV?$string_output_adapter@_W@__crt_stdio_output@@V?$positional_parameter_base@_WV?$string_output_adapter@_W@__crt_stdio_output@@@2@@__crt_stdio_output@@AAE_NXZ 10080d60 f i libucrtd:output.obj
 0001:0007fd80       ?state_case_dot@?$output_processor@_WV?$string_output_adapter@_W@__crt_stdio_output@@V?$standard_base@_WV?$string_output_adapter@_W@__crt_stdio_output@@@2@@__crt_stdio_output@@AAE_NXZ 10080d80 f i libucrtd:output.obj
 0001:0007fda0       ?state_case_flag@?$output_processor@DV?$stream_output_adapter@D@__crt_stdio_output@@V?$format_validation_base@DV?$stream_output_adapter@D@__crt_stdio_output@@@2@@__crt_stdio_output@@AAE_NXZ 10080da0 f i libucrtd:output.obj
 0001:0007fe70       ?state_case_flag@?$output_processor@DV?$stream_output_adapter@D@__crt_stdio_output@@V?$positional_parameter_base@DV?$stream_output_adapter@D@__crt_stdio_output@@@2@@__crt_stdio_output@@AAE_NXZ 10080e70 f i libucrtd:output.obj
 0001:0007ff40       ?state_case_flag@?$output_processor@DV?$stream_output_adapter@D@__crt_stdio_output@@V?$standard_base@DV?$stream_output_adapter@D@__crt_stdio_output@@@2@@__crt_stdio_output@@AAE_NXZ 10080f40 f i libucrtd:output.obj
 0001:00080010       ?state_case_flag@?$output_processor@DV?$string_output_adapter@D@__crt_stdio_output@@V?$format_validation_base@DV?$string_output_adapter@D@__crt_stdio_output@@@2@@__crt_stdio_output@@AAE_NXZ 10081010 f i libucrtd:output.obj
 0001:000800e0       ?state_case_flag@?$output_processor@DV?$string_output_adapter@D@__crt_stdio_output@@V?$positional_parameter_base@DV?$string_output_adapter@D@__crt_stdio_output@@@2@@__crt_stdio_output@@AAE_NXZ 100810e0 f i libucrtd:output.obj
 0001:000801b0       ?state_case_flag@?$output_processor@DV?$string_output_adapter@D@__crt_stdio_output@@V?$standard_base@DV?$string_output_adapter@D@__crt_stdio_output@@@2@@__crt_stdio_output@@AAE_NXZ 100811b0 f i libucrtd:output.obj
 0001:00080280       ?state_case_flag@?$output_processor@_WV?$stream_output_adapter@_W@__crt_stdio_output@@V?$format_validation_base@_WV?$stream_output_adapter@_W@__crt_stdio_output@@@2@@__crt_stdio_output@@AAE_NXZ 10081280 f i libucrtd:output.obj
 0001:00080350       ?state_case_flag@?$output_processor@_WV?$stream_output_adapter@_W@__crt_stdio_output@@V?$positional_parameter_base@_WV?$stream_output_adapter@_W@__crt_stdio_output@@@2@@__crt_stdio_output@@AAE_NXZ 10081350 f i libucrtd:output.obj
 0001:00080420       ?state_case_flag@?$output_processor@_WV?$stream_output_adapter@_W@__crt_stdio_output@@V?$standard_base@_WV?$stream_output_adapter@_W@__crt_stdio_output@@@2@@__crt_stdio_output@@AAE_NXZ 10081420 f i libucrtd:output.obj
 0001:000804f0       ?state_case_flag@?$output_processor@_WV?$string_output_adapter@_W@__crt_stdio_output@@V?$format_validation_base@_WV?$string_output_adapter@_W@__crt_stdio_output@@@2@@__crt_stdio_output@@AAE_NXZ 100814f0 f i libucrtd:output.obj
 0001:000805c0       ?state_case_flag@?$output_processor@_WV?$string_output_adapter@_W@__crt_stdio_output@@V?$positional_parameter_base@_WV?$string_output_adapter@_W@__crt_stdio_output@@@2@@__crt_stdio_output@@AAE_NXZ 100815c0 f i libucrtd:output.obj
 0001:00080690       ?state_case_flag@?$output_processor@_WV?$string_output_adapter@_W@__crt_stdio_output@@V?$standard_base@_WV?$string_output_adapter@_W@__crt_stdio_output@@@2@@__crt_stdio_output@@AAE_NXZ 10081690 f i libucrtd:output.obj
 0001:00080760       ?state_case_normal@?$output_processor@DV?$stream_output_adapter@D@__crt_stdio_output@@V?$format_validation_base@DV?$stream_output_adapter@D@__crt_stdio_output@@@2@@__crt_stdio_output@@AAE_NXZ 10081760 f i libucrtd:output.obj
 0001:00080850       ?state_case_normal@?$output_processor@DV?$stream_output_adapter@D@__crt_stdio_output@@V?$positional_parameter_base@DV?$stream_output_adapter@D@__crt_stdio_output@@@2@@__crt_stdio_output@@AAE_NXZ 10081850 f i libucrtd:output.obj
 0001:00080940       ?state_case_normal@?$output_processor@DV?$stream_output_adapter@D@__crt_stdio_output@@V?$standard_base@DV?$stream_output_adapter@D@__crt_stdio_output@@@2@@__crt_stdio_output@@AAE_NXZ 10081940 f i libucrtd:output.obj
 0001:00080a30       ?state_case_normal@?$output_processor@DV?$string_output_adapter@D@__crt_stdio_output@@V?$format_validation_base@DV?$string_output_adapter@D@__crt_stdio_output@@@2@@__crt_stdio_output@@AAE_NXZ 10081a30 f i libucrtd:output.obj
 0001:00080b20       ?state_case_normal@?$output_processor@DV?$string_output_adapter@D@__crt_stdio_output@@V?$positional_parameter_base@DV?$string_output_adapter@D@__crt_stdio_output@@@2@@__crt_stdio_output@@AAE_NXZ 10081b20 f i libucrtd:output.obj
 0001:00080c10       ?state_case_normal@?$output_processor@DV?$string_output_adapter@D@__crt_stdio_output@@V?$standard_base@DV?$string_output_adapter@D@__crt_stdio_output@@@2@@__crt_stdio_output@@AAE_NXZ 10081c10 f i libucrtd:output.obj
 0001:00080d00       ?state_case_normal@?$output_processor@_WV?$stream_output_adapter@_W@__crt_stdio_output@@V?$format_validation_base@_WV?$stream_output_adapter@_W@__crt_stdio_output@@@2@@__crt_stdio_output@@AAE_NXZ 10081d00 f i libucrtd:output.obj
 0001:00080df0       ?state_case_normal@?$output_processor@_WV?$stream_output_adapter@_W@__crt_stdio_output@@V?$positional_parameter_base@_WV?$stream_output_adapter@_W@__crt_stdio_output@@@2@@__crt_stdio_output@@AAE_NXZ 10081df0 f i libucrtd:output.obj
 0001:00080ee0       ?state_case_normal@?$output_processor@_WV?$stream_output_adapter@_W@__crt_stdio_output@@V?$standard_base@_WV?$stream_output_adapter@_W@__crt_stdio_output@@@2@@__crt_stdio_output@@AAE_NXZ 10081ee0 f i libucrtd:output.obj
 0001:00080fd0       ?state_case_normal@?$output_processor@_WV?$string_output_adapter@_W@__crt_stdio_output@@V?$format_validation_base@_WV?$string_output_adapter@_W@__crt_stdio_output@@@2@@__crt_stdio_output@@AAE_NXZ 10081fd0 f i libucrtd:output.obj
 0001:000810c0       ?state_case_normal@?$output_processor@_WV?$string_output_adapter@_W@__crt_stdio_output@@V?$positional_parameter_base@_WV?$string_output_adapter@_W@__crt_stdio_output@@@2@@__crt_stdio_output@@AAE_NXZ 100820c0 f i libucrtd:output.obj
 0001:000811b0       ?state_case_normal@?$output_processor@_WV?$string_output_adapter@_W@__crt_stdio_output@@V?$standard_base@_WV?$string_output_adapter@_W@__crt_stdio_output@@@2@@__crt_stdio_output@@AAE_NXZ 100821b0 f i libucrtd:output.obj
 0001:000812a0       ?state_case_normal_common@?$output_processor@DV?$stream_output_adapter@D@__crt_stdio_output@@V?$format_validation_base@DV?$stream_output_adapter@D@__crt_stdio_output@@@2@@__crt_stdio_output@@AAE_NXZ 100822a0 f i libucrtd:output.obj
 0001:00081310       ?state_case_normal_common@?$output_processor@DV?$stream_output_adapter@D@__crt_stdio_output@@V?$positional_parameter_base@DV?$stream_output_adapter@D@__crt_stdio_output@@@2@@__crt_stdio_output@@AAE_NXZ 10082310 f i libucrtd:output.obj
 0001:00081380       ?state_case_normal_common@?$output_processor@DV?$stream_output_adapter@D@__crt_stdio_output@@V?$standard_base@DV?$stream_output_adapter@D@__crt_stdio_output@@@2@@__crt_stdio_output@@AAE_NXZ 10082380 f i libucrtd:output.obj
 0001:000813f0       ?state_case_normal_common@?$output_processor@DV?$string_output_adapter@D@__crt_stdio_output@@V?$format_validation_base@DV?$string_output_adapter@D@__crt_stdio_output@@@2@@__crt_stdio_output@@AAE_NXZ 100823f0 f i libucrtd:output.obj
 0001:00081460       ?state_case_normal_common@?$output_processor@DV?$string_output_adapter@D@__crt_stdio_output@@V?$positional_parameter_base@DV?$string_output_adapter@D@__crt_stdio_output@@@2@@__crt_stdio_output@@AAE_NXZ 10082460 f i libucrtd:output.obj
 0001:000814d0       ?state_case_normal_common@?$output_processor@DV?$string_output_adapter@D@__crt_stdio_output@@V?$standard_base@DV?$string_output_adapter@D@__crt_stdio_output@@@2@@__crt_stdio_output@@AAE_NXZ 100824d0 f i libucrtd:output.obj
 0001:00081540       ?state_case_normal_common@?$output_processor@_WV?$stream_output_adapter@_W@__crt_stdio_output@@V?$format_validation_base@_WV?$stream_output_adapter@_W@__crt_stdio_output@@@2@@__crt_stdio_output@@AAE_NXZ 10082540 f i libucrtd:output.obj
 0001:000815b0       ?state_case_normal_common@?$output_processor@_WV?$stream_output_adapter@_W@__crt_stdio_output@@V?$positional_parameter_base@_WV?$stream_output_adapter@_W@__crt_stdio_output@@@2@@__crt_stdio_output@@AAE_NXZ 100825b0 f i libucrtd:output.obj
 0001:00081620       ?state_case_normal_common@?$output_processor@_WV?$stream_output_adapter@_W@__crt_stdio_output@@V?$standard_base@_WV?$stream_output_adapter@_W@__crt_stdio_output@@@2@@__crt_stdio_output@@AAE_NXZ 10082620 f i libucrtd:output.obj
 0001:00081690       ?state_case_normal_common@?$output_processor@_WV?$string_output_adapter@_W@__crt_stdio_output@@V?$format_validation_base@_WV?$string_output_adapter@_W@__crt_stdio_output@@@2@@__crt_stdio_output@@AAE_NXZ 10082690 f i libucrtd:output.obj
 0001:00081700       ?state_case_normal_common@?$output_processor@_WV?$string_output_adapter@_W@__crt_stdio_output@@V?$positional_parameter_base@_WV?$string_output_adapter@_W@__crt_stdio_output@@@2@@__crt_stdio_output@@AAE_NXZ 10082700 f i libucrtd:output.obj
 0001:00081770       ?state_case_normal_common@?$output_processor@_WV?$string_output_adapter@_W@__crt_stdio_output@@V?$standard_base@_WV?$string_output_adapter@_W@__crt_stdio_output@@@2@@__crt_stdio_output@@AAE_NXZ 10082770 f i libucrtd:output.obj
 0001:000817e0       ?state_case_normal_tchar@?$output_processor@DV?$stream_output_adapter@D@__crt_stdio_output@@V?$format_validation_base@DV?$stream_output_adapter@D@__crt_stdio_output@@@2@@__crt_stdio_output@@AAE_ND@Z 100827e0 f i libucrtd:output.obj
 0001:00081960       ?state_case_normal_tchar@?$output_processor@DV?$stream_output_adapter@D@__crt_stdio_output@@V?$positional_parameter_base@DV?$stream_output_adapter@D@__crt_stdio_output@@@2@@__crt_stdio_output@@AAE_ND@Z 10082960 f i libucrtd:output.obj
 0001:00081ae0       ?state_case_normal_tchar@?$output_processor@DV?$stream_output_adapter@D@__crt_stdio_output@@V?$standard_base@DV?$stream_output_adapter@D@__crt_stdio_output@@@2@@__crt_stdio_output@@AAE_ND@Z 10082ae0 f i libucrtd:output.obj
 0001:00081c60       ?state_case_normal_tchar@?$output_processor@DV?$string_output_adapter@D@__crt_stdio_output@@V?$format_validation_base@DV?$string_output_adapter@D@__crt_stdio_output@@@2@@__crt_stdio_output@@AAE_ND@Z 10082c60 f i libucrtd:output.obj
 0001:00081de0       ?state_case_normal_tchar@?$output_processor@DV?$string_output_adapter@D@__crt_stdio_output@@V?$positional_parameter_base@DV?$string_output_adapter@D@__crt_stdio_output@@@2@@__crt_stdio_output@@AAE_ND@Z 10082de0 f i libucrtd:output.obj
 0001:00081f60       ?state_case_normal_tchar@?$output_processor@DV?$string_output_adapter@D@__crt_stdio_output@@V?$standard_base@DV?$string_output_adapter@D@__crt_stdio_output@@@2@@__crt_stdio_output@@AAE_ND@Z 10082f60 f i libucrtd:output.obj
 0001:000820e0       ?state_case_normal_tchar@?$output_processor@_WV?$stream_output_adapter@_W@__crt_stdio_output@@V?$format_validation_base@_WV?$stream_output_adapter@_W@__crt_stdio_output@@@2@@__crt_stdio_output@@AAE_N_W@Z 100830e0 f i libucrtd:output.obj
 0001:00082100       ?state_case_normal_tchar@?$output_processor@_WV?$stream_output_adapter@_W@__crt_stdio_output@@V?$positional_parameter_base@_WV?$stream_output_adapter@_W@__crt_stdio_output@@@2@@__crt_stdio_output@@AAE_N_W@Z 10083100 f i libucrtd:output.obj
 0001:00082120       ?state_case_normal_tchar@?$output_processor@_WV?$stream_output_adapter@_W@__crt_stdio_output@@V?$standard_base@_WV?$stream_output_adapter@_W@__crt_stdio_output@@@2@@__crt_stdio_output@@AAE_N_W@Z 10083120 f i libucrtd:output.obj
 0001:00082140       ?state_case_normal_tchar@?$output_processor@_WV?$string_output_adapter@_W@__crt_stdio_output@@V?$format_validation_base@_WV?$string_output_adapter@_W@__crt_stdio_output@@@2@@__crt_stdio_output@@AAE_N_W@Z 10083140 f i libucrtd:output.obj
 0001:00082160       ?state_case_normal_tchar@?$output_processor@_WV?$string_output_adapter@_W@__crt_stdio_output@@V?$positional_parameter_base@_WV?$string_output_adapter@_W@__crt_stdio_output@@@2@@__crt_stdio_output@@AAE_N_W@Z 10083160 f i libucrtd:output.obj
 0001:00082180       ?state_case_normal_tchar@?$output_processor@_WV?$string_output_adapter@_W@__crt_stdio_output@@V?$standard_base@_WV?$string_output_adapter@_W@__crt_stdio_output@@@2@@__crt_stdio_output@@AAE_N_W@Z 10083180 f i libucrtd:output.obj
 0001:000821a0       ?state_case_percent@?$output_processor@DV?$stream_output_adapter@D@__crt_stdio_output@@V?$format_validation_base@DV?$stream_output_adapter@D@__crt_stdio_output@@@2@@__crt_stdio_output@@AAE_NXZ 100831a0 f i libucrtd:output.obj
 0001:00082200       ?state_case_percent@?$output_processor@DV?$stream_output_adapter@D@__crt_stdio_output@@V?$positional_parameter_base@DV?$stream_output_adapter@D@__crt_stdio_output@@@2@@__crt_stdio_output@@AAE_NXZ 10083200 f i libucrtd:output.obj
 0001:00082260       ?state_case_percent@?$output_processor@DV?$stream_output_adapter@D@__crt_stdio_output@@V?$standard_base@DV?$stream_output_adapter@D@__crt_stdio_output@@@2@@__crt_stdio_output@@AAE_NXZ 10083260 f i libucrtd:output.obj
 0001:000822c0       ?state_case_percent@?$output_processor@DV?$string_output_adapter@D@__crt_stdio_output@@V?$format_validation_base@DV?$string_output_adapter@D@__crt_stdio_output@@@2@@__crt_stdio_output@@AAE_NXZ 100832c0 f i libucrtd:output.obj
 0001:00082320       ?state_case_percent@?$output_processor@DV?$string_output_adapter@D@__crt_stdio_output@@V?$positional_parameter_base@DV?$string_output_adapter@D@__crt_stdio_output@@@2@@__crt_stdio_output@@AAE_NXZ 10083320 f i libucrtd:output.obj
 0001:00082380       ?state_case_percent@?$output_processor@DV?$string_output_adapter@D@__crt_stdio_output@@V?$standard_base@DV?$string_output_adapter@D@__crt_stdio_output@@@2@@__crt_stdio_output@@AAE_NXZ 10083380 f i libucrtd:output.obj
 0001:000823e0       ?state_case_percent@?$output_processor@_WV?$stream_output_adapter@_W@__crt_stdio_output@@V?$format_validation_base@_WV?$stream_output_adapter@_W@__crt_stdio_output@@@2@@__crt_stdio_output@@AAE_NXZ 100833e0 f i libucrtd:output.obj
 0001:00082440       ?state_case_percent@?$output_processor@_WV?$stream_output_adapter@_W@__crt_stdio_output@@V?$positional_parameter_base@_WV?$stream_output_adapter@_W@__crt_stdio_output@@@2@@__crt_stdio_output@@AAE_NXZ 10083440 f i libucrtd:output.obj
 0001:000824a0       ?state_case_percent@?$output_processor@_WV?$stream_output_adapter@_W@__crt_stdio_output@@V?$standard_base@_WV?$stream_output_adapter@_W@__crt_stdio_output@@@2@@__crt_stdio_output@@AAE_NXZ 100834a0 f i libucrtd:output.obj
 0001:00082500       ?state_case_percent@?$output_processor@_WV?$string_output_adapter@_W@__crt_stdio_output@@V?$format_validation_base@_WV?$string_output_adapter@_W@__crt_stdio_output@@@2@@__crt_stdio_output@@AAE_NXZ 10083500 f i libucrtd:output.obj
 0001:00082560       ?state_case_percent@?$output_processor@_WV?$string_output_adapter@_W@__crt_stdio_output@@V?$positional_parameter_base@_WV?$string_output_adapter@_W@__crt_stdio_output@@@2@@__crt_stdio_output@@AAE_NXZ 10083560 f i libucrtd:output.obj
 0001:000825c0       ?state_case_percent@?$output_processor@_WV?$string_output_adapter@_W@__crt_stdio_output@@V?$standard_base@_WV?$string_output_adapter@_W@__crt_stdio_output@@@2@@__crt_stdio_output@@AAE_NXZ 100835c0 f i libucrtd:output.obj
 0001:00082620       ?state_case_precision@?$output_processor@DV?$stream_output_adapter@D@__crt_stdio_output@@V?$format_validation_base@DV?$stream_output_adapter@D@__crt_stdio_output@@@2@@__crt_stdio_output@@AAE_NXZ 10083620 f i libucrtd:output.obj
 0001:000826a0       ?state_case_precision@?$output_processor@DV?$stream_output_adapter@D@__crt_stdio_output@@V?$positional_parameter_base@DV?$stream_output_adapter@D@__crt_stdio_output@@@2@@__crt_stdio_output@@AAE_NXZ 100836a0 f i libucrtd:output.obj
 0001:00082720       ?state_case_precision@?$output_processor@DV?$stream_output_adapter@D@__crt_stdio_output@@V?$standard_base@DV?$stream_output_adapter@D@__crt_stdio_output@@@2@@__crt_stdio_output@@AAE_NXZ 10083720 f i libucrtd:output.obj
 0001:000827a0       ?state_case_precision@?$output_processor@DV?$string_output_adapter@D@__crt_stdio_output@@V?$format_validation_base@DV?$string_output_adapter@D@__crt_stdio_output@@@2@@__crt_stdio_output@@AAE_NXZ 100837a0 f i libucrtd:output.obj
 0001:00082820       ?state_case_precision@?$output_processor@DV?$string_output_adapter@D@__crt_stdio_output@@V?$positional_parameter_base@DV?$string_output_adapter@D@__crt_stdio_output@@@2@@__crt_stdio_output@@AAE_NXZ 10083820 f i libucrtd:output.obj
 0001:000828a0       ?state_case_precision@?$output_processor@DV?$string_output_adapter@D@__crt_stdio_output@@V?$standard_base@DV?$string_output_adapter@D@__crt_stdio_output@@@2@@__crt_stdio_output@@AAE_NXZ 100838a0 f i libucrtd:output.obj
 0001:00082920       ?state_case_precision@?$output_processor@_WV?$stream_output_adapter@_W@__crt_stdio_output@@V?$format_validation_base@_WV?$stream_output_adapter@_W@__crt_stdio_output@@@2@@__crt_stdio_output@@AAE_NXZ 10083920 f i libucrtd:output.obj
 0001:000829a0       ?state_case_precision@?$output_processor@_WV?$stream_output_adapter@_W@__crt_stdio_output@@V?$positional_parameter_base@_WV?$stream_output_adapter@_W@__crt_stdio_output@@@2@@__crt_stdio_output@@AAE_NXZ 100839a0 f i libucrtd:output.obj
 0001:00082a20       ?state_case_precision@?$output_processor@_WV?$stream_output_adapter@_W@__crt_stdio_output@@V?$standard_base@_WV?$stream_output_adapter@_W@__crt_stdio_output@@@2@@__crt_stdio_output@@AAE_NXZ 10083a20 f i libucrtd:output.obj
 0001:00082aa0       ?state_case_precision@?$output_processor@_WV?$string_output_adapter@_W@__crt_stdio_output@@V?$format_validation_base@_WV?$string_output_adapter@_W@__crt_stdio_output@@@2@@__crt_stdio_output@@AAE_NXZ 10083aa0 f i libucrtd:output.obj
 0001:00082b20       ?state_case_precision@?$output_processor@_WV?$string_output_adapter@_W@__crt_stdio_output@@V?$positional_parameter_base@_WV?$string_output_adapter@_W@__crt_stdio_output@@@2@@__crt_stdio_output@@AAE_NXZ 10083b20 f i libucrtd:output.obj
 0001:00082ba0       ?state_case_precision@?$output_processor@_WV?$string_output_adapter@_W@__crt_stdio_output@@V?$standard_base@_WV?$string_output_adapter@_W@__crt_stdio_output@@@2@@__crt_stdio_output@@AAE_NXZ 10083ba0 f i libucrtd:output.obj
 0001:00082c20       ?state_case_size@?$output_processor@DV?$stream_output_adapter@D@__crt_stdio_output@@V?$format_validation_base@DV?$stream_output_adapter@D@__crt_stdio_output@@@2@@__crt_stdio_output@@AAE_NXZ 10083c20 f i libucrtd:output.obj
 0001:00083100       ?state_case_size@?$output_processor@DV?$stream_output_adapter@D@__crt_stdio_output@@V?$positional_parameter_base@DV?$stream_output_adapter@D@__crt_stdio_output@@@2@@__crt_stdio_output@@AAE_NXZ 10084100 f i libucrtd:output.obj
 0001:000835e0       ?state_case_size@?$output_processor@DV?$stream_output_adapter@D@__crt_stdio_output@@V?$standard_base@DV?$stream_output_adapter@D@__crt_stdio_output@@@2@@__crt_stdio_output@@AAE_NXZ 100845e0 f i libucrtd:output.obj
 0001:00083ac0       ?state_case_size@?$output_processor@DV?$string_output_adapter@D@__crt_stdio_output@@V?$format_validation_base@DV?$string_output_adapter@D@__crt_stdio_output@@@2@@__crt_stdio_output@@AAE_NXZ 10084ac0 f i libucrtd:output.obj
 0001:00083fa0       ?state_case_size@?$output_processor@DV?$string_output_adapter@D@__crt_stdio_output@@V?$positional_parameter_base@DV?$string_output_adapter@D@__crt_stdio_output@@@2@@__crt_stdio_output@@AAE_NXZ 10084fa0 f i libucrtd:output.obj
 0001:00084480       ?state_case_size@?$output_processor@DV?$string_output_adapter@D@__crt_stdio_output@@V?$standard_base@DV?$string_output_adapter@D@__crt_stdio_output@@@2@@__crt_stdio_output@@AAE_NXZ 10085480 f i libucrtd:output.obj
 0001:00084960       ?state_case_size@?$output_processor@_WV?$stream_output_adapter@_W@__crt_stdio_output@@V?$format_validation_base@_WV?$stream_output_adapter@_W@__crt_stdio_output@@@2@@__crt_stdio_output@@AAE_NXZ 10085960 f i libucrtd:output.obj
 0001:00084e40       ?state_case_size@?$output_processor@_WV?$stream_output_adapter@_W@__crt_stdio_output@@V?$positional_parameter_base@_WV?$stream_output_adapter@_W@__crt_stdio_output@@@2@@__crt_stdio_output@@AAE_NXZ 10085e40 f i libucrtd:output.obj
 0001:00085320       ?state_case_size@?$output_processor@_WV?$stream_output_adapter@_W@__crt_stdio_output@@V?$standard_base@_WV?$stream_output_adapter@_W@__crt_stdio_output@@@2@@__crt_stdio_output@@AAE_NXZ 10086320 f i libucrtd:output.obj
 0001:00085800       ?state_case_size@?$output_processor@_WV?$string_output_adapter@_W@__crt_stdio_output@@V?$format_validation_base@_WV?$string_output_adapter@_W@__crt_stdio_output@@@2@@__crt_stdio_output@@AAE_NXZ 10086800 f i libucrtd:output.obj
 0001:00085ce0       ?state_case_size@?$output_processor@_WV?$string_output_adapter@_W@__crt_stdio_output@@V?$positional_parameter_base@_WV?$string_output_adapter@_W@__crt_stdio_output@@@2@@__crt_stdio_output@@AAE_NXZ 10086ce0 f i libucrtd:output.obj
 0001:000861c0       ?state_case_size@?$output_processor@_WV?$string_output_adapter@_W@__crt_stdio_output@@V?$standard_base@_WV?$string_output_adapter@_W@__crt_stdio_output@@@2@@__crt_stdio_output@@AAE_NXZ 100871c0 f i libucrtd:output.obj
 0001:000866a0       ?state_case_type@?$output_processor@DV?$stream_output_adapter@D@__crt_stdio_output@@V?$format_validation_base@DV?$stream_output_adapter@D@__crt_stdio_output@@@2@@__crt_stdio_output@@AAE_NXZ 100876a0 f i libucrtd:output.obj
 0001:00086b60       ?state_case_type@?$output_processor@DV?$stream_output_adapter@D@__crt_stdio_output@@V?$positional_parameter_base@DV?$stream_output_adapter@D@__crt_stdio_output@@@2@@__crt_stdio_output@@AAE_NXZ 10087b60 f i libucrtd:output.obj
 0001:00087020       ?state_case_type@?$output_processor@DV?$stream_output_adapter@D@__crt_stdio_output@@V?$standard_base@DV?$stream_output_adapter@D@__crt_stdio_output@@@2@@__crt_stdio_output@@AAE_NXZ 10088020 f i libucrtd:output.obj
 0001:000874e0       ?state_case_type@?$output_processor@DV?$string_output_adapter@D@__crt_stdio_output@@V?$format_validation_base@DV?$string_output_adapter@D@__crt_stdio_output@@@2@@__crt_stdio_output@@AAE_NXZ 100884e0 f i libucrtd:output.obj
 0001:000879a0       ?state_case_type@?$output_processor@DV?$string_output_adapter@D@__crt_stdio_output@@V?$positional_parameter_base@DV?$string_output_adapter@D@__crt_stdio_output@@@2@@__crt_stdio_output@@AAE_NXZ 100889a0 f i libucrtd:output.obj
 0001:00087e60       ?state_case_type@?$output_processor@DV?$string_output_adapter@D@__crt_stdio_output@@V?$standard_base@DV?$string_output_adapter@D@__crt_stdio_output@@@2@@__crt_stdio_output@@AAE_NXZ 10088e60 f i libucrtd:output.obj
 0001:00088320       ?state_case_type@?$output_processor@_WV?$stream_output_adapter@_W@__crt_stdio_output@@V?$format_validation_base@_WV?$stream_output_adapter@_W@__crt_stdio_output@@@2@@__crt_stdio_output@@AAE_NXZ 10089320 f i libucrtd:output.obj
 0001:00088820       ?state_case_type@?$output_processor@_WV?$stream_output_adapter@_W@__crt_stdio_output@@V?$positional_parameter_base@_WV?$stream_output_adapter@_W@__crt_stdio_output@@@2@@__crt_stdio_output@@AAE_NXZ 10089820 f i libucrtd:output.obj
 0001:00088d20       ?state_case_type@?$output_processor@_WV?$stream_output_adapter@_W@__crt_stdio_output@@V?$standard_base@_WV?$stream_output_adapter@_W@__crt_stdio_output@@@2@@__crt_stdio_output@@AAE_NXZ 10089d20 f i libucrtd:output.obj
 0001:00089220       ?state_case_type@?$output_processor@_WV?$string_output_adapter@_W@__crt_stdio_output@@V?$format_validation_base@_WV?$string_output_adapter@_W@__crt_stdio_output@@@2@@__crt_stdio_output@@AAE_NXZ 1008a220 f i libucrtd:output.obj
 0001:00089720       ?state_case_type@?$output_processor@_WV?$string_output_adapter@_W@__crt_stdio_output@@V?$positional_parameter_base@_WV?$string_output_adapter@_W@__crt_stdio_output@@@2@@__crt_stdio_output@@AAE_NXZ 1008a720 f i libucrtd:output.obj
 0001:00089c20       ?state_case_type@?$output_processor@_WV?$string_output_adapter@_W@__crt_stdio_output@@V?$standard_base@_WV?$string_output_adapter@_W@__crt_stdio_output@@@2@@__crt_stdio_output@@AAE_NXZ 1008ac20 f i libucrtd:output.obj
 0001:0008a120       ?state_case_width@?$output_processor@DV?$stream_output_adapter@D@__crt_stdio_output@@V?$format_validation_base@DV?$stream_output_adapter@D@__crt_stdio_output@@@2@@__crt_stdio_output@@AAE_NXZ 1008b120 f i libucrtd:output.obj
 0001:0008a1b0       ?state_case_width@?$output_processor@DV?$stream_output_adapter@D@__crt_stdio_output@@V?$positional_parameter_base@DV?$stream_output_adapter@D@__crt_stdio_output@@@2@@__crt_stdio_output@@AAE_NXZ 1008b1b0 f i libucrtd:output.obj
 0001:0008a240       ?state_case_width@?$output_processor@DV?$stream_output_adapter@D@__crt_stdio_output@@V?$standard_base@DV?$stream_output_adapter@D@__crt_stdio_output@@@2@@__crt_stdio_output@@AAE_NXZ 1008b240 f i libucrtd:output.obj
 0001:0008a2d0       ?state_case_width@?$output_processor@DV?$string_output_adapter@D@__crt_stdio_output@@V?$format_validation_base@DV?$string_output_adapter@D@__crt_stdio_output@@@2@@__crt_stdio_output@@AAE_NXZ 1008b2d0 f i libucrtd:output.obj
 0001:0008a360       ?state_case_width@?$output_processor@DV?$string_output_adapter@D@__crt_stdio_output@@V?$positional_parameter_base@DV?$string_output_adapter@D@__crt_stdio_output@@@2@@__crt_stdio_output@@AAE_NXZ 1008b360 f i libucrtd:output.obj
 0001:0008a3f0       ?state_case_width@?$output_processor@DV?$string_output_adapter@D@__crt_stdio_output@@V?$standard_base@DV?$string_output_adapter@D@__crt_stdio_output@@@2@@__crt_stdio_output@@AAE_NXZ 1008b3f0 f i libucrtd:output.obj
 0001:0008a480       ?state_case_width@?$output_processor@_WV?$stream_output_adapter@_W@__crt_stdio_output@@V?$format_validation_base@_WV?$stream_output_adapter@_W@__crt_stdio_output@@@2@@__crt_stdio_output@@AAE_NXZ 1008b480 f i libucrtd:output.obj
 0001:0008a510       ?state_case_width@?$output_processor@_WV?$stream_output_adapter@_W@__crt_stdio_output@@V?$positional_parameter_base@_WV?$stream_output_adapter@_W@__crt_stdio_output@@@2@@__crt_stdio_output@@AAE_NXZ 1008b510 f i libucrtd:output.obj
 0001:0008a5a0       ?state_case_width@?$output_processor@_WV?$stream_output_adapter@_W@__crt_stdio_output@@V?$standard_base@_WV?$stream_output_adapter@_W@__crt_stdio_output@@@2@@__crt_stdio_output@@AAE_NXZ 1008b5a0 f i libucrtd:output.obj
 0001:0008a630       ?state_case_width@?$output_processor@_WV?$string_output_adapter@_W@__crt_stdio_output@@V?$format_validation_base@_WV?$string_output_adapter@_W@__crt_stdio_output@@@2@@__crt_stdio_output@@AAE_NXZ 1008b630 f i libucrtd:output.obj
 0001:0008a6c0       ?state_case_width@?$output_processor@_WV?$string_output_adapter@_W@__crt_stdio_output@@V?$positional_parameter_base@_WV?$string_output_adapter@_W@__crt_stdio_output@@@2@@__crt_stdio_output@@AAE_NXZ 1008b6c0 f i libucrtd:output.obj
 0001:0008a750       ?state_case_width@?$output_processor@_WV?$string_output_adapter@_W@__crt_stdio_output@@V?$standard_base@_WV?$string_output_adapter@_W@__crt_stdio_output@@@2@@__crt_stdio_output@@AAE_NXZ 1008b750 f i libucrtd:output.obj
 0001:0008a7e0       ?state_count@?$format_validation_base@DV?$stream_output_adapter@D@__crt_stdio_output@@@__crt_stdio_output@@KAIXZ 1008b7e0 f i libucrtd:output.obj
 0001:0008a7f0       ?state_count@?$format_validation_base@DV?$string_output_adapter@D@__crt_stdio_output@@@__crt_stdio_output@@KAIXZ 1008b7f0 f i libucrtd:output.obj
 0001:0008a800       ?state_count@?$format_validation_base@_WV?$stream_output_adapter@_W@__crt_stdio_output@@@__crt_stdio_output@@KAIXZ 1008b800 f i libucrtd:output.obj
 0001:0008a810       ?state_count@?$format_validation_base@_WV?$string_output_adapter@_W@__crt_stdio_output@@@__crt_stdio_output@@KAIXZ 1008b810 f i libucrtd:output.obj
 0001:0008a820       ?state_count@?$standard_base@DV?$stream_output_adapter@D@__crt_stdio_output@@@__crt_stdio_output@@KAIXZ 1008b820 f i libucrtd:output.obj
 0001:0008a830       ?state_count@?$standard_base@DV?$string_output_adapter@D@__crt_stdio_output@@@__crt_stdio_output@@KAIXZ 1008b830 f i libucrtd:output.obj
 0001:0008a840       ?state_count@?$standard_base@_WV?$stream_output_adapter@_W@__crt_stdio_output@@@__crt_stdio_output@@KAIXZ 1008b840 f i libucrtd:output.obj
 0001:0008a850       ?state_count@?$standard_base@_WV?$string_output_adapter@_W@__crt_stdio_output@@@__crt_stdio_output@@KAIXZ 1008b850 f i libucrtd:output.obj
 0001:0008a860       ?state_transition_table@?$format_validation_base@DV?$stream_output_adapter@D@__crt_stdio_output@@@__crt_stdio_output@@KAABV?$spectre_mitigated_lookup_table@Ustate_transition_pair@__crt_stdio_output@@$0IA@@2@XZ 1008b860 f i libucrtd:output.obj
 0001:0008a870       ?state_transition_table@?$format_validation_base@DV?$string_output_adapter@D@__crt_stdio_output@@@__crt_stdio_output@@KAABV?$spectre_mitigated_lookup_table@Ustate_transition_pair@__crt_stdio_output@@$0IA@@2@XZ 1008b870 f i libucrtd:output.obj
 0001:0008a880       ?state_transition_table@?$format_validation_base@_WV?$stream_output_adapter@_W@__crt_stdio_output@@@__crt_stdio_output@@KAABV?$spectre_mitigated_lookup_table@Ustate_transition_pair@__crt_stdio_output@@$0IA@@2@XZ 1008b880 f i libucrtd:output.obj
 0001:0008a890       ?state_transition_table@?$format_validation_base@_WV?$string_output_adapter@_W@__crt_stdio_output@@@__crt_stdio_output@@KAABV?$spectre_mitigated_lookup_table@Ustate_transition_pair@__crt_stdio_output@@$0IA@@2@XZ 1008b890 f i libucrtd:output.obj
 0001:0008a8a0       ?state_transition_table@?$standard_base@DV?$stream_output_adapter@D@__crt_stdio_output@@@__crt_stdio_output@@KAABV?$spectre_mitigated_lookup_table@Ustate_transition_pair@__crt_stdio_output@@$0IA@@2@XZ 1008b8a0 f i libucrtd:output.obj
 0001:0008a8b0       ?state_transition_table@?$standard_base@DV?$string_output_adapter@D@__crt_stdio_output@@@__crt_stdio_output@@KAABV?$spectre_mitigated_lookup_table@Ustate_transition_pair@__crt_stdio_output@@$0IA@@2@XZ 1008b8b0 f i libucrtd:output.obj
 0001:0008a8c0       ?state_transition_table@?$standard_base@_WV?$stream_output_adapter@_W@__crt_stdio_output@@@__crt_stdio_output@@KAABV?$spectre_mitigated_lookup_table@Ustate_transition_pair@__crt_stdio_output@@$0IA@@2@XZ 1008b8c0 f i libucrtd:output.obj
 0001:0008a8d0       ?state_transition_table@?$standard_base@_WV?$string_output_adapter@_W@__crt_stdio_output@@@__crt_stdio_output@@KAABV?$spectre_mitigated_lookup_table@Ustate_transition_pair@__crt_stdio_output@@$0IA@@2@XZ 1008b8d0 f i libucrtd:output.obj
 0001:0008a8e0       ?tchar_string@?$common_data@D@__crt_stdio_output@@IAEAAPADD@Z 1008b8e0 f i libucrtd:output.obj
 0001:0008a900       ?tchar_string@?$common_data@D@__crt_stdio_output@@IAEAAPADXZ 1008b900 f i libucrtd:output.obj
 0001:0008a920       ?tchar_string@?$common_data@_W@__crt_stdio_output@@IAEAAPA_WXZ 1008b920 f i libucrtd:output.obj
 0001:0008a940       ?tchar_string@?$common_data@_W@__crt_stdio_output@@IAEAAPA_W_W@Z 1008b940 f i libucrtd:output.obj
 0001:0008a960       ?to_integer_size@__crt_stdio_output@@YAIW4length_modifier@1@@Z 1008b960 f i libucrtd:output.obj
 0001:0008aa30       ?type_case_X@?$output_processor@DV?$stream_output_adapter@D@__crt_stdio_output@@V?$format_validation_base@DV?$stream_output_adapter@D@__crt_stdio_output@@@2@@__crt_stdio_output@@AAE_NXZ 1008ba30 f i libucrtd:output.obj
 0001:0008aa50       ?type_case_X@?$output_processor@DV?$stream_output_adapter@D@__crt_stdio_output@@V?$positional_parameter_base@DV?$stream_output_adapter@D@__crt_stdio_output@@@2@@__crt_stdio_output@@AAE_NXZ 1008ba50 f i libucrtd:output.obj
 0001:0008aa70       ?type_case_X@?$output_processor@DV?$stream_output_adapter@D@__crt_stdio_output@@V?$standard_base@DV?$stream_output_adapter@D@__crt_stdio_output@@@2@@__crt_stdio_output@@AAE_NXZ 1008ba70 f i libucrtd:output.obj
 0001:0008aa90       ?type_case_X@?$output_processor@DV?$string_output_adapter@D@__crt_stdio_output@@V?$format_validation_base@DV?$string_output_adapter@D@__crt_stdio_output@@@2@@__crt_stdio_output@@AAE_NXZ 1008ba90 f i libucrtd:output.obj
 0001:0008aab0       ?type_case_X@?$output_processor@DV?$string_output_adapter@D@__crt_stdio_output@@V?$positional_parameter_base@DV?$string_output_adapter@D@__crt_stdio_output@@@2@@__crt_stdio_output@@AAE_NXZ 1008bab0 f i libucrtd:output.obj
 0001:0008aad0       ?type_case_X@?$output_processor@DV?$string_output_adapter@D@__crt_stdio_output@@V?$standard_base@DV?$string_output_adapter@D@__crt_stdio_output@@@2@@__crt_stdio_output@@AAE_NXZ 1008bad0 f i libucrtd:output.obj
 0001:0008aaf0       ?type_case_X@?$output_processor@_WV?$stream_output_adapter@_W@__crt_stdio_output@@V?$format_validation_base@_WV?$stream_output_adapter@_W@__crt_stdio_output@@@2@@__crt_stdio_output@@AAE_NXZ 1008baf0 f i libucrtd:output.obj
 0001:0008ab10       ?type_case_X@?$output_processor@_WV?$stream_output_adapter@_W@__crt_stdio_output@@V?$positional_parameter_base@_WV?$stream_output_adapter@_W@__crt_stdio_output@@@2@@__crt_stdio_output@@AAE_NXZ 1008bb10 f i libucrtd:output.obj
 0001:0008ab30       ?type_case_X@?$output_processor@_WV?$stream_output_adapter@_W@__crt_stdio_output@@V?$standard_base@_WV?$stream_output_adapter@_W@__crt_stdio_output@@@2@@__crt_stdio_output@@AAE_NXZ 1008bb30 f i libucrtd:output.obj
 0001:0008ab50       ?type_case_X@?$output_processor@_WV?$string_output_adapter@_W@__crt_stdio_output@@V?$format_validation_base@_WV?$string_output_adapter@_W@__crt_stdio_output@@@2@@__crt_stdio_output@@AAE_NXZ 1008bb50 f i libucrtd:output.obj
 0001:0008ab70       ?type_case_X@?$output_processor@_WV?$string_output_adapter@_W@__crt_stdio_output@@V?$positional_parameter_base@_WV?$string_output_adapter@_W@__crt_stdio_output@@@2@@__crt_stdio_output@@AAE_NXZ 1008bb70 f i libucrtd:output.obj
 0001:0008ab90       ?type_case_X@?$output_processor@_WV?$string_output_adapter@_W@__crt_stdio_output@@V?$standard_base@_WV?$string_output_adapter@_W@__crt_stdio_output@@@2@@__crt_stdio_output@@AAE_NXZ 1008bb90 f i libucrtd:output.obj
 0001:0008abb0       ?type_case_Z@?$output_processor@DV?$stream_output_adapter@D@__crt_stdio_output@@V?$format_validation_base@DV?$stream_output_adapter@D@__crt_stdio_output@@@2@@__crt_stdio_output@@AAE_NXZ 1008bbb0 f i libucrtd:output.obj
 0001:0008ace0       ?type_case_Z@?$output_processor@DV?$stream_output_adapter@D@__crt_stdio_output@@V?$positional_parameter_base@DV?$stream_output_adapter@D@__crt_stdio_output@@@2@@__crt_stdio_output@@AAE_NXZ 1008bce0 f i libucrtd:output.obj
 0001:0008ae10       ?type_case_Z@?$output_processor@DV?$stream_output_adapter@D@__crt_stdio_output@@V?$standard_base@DV?$stream_output_adapter@D@__crt_stdio_output@@@2@@__crt_stdio_output@@AAE_NXZ 1008be10 f i libucrtd:output.obj
 0001:0008af40       ?type_case_Z@?$output_processor@DV?$string_output_adapter@D@__crt_stdio_output@@V?$format_validation_base@DV?$string_output_adapter@D@__crt_stdio_output@@@2@@__crt_stdio_output@@AAE_NXZ 1008bf40 f i libucrtd:output.obj
 0001:0008b070       ?type_case_Z@?$output_processor@DV?$string_output_adapter@D@__crt_stdio_output@@V?$positional_parameter_base@DV?$string_output_adapter@D@__crt_stdio_output@@@2@@__crt_stdio_output@@AAE_NXZ 1008c070 f i libucrtd:output.obj
 0001:0008b1a0       ?type_case_Z@?$output_processor@DV?$string_output_adapter@D@__crt_stdio_output@@V?$standard_base@DV?$string_output_adapter@D@__crt_stdio_output@@@2@@__crt_stdio_output@@AAE_NXZ 1008c1a0 f i libucrtd:output.obj
 0001:0008b2d0       ?type_case_Z@?$output_processor@_WV?$stream_output_adapter@_W@__crt_stdio_output@@V?$format_validation_base@_WV?$stream_output_adapter@_W@__crt_stdio_output@@@2@@__crt_stdio_output@@AAE_NXZ 1008c2d0 f i libucrtd:output.obj
 0001:0008b400       ?type_case_Z@?$output_processor@_WV?$stream_output_adapter@_W@__crt_stdio_output@@V?$positional_parameter_base@_WV?$stream_output_adapter@_W@__crt_stdio_output@@@2@@__crt_stdio_output@@AAE_NXZ 1008c400 f i libucrtd:output.obj
 0001:0008b530       ?type_case_Z@?$output_processor@_WV?$stream_output_adapter@_W@__crt_stdio_output@@V?$standard_base@_WV?$stream_output_adapter@_W@__crt_stdio_output@@@2@@__crt_stdio_output@@AAE_NXZ 1008c530 f i libucrtd:output.obj
 0001:0008b660       ?type_case_Z@?$output_processor@_WV?$string_output_adapter@_W@__crt_stdio_output@@V?$format_validation_base@_WV?$string_output_adapter@_W@__crt_stdio_output@@@2@@__crt_stdio_output@@AAE_NXZ 1008c660 f i libucrtd:output.obj
 0001:0008b790       ?type_case_Z@?$output_processor@_WV?$string_output_adapter@_W@__crt_stdio_output@@V?$positional_parameter_base@_WV?$string_output_adapter@_W@__crt_stdio_output@@@2@@__crt_stdio_output@@AAE_NXZ 1008c790 f i libucrtd:output.obj
 0001:0008b8c0       ?type_case_Z@?$output_processor@_WV?$string_output_adapter@_W@__crt_stdio_output@@V?$standard_base@_WV?$string_output_adapter@_W@__crt_stdio_output@@@2@@__crt_stdio_output@@AAE_NXZ 1008c8c0 f i libucrtd:output.obj
 0001:0008b9f0       ?type_case_a@?$output_processor@DV?$stream_output_adapter@D@__crt_stdio_output@@V?$format_validation_base@DV?$stream_output_adapter@D@__crt_stdio_output@@@2@@__crt_stdio_output@@AAE_NXZ 1008c9f0 f i libucrtd:output.obj
 0001:0008bd70       ?type_case_a@?$output_processor@DV?$stream_output_adapter@D@__crt_stdio_output@@V?$positional_parameter_base@DV?$stream_output_adapter@D@__crt_stdio_output@@@2@@__crt_stdio_output@@AAE_NXZ 1008cd70 f i libucrtd:output.obj
 0001:0008c0f0       ?type_case_a@?$output_processor@DV?$stream_output_adapter@D@__crt_stdio_output@@V?$standard_base@DV?$stream_output_adapter@D@__crt_stdio_output@@@2@@__crt_stdio_output@@AAE_NXZ 1008d0f0 f i libucrtd:output.obj
 0001:0008c470       ?type_case_a@?$output_processor@DV?$string_output_adapter@D@__crt_stdio_output@@V?$format_validation_base@DV?$string_output_adapter@D@__crt_stdio_output@@@2@@__crt_stdio_output@@AAE_NXZ 1008d470 f i libucrtd:output.obj
 0001:0008c7f0       ?type_case_a@?$output_processor@DV?$string_output_adapter@D@__crt_stdio_output@@V?$positional_parameter_base@DV?$string_output_adapter@D@__crt_stdio_output@@@2@@__crt_stdio_output@@AAE_NXZ 1008d7f0 f i libucrtd:output.obj
 0001:0008cb70       ?type_case_a@?$output_processor@DV?$string_output_adapter@D@__crt_stdio_output@@V?$standard_base@DV?$string_output_adapter@D@__crt_stdio_output@@@2@@__crt_stdio_output@@AAE_NXZ 1008db70 f i libucrtd:output.obj
 0001:0008cef0       ?type_case_a@?$output_processor@_WV?$stream_output_adapter@_W@__crt_stdio_output@@V?$format_validation_base@_WV?$stream_output_adapter@_W@__crt_stdio_output@@@2@@__crt_stdio_output@@AAE_NXZ 1008def0 f i libucrtd:output.obj
 0001:0008d280       ?type_case_a@?$output_processor@_WV?$stream_output_adapter@_W@__crt_stdio_output@@V?$positional_parameter_base@_WV?$stream_output_adapter@_W@__crt_stdio_output@@@2@@__crt_stdio_output@@AAE_NXZ 1008e280 f i libucrtd:output.obj
 0001:0008d610       ?type_case_a@?$output_processor@_WV?$stream_output_adapter@_W@__crt_stdio_output@@V?$standard_base@_WV?$stream_output_adapter@_W@__crt_stdio_output@@@2@@__crt_stdio_output@@AAE_NXZ 1008e610 f i libucrtd:output.obj
 0001:0008d9a0       ?type_case_a@?$output_processor@_WV?$string_output_adapter@_W@__crt_stdio_output@@V?$format_validation_base@_WV?$string_output_adapter@_W@__crt_stdio_output@@@2@@__crt_stdio_output@@AAE_NXZ 1008e9a0 f i libucrtd:output.obj
 0001:0008dd30       ?type_case_a@?$output_processor@_WV?$string_output_adapter@_W@__crt_stdio_output@@V?$positional_parameter_base@_WV?$string_output_adapter@_W@__crt_stdio_output@@@2@@__crt_stdio_output@@AAE_NXZ 1008ed30 f i libucrtd:output.obj
 0001:0008e0c0       ?type_case_a@?$output_processor@_WV?$string_output_adapter@_W@__crt_stdio_output@@V?$standard_base@_WV?$string_output_adapter@_W@__crt_stdio_output@@@2@@__crt_stdio_output@@AAE_NXZ 1008f0c0 f i libucrtd:output.obj
 0001:0008e450       ?type_case_c@?$output_processor@DV?$stream_output_adapter@D@__crt_stdio_output@@V?$format_validation_base@DV?$stream_output_adapter@D@__crt_stdio_output@@@2@@__crt_stdio_output@@AAE_NXZ 1008f450 f i libucrtd:output.obj
 0001:0008e470       ?type_case_c@?$output_processor@DV?$stream_output_adapter@D@__crt_stdio_output@@V?$positional_parameter_base@DV?$stream_output_adapter@D@__crt_stdio_output@@@2@@__crt_stdio_output@@AAE_NXZ 1008f470 f i libucrtd:output.obj
 0001:0008e490       ?type_case_c@?$output_processor@DV?$stream_output_adapter@D@__crt_stdio_output@@V?$standard_base@DV?$stream_output_adapter@D@__crt_stdio_output@@@2@@__crt_stdio_output@@AAE_NXZ 1008f490 f i libucrtd:output.obj
 0001:0008e4b0       ?type_case_c@?$output_processor@DV?$string_output_adapter@D@__crt_stdio_output@@V?$format_validation_base@DV?$string_output_adapter@D@__crt_stdio_output@@@2@@__crt_stdio_output@@AAE_NXZ 1008f4b0 f i libucrtd:output.obj
 0001:0008e4d0       ?type_case_c@?$output_processor@DV?$string_output_adapter@D@__crt_stdio_output@@V?$positional_parameter_base@DV?$string_output_adapter@D@__crt_stdio_output@@@2@@__crt_stdio_output@@AAE_NXZ 1008f4d0 f i libucrtd:output.obj
 0001:0008e4f0       ?type_case_c@?$output_processor@DV?$string_output_adapter@D@__crt_stdio_output@@V?$standard_base@DV?$string_output_adapter@D@__crt_stdio_output@@@2@@__crt_stdio_output@@AAE_NXZ 1008f4f0 f i libucrtd:output.obj
 0001:0008e510       ?type_case_c@?$output_processor@_WV?$stream_output_adapter@_W@__crt_stdio_output@@V?$format_validation_base@_WV?$stream_output_adapter@_W@__crt_stdio_output@@@2@@__crt_stdio_output@@AAE_NXZ 1008f510 f i libucrtd:output.obj
 0001:0008e530       ?type_case_c@?$output_processor@_WV?$stream_output_adapter@_W@__crt_stdio_output@@V?$positional_parameter_base@_WV?$stream_output_adapter@_W@__crt_stdio_output@@@2@@__crt_stdio_output@@AAE_NXZ 1008f530 f i libucrtd:output.obj
 0001:0008e550       ?type_case_c@?$output_processor@_WV?$stream_output_adapter@_W@__crt_stdio_output@@V?$standard_base@_WV?$stream_output_adapter@_W@__crt_stdio_output@@@2@@__crt_stdio_output@@AAE_NXZ 1008f550 f i libucrtd:output.obj
 0001:0008e570       ?type_case_c@?$output_processor@_WV?$string_output_adapter@_W@__crt_stdio_output@@V?$format_validation_base@_WV?$string_output_adapter@_W@__crt_stdio_output@@@2@@__crt_stdio_output@@AAE_NXZ 1008f570 f i libucrtd:output.obj
 0001:0008e590       ?type_case_c@?$output_processor@_WV?$string_output_adapter@_W@__crt_stdio_output@@V?$positional_parameter_base@_WV?$string_output_adapter@_W@__crt_stdio_output@@@2@@__crt_stdio_output@@AAE_NXZ 1008f590 f i libucrtd:output.obj
 0001:0008e5b0       ?type_case_c@?$output_processor@_WV?$string_output_adapter@_W@__crt_stdio_output@@V?$standard_base@_WV?$string_output_adapter@_W@__crt_stdio_output@@@2@@__crt_stdio_output@@AAE_NXZ 1008f5b0 f i libucrtd:output.obj
 0001:0008e5d0       ?type_case_c_tchar@?$output_processor@DV?$stream_output_adapter@D@__crt_stdio_output@@V?$format_validation_base@DV?$stream_output_adapter@D@__crt_stdio_output@@@2@@__crt_stdio_output@@AAE_ND@Z 1008f5d0 f i libucrtd:output.obj
 0001:0008e750       ?type_case_c_tchar@?$output_processor@DV?$stream_output_adapter@D@__crt_stdio_output@@V?$positional_parameter_base@DV?$stream_output_adapter@D@__crt_stdio_output@@@2@@__crt_stdio_output@@AAE_ND@Z 1008f750 f i libucrtd:output.obj
 0001:0008e8d0       ?type_case_c_tchar@?$output_processor@DV?$stream_output_adapter@D@__crt_stdio_output@@V?$standard_base@DV?$stream_output_adapter@D@__crt_stdio_output@@@2@@__crt_stdio_output@@AAE_ND@Z 1008f8d0 f i libucrtd:output.obj
 0001:0008ea50       ?type_case_c_tchar@?$output_processor@DV?$string_output_adapter@D@__crt_stdio_output@@V?$format_validation_base@DV?$string_output_adapter@D@__crt_stdio_output@@@2@@__crt_stdio_output@@AAE_ND@Z 1008fa50 f i libucrtd:output.obj
 0001:0008ebd0       ?type_case_c_tchar@?$output_processor@DV?$string_output_adapter@D@__crt_stdio_output@@V?$positional_parameter_base@DV?$string_output_adapter@D@__crt_stdio_output@@@2@@__crt_stdio_output@@AAE_ND@Z 1008fbd0 f i libucrtd:output.obj
 0001:0008ed50       ?type_case_c_tchar@?$output_processor@DV?$string_output_adapter@D@__crt_stdio_output@@V?$standard_base@DV?$string_output_adapter@D@__crt_stdio_output@@@2@@__crt_stdio_output@@AAE_ND@Z 1008fd50 f i libucrtd:output.obj
 0001:0008eed0       ?type_case_c_tchar@?$output_processor@_WV?$stream_output_adapter@_W@__crt_stdio_output@@V?$format_validation_base@_WV?$stream_output_adapter@_W@__crt_stdio_output@@@2@@__crt_stdio_output@@AAE_N_W@Z 1008fed0 f i libucrtd:output.obj
 0001:0008f040       ?type_case_c_tchar@?$output_processor@_WV?$stream_output_adapter@_W@__crt_stdio_output@@V?$positional_parameter_base@_WV?$stream_output_adapter@_W@__crt_stdio_output@@@2@@__crt_stdio_output@@AAE_N_W@Z 10090040 f i libucrtd:output.obj
 0001:0008f1b0       ?type_case_c_tchar@?$output_processor@_WV?$stream_output_adapter@_W@__crt_stdio_output@@V?$standard_base@_WV?$stream_output_adapter@_W@__crt_stdio_output@@@2@@__crt_stdio_output@@AAE_N_W@Z 100901b0 f i libucrtd:output.obj
 0001:0008f320       ?type_case_c_tchar@?$output_processor@_WV?$string_output_adapter@_W@__crt_stdio_output@@V?$format_validation_base@_WV?$string_output_adapter@_W@__crt_stdio_output@@@2@@__crt_stdio_output@@AAE_N_W@Z 10090320 f i libucrtd:output.obj
 0001:0008f490       ?type_case_c_tchar@?$output_processor@_WV?$string_output_adapter@_W@__crt_stdio_output@@V?$positional_parameter_base@_WV?$string_output_adapter@_W@__crt_stdio_output@@@2@@__crt_stdio_output@@AAE_N_W@Z 10090490 f i libucrtd:output.obj
 0001:0008f600       ?type_case_c_tchar@?$output_processor@_WV?$string_output_adapter@_W@__crt_stdio_output@@V?$standard_base@_WV?$string_output_adapter@_W@__crt_stdio_output@@@2@@__crt_stdio_output@@AAE_N_W@Z 10090600 f i libucrtd:output.obj
 0001:0008f770       ?type_case_d@?$output_processor@DV?$stream_output_adapter@D@__crt_stdio_output@@V?$format_validation_base@DV?$stream_output_adapter@D@__crt_stdio_output@@@2@@__crt_stdio_output@@AAE_NXZ 10090770 f i libucrtd:output.obj
 0001:0008f7a0       ?type_case_d@?$output_processor@DV?$stream_output_adapter@D@__crt_stdio_output@@V?$positional_parameter_base@DV?$stream_output_adapter@D@__crt_stdio_output@@@2@@__crt_stdio_output@@AAE_NXZ 100907a0 f i libucrtd:output.obj
 0001:0008f7d0       ?type_case_d@?$output_processor@DV?$stream_output_adapter@D@__crt_stdio_output@@V?$standard_base@DV?$stream_output_adapter@D@__crt_stdio_output@@@2@@__crt_stdio_output@@AAE_NXZ 100907d0 f i libucrtd:output.obj
 0001:0008f800       ?type_case_d@?$output_processor@DV?$string_output_adapter@D@__crt_stdio_output@@V?$format_validation_base@DV?$string_output_adapter@D@__crt_stdio_output@@@2@@__crt_stdio_output@@AAE_NXZ 10090800 f i libucrtd:output.obj
 0001:0008f830       ?type_case_d@?$output_processor@DV?$string_output_adapter@D@__crt_stdio_output@@V?$positional_parameter_base@DV?$string_output_adapter@D@__crt_stdio_output@@@2@@__crt_stdio_output@@AAE_NXZ 10090830 f i libucrtd:output.obj
 0001:0008f860       ?type_case_d@?$output_processor@DV?$string_output_adapter@D@__crt_stdio_output@@V?$standard_base@DV?$string_output_adapter@D@__crt_stdio_output@@@2@@__crt_stdio_output@@AAE_NXZ 10090860 f i libucrtd:output.obj
 0001:0008f890       ?type_case_d@?$output_processor@_WV?$stream_output_adapter@_W@__crt_stdio_output@@V?$format_validation_base@_WV?$stream_output_adapter@_W@__crt_stdio_output@@@2@@__crt_stdio_output@@AAE_NXZ 10090890 f i libucrtd:output.obj
 0001:0008f8c0       ?type_case_d@?$output_processor@_WV?$stream_output_adapter@_W@__crt_stdio_output@@V?$positional_parameter_base@_WV?$stream_output_adapter@_W@__crt_stdio_output@@@2@@__crt_stdio_output@@AAE_NXZ 100908c0 f i libucrtd:output.obj
 0001:0008f8f0       ?type_case_d@?$output_processor@_WV?$stream_output_adapter@_W@__crt_stdio_output@@V?$standard_base@_WV?$stream_output_adapter@_W@__crt_stdio_output@@@2@@__crt_stdio_output@@AAE_NXZ 100908f0 f i libucrtd:output.obj
 0001:0008f920       ?type_case_d@?$output_processor@_WV?$string_output_adapter@_W@__crt_stdio_output@@V?$format_validation_base@_WV?$string_output_adapter@_W@__crt_stdio_output@@@2@@__crt_stdio_output@@AAE_NXZ 10090920 f i libucrtd:output.obj
 0001:0008f950       ?type_case_d@?$output_processor@_WV?$string_output_adapter@_W@__crt_stdio_output@@V?$positional_parameter_base@_WV?$string_output_adapter@_W@__crt_stdio_output@@@2@@__crt_stdio_output@@AAE_NXZ 10090950 f i libucrtd:output.obj
 0001:0008f980       ?type_case_d@?$output_processor@_WV?$string_output_adapter@_W@__crt_stdio_output@@V?$standard_base@_WV?$string_output_adapter@_W@__crt_stdio_output@@@2@@__crt_stdio_output@@AAE_NXZ 10090980 f i libucrtd:output.obj
 0001:0008f9b0       ?type_case_n@?$output_processor@DV?$stream_output_adapter@D@__crt_stdio_output@@V?$format_validation_base@DV?$stream_output_adapter@D@__crt_stdio_output@@@2@@__crt_stdio_output@@AAE_NXZ 100909b0 f i libucrtd:output.obj
 0001:0008fc50       ?type_case_n@?$output_processor@DV?$stream_output_adapter@D@__crt_stdio_output@@V?$positional_parameter_base@DV?$stream_output_adapter@D@__crt_stdio_output@@@2@@__crt_stdio_output@@AAE_NXZ 10090c50 f i libucrtd:output.obj
 0001:0008fef0       ?type_case_n@?$output_processor@DV?$stream_output_adapter@D@__crt_stdio_output@@V?$standard_base@DV?$stream_output_adapter@D@__crt_stdio_output@@@2@@__crt_stdio_output@@AAE_NXZ 10090ef0 f i libucrtd:output.obj
 0001:00090190       ?type_case_n@?$output_processor@DV?$string_output_adapter@D@__crt_stdio_output@@V?$format_validation_base@DV?$string_output_adapter@D@__crt_stdio_output@@@2@@__crt_stdio_output@@AAE_NXZ 10091190 f i libucrtd:output.obj
 0001:00090430       ?type_case_n@?$output_processor@DV?$string_output_adapter@D@__crt_stdio_output@@V?$positional_parameter_base@DV?$string_output_adapter@D@__crt_stdio_output@@@2@@__crt_stdio_output@@AAE_NXZ 10091430 f i libucrtd:output.obj
 0001:000906d0       ?type_case_n@?$output_processor@DV?$string_output_adapter@D@__crt_stdio_output@@V?$standard_base@DV?$string_output_adapter@D@__crt_stdio_output@@@2@@__crt_stdio_output@@AAE_NXZ 100916d0 f i libucrtd:output.obj
 0001:00090970       ?type_case_n@?$output_processor@_WV?$stream_output_adapter@_W@__crt_stdio_output@@V?$format_validation_base@_WV?$stream_output_adapter@_W@__crt_stdio_output@@@2@@__crt_stdio_output@@AAE_NXZ 10091970 f i libucrtd:output.obj
 0001:00090c10       ?type_case_n@?$output_processor@_WV?$stream_output_adapter@_W@__crt_stdio_output@@V?$positional_parameter_base@_WV?$stream_output_adapter@_W@__crt_stdio_output@@@2@@__crt_stdio_output@@AAE_NXZ 10091c10 f i libucrtd:output.obj
 0001:00090eb0       ?type_case_n@?$output_processor@_WV?$stream_output_adapter@_W@__crt_stdio_output@@V?$standard_base@_WV?$stream_output_adapter@_W@__crt_stdio_output@@@2@@__crt_stdio_output@@AAE_NXZ 10091eb0 f i libucrtd:output.obj
 0001:00091150       ?type_case_n@?$output_processor@_WV?$string_output_adapter@_W@__crt_stdio_output@@V?$format_validation_base@_WV?$string_output_adapter@_W@__crt_stdio_output@@@2@@__crt_stdio_output@@AAE_NXZ 10092150 f i libucrtd:output.obj
 0001:000913f0       ?type_case_n@?$output_processor@_WV?$string_output_adapter@_W@__crt_stdio_output@@V?$positional_parameter_base@_WV?$string_output_adapter@_W@__crt_stdio_output@@@2@@__crt_stdio_output@@AAE_NXZ 100923f0 f i libucrtd:output.obj
 0001:00091690       ?type_case_n@?$output_processor@_WV?$string_output_adapter@_W@__crt_stdio_output@@V?$standard_base@_WV?$string_output_adapter@_W@__crt_stdio_output@@@2@@__crt_stdio_output@@AAE_NXZ 10092690 f i libucrtd:output.obj
 0001:00091930       ?type_case_o@?$output_processor@DV?$stream_output_adapter@D@__crt_stdio_output@@V?$format_validation_base@DV?$stream_output_adapter@D@__crt_stdio_output@@@2@@__crt_stdio_output@@AAE_NXZ 10092930 f i libucrtd:output.obj
 0001:00091980       ?type_case_o@?$output_processor@DV?$stream_output_adapter@D@__crt_stdio_output@@V?$positional_parameter_base@DV?$stream_output_adapter@D@__crt_stdio_output@@@2@@__crt_stdio_output@@AAE_NXZ 10092980 f i libucrtd:output.obj
 0001:000919d0       ?type_case_o@?$output_processor@DV?$stream_output_adapter@D@__crt_stdio_output@@V?$standard_base@DV?$stream_output_adapter@D@__crt_stdio_output@@@2@@__crt_stdio_output@@AAE_NXZ 100929d0 f i libucrtd:output.obj
 0001:00091a20       ?type_case_o@?$output_processor@DV?$string_output_adapter@D@__crt_stdio_output@@V?$format_validation_base@DV?$string_output_adapter@D@__crt_stdio_output@@@2@@__crt_stdio_output@@AAE_NXZ 10092a20 f i libucrtd:output.obj
 0001:00091a70       ?type_case_o@?$output_processor@DV?$string_output_adapter@D@__crt_stdio_output@@V?$positional_parameter_base@DV?$string_output_adapter@D@__crt_stdio_output@@@2@@__crt_stdio_output@@AAE_NXZ 10092a70 f i libucrtd:output.obj
 0001:00091ac0       ?type_case_o@?$output_processor@DV?$string_output_adapter@D@__crt_stdio_output@@V?$standard_base@DV?$string_output_adapter@D@__crt_stdio_output@@@2@@__crt_stdio_output@@AAE_NXZ 10092ac0 f i libucrtd:output.obj
 0001:00091b10       ?type_case_o@?$output_processor@_WV?$stream_output_adapter@_W@__crt_stdio_output@@V?$format_validation_base@_WV?$stream_output_adapter@_W@__crt_stdio_output@@@2@@__crt_stdio_output@@AAE_NXZ 10092b10 f i libucrtd:output.obj
 0001:00091b60       ?type_case_o@?$output_processor@_WV?$stream_output_adapter@_W@__crt_stdio_output@@V?$positional_parameter_base@_WV?$stream_output_adapter@_W@__crt_stdio_output@@@2@@__crt_stdio_output@@AAE_NXZ 10092b60 f i libucrtd:output.obj
 0001:00091bb0       ?type_case_o@?$output_processor@_WV?$stream_output_adapter@_W@__crt_stdio_output@@V?$standard_base@_WV?$stream_output_adapter@_W@__crt_stdio_output@@@2@@__crt_stdio_output@@AAE_NXZ 10092bb0 f i libucrtd:output.obj
 0001:00091c00       ?type_case_o@?$output_processor@_WV?$string_output_adapter@_W@__crt_stdio_output@@V?$format_validation_base@_WV?$string_output_adapter@_W@__crt_stdio_output@@@2@@__crt_stdio_output@@AAE_NXZ 10092c00 f i libucrtd:output.obj
 0001:00091c50       ?type_case_o@?$output_processor@_WV?$string_output_adapter@_W@__crt_stdio_output@@V?$positional_parameter_base@_WV?$string_output_adapter@_W@__crt_stdio_output@@@2@@__crt_stdio_output@@AAE_NXZ 10092c50 f i libucrtd:output.obj
 0001:00091ca0       ?type_case_o@?$output_processor@_WV?$string_output_adapter@_W@__crt_stdio_output@@V?$standard_base@_WV?$string_output_adapter@_W@__crt_stdio_output@@@2@@__crt_stdio_output@@AAE_NXZ 10092ca0 f i libucrtd:output.obj
 0001:00091cf0       ?type_case_p@?$output_processor@DV?$stream_output_adapter@D@__crt_stdio_output@@V?$format_validation_base@DV?$stream_output_adapter@D@__crt_stdio_output@@@2@@__crt_stdio_output@@AAE_NXZ 10092cf0 f i libucrtd:output.obj
 0001:00091d30       ?type_case_p@?$output_processor@DV?$stream_output_adapter@D@__crt_stdio_output@@V?$positional_parameter_base@DV?$stream_output_adapter@D@__crt_stdio_output@@@2@@__crt_stdio_output@@AAE_NXZ 10092d30 f i libucrtd:output.obj
 0001:00091d70       ?type_case_p@?$output_processor@DV?$stream_output_adapter@D@__crt_stdio_output@@V?$standard_base@DV?$stream_output_adapter@D@__crt_stdio_output@@@2@@__crt_stdio_output@@AAE_NXZ 10092d70 f i libucrtd:output.obj
 0001:00091db0       ?type_case_p@?$output_processor@DV?$string_output_adapter@D@__crt_stdio_output@@V?$format_validation_base@DV?$string_output_adapter@D@__crt_stdio_output@@@2@@__crt_stdio_output@@AAE_NXZ 10092db0 f i libucrtd:output.obj
 0001:00091df0       ?type_case_p@?$output_processor@DV?$string_output_adapter@D@__crt_stdio_output@@V?$positional_parameter_base@DV?$string_output_adapter@D@__crt_stdio_output@@@2@@__crt_stdio_output@@AAE_NXZ 10092df0 f i libucrtd:output.obj
 0001:00091e30       ?type_case_p@?$output_processor@DV?$string_output_adapter@D@__crt_stdio_output@@V?$standard_base@DV?$string_output_adapter@D@__crt_stdio_output@@@2@@__crt_stdio_output@@AAE_NXZ 10092e30 f i libucrtd:output.obj
 0001:00091e70       ?type_case_p@?$output_processor@_WV?$stream_output_adapter@_W@__crt_stdio_output@@V?$format_validation_base@_WV?$stream_output_adapter@_W@__crt_stdio_output@@@2@@__crt_stdio_output@@AAE_NXZ 10092e70 f i libucrtd:output.obj
 0001:00091eb0       ?type_case_p@?$output_processor@_WV?$stream_output_adapter@_W@__crt_stdio_output@@V?$positional_parameter_base@_WV?$stream_output_adapter@_W@__crt_stdio_output@@@2@@__crt_stdio_output@@AAE_NXZ 10092eb0 f i libucrtd:output.obj
 0001:00091ef0       ?type_case_p@?$output_processor@_WV?$stream_output_adapter@_W@__crt_stdio_output@@V?$standard_base@_WV?$stream_output_adapter@_W@__crt_stdio_output@@@2@@__crt_stdio_output@@AAE_NXZ 10092ef0 f i libucrtd:output.obj
 0001:00091f30       ?type_case_p@?$output_processor@_WV?$string_output_adapter@_W@__crt_stdio_output@@V?$format_validation_base@_WV?$string_output_adapter@_W@__crt_stdio_output@@@2@@__crt_stdio_output@@AAE_NXZ 10092f30 f i libucrtd:output.obj
 0001:00091f70       ?type_case_p@?$output_processor@_WV?$string_output_adapter@_W@__crt_stdio_output@@V?$positional_parameter_base@_WV?$string_output_adapter@_W@__crt_stdio_output@@@2@@__crt_stdio_output@@AAE_NXZ 10092f70 f i libucrtd:output.obj
 0001:00091fb0       ?type_case_p@?$output_processor@_WV?$string_output_adapter@_W@__crt_stdio_output@@V?$standard_base@_WV?$string_output_adapter@_W@__crt_stdio_output@@@2@@__crt_stdio_output@@AAE_NXZ 10092fb0 f i libucrtd:output.obj
 0001:00091ff0       ?type_case_s@?$output_processor@DV?$stream_output_adapter@D@__crt_stdio_output@@V?$format_validation_base@DV?$stream_output_adapter@D@__crt_stdio_output@@@2@@__crt_stdio_output@@AAE_NXZ 10092ff0 f i libucrtd:output.obj
 0001:00092120       ?type_case_s@?$output_processor@DV?$stream_output_adapter@D@__crt_stdio_output@@V?$positional_parameter_base@DV?$stream_output_adapter@D@__crt_stdio_output@@@2@@__crt_stdio_output@@AAE_NXZ 10093120 f i libucrtd:output.obj
 0001:00092250       ?type_case_s@?$output_processor@DV?$stream_output_adapter@D@__crt_stdio_output@@V?$standard_base@DV?$stream_output_adapter@D@__crt_stdio_output@@@2@@__crt_stdio_output@@AAE_NXZ 10093250 f i libucrtd:output.obj
 0001:00092380       ?type_case_s@?$output_processor@DV?$string_output_adapter@D@__crt_stdio_output@@V?$format_validation_base@DV?$string_output_adapter@D@__crt_stdio_output@@@2@@__crt_stdio_output@@AAE_NXZ 10093380 f i libucrtd:output.obj
 0001:000924b0       ?type_case_s@?$output_processor@DV?$string_output_adapter@D@__crt_stdio_output@@V?$positional_parameter_base@DV?$string_output_adapter@D@__crt_stdio_output@@@2@@__crt_stdio_output@@AAE_NXZ 100934b0 f i libucrtd:output.obj
 0001:000925e0       ?type_case_s@?$output_processor@DV?$string_output_adapter@D@__crt_stdio_output@@V?$standard_base@DV?$string_output_adapter@D@__crt_stdio_output@@@2@@__crt_stdio_output@@AAE_NXZ 100935e0 f i libucrtd:output.obj
 0001:00092710       ?type_case_s@?$output_processor@_WV?$stream_output_adapter@_W@__crt_stdio_output@@V?$format_validation_base@_WV?$stream_output_adapter@_W@__crt_stdio_output@@@2@@__crt_stdio_output@@AAE_NXZ 10093710 f i libucrtd:output.obj
 0001:00092840       ?type_case_s@?$output_processor@_WV?$stream_output_adapter@_W@__crt_stdio_output@@V?$positional_parameter_base@_WV?$stream_output_adapter@_W@__crt_stdio_output@@@2@@__crt_stdio_output@@AAE_NXZ 10093840 f i libucrtd:output.obj
 0001:00092970       ?type_case_s@?$output_processor@_WV?$stream_output_adapter@_W@__crt_stdio_output@@V?$standard_base@_WV?$stream_output_adapter@_W@__crt_stdio_output@@@2@@__crt_stdio_output@@AAE_NXZ 10093970 f i libucrtd:output.obj
 0001:00092aa0       ?type_case_s@?$output_processor@_WV?$string_output_adapter@_W@__crt_stdio_output@@V?$format_validation_base@_WV?$string_output_adapter@_W@__crt_stdio_output@@@2@@__crt_stdio_output@@AAE_NXZ 10093aa0 f i libucrtd:output.obj
 0001:00092bd0       ?type_case_s@?$output_processor@_WV?$string_output_adapter@_W@__crt_stdio_output@@V?$positional_parameter_base@_WV?$string_output_adapter@_W@__crt_stdio_output@@@2@@__crt_stdio_output@@AAE_NXZ 10093bd0 f i libucrtd:output.obj
 0001:00092d00       ?type_case_s@?$output_processor@_WV?$string_output_adapter@_W@__crt_stdio_output@@V?$standard_base@_WV?$string_output_adapter@_W@__crt_stdio_output@@@2@@__crt_stdio_output@@AAE_NXZ 10093d00 f i libucrtd:output.obj
 0001:00092e30       ?type_case_s_compute_narrow_string_length@?$output_processor@DV?$stream_output_adapter@D@__crt_stdio_output@@V?$format_validation_base@DV?$stream_output_adapter@D@__crt_stdio_output@@@2@@__crt_stdio_output@@AAEHHD@Z 10093e30 f i libucrtd:output.obj
 0001:00092e60       ?type_case_s_compute_narrow_string_length@?$output_processor@DV?$stream_output_adapter@D@__crt_stdio_output@@V?$positional_parameter_base@DV?$stream_output_adapter@D@__crt_stdio_output@@@2@@__crt_stdio_output@@AAEHHD@Z 10093e60 f i libucrtd:output.obj
 0001:00092e90       ?type_case_s_compute_narrow_string_length@?$output_processor@DV?$stream_output_adapter@D@__crt_stdio_output@@V?$standard_base@DV?$stream_output_adapter@D@__crt_stdio_output@@@2@@__crt_stdio_output@@AAEHHD@Z 10093e90 f i libucrtd:output.obj
 0001:00092ec0       ?type_case_s_compute_narrow_string_length@?$output_processor@DV?$string_output_adapter@D@__crt_stdio_output@@V?$format_validation_base@DV?$string_output_adapter@D@__crt_stdio_output@@@2@@__crt_stdio_output@@AAEHHD@Z 10093ec0 f i libucrtd:output.obj
 0001:00092ef0       ?type_case_s_compute_narrow_string_length@?$output_processor@DV?$string_output_adapter@D@__crt_stdio_output@@V?$positional_parameter_base@DV?$string_output_adapter@D@__crt_stdio_output@@@2@@__crt_stdio_output@@AAEHHD@Z 10093ef0 f i libucrtd:output.obj
 0001:00092f20       ?type_case_s_compute_narrow_string_length@?$output_processor@DV?$string_output_adapter@D@__crt_stdio_output@@V?$standard_base@DV?$string_output_adapter@D@__crt_stdio_output@@@2@@__crt_stdio_output@@AAEHHD@Z 10093f20 f i libucrtd:output.obj
 0001:00092f50       ?type_case_s_compute_narrow_string_length@?$output_processor@_WV?$stream_output_adapter@_W@__crt_stdio_output@@V?$format_validation_base@_WV?$stream_output_adapter@_W@__crt_stdio_output@@@2@@__crt_stdio_output@@AAEHH_W@Z 10093f50 f i libucrtd:output.obj
 0001:00092ff0       ?type_case_s_compute_narrow_string_length@?$output_processor@_WV?$stream_output_adapter@_W@__crt_stdio_output@@V?$positional_parameter_base@_WV?$stream_output_adapter@_W@__crt_stdio_output@@@2@@__crt_stdio_output@@AAEHH_W@Z 10093ff0 f i libucrtd:output.obj
 0001:00093090       ?type_case_s_compute_narrow_string_length@?$output_processor@_WV?$stream_output_adapter@_W@__crt_stdio_output@@V?$standard_base@_WV?$stream_output_adapter@_W@__crt_stdio_output@@@2@@__crt_stdio_output@@AAEHH_W@Z 10094090 f i libucrtd:output.obj
 0001:00093130       ?type_case_s_compute_narrow_string_length@?$output_processor@_WV?$string_output_adapter@_W@__crt_stdio_output@@V?$format_validation_base@_WV?$string_output_adapter@_W@__crt_stdio_output@@@2@@__crt_stdio_output@@AAEHH_W@Z 10094130 f i libucrtd:output.obj
 0001:000931d0       ?type_case_s_compute_narrow_string_length@?$output_processor@_WV?$string_output_adapter@_W@__crt_stdio_output@@V?$positional_parameter_base@_WV?$string_output_adapter@_W@__crt_stdio_output@@@2@@__crt_stdio_output@@AAEHH_W@Z 100941d0 f i libucrtd:output.obj
 0001:00093270       ?type_case_s_compute_narrow_string_length@?$output_processor@_WV?$string_output_adapter@_W@__crt_stdio_output@@V?$standard_base@_WV?$string_output_adapter@_W@__crt_stdio_output@@@2@@__crt_stdio_output@@AAEHH_W@Z 10094270 f i libucrtd:output.obj
 0001:00093310       ?type_case_u@?$output_processor@DV?$stream_output_adapter@D@__crt_stdio_output@@V?$format_validation_base@DV?$stream_output_adapter@D@__crt_stdio_output@@@2@@__crt_stdio_output@@AAE_NXZ 10094310 f i libucrtd:output.obj
 0001:00093330       ?type_case_u@?$output_processor@DV?$stream_output_adapter@D@__crt_stdio_output@@V?$positional_parameter_base@DV?$stream_output_adapter@D@__crt_stdio_output@@@2@@__crt_stdio_output@@AAE_NXZ 10094330 f i libucrtd:output.obj
 0001:00093350       ?type_case_u@?$output_processor@DV?$stream_output_adapter@D@__crt_stdio_output@@V?$standard_base@DV?$stream_output_adapter@D@__crt_stdio_output@@@2@@__crt_stdio_output@@AAE_NXZ 10094350 f i libucrtd:output.obj
 0001:00093370       ?type_case_u@?$output_processor@DV?$string_output_adapter@D@__crt_stdio_output@@V?$format_validation_base@DV?$string_output_adapter@D@__crt_stdio_output@@@2@@__crt_stdio_output@@AAE_NXZ 10094370 f i libucrtd:output.obj
 0001:00093390       ?type_case_u@?$output_processor@DV?$string_output_adapter@D@__crt_stdio_output@@V?$positional_parameter_base@DV?$string_output_adapter@D@__crt_stdio_output@@@2@@__crt_stdio_output@@AAE_NXZ 10094390 f i libucrtd:output.obj
 0001:000933b0       ?type_case_u@?$output_processor@DV?$string_output_adapter@D@__crt_stdio_output@@V?$standard_base@DV?$string_output_adapter@D@__crt_stdio_output@@@2@@__crt_stdio_output@@AAE_NXZ 100943b0 f i libucrtd:output.obj
 0001:000933d0       ?type_case_u@?$output_processor@_WV?$stream_output_adapter@_W@__crt_stdio_output@@V?$format_validation_base@_WV?$stream_output_adapter@_W@__crt_stdio_output@@@2@@__crt_stdio_output@@AAE_NXZ 100943d0 f i libucrtd:output.obj
 0001:000933f0       ?type_case_u@?$output_processor@_WV?$stream_output_adapter@_W@__crt_stdio_output@@V?$positional_parameter_base@_WV?$stream_output_adapter@_W@__crt_stdio_output@@@2@@__crt_stdio_output@@AAE_NXZ 100943f0 f i libucrtd:output.obj
 0001:00093410       ?type_case_u@?$output_processor@_WV?$stream_output_adapter@_W@__crt_stdio_output@@V?$standard_base@_WV?$stream_output_adapter@_W@__crt_stdio_output@@@2@@__crt_stdio_output@@AAE_NXZ 10094410 f i libucrtd:output.obj
 0001:00093430       ?type_case_u@?$output_processor@_WV?$string_output_adapter@_W@__crt_stdio_output@@V?$format_validation_base@_WV?$string_output_adapter@_W@__crt_stdio_output@@@2@@__crt_stdio_output@@AAE_NXZ 10094430 f i libucrtd:output.obj
 0001:00093450       ?type_case_u@?$output_processor@_WV?$string_output_adapter@_W@__crt_stdio_output@@V?$positional_parameter_base@_WV?$string_output_adapter@_W@__crt_stdio_output@@@2@@__crt_stdio_output@@AAE_NXZ 10094450 f i libucrtd:output.obj
 0001:00093470       ?type_case_u@?$output_processor@_WV?$string_output_adapter@_W@__crt_stdio_output@@V?$standard_base@_WV?$string_output_adapter@_W@__crt_stdio_output@@@2@@__crt_stdio_output@@AAE_NXZ 10094470 f i libucrtd:output.obj
 0001:00093490       ?type_case_x@?$output_processor@DV?$stream_output_adapter@D@__crt_stdio_output@@V?$format_validation_base@DV?$stream_output_adapter@D@__crt_stdio_output@@@2@@__crt_stdio_output@@AAE_NXZ 10094490 f i libucrtd:output.obj
 0001:000934b0       ?type_case_x@?$output_processor@DV?$stream_output_adapter@D@__crt_stdio_output@@V?$positional_parameter_base@DV?$stream_output_adapter@D@__crt_stdio_output@@@2@@__crt_stdio_output@@AAE_NXZ 100944b0 f i libucrtd:output.obj
 0001:000934d0       ?type_case_x@?$output_processor@DV?$stream_output_adapter@D@__crt_stdio_output@@V?$standard_base@DV?$stream_output_adapter@D@__crt_stdio_output@@@2@@__crt_stdio_output@@AAE_NXZ 100944d0 f i libucrtd:output.obj
 0001:000934f0       ?type_case_x@?$output_processor@DV?$string_output_adapter@D@__crt_stdio_output@@V?$format_validation_base@DV?$string_output_adapter@D@__crt_stdio_output@@@2@@__crt_stdio_output@@AAE_NXZ 100944f0 f i libucrtd:output.obj
 0001:00093510       ?type_case_x@?$output_processor@DV?$string_output_adapter@D@__crt_stdio_output@@V?$positional_parameter_base@DV?$string_output_adapter@D@__crt_stdio_output@@@2@@__crt_stdio_output@@AAE_NXZ 10094510 f i libucrtd:output.obj
 0001:00093530       ?type_case_x@?$output_processor@DV?$string_output_adapter@D@__crt_stdio_output@@V?$standard_base@DV?$string_output_adapter@D@__crt_stdio_output@@@2@@__crt_stdio_output@@AAE_NXZ 10094530 f i libucrtd:output.obj
 0001:00093550       ?type_case_x@?$output_processor@_WV?$stream_output_adapter@_W@__crt_stdio_output@@V?$format_validation_base@_WV?$stream_output_adapter@_W@__crt_stdio_output@@@2@@__crt_stdio_output@@AAE_NXZ 10094550 f i libucrtd:output.obj
 0001:00093570       ?type_case_x@?$output_processor@_WV?$stream_output_adapter@_W@__crt_stdio_output@@V?$positional_parameter_base@_WV?$stream_output_adapter@_W@__crt_stdio_output@@@2@@__crt_stdio_output@@AAE_NXZ 10094570 f i libucrtd:output.obj
 0001:00093590       ?type_case_x@?$output_processor@_WV?$stream_output_adapter@_W@__crt_stdio_output@@V?$standard_base@_WV?$stream_output_adapter@_W@__crt_stdio_output@@@2@@__crt_stdio_output@@AAE_NXZ 10094590 f i libucrtd:output.obj
 0001:000935b0       ?type_case_x@?$output_processor@_WV?$string_output_adapter@_W@__crt_stdio_output@@V?$format_validation_base@_WV?$string_output_adapter@_W@__crt_stdio_output@@@2@@__crt_stdio_output@@AAE_NXZ 100945b0 f i libucrtd:output.obj
 0001:000935d0       ?type_case_x@?$output_processor@_WV?$string_output_adapter@_W@__crt_stdio_output@@V?$positional_parameter_base@_WV?$string_output_adapter@_W@__crt_stdio_output@@@2@@__crt_stdio_output@@AAE_NXZ 100945d0 f i libucrtd:output.obj
 0001:000935f0       ?type_case_x@?$output_processor@_WV?$string_output_adapter@_W@__crt_stdio_output@@V?$standard_base@_WV?$string_output_adapter@_W@__crt_stdio_output@@@2@@__crt_stdio_output@@AAE_NXZ 100945f0 f i libucrtd:output.obj
 0001:00093610       ?unget@?$c_string_character_source@D@__crt_strtox@@QAEXD@Z 10094610 f i libucrtd:output.obj
 0001:000936e0       ?unget@?$c_string_character_source@_W@__crt_strtox@@QAEX_W@Z 100946e0 f i libucrtd:output.obj
 0001:000937b0       ?unset_flag@?$output_processor@DV?$stream_output_adapter@D@__crt_stdio_output@@V?$format_validation_base@DV?$stream_output_adapter@D@__crt_stdio_output@@@2@@__crt_stdio_output@@AAEXI@Z 100947b0 f i libucrtd:output.obj
 0001:000937e0       ?unset_flag@?$output_processor@DV?$stream_output_adapter@D@__crt_stdio_output@@V?$positional_parameter_base@DV?$stream_output_adapter@D@__crt_stdio_output@@@2@@__crt_stdio_output@@AAEXI@Z 100947e0 f i libucrtd:output.obj
 0001:00093810       ?unset_flag@?$output_processor@DV?$stream_output_adapter@D@__crt_stdio_output@@V?$standard_base@DV?$stream_output_adapter@D@__crt_stdio_output@@@2@@__crt_stdio_output@@AAEXI@Z 10094810 f i libucrtd:output.obj
 0001:00093840       ?unset_flag@?$output_processor@DV?$string_output_adapter@D@__crt_stdio_output@@V?$format_validation_base@DV?$string_output_adapter@D@__crt_stdio_output@@@2@@__crt_stdio_output@@AAEXI@Z 10094840 f i libucrtd:output.obj
 0001:00093870       ?unset_flag@?$output_processor@DV?$string_output_adapter@D@__crt_stdio_output@@V?$positional_parameter_base@DV?$string_output_adapter@D@__crt_stdio_output@@@2@@__crt_stdio_output@@AAEXI@Z 10094870 f i libucrtd:output.obj
 0001:000938a0       ?unset_flag@?$output_processor@DV?$string_output_adapter@D@__crt_stdio_output@@V?$standard_base@DV?$string_output_adapter@D@__crt_stdio_output@@@2@@__crt_stdio_output@@AAEXI@Z 100948a0 f i libucrtd:output.obj
 0001:000938d0       ?unset_flag@?$output_processor@_WV?$stream_output_adapter@_W@__crt_stdio_output@@V?$format_validation_base@_WV?$stream_output_adapter@_W@__crt_stdio_output@@@2@@__crt_stdio_output@@AAEXI@Z 100948d0 f i libucrtd:output.obj
 0001:00093900       ?unset_flag@?$output_processor@_WV?$stream_output_adapter@_W@__crt_stdio_output@@V?$positional_parameter_base@_WV?$stream_output_adapter@_W@__crt_stdio_output@@@2@@__crt_stdio_output@@AAEXI@Z 10094900 f i libucrtd:output.obj
 0001:00093930       ?unset_flag@?$output_processor@_WV?$stream_output_adapter@_W@__crt_stdio_output@@V?$standard_base@_WV?$stream_output_adapter@_W@__crt_stdio_output@@@2@@__crt_stdio_output@@AAEXI@Z 10094930 f i libucrtd:output.obj
 0001:00093960       ?unset_flag@?$output_processor@_WV?$string_output_adapter@_W@__crt_stdio_output@@V?$format_validation_base@_WV?$string_output_adapter@_W@__crt_stdio_output@@@2@@__crt_stdio_output@@AAEXI@Z 10094960 f i libucrtd:output.obj
 0001:00093990       ?unset_flag@?$output_processor@_WV?$string_output_adapter@_W@__crt_stdio_output@@V?$positional_parameter_base@_WV?$string_output_adapter@_W@__crt_stdio_output@@@2@@__crt_stdio_output@@AAEXI@Z 10094990 f i libucrtd:output.obj
 0001:000939c0       ?unset_flag@?$output_processor@_WV?$string_output_adapter@_W@__crt_stdio_output@@V?$standard_base@_WV?$string_output_adapter@_W@__crt_stdio_output@@@2@@__crt_stdio_output@@AAEXI@Z 100949c0 f i libucrtd:output.obj
 0001:000939f0       ?update_field_width@?$positional_parameter_base@DV?$stream_output_adapter@D@__crt_stdio_output@@@__crt_stdio_output@@IAE_NXZ 100949f0 f i libucrtd:output.obj
 0001:00093be0       ?update_field_width@?$positional_parameter_base@DV?$string_output_adapter@D@__crt_stdio_output@@@__crt_stdio_output@@IAE_NXZ 10094be0 f i libucrtd:output.obj
 0001:00093dd0       ?update_field_width@?$positional_parameter_base@_WV?$stream_output_adapter@_W@__crt_stdio_output@@@__crt_stdio_output@@IAE_NXZ 10094dd0 f i libucrtd:output.obj
 0001:00093fc0       ?update_field_width@?$positional_parameter_base@_WV?$string_output_adapter@_W@__crt_stdio_output@@@__crt_stdio_output@@IAE_NXZ 10094fc0 f i libucrtd:output.obj
 0001:000941b0       ?update_field_width@?$standard_base@DV?$stream_output_adapter@D@__crt_stdio_output@@@__crt_stdio_output@@IAE_NXZ 100951b0 f i libucrtd:output.obj
 0001:000941e0       ?update_field_width@?$standard_base@DV?$string_output_adapter@D@__crt_stdio_output@@@__crt_stdio_output@@IAE_NXZ 100951e0 f i libucrtd:output.obj
 0001:00094210       ?update_field_width@?$standard_base@_WV?$stream_output_adapter@_W@__crt_stdio_output@@@__crt_stdio_output@@IAE_NXZ 10095210 f i libucrtd:output.obj
 0001:00094240       ?update_field_width@?$standard_base@_WV?$string_output_adapter@_W@__crt_stdio_output@@@__crt_stdio_output@@IAE_NXZ 10095240 f i libucrtd:output.obj
 0001:00094270       ?update_locale@__crt_cached_ptd_host@@AAEXXZ 10095270 f i libucrtd:output.obj
 0001:000942a0       ?update_locale_slow@__crt_cached_ptd_host@@AAEXXZ 100952a0 f i libucrtd:output.obj
 0001:00094350       ?update_precision@?$positional_parameter_base@DV?$stream_output_adapter@D@__crt_stdio_output@@@__crt_stdio_output@@IAE_NXZ 10095350 f i libucrtd:output.obj
 0001:00094540       ?update_precision@?$positional_parameter_base@DV?$string_output_adapter@D@__crt_stdio_output@@@__crt_stdio_output@@IAE_NXZ 10095540 f i libucrtd:output.obj
 0001:00094730       ?update_precision@?$positional_parameter_base@_WV?$stream_output_adapter@_W@__crt_stdio_output@@@__crt_stdio_output@@IAE_NXZ 10095730 f i libucrtd:output.obj
 0001:00094920       ?update_precision@?$positional_parameter_base@_WV?$string_output_adapter@_W@__crt_stdio_output@@@__crt_stdio_output@@IAE_NXZ 10095920 f i libucrtd:output.obj
 0001:00094b10       ?update_precision@?$standard_base@DV?$stream_output_adapter@D@__crt_stdio_output@@@__crt_stdio_output@@IAE_NXZ 10095b10 f i libucrtd:output.obj
 0001:00094b40       ?update_precision@?$standard_base@DV?$string_output_adapter@D@__crt_stdio_output@@@__crt_stdio_output@@IAE_NXZ 10095b40 f i libucrtd:output.obj
 0001:00094b70       ?update_precision@?$standard_base@_WV?$stream_output_adapter@_W@__crt_stdio_output@@@__crt_stdio_output@@IAE_NXZ 10095b70 f i libucrtd:output.obj
 0001:00094ba0       ?update_precision@?$standard_base@_WV?$string_output_adapter@_W@__crt_stdio_output@@@__crt_stdio_output@@IAE_NXZ 10095ba0 f i libucrtd:output.obj
 0001:00094bd0       ?valid@__crt_stdio_stream@@QBE_NXZ 10095bd0 f i libucrtd:output.obj
 0001:00094c10       ?validate@?$c_string_character_source@D@__crt_strtox@@QBE_NXZ 10095c10 f i libucrtd:output.obj
 0001:00094cd0       ?validate@?$c_string_character_source@_W@__crt_strtox@@QBE_NXZ 10095cd0 f i libucrtd:output.obj
 0001:00094d90       ?validate@?$stream_output_adapter@D@__crt_stdio_output@@QBE_NAAV__crt_cached_ptd_host@@@Z 10095d90 f i libucrtd:output.obj
 0001:00094e80       ?validate@?$stream_output_adapter@_W@__crt_stdio_output@@QBE_NAAV__crt_cached_ptd_host@@@Z 10095e80 f i libucrtd:output.obj
 0001:00094f70       ?validate@?$string_output_adapter@D@__crt_stdio_output@@QBE_NAAV__crt_cached_ptd_host@@@Z 10095f70 f i libucrtd:output.obj
 0001:00095040       ?validate@?$string_output_adapter@_W@__crt_stdio_output@@QBE_NAAV__crt_cached_ptd_host@@@Z 10096040 f i libucrtd:output.obj
 0001:00095110       ?validate_and_store_parameter_data@?$positional_parameter_base@DV?$stream_output_adapter@D@__crt_stdio_output@@@__crt_stdio_output@@AAE_NAAUparameter_data@12@W4parameter_type@12@DW4length_modifier@2@@Z 10096110 f i libucrtd:output.obj
 0001:00095230       ?validate_and_store_parameter_data@?$positional_parameter_base@DV?$string_output_adapter@D@__crt_stdio_output@@@__crt_stdio_output@@AAE_NAAUparameter_data@12@W4parameter_type@12@DW4length_modifier@2@@Z 10096230 f i libucrtd:output.obj
 0001:00095350       ?validate_and_store_parameter_data@?$positional_parameter_base@_WV?$stream_output_adapter@_W@__crt_stdio_output@@@__crt_stdio_output@@AAE_NAAUparameter_data@12@W4parameter_type@12@_WW4length_modifier@2@@Z 10096350 f i libucrtd:output.obj
 0001:00095470       ?validate_and_store_parameter_data@?$positional_parameter_base@_WV?$string_output_adapter@_W@__crt_stdio_output@@@__crt_stdio_output@@AAE_NAAUparameter_data@12@W4parameter_type@12@_WW4length_modifier@2@@Z 10096470 f i libucrtd:output.obj
 0001:00095590       ?validate_and_update_state_at_beginning_of_format_character@?$positional_parameter_base@DV?$stream_output_adapter@D@__crt_stdio_output@@@__crt_stdio_output@@IAE_NXZ 10096590 f i libucrtd:output.obj
 0001:00095840       ?validate_and_update_state_at_beginning_of_format_character@?$positional_parameter_base@DV?$string_output_adapter@D@__crt_stdio_output@@@__crt_stdio_output@@IAE_NXZ 10096840 f i libucrtd:output.obj
 0001:00095af0       ?validate_and_update_state_at_beginning_of_format_character@?$positional_parameter_base@_WV?$stream_output_adapter@_W@__crt_stdio_output@@@__crt_stdio_output@@IAE_NXZ 10096af0 f i libucrtd:output.obj
 0001:00095da0       ?validate_and_update_state_at_beginning_of_format_character@?$positional_parameter_base@_WV?$string_output_adapter@_W@__crt_stdio_output@@@__crt_stdio_output@@IAE_NXZ 10096da0 f i libucrtd:output.obj
 0001:00096050       ?validate_and_update_state_at_beginning_of_format_character@?$standard_base@DV?$stream_output_adapter@D@__crt_stdio_output@@@__crt_stdio_output@@IAE_NXZ 10097050 f i libucrtd:output.obj
 0001:00096070       ?validate_and_update_state_at_beginning_of_format_character@?$standard_base@DV?$string_output_adapter@D@__crt_stdio_output@@@__crt_stdio_output@@IAE_NXZ 10097070 f i libucrtd:output.obj
 0001:00096090       ?validate_and_update_state_at_beginning_of_format_character@?$standard_base@_WV?$stream_output_adapter@_W@__crt_stdio_output@@@__crt_stdio_output@@IAE_NXZ 10097090 f i libucrtd:output.obj
 0001:000960b0       ?validate_and_update_state_at_beginning_of_format_character@?$standard_base@_WV?$string_output_adapter@_W@__crt_stdio_output@@@__crt_stdio_output@@IAE_NXZ 100970b0 f i libucrtd:output.obj
 0001:000960d0       ?validate_and_update_state_at_end_of_format_string@?$format_validation_base@DV?$stream_output_adapter@D@__crt_stdio_output@@@__crt_stdio_output@@IAE_NXZ 100970d0 f i libucrtd:output.obj
 0001:000961b0       ?validate_and_update_state_at_end_of_format_string@?$format_validation_base@DV?$string_output_adapter@D@__crt_stdio_output@@@__crt_stdio_output@@IAE_NXZ 100971b0 f i libucrtd:output.obj
 0001:00096290       ?validate_and_update_state_at_end_of_format_string@?$format_validation_base@_WV?$stream_output_adapter@_W@__crt_stdio_output@@@__crt_stdio_output@@IAE_NXZ 10097290 f i libucrtd:output.obj
 0001:00096370       ?validate_and_update_state_at_end_of_format_string@?$format_validation_base@_WV?$string_output_adapter@_W@__crt_stdio_output@@@__crt_stdio_output@@IAE_NXZ 10097370 f i libucrtd:output.obj
 0001:00096450       ?validate_and_update_state_at_end_of_format_string@?$positional_parameter_base@DV?$stream_output_adapter@D@__crt_stdio_output@@@__crt_stdio_output@@IAE_NXZ 10097450 f i libucrtd:output.obj
 0001:00096670       ?validate_and_update_state_at_end_of_format_string@?$positional_parameter_base@DV?$string_output_adapter@D@__crt_stdio_output@@@__crt_stdio_output@@IAE_NXZ 10097670 f i libucrtd:output.obj
 0001:00096890       ?validate_and_update_state_at_end_of_format_string@?$positional_parameter_base@_WV?$stream_output_adapter@_W@__crt_stdio_output@@@__crt_stdio_output@@IAE_NXZ 10097890 f i libucrtd:output.obj
 0001:00096ab0       ?validate_and_update_state_at_end_of_format_string@?$positional_parameter_base@_WV?$string_output_adapter@_W@__crt_stdio_output@@@__crt_stdio_output@@IAE_NXZ 10097ab0 f i libucrtd:output.obj
 0001:00096cd0       ?validate_and_update_state_at_end_of_format_string@?$standard_base@DV?$stream_output_adapter@D@__crt_stdio_output@@@__crt_stdio_output@@IBE_NXZ 10097cd0 f i libucrtd:output.obj
 0001:00096cf0       ?validate_and_update_state_at_end_of_format_string@?$standard_base@DV?$string_output_adapter@D@__crt_stdio_output@@@__crt_stdio_output@@IBE_NXZ 10097cf0 f i libucrtd:output.obj
 0001:00096d10       ?validate_and_update_state_at_end_of_format_string@?$standard_base@_WV?$stream_output_adapter@_W@__crt_stdio_output@@@__crt_stdio_output@@IBE_NXZ 10097d10 f i libucrtd:output.obj
 0001:00096d30       ?validate_and_update_state_at_end_of_format_string@?$standard_base@_WV?$string_output_adapter@_W@__crt_stdio_output@@@__crt_stdio_output@@IBE_NXZ 10097d30 f i libucrtd:output.obj
 0001:00096d50       ?validate_state_for_type_case_a@?$positional_parameter_base@DV?$stream_output_adapter@D@__crt_stdio_output@@@__crt_stdio_output@@IAE_NXZ 10097d50 f i libucrtd:output.obj
 0001:00096ea0       ?validate_state_for_type_case_a@?$positional_parameter_base@DV?$string_output_adapter@D@__crt_stdio_output@@@__crt_stdio_output@@IAE_NXZ 10097ea0 f i libucrtd:output.obj
 0001:00096ff0       ?validate_state_for_type_case_a@?$positional_parameter_base@_WV?$stream_output_adapter@_W@__crt_stdio_output@@@__crt_stdio_output@@IAE_NXZ 10097ff0 f i libucrtd:output.obj
 0001:00097140       ?validate_state_for_type_case_a@?$positional_parameter_base@_WV?$string_output_adapter@_W@__crt_stdio_output@@@__crt_stdio_output@@IAE_NXZ 10098140 f i libucrtd:output.obj
 0001:00097290       ?validate_state_for_type_case_a@?$standard_base@DV?$stream_output_adapter@D@__crt_stdio_output@@@__crt_stdio_output@@IBE_NXZ 10098290 f i libucrtd:output.obj
 0001:000972b0       ?validate_state_for_type_case_a@?$standard_base@DV?$string_output_adapter@D@__crt_stdio_output@@@__crt_stdio_output@@IBE_NXZ 100982b0 f i libucrtd:output.obj
 0001:000972d0       ?validate_state_for_type_case_a@?$standard_base@_WV?$stream_output_adapter@_W@__crt_stdio_output@@@__crt_stdio_output@@IBE_NXZ 100982d0 f i libucrtd:output.obj
 0001:000972f0       ?validate_state_for_type_case_a@?$standard_base@_WV?$string_output_adapter@_W@__crt_stdio_output@@@__crt_stdio_output@@IBE_NXZ 100982f0 f i libucrtd:output.obj
 0001:00097310       ?validate_stream_is_ansi_if_required@?$__acrt_stdio_char_traits@D@@SA_NQAU_iobuf@@@Z 10098310 f i libucrtd:output.obj
 0001:00097490       ?validate_stream_is_ansi_if_required@?$__acrt_stdio_char_traits@_W@@SA_NQAU_iobuf@@@Z 10098490 f i libucrtd:output.obj
 0001:000974a0       ?wide_character_to_digit@__crt_strtox@@YAH_W@Z 100984a0 f i libucrtd:output.obj
 0001:00097890       ?wide_null_string@?$output_processor@DV?$stream_output_adapter@D@__crt_stdio_output@@V?$format_validation_base@DV?$stream_output_adapter@D@__crt_stdio_output@@@2@@__crt_stdio_output@@CAPA_WXZ 10098890 f i libucrtd:output.obj
 0001:000978a0       ?wide_null_string@?$output_processor@DV?$stream_output_adapter@D@__crt_stdio_output@@V?$positional_parameter_base@DV?$stream_output_adapter@D@__crt_stdio_output@@@2@@__crt_stdio_output@@CAPA_WXZ 100988a0 f i libucrtd:output.obj
 0001:000978b0       ?wide_null_string@?$output_processor@DV?$stream_output_adapter@D@__crt_stdio_output@@V?$standard_base@DV?$stream_output_adapter@D@__crt_stdio_output@@@2@@__crt_stdio_output@@CAPA_WXZ 100988b0 f i libucrtd:output.obj
 0001:000978c0       ?wide_null_string@?$output_processor@DV?$string_output_adapter@D@__crt_stdio_output@@V?$format_validation_base@DV?$string_output_adapter@D@__crt_stdio_output@@@2@@__crt_stdio_output@@CAPA_WXZ 100988c0 f i libucrtd:output.obj
 0001:000978d0       ?wide_null_string@?$output_processor@DV?$string_output_adapter@D@__crt_stdio_output@@V?$positional_parameter_base@DV?$string_output_adapter@D@__crt_stdio_output@@@2@@__crt_stdio_output@@CAPA_WXZ 100988d0 f i libucrtd:output.obj
 0001:000978e0       ?wide_null_string@?$output_processor@DV?$string_output_adapter@D@__crt_stdio_output@@V?$standard_base@DV?$string_output_adapter@D@__crt_stdio_output@@@2@@__crt_stdio_output@@CAPA_WXZ 100988e0 f i libucrtd:output.obj
 0001:000978f0       ?wide_null_string@?$output_processor@_WV?$stream_output_adapter@_W@__crt_stdio_output@@V?$format_validation_base@_WV?$stream_output_adapter@_W@__crt_stdio_output@@@2@@__crt_stdio_output@@CAPA_WXZ 100988f0 f i libucrtd:output.obj
 0001:00097900       ?wide_null_string@?$output_processor@_WV?$stream_output_adapter@_W@__crt_stdio_output@@V?$positional_parameter_base@_WV?$stream_output_adapter@_W@__crt_stdio_output@@@2@@__crt_stdio_output@@CAPA_WXZ 10098900 f i libucrtd:output.obj
 0001:00097910       ?wide_null_string@?$output_processor@_WV?$stream_output_adapter@_W@__crt_stdio_output@@V?$standard_base@_WV?$stream_output_adapter@_W@__crt_stdio_output@@@2@@__crt_stdio_output@@CAPA_WXZ 10098910 f i libucrtd:output.obj
 0001:00097920       ?wide_null_string@?$output_processor@_WV?$string_output_adapter@_W@__crt_stdio_output@@V?$format_validation_base@_WV?$string_output_adapter@_W@__crt_stdio_output@@@2@@__crt_stdio_output@@CAPA_WXZ 10098920 f i libucrtd:output.obj
 0001:00097930       ?wide_null_string@?$output_processor@_WV?$string_output_adapter@_W@__crt_stdio_output@@V?$positional_parameter_base@_WV?$string_output_adapter@_W@__crt_stdio_output@@@2@@__crt_stdio_output@@CAPA_WXZ 10098930 f i libucrtd:output.obj
 0001:00097940       ?wide_null_string@?$output_processor@_WV?$string_output_adapter@_W@__crt_stdio_output@@V?$standard_base@_WV?$string_output_adapter@_W@__crt_stdio_output@@@2@@__crt_stdio_output@@CAPA_WXZ 10098940 f i libucrtd:output.obj
 0001:00097950       ?write_character@?$output_adapter_common@DV?$stream_output_adapter@D@__crt_stdio_output@@@__crt_stdio_output@@QBEXDQAHAAV__crt_cached_ptd_host@@@Z 10098950 f i libucrtd:output.obj
 0001:000979a0       ?write_character@?$output_adapter_common@_WV?$stream_output_adapter@_W@__crt_stdio_output@@@__crt_stdio_output@@QBEX_WQAHAAV__crt_cached_ptd_host@@@Z 100989a0 f i libucrtd:output.obj
 0001:000979f0       ?write_character@?$string_output_adapter@D@__crt_stdio_output@@QBE_NDQAHAAV__crt_cached_ptd_host@@@Z 100989f0 f i libucrtd:output.obj
 0001:00097ab0       ?write_character@?$string_output_adapter@_W@__crt_stdio_output@@QBE_N_WQAHAAV__crt_cached_ptd_host@@@Z 10098ab0 f i libucrtd:output.obj
 0001:00097b70       ?write_character_without_count_update@?$stream_output_adapter@D@__crt_stdio_output@@QBE_NDAAV__crt_cached_ptd_host@@@Z 10098b70 f i libucrtd:output.obj
 0001:00097c00       ?write_character_without_count_update@?$stream_output_adapter@_W@__crt_stdio_output@@QBE_N_WAAV__crt_cached_ptd_host@@@Z 10098c00 f i libucrtd:output.obj
 0001:00097c90       ?write_stored_string_tchar@?$output_processor@DV?$stream_output_adapter@D@__crt_stdio_output@@V?$format_validation_base@DV?$stream_output_adapter@D@__crt_stdio_output@@@2@@__crt_stdio_output@@AAE_ND@Z 10098c90 f i libucrtd:output.obj
 0001:00097e00       ?write_stored_string_tchar@?$output_processor@DV?$stream_output_adapter@D@__crt_stdio_output@@V?$positional_parameter_base@DV?$stream_output_adapter@D@__crt_stdio_output@@@2@@__crt_stdio_output@@AAE_ND@Z 10098e00 f i libucrtd:output.obj
 0001:00097f70       ?write_stored_string_tchar@?$output_processor@DV?$stream_output_adapter@D@__crt_stdio_output@@V?$standard_base@DV?$stream_output_adapter@D@__crt_stdio_output@@@2@@__crt_stdio_output@@AAE_ND@Z 10098f70 f i libucrtd:output.obj
 0001:000980e0       ?write_stored_string_tchar@?$output_processor@DV?$string_output_adapter@D@__crt_stdio_output@@V?$format_validation_base@DV?$string_output_adapter@D@__crt_stdio_output@@@2@@__crt_stdio_output@@AAE_ND@Z 100990e0 f i libucrtd:output.obj
 0001:00098250       ?write_stored_string_tchar@?$output_processor@DV?$string_output_adapter@D@__crt_stdio_output@@V?$positional_parameter_base@DV?$string_output_adapter@D@__crt_stdio_output@@@2@@__crt_stdio_output@@AAE_ND@Z 10099250 f i libucrtd:output.obj
 0001:000983c0       ?write_stored_string_tchar@?$output_processor@DV?$string_output_adapter@D@__crt_stdio_output@@V?$standard_base@DV?$string_output_adapter@D@__crt_stdio_output@@@2@@__crt_stdio_output@@AAE_ND@Z 100993c0 f i libucrtd:output.obj
 0001:00098530       ?write_stored_string_tchar@?$output_processor@_WV?$stream_output_adapter@_W@__crt_stdio_output@@V?$format_validation_base@_WV?$stream_output_adapter@_W@__crt_stdio_output@@@2@@__crt_stdio_output@@AAE_N_W@Z 10099530 f i libucrtd:output.obj
 0001:00098680       ?write_stored_string_tchar@?$output_processor@_WV?$stream_output_adapter@_W@__crt_stdio_output@@V?$positional_parameter_base@_WV?$stream_output_adapter@_W@__crt_stdio_output@@@2@@__crt_stdio_output@@AAE_N_W@Z 10099680 f i libucrtd:output.obj
 0001:000987d0       ?write_stored_string_tchar@?$output_processor@_WV?$stream_output_adapter@_W@__crt_stdio_output@@V?$standard_base@_WV?$stream_output_adapter@_W@__crt_stdio_output@@@2@@__crt_stdio_output@@AAE_N_W@Z 100997d0 f i libucrtd:output.obj
 0001:00098920       ?write_stored_string_tchar@?$output_processor@_WV?$string_output_adapter@_W@__crt_stdio_output@@V?$format_validation_base@_WV?$string_output_adapter@_W@__crt_stdio_output@@@2@@__crt_stdio_output@@AAE_N_W@Z 10099920 f i libucrtd:output.obj
 0001:00098a70       ?write_stored_string_tchar@?$output_processor@_WV?$string_output_adapter@_W@__crt_stdio_output@@V?$positional_parameter_base@_WV?$string_output_adapter@_W@__crt_stdio_output@@@2@@__crt_stdio_output@@AAE_N_W@Z 10099a70 f i libucrtd:output.obj
 0001:00098bc0       ?write_stored_string_tchar@?$output_processor@_WV?$string_output_adapter@_W@__crt_stdio_output@@V?$standard_base@_WV?$string_output_adapter@_W@__crt_stdio_output@@@2@@__crt_stdio_output@@AAE_N_W@Z 10099bc0 f i libucrtd:output.obj
 0001:00098d10       ?write_string@?$stream_output_adapter@D@__crt_stdio_output@@QBEXQBDHQAHAAV__crt_cached_ptd_host@@@Z 10099d10 f i libucrtd:output.obj
 0001:00098d80       ?write_string@?$stream_output_adapter@_W@__crt_stdio_output@@QBEXQB_WHQAHAAV__crt_cached_ptd_host@@@Z 10099d80 f i libucrtd:output.obj
 0001:00098df0       ?write_string@?$string_output_adapter@D@__crt_stdio_output@@QBEXQBDHQAHAAV__crt_cached_ptd_host@@@Z 10099df0 f i libucrtd:output.obj
 0001:00098f30       ?write_string@?$string_output_adapter@_W@__crt_stdio_output@@QBEXQB_WHQAHAAV__crt_cached_ptd_host@@@Z 10099f30 f i libucrtd:output.obj
 0001:00099080       ?write_string_impl@?$output_adapter_common@DV?$stream_output_adapter@D@__crt_stdio_output@@@__crt_stdio_output@@IBEXQBDHQAHAAV__crt_cached_ptd_host@@@Z 1009a080 f i libucrtd:output.obj
 0001:00099170       ?write_string_impl@?$output_adapter_common@_WV?$stream_output_adapter@_W@__crt_stdio_output@@@__crt_stdio_output@@IBEXQB_WHQAHAAV__crt_cached_ptd_host@@@Z 1009a170 f i libucrtd:output.obj
 0001:00099260       ___acrt_isleadbyte_l_noupdate 1009a260 f i libucrtd:output.obj
 0001:00099290       ___acrt_locale_get_ctype_array_value 1009a290 f i libucrtd:output.obj
 0001:000992c0       ___ascii_iswalpha          1009a2c0 f i libucrtd:output.obj
 0001:00099310       ___ascii_toupper           1009a310 f i libucrtd:output.obj
 0001:00099340       ___ascii_towupper          1009a340 f i libucrtd:output.obj
 0001:00099360       ___stdio_common_vfprintf   1009a360 f   libucrtd:output.obj
 0001:000993c0       ___stdio_common_vfprintf_p 1009a3c0 f   libucrtd:output.obj
 0001:00099420       ___stdio_common_vfprintf_s 1009a420 f   libucrtd:output.obj
 0001:00099480       ___stdio_common_vfwprintf  1009a480 f   libucrtd:output.obj
 0001:000994e0       ___stdio_common_vfwprintf_p 1009a4e0 f   libucrtd:output.obj
 0001:00099540       ___stdio_common_vfwprintf_s 1009a540 f   libucrtd:output.obj
 0001:000995a0       ___stdio_common_vsnprintf_s 1009a5a0 f   libucrtd:output.obj
 0001:00099610       ___stdio_common_vsnwprintf_s 1009a610 f   libucrtd:output.obj
 0001:00099680       ___stdio_common_vsprintf   1009a680 f   libucrtd:output.obj
 0001:000996e0       ___stdio_common_vsprintf_p 1009a6e0 f   libucrtd:output.obj
 0001:00099740       ___stdio_common_vsprintf_s 1009a740 f   libucrtd:output.obj
 0001:000997a0       ___stdio_common_vswprintf  1009a7a0 f   libucrtd:output.obj
 0001:00099800       ___stdio_common_vswprintf_p 1009a800 f   libucrtd:output.obj
 0001:00099860       ___stdio_common_vswprintf_s 1009a860 f   libucrtd:output.obj
 0001:000998c0       __ctype_fast_check_internal 1009a8c0 f i libucrtd:output.obj
 0001:000998e0       __isdigit_fast_internal    1009a8e0 f i libucrtd:output.obj
 0001:00099900       __tolower_fast_internal    1009a900 f i libucrtd:output.obj
 0001:00099920       ??$?RU?$__crt_report_hook_node@D@@@__crt_internal_free_policy@@QBEXQBU?$__crt_report_hook_node@D@@@Z 1009a920 f i libucrtd:dbgrpt.obj
 0001:00099950       ??$?RU?$__crt_report_hook_node@_W@@@__crt_internal_free_policy@@QBEXQBU?$__crt_report_hook_node@_W@@@Z 1009a950 f i libucrtd:dbgrpt.obj
 0001:0009abf0       ??$get_module_file_name@AAPAUHINSTANCE__@@AAY0BAF@DK@?$__crt_char_traits@D@@SAKAAPAUHINSTANCE__@@AAY0BAF@D$$QAK@Z 1009bbf0 f i libucrtd:dbgrpt.obj
 0001:0009ac20       ??$get_module_file_name@AAPAUHINSTANCE__@@AAY0BAF@_WK@?$__crt_char_traits@_W@@SAKAAPAUHINSTANCE__@@AAY0BAF@_W$$QAK@Z 1009bc20 f i libucrtd:dbgrpt.obj
 0001:0009ac50       ??$tcscpy_s@AAY0BAF@DIPBD@?$__crt_char_traits@D@@SAHAAY0BAF@D$$QAI$$QAPBD@Z 1009bc50 f i libucrtd:dbgrpt.obj
 0001:0009ac80       ??$tcscpy_s@AAY0BAF@_WIPB_W@?$__crt_char_traits@_W@@SAHAAY0BAF@_W$$QAI$$QAPB_W@Z 1009bc80 f i libucrtd:dbgrpt.obj
 0001:0009acb0       ??$tcslen@AAY0BAF@D@?$__crt_char_traits@D@@SAIAAY0BAF@D@Z 1009bcb0 f i libucrtd:dbgrpt.obj
 0001:0009acd0       ??$tcslen@AAY0BAF@_W@?$__crt_char_traits@_W@@SAIAAY0BAF@_W@Z 1009bcd0 f i libucrtd:dbgrpt.obj
 0001:0009acf0       ??$tcslen@ABQBD@?$__crt_char_traits@D@@SAIABQBD@Z 1009bcf0 f i libucrtd:dbgrpt.obj
 0001:0009ad10       ??$tcslen@ABQB_W@?$__crt_char_traits@_W@@SAIABQB_W@Z 1009bd10 f i libucrtd:dbgrpt.obj
 0001:0009ae50       ??0?$__crt_unique_heap_ptr@U?$__crt_report_hook_node@D@@U__crt_internal_free_policy@@@@QAE@QAU?$__crt_report_hook_node@D@@@Z 1009be50 f i libucrtd:dbgrpt.obj
 0001:0009ae70       ??0?$__crt_unique_heap_ptr@U?$__crt_report_hook_node@_W@@U__crt_internal_free_policy@@@@QAE@QAU?$__crt_report_hook_node@_W@@@Z 1009be70 f i libucrtd:dbgrpt.obj
 0001:0009ae90       ??1?$__crt_unique_heap_ptr@U?$__crt_report_hook_node@D@@U__crt_internal_free_policy@@@@QAE@XZ 1009be90 f i libucrtd:dbgrpt.obj
 0001:0009aeb0       ??1?$__crt_unique_heap_ptr@U?$__crt_report_hook_node@_W@@U__crt_internal_free_policy@@@@QAE@XZ 1009beb0 f i libucrtd:dbgrpt.obj
 0001:0009aed0       ??B?$__crt_unique_heap_ptr@U?$__crt_report_hook_node@D@@U__crt_internal_free_policy@@@@QBE_NXZ 1009bed0 f i libucrtd:dbgrpt.obj
 0001:0009aef0       ??B?$__crt_unique_heap_ptr@U?$__crt_report_hook_node@_W@@U__crt_internal_free_policy@@@@QBE_NXZ 1009bef0 f i libucrtd:dbgrpt.obj
 0001:0009b5b0       ?detach@?$__crt_unique_heap_ptr@U?$__crt_report_hook_node@D@@U__crt_internal_free_policy@@@@QAEPAU?$__crt_report_hook_node@D@@XZ 1009c5b0 f i libucrtd:dbgrpt.obj
 0001:0009b5e0       ?detach@?$__crt_unique_heap_ptr@U?$__crt_report_hook_node@_W@@U__crt_internal_free_policy@@@@QAEPAU?$__crt_report_hook_node@_W@@XZ 1009c5e0 f i libucrtd:dbgrpt.obj
 0001:0009b610       ?get@?$__crt_unique_heap_ptr@U?$__crt_report_hook_node@D@@U__crt_internal_free_policy@@@@QBEPAU?$__crt_report_hook_node@D@@XZ 1009c610 f i libucrtd:dbgrpt.obj
 0001:0009b630       ?get@?$__crt_unique_heap_ptr@U?$__crt_report_hook_node@_W@@U__crt_internal_free_policy@@@@QBEPAU?$__crt_report_hook_node@_W@@XZ 1009c630 f i libucrtd:dbgrpt.obj
 0001:0009b6b0       ?is_valid@?$__crt_unique_heap_ptr@U?$__crt_report_hook_node@D@@U__crt_internal_free_policy@@@@QBE_NXZ 1009c6b0 f i libucrtd:dbgrpt.obj
 0001:0009b6f0       ?is_valid@?$__crt_unique_heap_ptr@U?$__crt_report_hook_node@_W@@U__crt_internal_free_policy@@@@QBE_NXZ 1009c6f0 f i libucrtd:dbgrpt.obj
 0001:0009b730       ?release@?$__crt_unique_heap_ptr@U?$__crt_report_hook_node@D@@U__crt_internal_free_policy@@@@QAEXXZ 1009c730 f i libucrtd:dbgrpt.obj
 0001:0009b760       ?release@?$__crt_unique_heap_ptr@U?$__crt_report_hook_node@_W@@U__crt_internal_free_policy@@@@QAEXXZ 1009c760 f i libucrtd:dbgrpt.obj
 0001:0009b790       __CrtDbgReport             1009c790 f   libucrtd:dbgrpt.obj
 0001:0009b7f0       __CrtDbgReportW            1009c7f0 f   libucrtd:dbgrpt.obj
 0001:0009b850       __CrtSetReportHook2        1009c850 f   libucrtd:dbgrpt.obj
 0001:0009b870       __CrtSetReportHookW2       1009c870 f   libucrtd:dbgrpt.obj
 0001:0009b890       ___acrt_MessageWindowA     1009c890 f   libucrtd:dbgrpt.obj
 0001:0009b8c0       ___acrt_MessageWindowW     1009c8c0 f   libucrtd:dbgrpt.obj
 0001:0009b8f0       __snwprintf_s              1009c8f0 f i libucrtd:dbgrpt.obj
 0001:0009b940       __vsnwprintf_s_l           1009c940 f i libucrtd:dbgrpt.obj
 0001:0009b9b0       ??$is_overflow_condition@_K@__crt_strtox@@YA_NI_K@Z 1009c9b0 f i libucrtd:atox.obj
 0001:0009ba60       ??$make_c_string_character_source@D$$T@__crt_strtox@@YA?AV?$c_string_character_source@D@0@QBD$$T@Z 1009ca60 f i libucrtd:atox.obj
 0001:0009ba80       ??$make_c_string_character_source@_W$$T@__crt_strtox@@YA?AV?$c_string_character_source@_W@0@QB_W$$T@Z 1009ca80 f i libucrtd:atox.obj
 0001:0009baa0       ??$parse_integer@KV?$c_string_character_source@D@__crt_strtox@@$00@__crt_strtox@@YAKAAV__crt_cached_ptd_host@@V?$c_string_character_source@D@0@H_N@Z 1009caa0 f i libucrtd:atox.obj
 0001:0009bee0       ??$parse_integer@KV?$c_string_character_source@_W@__crt_strtox@@$00@__crt_strtox@@YAKAAV__crt_cached_ptd_host@@V?$c_string_character_source@_W@0@H_N@Z 1009cee0 f i libucrtd:atox.obj
 0001:0009c320       ??$parse_integer@_KV?$c_string_character_source@D@__crt_strtox@@$00@__crt_strtox@@YA_KAAV__crt_cached_ptd_host@@V?$c_string_character_source@D@0@H_N@Z 1009d320 f i libucrtd:atox.obj
 0001:0009c800       ??$parse_integer@_KV?$c_string_character_source@_W@__crt_strtox@@$00@__crt_strtox@@YA_KAAV__crt_cached_ptd_host@@V?$c_string_character_source@_W@0@H_N@Z 1009d800 f i libucrtd:atox.obj
 0001:0009ccf0       ??$parse_integer_from_string@JD$$T@__crt_strtox@@YAJQBD$$THQAU__crt_locale_pointers@@@Z 1009dcf0 f i libucrtd:atox.obj
 0001:0009cd60       ??$parse_integer_from_string@J_W$$T@__crt_strtox@@YAJQB_W$$THQAU__crt_locale_pointers@@@Z 1009dd60 f i libucrtd:atox.obj
 0001:0009cdd0       ??$parse_integer_from_string@_JD$$T@__crt_strtox@@YA_JQBD$$THQAU__crt_locale_pointers@@@Z 1009ddd0 f i libucrtd:atox.obj
 0001:0009ce40       ??$parse_integer_from_string@_J_W$$T@__crt_strtox@@YA_JQB_W$$THQAU__crt_locale_pointers@@@Z 1009de40 f i libucrtd:atox.obj
 0001:0009ceb0       ?is_space@__crt_strtox@@YA_NDQAU__crt_locale_pointers@@@Z 1009deb0 f i libucrtd:atox.obj
 0001:0009cf00       ?is_space@__crt_strtox@@YA_N_WPAU__crt_locale_pointers@@@Z 1009df00 f i libucrtd:atox.obj
 0001:0009cf40       ?maximum_signed_value@__crt_strtox@@YA_J_K@Z 1009df40 f i libucrtd:atox.obj
 0001:0009cf60       ?minimum_signed_value@__crt_strtox@@YA_J_K@Z 1009df60 f i libucrtd:atox.obj
 0001:0009cf80       __atoi64                   1009df80 f   libucrtd:atox.obj
 0001:0009cfa0       __atoi64_l                 1009dfa0 f   libucrtd:atox.obj
 0001:0009cfd0       __atoi_l                   1009dfd0 f   libucrtd:atox.obj
 0001:0009d000       __atol_l                   1009e000 f   libucrtd:atox.obj
 0001:0009d030       __atoll_l                  1009e030 f   libucrtd:atox.obj
 0001:0009d060       __wtoi                     1009e060 f   libucrtd:atox.obj
 0001:0009d080       __wtoi64                   1009e080 f   libucrtd:atox.obj
 0001:0009d0a0       __wtoi64_l                 1009e0a0 f   libucrtd:atox.obj
 0001:0009d0d0       __wtoi_l                   1009e0d0 f   libucrtd:atox.obj
 0001:0009d100       __wtol                     1009e100 f   libucrtd:atox.obj
 0001:0009d120       __wtol_l                   1009e120 f   libucrtd:atox.obj
 0001:0009d150       __wtoll                    1009e150 f   libucrtd:atox.obj
 0001:0009d170       __wtoll_l                  1009e170 f   libucrtd:atox.obj
 0001:0009d1a0       _atoi                      1009e1a0 f   libucrtd:atox.obj
 0001:0009d1c0       _atol                      1009e1c0 f   libucrtd:atox.obj
 0001:0009d1e0       _atoll                     1009e1e0 f   libucrtd:atox.obj
 0001:0009d200       _strncmp                   1009e200 f   libucrtd:strncmp.obj
 0001:0009d2a0       _wcsncmp                   1009e2a0 f   libucrtd:wcsncmp.obj
 0001:0009d310       _free                      1009e310 f   libucrtd:free.obj
 0001:0009d340       _malloc                    1009e340 f   libucrtd:malloc.obj
 0001:0009d360       __twoToTOS                 1009e360 f   libucrtd:common.obj
 0001:0009d375       __load_CW                  1009e375 f   libucrtd:common.obj
 0001:0009d38c       __convertTOStoQNaN         1009e38c f   libucrtd:common.obj
 0001:0009d3a5       __fload_withFB             1009e3a5 f   libucrtd:common.obj
 0001:0009d3e8       __checkTOS_withFB          1009e3e8 f   libucrtd:common.obj
 0001:0009d3fe       __fast_exit                1009e3fe f   libucrtd:common.obj
 0001:0009d40b       __math_exit                1009e40b f   libucrtd:common.obj
 0001:0009d435       __check_overflow_exit      1009e435 f   libucrtd:common.obj
 0001:0009d449       __check_range_exit         1009e449 f   libucrtd:common.obj
 0001:0009d550       __CIsqrt                   1009e550 f   libucrtd:sqrt_impl.obj
 0001:0009d564       __sqrt_common              1009e564     libucrtd:sqrt_impl.obj
 0001:0009d630       __add_exp                  1009e630 f   libucrtd:util.obj
 0001:0009d670       __decomp                   1009e670 f   libucrtd:util.obj
 0001:0009d7e0       __get_exp                  1009e7e0 f   libucrtd:util.obj
 0001:0009d820       __set_bexp                 1009e820 f   libucrtd:util.obj
 0001:0009d860       __set_exp                  1009e860 f   libucrtd:util.obj
 0001:0009d8b0       __sptype                   1009e8b0 f   libucrtd:util.obj
 0001:0009d950       ___clrfp_sse2              1009e950 f   libucrtd:fpctrl.obj
 0001:0009d9a0       ___ctrlfp_sse2             1009e9a0 f   libucrtd:fpctrl.obj
 0001:0009da10       ___fclrf_sse2              1009ea10 f   libucrtd:fpctrl.obj
 0001:0009da40       ___get_fpsr_sse2           1009ea40 f   libucrtd:fpctrl.obj
 0001:0009da70       ___set_fpsr_sse2           1009ea70 f   libucrtd:fpctrl.obj
 0001:0009db80       ___set_statfp_sse2         1009eb80 f   libucrtd:fpctrl.obj
 0001:0009dbc0       ___statfp_sse2             1009ebc0 f   libucrtd:fpctrl.obj
 0001:0009dc00       __clrfp                    1009ec00 f   libucrtd:fpctrl.obj
 0001:0009dc20       __ctrlfp                   1009ec20 f   libucrtd:fpctrl.obj
 0001:0009dc60       __set_statfp               1009ec60 f   libucrtd:fpctrl.obj
 0001:0009dce0       __statfp                   1009ece0 f   libucrtd:fpctrl.obj
 0001:0009dd00       _ldexp                     1009ed00 f   libucrtd:ldexp.obj
 0001:0009e0b0       _nextafter                 1009f0b0 f   libucrtd:nextafter.obj
 0001:0009e0e0       ?get_doserrno@__crt_cached_ptd_host@@QAE@XZ 1009f0e0 f i libucrtd:errno.obj
 0001:0009e100       ?set@?$cached@K@__crt_cached_ptd_host@@QAEKK@Z 1009f100 f i libucrtd:errno.obj
 0001:0009e130       ___acrt_errno_from_os_error 1009f130 f   libucrtd:errno.obj
 0001:0009e1d0       ___acrt_errno_map_os_error 1009f1d0 f   libucrtd:errno.obj
 0001:0009e210       ___acrt_errno_map_os_error_ptd 1009f210 f   libucrtd:errno.obj
 0001:0009e270       ___doserrno                1009f270 f   libucrtd:errno.obj
 0001:0009e2a0       __errno                    1009f2a0 f   libucrtd:errno.obj
 0001:0009e2d0       __get_doserrno             1009f2d0 f   libucrtd:errno.obj
 0001:0009e380       __get_errno                1009f380 f   libucrtd:errno.obj
 0001:0009e430       __set_doserrno             1009f430 f   libucrtd:errno.obj
 0001:0009e470       __set_errno                1009f470 f   libucrtd:errno.obj
 0001:0009e4b0       ??$__crt_fast_decode_pointer@P6AHPAU_exception@@@Z@@YAP6AHPAU_exception@@@ZQ6AH0@Z@Z 1009f4b0 f i libucrtd:matherr.obj
 0001:0009e4f0       ??$__crt_fast_encode_pointer@P6AHPAU_exception@@@Z@@YAP6AHPAU_exception@@@ZQ6AH0@Z@Z 1009f4f0 f i libucrtd:matherr.obj
 0001:0009e530       ?initialize@?$dual_state_global@P6AHPAU_exception@@@Z@__crt_state_management@@QAEXQ6AHPAU_exception@@@Z@Z 1009f530 f i libucrtd:matherr.obj
 0001:0009e580       ?value@?$dual_state_global@P6AHPAU_exception@@@Z@__crt_state_management@@QAEAAP6AHPAU_exception@@@ZXZ 1009f580 f i libucrtd:matherr.obj
 0001:0009e5a0       ___acrt_has_user_matherr   1009f5a0 f   libucrtd:matherr.obj
 0001:0009e5f0       ___acrt_initialize_user_matherr 1009f5f0 f   libucrtd:matherr.obj
 0001:0009e610       ___acrt_invoke_user_matherr 1009f610 f   libucrtd:matherr.obj
 0001:0009e670       ___setusermatherr          1009f670 f   libucrtd:matherr.obj
 0001:0009e6b0       ___fpe_flt_rounds          1009f6b0 f   libucrtd:fegetround.obj
 0001:0009e730       _fegetround                1009f730 f   libucrtd:fegetround.obj
 0001:0009e750       __chvalidator              1009f750 f   libucrtd:isctype.obj
 0001:0009e7b0       __chvalidator_l            1009f7b0 f   libucrtd:isctype.obj
 0001:0009e850       __isctype                  1009f850 f   libucrtd:isctype.obj
 0001:0009e8a0       __isctype_l                1009f8a0 f   libucrtd:isctype.obj
 0001:0009ea90       __isleadbyte_fast_internal 1009fa90 f i libucrtd:isctype.obj
 0001:0009eac0       ??$?B$$A6AHI@Z@__crt_fast_encoded_nullptr_t@@QBEP6AHI@ZXZ 1009fac0 f i libucrtd:new_handler.obj
 0001:0009eae0       ??$__crt_fast_decode_pointer@P6AHI@Z@@YAP6AHI@ZQ6AHI@Z@Z 1009fae0 f i libucrtd:new_handler.obj
 0001:0009eb20       ??$__crt_fast_encode_pointer@P6AHI@Z@@YAP6AHI@ZQ6AHI@Z@Z 1009fb20 f i libucrtd:new_handler.obj
 0001:0009eb60       ?_set_new_handler@@YAP6AHI@ZH@Z 1009fb60 f   libucrtd:new_handler.obj
 0001:0009ebd0       ?initialize@?$dual_state_global@P6AHI@Z@__crt_state_management@@QAEXQ6AHI@Z@Z 1009fbd0 f i libucrtd:new_handler.obj
 0001:0009ec20       ?value@?$dual_state_global@P6AHI@Z@__crt_state_management@@QAEAAP6AHI@ZXZ 1009fc20 f i libucrtd:new_handler.obj
 0001:0009ec40       ___acrt_initialize_new_handler 1009fc40 f   libucrtd:new_handler.obj
 0001:0009ec60       __callnewh                 1009fc60 f   libucrtd:new_handler.obj
 0001:0009ecc0       __query_new_handler        1009fcc0 f   libucrtd:new_handler.obj
 0001:0009ed80       __set_new_handler          1009fd80 f   libucrtd:new_handler.obj
 0001:0009ee70       __free_base                1009fe70 f   libucrtd:free_base.obj
 0001:0009eed0       __realloc_base             1009fed0 f   libucrtd:realloc_base.obj
 0001:0009ef90       ??$?RU__acrt_ptd@@@__crt_internal_free_policy@@QBEXQBU__acrt_ptd@@@Z 1009ff90 f i libucrtd:per_thread_data.obj
 0001:0009f690       ??0?$__crt_unique_heap_ptr@U__acrt_ptd@@U__crt_internal_free_policy@@@@QAE@QAU__acrt_ptd@@@Z 100a0690 f i libucrtd:per_thread_data.obj
 0001:0009f6b0       ??1?$__crt_unique_heap_ptr@U__acrt_ptd@@U__crt_internal_free_policy@@@@QAE@XZ 100a06b0 f i libucrtd:per_thread_data.obj
 0001:0009f6d0       ??B?$__crt_unique_heap_ptr@U__acrt_ptd@@U__crt_internal_free_policy@@@@QBE_NXZ 100a06d0 f i libucrtd:per_thread_data.obj
 0001:0009fad0       ?dangerous_get_state_array@?$dual_state_global@PAU__crt_locale_data@@@__crt_state_management@@QAEPAPAU__crt_locale_data@@XZ 100a0ad0 f i libucrtd:per_thread_data.obj
 0001:0009fcf0       ?detach@?$__crt_unique_heap_ptr@U__acrt_ptd@@U__crt_internal_free_policy@@@@QAEPAU__acrt_ptd@@XZ 100a0cf0 f i libucrtd:per_thread_data.obj
 0001:0009fd20       ?get@?$__crt_unique_heap_ptr@U__acrt_ptd@@U__crt_internal_free_policy@@@@QBEPAU__acrt_ptd@@XZ 100a0d20 f i libucrtd:per_thread_data.obj
 0001:0009ff10       ?is_valid@?$__crt_unique_heap_ptr@U__acrt_ptd@@U__crt_internal_free_policy@@@@QBE_NXZ 100a0f10 f i libucrtd:per_thread_data.obj
 0001:0009ff50       ?release@?$__crt_unique_heap_ptr@U__acrt_ptd@@U__crt_internal_free_policy@@@@QAEXXZ 100a0f50 f i libucrtd:per_thread_data.obj
 0001:000a0060       ?value@?$dual_state_global@PAU__crt_locale_data@@@__crt_state_management@@QAEAAPAU__crt_locale_data@@XZ 100a1060 f i libucrtd:per_thread_data.obj
 0001:000a0080       ___acrt_freeptd            100a1080 f   libucrtd:per_thread_data.obj
 0001:000a00c0       ___acrt_getptd             100a10c0 f   libucrtd:per_thread_data.obj
 0001:000a00f0       ___acrt_getptd_head        100a10f0 f   libucrtd:per_thread_data.obj
 0001:000a0120       ___acrt_getptd_noexit      100a1120 f   libucrtd:per_thread_data.obj
 0001:000a0130       ___acrt_getptd_noexit_explicit 100a1130 f   libucrtd:per_thread_data.obj
 0001:000a0150       ___acrt_initialize_ptd     100a1150 f   libucrtd:per_thread_data.obj
 0001:000a01a0       ___acrt_uninitialize_ptd   100a11a0 f   libucrtd:per_thread_data.obj
 0001:000a01d0       ___threadhandle            100a11d0 f   libucrtd:per_thread_data.obj
 0001:000a01e0       ___threadid                100a11e0 f   libucrtd:per_thread_data.obj
 0001:000a01f0       ___acrt_initialize_locks   100a11f0 f   libucrtd:locks.obj
 0001:000a0270       ___acrt_lock               100a1270 f   libucrtd:locks.obj
 0001:000a0290       ___acrt_uninitialize_locks 100a1290 f   libucrtd:locks.obj
 0001:000a02f0       ___acrt_unlock             100a12f0 f   libucrtd:locks.obj
 0001:000a0310       __lock_locales             100a1310 f   libucrtd:locks.obj
 0001:000a0330       __unlock_locales           100a1330 f   libucrtd:locks.obj
 0001:000a03c0       __expand                   100a13c0 f   libucrtd:expand.obj
 0001:000a03f0       __expand_base              100a13f0 f   libucrtd:expand.obj
 0001:000a0570       ?value@?$dual_state_global@PAU__crt_multibyte_data@@@__crt_state_management@@QAEAAPAU__crt_multibyte_data@@XZ 100a1570 f i libucrtd:locale_update.obj
 0001:000a0590       ?value_explicit@?$dual_state_global@PAU__crt_locale_data@@@__crt_state_management@@QAEAAPAU__crt_locale_data@@I@Z 100a1590 f i libucrtd:locale_update.obj
 0001:000a05b0       ?value_explicit@?$dual_state_global@PAU__crt_multibyte_data@@@__crt_state_management@@QAEAAPAU__crt_multibyte_data@@I@Z 100a15b0 f i libucrtd:locale_update.obj
 0001:000a05d0       ___acrt_should_sync_with_global_locale 100a15d0 f i libucrtd:locale_update.obj
 0001:000a0610       ___acrt_update_locale_info 100a1610 f   libucrtd:locale_update.obj
 0001:000a0660       ___acrt_update_locale_info_explicit 100a1660 f   libucrtd:locale_update.obj
 0001:000a06b0       ___acrt_update_multibyte_info 100a16b0 f   libucrtd:locale_update.obj
 0001:000a0700       ___acrt_update_multibyte_info_explicit 100a1700 f   libucrtd:locale_update.obj
 0001:000a0750       ?value@?$dual_state_global@J@__crt_state_management@@QAEAAJXZ 100a1750 f i libucrtd:new_mode.obj
 0001:000a0770       __query_new_mode           100a1770 f   libucrtd:new_mode.obj
 0001:000a0790       __set_new_mode             100a1790 f   libucrtd:new_mode.obj
 0001:000a0860       __CrtDefaultAllocHook      100a1860 f   libucrtd:debug_heap_hook.obj
 0001:000a0880       ??$?RU__crt_locale_data@@@__crt_internal_free_policy@@QBEXQBU__crt_locale_data@@@Z 100a1880 f i libucrtd:wsetlocale.obj
 0001:000a08b0       ??$?RU__crt_locale_pointers@@@__crt_internal_free_policy@@QBEXQBU__crt_locale_pointers@@@Z 100a18b0 f i libucrtd:wsetlocale.obj
 0001:000a08e0       ??$?RU__crt_multibyte_data@@@__crt_internal_free_policy@@QBEXQBU__crt_multibyte_data@@@Z 100a18e0 f i libucrtd:wsetlocale.obj
 0001:000a11b0       ??0?$__crt_unique_heap_ptr@U__crt_locale_data@@U__crt_internal_free_policy@@@@QAE@QAU__crt_locale_data@@@Z 100a21b0 f i libucrtd:wsetlocale.obj
 0001:000a11d0       ??0?$__crt_unique_heap_ptr@U__crt_locale_pointers@@U__crt_internal_free_policy@@@@QAE@QAU__crt_locale_pointers@@@Z 100a21d0 f i libucrtd:wsetlocale.obj
 0001:000a11f0       ??0?$__crt_unique_heap_ptr@U__crt_multibyte_data@@U__crt_internal_free_policy@@@@QAE@QAU__crt_multibyte_data@@@Z 100a21f0 f i libucrtd:wsetlocale.obj
 0001:000a1210       ??0_expandlocale_locale_name_cache@@QAE@QA_WIQAU__crt_qualified_locale_data@@@Z 100a2210 f i libucrtd:wsetlocale.obj
 0001:000a12a0       ??1?$__crt_unique_heap_ptr@U__crt_locale_data@@U__crt_internal_free_policy@@@@QAE@XZ 100a22a0 f i libucrtd:wsetlocale.obj
 0001:000a12c0       ??1?$__crt_unique_heap_ptr@U__crt_locale_pointers@@U__crt_internal_free_policy@@@@QAE@XZ 100a22c0 f i libucrtd:wsetlocale.obj
 0001:000a12e0       ??1?$__crt_unique_heap_ptr@U__crt_multibyte_data@@U__crt_internal_free_policy@@@@QAE@XZ 100a22e0 f i libucrtd:wsetlocale.obj
 0001:000a1300       ??1_expandlocale_locale_name_cache@@QAE@XZ 100a2300 f i libucrtd:wsetlocale.obj
 0001:000a1380       ??B?$__crt_unique_heap_ptr@U__crt_locale_data@@U__crt_internal_free_policy@@@@QBE_NXZ 100a2380 f i libucrtd:wsetlocale.obj
 0001:000a13a0       ??B?$__crt_unique_heap_ptr@U__crt_locale_pointers@@U__crt_internal_free_policy@@@@QBE_NXZ 100a23a0 f i libucrtd:wsetlocale.obj
 0001:000a13c0       ??B?$__crt_unique_heap_ptr@U__crt_multibyte_data@@U__crt_internal_free_policy@@@@QBE_NXZ 100a23c0 f i libucrtd:wsetlocale.obj
 0001:000a18d0       ?commit_locale_name@_expandlocale_locale_name_cache@@QAEXQB_WI@Z 100a28d0 f i libucrtd:wsetlocale.obj
 0001:000a1950       ?commit_locale_name_cache_already_updated@_expandlocale_locale_name_cache@@QAEXQB_WI@Z 100a2950 f i libucrtd:wsetlocale.obj
 0001:000a19c0       ?detach@?$__crt_unique_heap_ptr@U__crt_locale_data@@U__crt_internal_free_policy@@@@QAEPAU__crt_locale_data@@XZ 100a29c0 f i libucrtd:wsetlocale.obj
 0001:000a19f0       ?detach@?$__crt_unique_heap_ptr@U__crt_locale_pointers@@U__crt_internal_free_policy@@@@QAEPAU__crt_locale_pointers@@XZ 100a29f0 f i libucrtd:wsetlocale.obj
 0001:000a1a20       ?detach@?$__crt_unique_heap_ptr@U__crt_multibyte_data@@U__crt_internal_free_policy@@@@QAEPAU__crt_multibyte_data@@XZ 100a2a20 f i libucrtd:wsetlocale.obj
 0001:000a1a50       ?get@?$__crt_unique_heap_ptr@U__crt_locale_data@@U__crt_internal_free_policy@@@@QBEPAU__crt_locale_data@@XZ 100a2a50 f i libucrtd:wsetlocale.obj
 0001:000a1a70       ?get@?$__crt_unique_heap_ptr@U__crt_locale_pointers@@U__crt_internal_free_policy@@@@QBEPAU__crt_locale_pointers@@XZ 100a2a70 f i libucrtd:wsetlocale.obj
 0001:000a1a90       ?get@?$__crt_unique_heap_ptr@U__crt_multibyte_data@@U__crt_internal_free_policy@@@@QBEPAU__crt_multibyte_data@@XZ 100a2a90 f i libucrtd:wsetlocale.obj
 0001:000a1ab0       ?is_valid@?$__crt_unique_heap_ptr@U__crt_locale_data@@U__crt_internal_free_policy@@@@QBE_NXZ 100a2ab0 f i libucrtd:wsetlocale.obj
 0001:000a1af0       ?is_valid@?$__crt_unique_heap_ptr@U__crt_locale_pointers@@U__crt_internal_free_policy@@@@QBE_NXZ 100a2af0 f i libucrtd:wsetlocale.obj
 0001:000a1b30       ?is_valid@?$__crt_unique_heap_ptr@U__crt_multibyte_data@@U__crt_internal_free_policy@@@@QBE_NXZ 100a2b30 f i libucrtd:wsetlocale.obj
 0001:000a1b70       ?release@?$__crt_unique_heap_ptr@U__crt_locale_data@@U__crt_internal_free_policy@@@@QAEXXZ 100a2b70 f i libucrtd:wsetlocale.obj
 0001:000a1ba0       ?release@?$__crt_unique_heap_ptr@U__crt_locale_pointers@@U__crt_internal_free_policy@@@@QAEXXZ 100a2ba0 f i libucrtd:wsetlocale.obj
 0001:000a1bd0       ?release@?$__crt_unique_heap_ptr@U__crt_multibyte_data@@U__crt_internal_free_policy@@@@QAEXXZ 100a2bd0 f i libucrtd:wsetlocale.obj
 0001:000a1c00       ___acrt_copy_locale_name   100a2c00 f   libucrtd:wsetlocale.obj
 0001:000a1cd0       ___acrt_set_locale_changed 100a2cd0 f   libucrtd:wsetlocale.obj
 0001:000a1cf0       ___acrt_uninitialize_locale 100a2cf0 f   libucrtd:wsetlocale.obj
 0001:000a1d20       ___ascii_tolower           100a2d20 f i libucrtd:wsetlocale.obj
 0001:000a1d50       ___ascii_towlower          100a2d50 f i libucrtd:wsetlocale.obj
 0001:000a1d70       ___lc_lctowcs              100a2d70 f   libucrtd:wsetlocale.obj
 0001:000a1e50       ___lc_wcstolc              100a2e50 f   libucrtd:wsetlocale.obj
 0001:000a2110       __configthreadlocale       100a3110 f   libucrtd:wsetlocale.obj
 0001:000a22e0       __create_locale            100a32e0 f   libucrtd:wsetlocale.obj
 0001:000a2aa0       __free_locale              100a3aa0 f   libucrtd:wsetlocale.obj
 0001:000a2c20       __get_current_locale       100a3c20 f   libucrtd:wsetlocale.obj
 0001:000a2d30       __wcreate_locale           100a3d30 f   libucrtd:wsetlocale.obj
 0001:000a3010       __wcscats                  100a4010 f   libucrtd:wsetlocale.obj
 0001:000a30b0       __wsetlocale               100a40b0 f   libucrtd:wsetlocale.obj
 0001:000a4df0       ___p___mb_cur_max          100a5df0 f   libucrtd:nlsdata.obj
 0001:000a4e30       ___acrt_getheap            100a5e30 f   libucrtd:heap_handle.obj
 0001:000a4e80       ___acrt_initialize_heap    100a5e80 f   libucrtd:heap_handle.obj
 0001:000a4eb0       ___acrt_uninitialize_heap  100a5eb0 f   libucrtd:heap_handle.obj
 0001:000a4ed0       __get_heap_handle          100a5ed0 f   libucrtd:heap_handle.obj
 0001:000a4f20       ___acrt_app_verifier_enabled 100a5f20 f   libucrtd:peb_access.obj
 0001:000a4f60       ___acrt_is_secure_process  100a5f60 f   libucrtd:peb_access.obj
 0001:000a5390       ___acrt_get_begin_thread_init_policy 100a6390 f   libucrtd:win_policies.obj
 0001:000a53b0       ___acrt_get_developer_information_policy 100a63b0 f   libucrtd:win_policies.obj
 0001:000a53d0       ___acrt_get_process_end_policy 100a63d0 f   libucrtd:win_policies.obj
 0001:000a53f0       ___acrt_get_windowing_model_policy 100a63f0 f   libucrtd:win_policies.obj
 0001:000a5450       ??$__acrt_convert_wcs_mbs_cp@D_WV<lambda_62f6974d9771e494a5ea317cc32e971c>@@U__crt_win32_buffer_internal_dynamic_resizing@@@@YAHQBDAAV?$__crt_win32_buffer@_WU__crt_win32_buffer_internal_dynamic_resizing@@@@ABV<lambda_62f6974d9771e494a5ea317cc32e971c>@@I@Z 100a6450 f i libucrtd:argv_wildcards.obj
 0001:000a55f0       ??$__acrt_convert_wcs_mbs_cp@_WDV<lambda_28bda7af82a03b66c1cb3803a755f95d>@@U__crt_win32_buffer_internal_dynamic_resizing@@@@YAHQB_WAAV?$__crt_win32_buffer@DU__crt_win32_buffer_internal_dynamic_resizing@@@@ABV<lambda_28bda7af82a03b66c1cb3803a755f95d>@@I@Z 100a65f0 f i libucrtd:argv_wildcards.obj
 0001:000a5780       ??$__acrt_mbs_to_wcs_cp@U__crt_win32_buffer_internal_dynamic_resizing@@@@YAHQBDAAV?$__crt_win32_buffer@_WU__crt_win32_buffer_internal_dynamic_resizing@@@@I@Z 100a6780 f i libucrtd:argv_wildcards.obj
 0001:000a57b0       ??$__acrt_wcs_to_mbs_cp@U__crt_win32_buffer_internal_dynamic_resizing@@@@YAHQB_WAAV?$__crt_win32_buffer@DU__crt_win32_buffer_internal_dynamic_resizing@@@@I@Z 100a67b0 f i libucrtd:argv_wildcards.obj
 0001:000a6b60       ??$tcsncpy_s@AAPADIAAPADABI@?$__crt_char_traits@D@@SAHAAPAD$$QAI0ABI@Z 100a7b60 f i libucrtd:argv_wildcards.obj
 0001:000a6b90       ??$tcsncpy_s@AAPA_WIAAPA_WABI@?$__crt_char_traits@_W@@SAHAAPA_W$$QAI0ABI@Z 100a7b90 f i libucrtd:argv_wildcards.obj
 0001:000a6bc0       ??$tcsncpy_s@PADABIABQBDABI@?$__crt_char_traits@D@@SAH$$QAPADABIABQBD1@Z 100a7bc0 f i libucrtd:argv_wildcards.obj
 0001:000a6bf0       ??$tcsncpy_s@PADIABQBDABI@?$__crt_char_traits@D@@SAH$$QAPAD$$QAIABQBDABI@Z 100a7bf0 f i libucrtd:argv_wildcards.obj
 0001:000a6c20       ??$tcsncpy_s@PA_WABIABQB_WABI@?$__crt_char_traits@_W@@SAH$$QAPA_WABIABQB_W1@Z 100a7c20 f i libucrtd:argv_wildcards.obj
 0001:000a6c50       ??$tcsncpy_s@PA_WIABQB_WABI@?$__crt_char_traits@_W@@SAH$$QAPA_W$$QAIABQB_WABI@Z 100a7c50 f i libucrtd:argv_wildcards.obj
 0001:000a6c80       ??$tcspbrk@AAPADAAY02$$CBD@?$__crt_char_traits@D@@SAPADAAPADAAY02$$CBD@Z 100a7c80 f i libucrtd:argv_wildcards.obj
 0001:000a6ce0       ??$tcspbrk@AAPA_WAAY02$$CB_W@?$__crt_char_traits@_W@@SAPA_WAAPA_WAAY02$$CB_W@Z 100a7ce0 f i libucrtd:argv_wildcards.obj
 0001:000a6d40       ??0?$__crt_unique_handle_t@U__crt_findfile_traits@@@@QAE@QAX@Z 100a7d40 f i libucrtd:argv_wildcards.obj
 0001:000a6d60       ??0?$__crt_win32_buffer@DU__crt_win32_buffer_internal_dynamic_resizing@@@@QAE@XZ 100a7d60 f i libucrtd:argv_wildcards.obj
 0001:000a6dc0       ??0?$__crt_win32_buffer@_WU__crt_win32_buffer_internal_dynamic_resizing@@@@QAE@XZ 100a7dc0 f i libucrtd:argv_wildcards.obj
 0001:000a6ea0       ??1?$__crt_unique_handle_t@U__crt_findfile_traits@@@@QAE@XZ 100a7ea0 f i libucrtd:argv_wildcards.obj
 0001:000a6ec0       ??1?$__crt_win32_buffer@DU__crt_win32_buffer_internal_dynamic_resizing@@@@QAE@XZ 100a7ec0 f i libucrtd:argv_wildcards.obj
 0001:000a6f20       ??1?$__crt_win32_buffer@_WU__crt_win32_buffer_internal_dynamic_resizing@@@@QAE@XZ 100a7f20 f i libucrtd:argv_wildcards.obj
 0001:000a70a0       ??R<lambda_28bda7af82a03b66c1cb3803a755f95d>@@QBE@IQB_WQADI@Z 100a80a0 f i libucrtd:argv_wildcards.obj
 0001:000a7130       ??R<lambda_62f6974d9771e494a5ea317cc32e971c>@@QBE@IQBDQA_WI@Z 100a8130 f i libucrtd:argv_wildcards.obj
 0001:000a7240       ?__acrt_get_utf8_acp_compatibility_codepage@@YAIXZ 100a8240 f i libucrtd:argv_wildcards.obj
 0001:000a72f0       ?_deallocate@?$__crt_win32_buffer@DU__crt_win32_buffer_internal_dynamic_resizing@@@@AAEXXZ 100a82f0 f i libucrtd:argv_wildcards.obj
 0001:000a7350       ?_deallocate@?$__crt_win32_buffer@_WU__crt_win32_buffer_internal_dynamic_resizing@@@@AAEXXZ 100a8350 f i libucrtd:argv_wildcards.obj
 0001:000a73b0       ?allocate@?$__crt_win32_buffer@DU__crt_win32_buffer_internal_dynamic_resizing@@@@QAEHI@Z 100a83b0 f i libucrtd:argv_wildcards.obj
 0001:000a7430       ?allocate@?$__crt_win32_buffer@_WU__crt_win32_buffer_internal_dynamic_resizing@@@@QAEHI@Z 100a8430 f i libucrtd:argv_wildcards.obj
 0001:000a74c0       ?allocate@__crt_win32_buffer_internal_dynamic_resizing@@SAHQAPAXIABV__crt_win32_buffer_empty_debug_info@@@Z 100a84c0 f i libucrtd:argv_wildcards.obj
 0001:000a7630       ?capacity@?$__crt_win32_buffer@DU__crt_win32_buffer_internal_dynamic_resizing@@@@QBEIXZ 100a8630 f i libucrtd:argv_wildcards.obj
 0001:000a7650       ?capacity@?$__crt_win32_buffer@_WU__crt_win32_buffer_internal_dynamic_resizing@@@@QBEIXZ 100a8650 f i libucrtd:argv_wildcards.obj
 0001:000a7670       ?close@?$__crt_unique_handle_t@U__crt_findfile_traits@@@@QAEXXZ 100a8670 f i libucrtd:argv_wildcards.obj
 0001:000a76b0       ?close@__crt_findfile_traits@@SA_NPAX@Z 100a86b0 f i libucrtd:argv_wildcards.obj
 0001:000a76f0       ?data@?$__crt_win32_buffer@DU__crt_win32_buffer_internal_dynamic_resizing@@@@QAEPADXZ 100a86f0 f i libucrtd:argv_wildcards.obj
 0001:000a7710       ?data@?$__crt_win32_buffer@_WU__crt_win32_buffer_internal_dynamic_resizing@@@@QAEPA_WXZ 100a8710 f i libucrtd:argv_wildcards.obj
 0001:000a7730       ?deallocate@__crt_win32_buffer_internal_dynamic_resizing@@SAXQAXABV__crt_win32_buffer_empty_debug_info@@@Z 100a8730 f i libucrtd:argv_wildcards.obj
 0001:000a7750       ?debug_info@?$__crt_win32_buffer@DU__crt_win32_buffer_internal_dynamic_resizing@@@@QBEABV__crt_win32_buffer_empty_debug_info@@XZ 100a8750 f i libucrtd:argv_wildcards.obj
 0001:000a7770       ?debug_info@?$__crt_win32_buffer@_WU__crt_win32_buffer_internal_dynamic_resizing@@@@QBEABV__crt_win32_buffer_empty_debug_info@@XZ 100a8770 f i libucrtd:argv_wildcards.obj
 0001:000a7b30       ?get@?$__crt_unique_handle_t@U__crt_findfile_traits@@@@QBEPAXXZ 100a8b30 f i libucrtd:argv_wildcards.obj
 0001:000a7bb0       ?get_invalid_value@__crt_findfile_traits@@SAPAXXZ 100a8bb0 f i libucrtd:argv_wildcards.obj
 0001:000a7c50       ?set_to_nullptr@?$__crt_win32_buffer@DU__crt_win32_buffer_internal_dynamic_resizing@@@@QAEXXZ 100a8c50 f i libucrtd:argv_wildcards.obj
 0001:000a7c90       ?set_to_nullptr@?$__crt_win32_buffer@_WU__crt_win32_buffer_internal_dynamic_resizing@@@@QAEXXZ 100a8c90 f i libucrtd:argv_wildcards.obj
 0001:000a7cd0       ?size@?$__crt_win32_buffer@DU__crt_win32_buffer_internal_dynamic_resizing@@@@QAEXI@Z 100a8cd0 f i libucrtd:argv_wildcards.obj
 0001:000a7cf0       ?size@?$__crt_win32_buffer@_WU__crt_win32_buffer_internal_dynamic_resizing@@@@QAEXI@Z 100a8cf0 f i libucrtd:argv_wildcards.obj
 0001:000a7d70       ?strpbrk@@YAPADQADQBD@Z    100a8d70 f i libucrtd:argv_wildcards.obj
 0001:000a7d90       ?wcspbrk@@YAPA_WPA_WPB_W@Z 100a8d90 f i libucrtd:argv_wildcards.obj
 0001:000a7db0       ___acrt_expand_narrow_argv_wildcards 100a8db0 f   libucrtd:argv_wildcards.obj
 0001:000a7dd0       ___acrt_expand_wide_argv_wildcards 100a8dd0 f   libucrtd:argv_wildcards.obj
 0001:000a7df0       ??$__acrt_convert_wcs_mbs_cp@_WDV<lambda_0fec1a7b3f42a53036604e18c2d5e07e>@@U__crt_win32_buffer_no_resizing@@@@YAHQB_WAAV?$__crt_win32_buffer@DU__crt_win32_buffer_no_resizing@@@@ABV<lambda_0fec1a7b3f42a53036604e18c2d5e07e>@@I@Z 100a8df0 f i libucrtd:getmodulefilenamea.obj
 0001:000a7f80       ??$__acrt_wcs_to_mbs_cp@U__crt_win32_buffer_no_resizing@@@@YAHQB_WAAV?$__crt_win32_buffer@DU__crt_win32_buffer_no_resizing@@@@I@Z 100a8f80 f i libucrtd:getmodulefilenamea.obj
 0001:000a7fb0       ??0?$__crt_win32_buffer@DU__crt_win32_buffer_no_resizing@@@@QAE@QADI@Z 100a8fb0 f i libucrtd:getmodulefilenamea.obj
 0001:000a8010       ??1?$__crt_win32_buffer@DU__crt_win32_buffer_no_resizing@@@@QAE@XZ 100a9010 f i libucrtd:getmodulefilenamea.obj
 0001:000a8070       ??R<lambda_0fec1a7b3f42a53036604e18c2d5e07e>@@QBE@IQB_WQADI@Z 100a9070 f i libucrtd:getmodulefilenamea.obj
 0001:000a80b0       ?_deallocate@?$__crt_win32_buffer@DU__crt_win32_buffer_no_resizing@@@@AAEXXZ 100a90b0 f i libucrtd:getmodulefilenamea.obj
 0001:000a8110       ?allocate@?$__crt_win32_buffer@DU__crt_win32_buffer_no_resizing@@@@QAEHI@Z 100a9110 f i libucrtd:getmodulefilenamea.obj
 0001:000a8190       ?allocate@__crt_win32_buffer_no_resizing@@SAHQAPAXIABV__crt_win32_buffer_empty_debug_info@@@Z 100a9190 f i libucrtd:getmodulefilenamea.obj
 0001:000a81b0       ?capacity@?$__crt_win32_buffer@DU__crt_win32_buffer_no_resizing@@@@QBEIXZ 100a91b0 f i libucrtd:getmodulefilenamea.obj
 0001:000a81d0       ?data@?$__crt_win32_buffer@DU__crt_win32_buffer_no_resizing@@@@QAEPADXZ 100a91d0 f i libucrtd:getmodulefilenamea.obj
 0001:000a81f0       ?deallocate@__crt_win32_buffer_no_resizing@@SAXQAXABV__crt_win32_buffer_empty_debug_info@@@Z 100a91f0 f i libucrtd:getmodulefilenamea.obj
 0001:000a8200       ?debug_info@?$__crt_win32_buffer@DU__crt_win32_buffer_no_resizing@@@@QBEABV__crt_win32_buffer_empty_debug_info@@XZ 100a9200 f i libucrtd:getmodulefilenamea.obj
 0001:000a8220       ?set_to_nullptr@?$__crt_win32_buffer@DU__crt_win32_buffer_no_resizing@@@@QAEXXZ 100a9220 f i libucrtd:getmodulefilenamea.obj
 0001:000a8260       ?size@?$__crt_win32_buffer@DU__crt_win32_buffer_no_resizing@@@@QAEXI@Z 100a9260 f i libucrtd:getmodulefilenamea.obj
 0001:000a8280       ?size@?$__crt_win32_buffer@DU__crt_win32_buffer_no_resizing@@@@QBEIXZ 100a9280 f i libucrtd:getmodulefilenamea.obj
 0001:000a82a0       ___acrt_GetModuleFileNameA 100a92a0 f   libucrtd:getmodulefilenamea.obj
 0001:000a84c0       ??$initialize_from_array@$$BY10BAA@E@?$dual_state_global@PAE@__crt_state_management@@QAAXAAY10BAA@E@Z 100a94c0 f i libucrtd:mbctype.obj
 0001:000a8520       ??$initialize_from_array@$$BY10BAB@E@?$dual_state_global@PAE@__crt_state_management@@QAAXAAY10BAB@E@Z 100a9520 f i libucrtd:mbctype.obj
 0001:000a8860       ?dangerous_get_state_array@?$dual_state_global@PAE@__crt_state_management@@QAEPAPAEXZ 100a9860 f i libucrtd:mbctype.obj
 0001:000a8880       ?dangerous_get_state_array@?$dual_state_global@PAU__crt_multibyte_data@@@__crt_state_management@@QAEPAPAU__crt_multibyte_data@@XZ 100a9880 f i libucrtd:mbctype.obj
 0001:000a8990       ?initialize@?$dual_state_global@PAU__crt_multibyte_data@@@__crt_state_management@@QAEXQAU__crt_multibyte_data@@@Z 100a9990 f i libucrtd:mbctype.obj
 0001:000a9330       ?value@?$dual_state_global@PAE@__crt_state_management@@QAEAAPAEXZ 100aa330 f i libucrtd:mbctype.obj
 0001:000a9350       ___acrt_initialize_multibyte 100aa350 f   libucrtd:mbctype.obj
 0001:000a9420       ___acrt_update_thread_multibyte_data 100aa420 f   libucrtd:mbctype.obj
 0001:000a9460       ___p__mbcasemap            100aa460 f   libucrtd:mbctype.obj
 0001:000a9480       ___p__mbctype              100aa480 f   libucrtd:mbctype.obj
 0001:000a94a0       __getmbcp                  100aa4a0 f   libucrtd:mbctype.obj
 0001:000a9530       __setmbcp                  100aa530 f   libucrtd:mbctype.obj
 0001:000a9580       __setmbcp_nolock           100aa580 f   libucrtd:mbctype.obj
 0001:000a9c90       __ismbbalnum               100aac90 f   libucrtd:ismbbyte.obj
 0001:000a9cc0       __ismbbalnum_l             100aacc0 f   libucrtd:ismbbyte.obj
 0001:000a9cf0       __ismbbalpha               100aacf0 f   libucrtd:ismbbyte.obj
 0001:000a9d20       __ismbbalpha_l             100aad20 f   libucrtd:ismbbyte.obj
 0001:000a9d50       __ismbbblank               100aad50 f   libucrtd:ismbbyte.obj
 0001:000a9d90       __ismbbblank_l             100aad90 f   libucrtd:ismbbyte.obj
 0001:000a9dd0       __ismbbgraph               100aadd0 f   libucrtd:ismbbyte.obj
 0001:000a9e00       __ismbbgraph_l             100aae00 f   libucrtd:ismbbyte.obj
 0001:000a9e30       __ismbbkalnum              100aae30 f   libucrtd:ismbbyte.obj
 0001:000a9e50       __ismbbkalnum_l            100aae50 f   libucrtd:ismbbyte.obj
 0001:000a9e80       __ismbbkana                100aae80 f   libucrtd:ismbbyte.obj
 0001:000a9ea0       __ismbbkana_l              100aaea0 f   libucrtd:ismbbyte.obj
 0001:000a9f30       __ismbbkprint              100aaf30 f   libucrtd:ismbbyte.obj
 0001:000a9f50       __ismbbkprint_l            100aaf50 f   libucrtd:ismbbyte.obj
 0001:000a9f80       __ismbbkpunct              100aaf80 f   libucrtd:ismbbyte.obj
 0001:000a9fa0       __ismbbkpunct_l            100aafa0 f   libucrtd:ismbbyte.obj
 0001:000a9fd0       __ismbblead                100aafd0 f   libucrtd:ismbbyte.obj
 0001:000a9ff0       __ismbblead_l              100aaff0 f   libucrtd:ismbbyte.obj
 0001:000aa020       __ismbbprint               100ab020 f   libucrtd:ismbbyte.obj
 0001:000aa050       __ismbbprint_l             100ab050 f   libucrtd:ismbbyte.obj
 0001:000aa080       __ismbbpunct               100ab080 f   libucrtd:ismbbyte.obj
 0001:000aa0a0       __ismbbpunct_l             100ab0a0 f   libucrtd:ismbbyte.obj
 0001:000aa0d0       __ismbbtrail               100ab0d0 f   libucrtd:ismbbyte.obj
 0001:000aa0f0       __ismbbtrail_l             100ab0f0 f   libucrtd:ismbbyte.obj
 0001:000aa120       ___acrt_initialize_command_line 100ab120 f   libucrtd:argv_data.obj
 0001:000aa150       ___acrt_uninitialize_command_line 100ab150 f   libucrtd:argv_data.obj
 0001:000aa160       ___p___argc                100ab160 f   libucrtd:argv_data.obj
 0001:000aa170       ___p___argv                100ab170 f   libucrtd:argv_data.obj
 0001:000aa180       ___p___wargv               100ab180 f   libucrtd:argv_data.obj
 0001:000aa190       ___p__acmdln               100ab190 f   libucrtd:argv_data.obj
 0001:000aa1a0       ___p__pgmptr               100ab1a0 f   libucrtd:argv_data.obj
 0001:000aa1b0       ___p__wcmdln               100ab1b0 f   libucrtd:argv_data.obj
 0001:000aa1c0       ___p__wpgmptr              100ab1c0 f   libucrtd:argv_data.obj
 0001:000aa1d0       __get_pgmptr               100ab1d0 f   libucrtd:argv_data.obj
 0001:000aa330       __get_wpgmptr              100ab330 f   libucrtd:argv_data.obj
 0001:000aa870       _wcscpy_s                  100ab870 f   libucrtd:wcscpy_s.obj
 0001:000ab870       ??1?$__crt_simd_cleanup_guard@$00@@QAE@XZ 100ac870 f i libucrtd:strnlen.obj
 0001:000ab890       ??1?$__crt_simd_cleanup_guard@$0A@@@QAE@XZ 100ac890 f i libucrtd:strnlen.obj
 0001:000ab8a0       ?compare_equals@?$__crt_simd_traits@$00E@@SA?AT__m256i@@T2@0@Z 100ac8a0 f i libucrtd:strnlen.obj
 0001:000ab8f0       ?compare_equals@?$__crt_simd_traits@$00G@@SA?AT__m256i@@T2@0@Z 100ac8f0 f i libucrtd:strnlen.obj
 0001:000ab940       ?compare_equals@?$__crt_simd_traits@$0A@E@@SA?AT__m128i@@T2@0@Z 100ac940 f i libucrtd:strnlen.obj
 0001:000ab990       ?compare_equals@?$__crt_simd_traits@$0A@G@@SA?AT__m128i@@T2@0@Z 100ac990 f i libucrtd:strnlen.obj
 0001:000ab9e0       ?compute_byte_mask@?$__crt_simd_pack_traits@$00@@SAHT__m256i@@@Z 100ac9e0 f i libucrtd:strnlen.obj
 0001:000aba20       ?compute_byte_mask@?$__crt_simd_pack_traits@$0A@@@SAHT__m128i@@@Z 100aca20 f i libucrtd:strnlen.obj
 0001:000aba60       ?get_zero_pack@?$__crt_simd_pack_traits@$00@@SA?AT__m256i@@XZ 100aca60 f i libucrtd:strnlen.obj
 0001:000abaa0       ?get_zero_pack@?$__crt_simd_pack_traits@$0A@@@SA?AT__m128i@@XZ 100acaa0 f i libucrtd:strnlen.obj
 0001:000abae0       _strnlen                   100acae0 f   libucrtd:strnlen.obj
 0001:000abb00       _wcslen                    100acb00 f   libucrtd:strnlen.obj
 0001:000abb20       _wcsnlen                   100acb20 f   libucrtd:strnlen.obj
 0001:000abc80       ___acrt_MultiByteToWideChar 100acc80 f   libucrtd:multibytetowidechar.obj
 0001:000abe20       ___acrt_WideCharToMultiByte 100ace20 f   libucrtd:widechartomultibyte.obj
 0001:000ac090       ___dcrt_get_narrow_environment_from_os 100ad090 f   libucrtd:get_environment_from_os.obj
 0001:000ac260       ___dcrt_get_wide_environment_from_os 100ad260 f   libucrtd:get_environment_from_os.obj
 0001:000ad8a0       ??$get_or_create_environment_nolock@$$V@?$__crt_char_traits@D@@SAPAPADXZ 100ae8a0 f i libucrtd:setenv.obj
 0001:000ad8b0       ??$get_or_create_environment_nolock@$$V@?$__crt_char_traits@_W@@SAPAPA_WXZ 100ae8b0 f i libucrtd:setenv.obj
 0001:000ad8c0       ??$set_environment_variable@ABQADQAD@?$__crt_char_traits@D@@SAHABQAD$$QBQAD@Z 100ae8c0 f i libucrtd:setenv.obj
 0001:000ad8f0       ??$set_environment_variable@ABQA_WQA_W@?$__crt_char_traits@_W@@SAHABQA_W$$QBQA_W@Z 100ae8f0 f i libucrtd:setenv.obj
 0001:000ad910       ??$tcschr@ABQADD@?$__crt_char_traits@D@@SAPADABQAD$$QAD@Z 100ae910 f i libucrtd:setenv.obj
 0001:000ad970       ??$tcschr@ABQA_WD@?$__crt_char_traits@_W@@SAPA_WABQA_W$$QAD@Z 100ae970 f i libucrtd:setenv.obj
 0001:000ad9e0       ??$tcscpy_s@AAPADABIAAPAD@?$__crt_char_traits@D@@SAHAAPADABI0@Z 100ae9e0 f i libucrtd:setenv.obj
 0001:000ada10       ??$tcscpy_s@AAPA_WABIAAPA_W@?$__crt_char_traits@_W@@SAHAAPA_WABI0@Z 100aea10 f i libucrtd:setenv.obj
 0001:000ada40       ??$tcscpy_s@ABQADABIABQAD@?$__crt_char_traits@D@@SAHABQADABI0@Z 100aea40 f i libucrtd:setenv.obj
 0001:000ada70       ??$tcscpy_s@ABQA_WABIABQA_W@?$__crt_char_traits@_W@@SAHABQA_WABI0@Z 100aea70 f i libucrtd:setenv.obj
 0001:000adaa0       ??$tcslen@ABQAD@?$__crt_char_traits@D@@SAIABQAD@Z 100aeaa0 f i libucrtd:setenv.obj
 0001:000adac0       ??$tcslen@ABQA_W@?$__crt_char_traits@_W@@SAIABQA_W@Z 100aeac0 f i libucrtd:setenv.obj
 0001:000adae0       ??$tcsnicoll@ABQBDAAPADABI@?$__crt_char_traits@D@@SAHABQBDAAPADABI@Z 100aeae0 f i libucrtd:setenv.obj
 0001:000adb10       ??$tcsnicoll@ABQB_WAAPA_WABI@?$__crt_char_traits@_W@@SAHABQB_WAAPA_WABI@Z 100aeb10 f i libucrtd:setenv.obj
 0001:000adb40       ??$tcsnlen@PADH@?$__crt_char_traits@D@@SAI$$QAPAD$$QAH@Z 100aeb40 f i libucrtd:setenv.obj
 0001:000adb70       ??$tcsnlen@PA_WH@?$__crt_char_traits@_W@@SAI$$QAPA_W$$QAH@Z 100aeb70 f i libucrtd:setenv.obj
 0001:000adc40       ?strchr@@YAPADQADH@Z       100aec40 f i libucrtd:setenv.obj
 0001:000adc60       ?wcschr@@YAPA_WPA_W_W@Z    100aec60 f i libucrtd:setenv.obj
 0001:000adc80       ___dcrt_set_variable_in_narrow_environment_nolock 100aec80 f   libucrtd:setenv.obj
 0001:000adca0       ___dcrt_set_variable_in_wide_environment_nolock 100aeca0 f   libucrtd:setenv.obj
 0001:000adce0       ??$?B$$A6GHPA_WKJ@Z@__crt_fast_encoded_nullptr_t@@QBEP6GHPA_WKJ@ZXZ 100aece0 f i libucrtd:winapi_thunks.obj
 0001:000ade40       ??$__crt_fast_decode_pointer@P6GHPA_WKJ@Z@@YAP6GHPA_WKJ@ZQ6GH0KJ@Z@Z 100aee40 f i libucrtd:winapi_thunks.obj
 0001:000ade80       ??$__crt_fast_decode_pointer@PAX@@YAPAXQAX@Z 100aee80 f i libucrtd:winapi_thunks.obj
 0001:000adec0       ??$__crt_fast_encode_pointer@P6GHPA_WKJ@Z@@YAP6GHPA_WKJ@ZQ6GH0KJ@Z@Z 100aeec0 f i libucrtd:winapi_thunks.obj
 0001:000aebb0       _GetCurrentThreadEffectiveToken 100afbb0 f i libucrtd:winapi_thunks.obj
 0001:000aebc0       ___acrt_AppPolicyGetProcessTerminationMethodInternal@4 100afbc0 f   libucrtd:winapi_thunks.obj
 0001:000aec20       ___acrt_AppPolicyGetShowDeveloperDiagnosticInternal@4 100afc20 f   libucrtd:winapi_thunks.obj
 0001:000aec80       ___acrt_AppPolicyGetThreadInitializationTypeInternal@4 100afc80 f   libucrtd:winapi_thunks.obj
 0001:000aece0       ___acrt_AppPolicyGetWindowingModelInternal@4 100afce0 f   libucrtd:winapi_thunks.obj
 0001:000aed40       ___acrt_AreFileApisANSI@0  100afd40 f   libucrtd:winapi_thunks.obj
 0001:000aed80       ___acrt_CompareStringEx@36 100afd80 f   libucrtd:winapi_thunks.obj
 0001:000aee40       ___acrt_EnumSystemLocalesEx@16 100afe40 f   libucrtd:winapi_thunks.obj
 0001:000aeec0       ___acrt_FlsAlloc@4         100afec0 f   libucrtd:winapi_thunks.obj
 0001:000aef10       ___acrt_FlsFree@4          100aff10 f   libucrtd:winapi_thunks.obj
 0001:000aef70       ___acrt_FlsGetValue@4      100aff70 f   libucrtd:winapi_thunks.obj
 0001:000aefd0       ___acrt_FlsSetValue@8      100affd0 f   libucrtd:winapi_thunks.obj
 0001:000af030       ___acrt_GetDateFormatEx@28 100b0030 f   libucrtd:winapi_thunks.obj
 0001:000af0d0       ___acrt_GetEnabledXStateFeatures@0 100b00d0 f   libucrtd:winapi_thunks.obj
 0001:000af110       ___acrt_GetLocaleInfoEx@16 100b0110 f   libucrtd:winapi_thunks.obj
 0001:000af190       ___acrt_GetSystemTimePreciseAsFileTime@4 100b0190 f   libucrtd:winapi_thunks.obj
 0001:000af1f0       ___acrt_GetTempPath2W@8    100b01f0 f   libucrtd:winapi_thunks.obj
 0001:000af250       ___acrt_GetTimeFormatEx@24 100b0250 f   libucrtd:winapi_thunks.obj
 0001:000af2f0       ___acrt_GetUserDefaultLocaleName@8 100b02f0 f   libucrtd:winapi_thunks.obj
 0001:000af360       ___acrt_GetXStateFeaturesMask@8 100b0360 f   libucrtd:winapi_thunks.obj
 0001:000af3c0       ___acrt_InitializeCriticalSectionEx@12 100b03c0 f   libucrtd:winapi_thunks.obj
 0001:000af430       ___acrt_IsValidLocaleName@4 100b0430 f   libucrtd:winapi_thunks.obj
 0001:000af4a0       ___acrt_LCIDToLocaleName@16 100b04a0 f   libucrtd:winapi_thunks.obj
 0001:000af510       ___acrt_LCMapStringEx@36   100b0510 f   libucrtd:winapi_thunks.obj
 0001:000af5b0       ___acrt_LocaleNameToLCID@8 100b05b0 f   libucrtd:winapi_thunks.obj
 0001:000af610       ___acrt_LocateXStateFeature@12 100b0610 f   libucrtd:winapi_thunks.obj
 0001:000af670       ___acrt_MessageBoxA@16     100b0670 f   libucrtd:winapi_thunks.obj
 0001:000af6d0       ___acrt_MessageBoxW@16     100b06d0 f   libucrtd:winapi_thunks.obj
 0001:000af730       ___acrt_RoInitialize@4     100b0730 f   libucrtd:winapi_thunks.obj
 0001:000af780       ___acrt_RoUninitialize@0   100b0780 f   libucrtd:winapi_thunks.obj
 0001:000af7c0       ___acrt_RtlGenRandom@8     100b07c0 f   libucrtd:winapi_thunks.obj
 0001:000af820       ___acrt_SetThreadStackGuarantee@4 100b0820 f   libucrtd:winapi_thunks.obj
 0001:000af870       ___acrt_can_show_message_box 100b0870 f   libucrtd:winapi_thunks.obj
 0001:000af8b0       ___acrt_can_use_vista_locale_apis 100b08b0 f   libucrtd:winapi_thunks.obj
 0001:000af8e0       ___acrt_can_use_xstate_apis 100b08e0 f   libucrtd:winapi_thunks.obj
 0001:000af910       ___acrt_eagerly_load_locale_apis 100b0910 f   libucrtd:winapi_thunks.obj
 0001:000af960       ___acrt_get_parent_window  100b0960 f   libucrtd:winapi_thunks.obj
 0001:000af9f0       ___acrt_initialize_winapi_thunks 100b09f0 f   libucrtd:winapi_thunks.obj
 0001:000afa70       ___acrt_is_interactive     100b0a70 f   libucrtd:winapi_thunks.obj
 0001:000afb50       ___acrt_uninitialize_winapi_thunks 100b0b50 f   libucrtd:winapi_thunks.obj
 0001:000aff50       ___acrt_initialize_lowio   100b0f50 f   libucrtd:ioinit.obj
 0001:000b0010       ___acrt_uninitialize_lowio 100b1010 f   libucrtd:ioinit.obj
 0001:000b0080       ___acrt_execute_initializers 100b1080 f   libucrtd:shared_initialization.obj
 0001:000b0170       ___acrt_execute_uninitializers 100b1170 f   libucrtd:shared_initialization.obj
 0001:000b01f0       ??$?B$$A6AXH@Z@__crt_fast_encoded_nullptr_t@@QBEP6AXH@ZXZ 100b11f0 f i libucrtd:signal.obj
 0001:000b0350       ??$__crt_fast_decode_pointer@P6AXH@Z@@YAP6AXH@ZQ6AXH@Z@Z 100b1350 f i libucrtd:signal.obj
 0001:000b0390       ??$__crt_fast_encode_pointer@P6AXH@Z@@YAP6AXH@ZQ6AXH@Z@Z 100b1390 f i libucrtd:signal.obj
 0001:000b0710       ?initialize@?$dual_state_global@P6AXH@Z@__crt_state_management@@QAEXQ6AXH@Z@Z 100b1710 f i libucrtd:signal.obj
 0001:000b08b0       ?value@?$dual_state_global@P6AXH@Z@__crt_state_management@@QAEAAP6AXH@ZXZ 100b18b0 f i libucrtd:signal.obj
 0001:000b08d0       ___acrt_get_sigabrt_handler 100b18d0 f   libucrtd:signal.obj
 0001:000b0900       ___acrt_initialize_signal_handlers 100b1900 f   libucrtd:signal.obj
 0001:000b0950       ___fpecode                 100b1950 f   libucrtd:signal.obj
 0001:000b0970       ___pxcptinfoptrs           100b1970 f   libucrtd:signal.obj
 0001:000b0990       _raise                     100b1990 f   libucrtd:signal.obj
 0001:000b0e60       _signal                    100b1e60 f   libucrtd:signal.obj
 0001:000b1190       ?has_any_buffer@__crt_stdio_stream@@QBE_NXZ 100b2190 f i libucrtd:_sftbuf.obj
