 PhysX3CookingDEBUG_x86

 Timestamp is 64ede3c6 (Tue Aug 29 13:25:42 2023)

 Preferred load address is 10000000

 Start         Length     Name                   Class
 0001:00000000 0000b470H .text$di                CODE
 0001:0000b470 000e29c0H .text$mn                CODE
 0001:000ede30 000021ebH .text$x                 CODE
 0002:00000000 00000104H .CRT$XCA                DATA
 0002:00000104 00000158H .CRT$XCU                DATA
 0002:0000025c 00000104H .CRT$XCZ                DATA
 0002:00000360 00000104H .CRT$XIA                DATA
 0002:00000464 00000110H .CRT$XIC                DATA
 0002:00000574 00000104H .CRT$XIZ                DATA
 0002:00000678 00000104H .CRT$XPA                DATA
 0002:0000077c 0000010cH .CRT$XPX                DATA
 0002:00000888 00000104H .CRT$XPXA               DATA
 0002:0000098c 00000104H .CRT$XPZ                DATA
 0002:00000a90 00000104H .CRT$XTA                DATA
 0002:00000b94 0000010cH .CRT$XTZ                DATA
 0002:00000ca0 0002aba0H .rdata                  DATA
 0002:0002b840 00000104H .rdata$CastGuardVftablesA DATA
 0002:0002b944 00000104H .rdata$CastGuardVftablesC DATA
 0002:0002ba48 00000504H .rdata$r                DATA
 0002:0002bf4c 000002c4H .rdata$sxdata           DATA
 0002:0002c210 0000019cH .rdata$zzzdbg           DATA
 0002:0002c3ac 00000104H .rtc$IAA                DATA
 0002:0002c4b0 00000104H .rtc$IZZ                DATA
 0002:0002c5b4 00000104H .rtc$TAA                DATA
 0002:0002c6b8 00000108H .rtc$TZZ                DATA
 0002:0002c7c0 00001d60H .xdata$x                DATA
 0002:0002e520 000001a0H .edata                  DATA
 0003:00000000 00000c5cH .data                   DATA
 0003:00000c5c 00000424H .data$r                 DATA
 0003:00001080 000001e0H .data$rs                DATA
 0003:00001260 000019b8H .bss                    DATA
 0004:00000000 000001d4H .idata$5                DATA
 0004:000001d4 00000014H .idata$2                DATA
 0004:000001e8 00000014H .idata$3                DATA
 0004:000001fc 000001d4H .idata$4                DATA
 0004:000003d0 00000835H .idata$6                DATA
 0005:00000000 00000020H .didat$2                DATA
 0005:00000020 00000020H .didat$3                DATA
 0005:00000040 00000234H .didat$4                DATA
 0005:00000274 00000234H .didat$5                DATA
 0005:000004a8 000018acH .didat$6                DATA
 0005:00001d54 000002e4H .didat$7                DATA
 0006:00000000 00000109H .00cfg                  DATA
 0007:00000000 000001c0H .rsrc$01                DATA
 0007:000001c0 000006a9H .rsrc$02                DATA

  Address         Publics by Value              Rva+Base       Lib:Object

 0000:00000000       ___hybrid_code_map_count   00000000     <absolute>
 0000:00000000       ___x64_code_ranges_to_entry_points 00000000     <absolute>
 0000:00000000       ___volatile_metadata       00000000     <absolute>
 0000:00000000       ___guard_fids_count        00000000     <absolute>
 0000:00000000       ___x64_code_ranges_to_entry_points_count 00000000     <absolute>
 0000:00000000       ___arm64x_redirection_metadata 00000000     <absolute>
 0000:00000000       ___dynamic_value_reloc_table 00000000     <absolute>
 0000:00000000       ___guard_longjmp_count     00000000     <absolute>
 0000:00000000       ___arm64x_extra_rfe_table_size 00000000     <absolute>
 0000:00000000       ___enclave_config          00000000     <absolute>
 0000:00000000       ___hybrid_auxiliary_iat    00000000     <absolute>
 0000:00000000       ___guard_longjmp_table     00000000     <absolute>
 0000:00000000       ___guard_eh_cont_count     00000000     <absolute>
 0000:00000000       ___guard_iat_count         00000000     <absolute>
 0000:00000000       ___hybrid_code_map         00000000     <absolute>
 0000:00000000       ___AbsoluteZero            00000000     <absolute>
 0000:00000000       ___arm64x_redirection_metadata_count 00000000     <absolute>
 0000:00000000       ___guard_fids_table        00000000     <absolute>
 0000:00000000       ___guard_eh_cont_table     00000000     <absolute>
 0000:00000000       ___arm64x_native_entrypoint 00000000     <absolute>
 0000:00000000       ___guard_iat_table         00000000     <absolute>
 0000:00000000       ___hybrid_auxiliary_iat_copy 00000000     <absolute>
 0000:00000000       __except_list              00000000     <absolute>
 0000:00000000       ___guard_check_icall_a64n_fptr 00000000     <absolute>
 0000:00000000       ___arm64x_extra_rfe_table  00000000     <absolute>
 0000:0000005e       ___safe_se_handler_count   0000005e     <absolute>
 0000:00000100       ___guard_flags             00000100     <absolute>
 0000:00000000       ___ImageBase               10000000     <linker-defined>
 0001:0000b470       _PxSetPhysXCookingDelayLoadHook 1000c470 f   WindowsCookingDelayLoadHook.obj
 0001:0000b480       ?delayHook@@YGP6GHXZIPAUDelayLoadInfo@@@Z 1000c480 f   WindowsCookingDelayLoadHook.obj
 0001:0000b500       ?loadLibrary@shdfnd@physx@@YGPAUHINSTANCE__@@PBD@Z 1000c500 f i WindowsCookingDelayLoadHook.obj
 0001:0000b520       ?physXCommonDliNotePreLoadLibrary@shdfnd@physx@@YGP6GHXZPBDPBVPxDelayLoadHook@2@@Z 1000c520 f i WindowsCookingDelayLoadHook.obj
 0001:0000b9a0       ?strstr@@YAPADQADQBD@Z     1000c9a0 f i WindowsCookingDelayLoadHook.obj
 0001:0000b9c0       ?saveHeightField@physx@@YA_NABVHeightField@Gu@1@AAVPxOutputStream@1@_N@Z 1000c9c0 f   HeightFieldCooking.obj
 0001:0000be00       ??B?$PxFlags@W4Enum@PxHeightFieldFlag@physx@@G@physx@@QBEGXZ 1000ce00 f i HeightFieldCooking.obj
 0001:0000be20       ?__empty_global_delete@@YAXPAX@Z 1000ce20 f i HeightFieldCooking.obj
 0001:0000be30       ?__global_array_delete@@YAXPAXI@Z 1000ce30 f i HeightFieldCooking.obj
 0001:0000be30       ?__empty_global_delete@@YAXPAXI@Z 1000ce30 f i HeightFieldCooking.obj
 0001:0000be30       ?__global_delete@@YAXPAXI@Z 1000ce30 f i HeightFieldCooking.obj
 0001:0000be40       ?__global_delete@@YAXPAXIW4align_val_t@std@@@Z 1000ce40 f i HeightFieldCooking.obj
 0001:0000be40       ?__empty_global_delete@@YAXPAXIW4align_val_t@std@@@Z 1000ce40 f i HeightFieldCooking.obj
 0001:0000be50       ?__empty_global_delete@@YAXPAXW4align_val_t@std@@@Z 1000ce50 f i HeightFieldCooking.obj
 0001:0000be60       ?getData@HeightField@Gu@physx@@QBEABUHeightFieldData@23@XZ 1000ce60 f i HeightFieldCooking.obj
 0001:0000be80       ?buildFromTriangles@RTreeCooker@physx@@SAXAAURTree@Gu@2@PBVPxVec3@2@IPBGPBIIAAV?$Array@IVNamedAllocator@shdfnd@physx@@@shdfnd@2@PAURemapCallback@12@MW4Enum@PxMeshCookingHint@2@@Z 1000ce80 f   RTreeCooking.obj
 0001:0000d3d0       ??$PX_UNUSED@I@@YAXABI@Z   1000e3d0 f i RTreeCooking.obj
 0001:0000d3e0       ??$PX_UNUSED@M@@YAXABM@Z   1000e3e0 f i RTreeCooking.obj
 0001:0000d3f0       ??$PX_UNUSED@PAURTreeNodeNQ@physx@@@@YAXABQAURTreeNodeNQ@physx@@@Z 1000e3f0 f i RTreeCooking.obj
 0001:0000d400       ??$PX_UNUSED@URTreeNodeNQ@physx@@@@YAXABURTreeNodeNQ@physx@@@Z 1000e400 f i RTreeCooking.obj
 0001:0000d410       ??$PxMax@H@physx@@YAHHH@Z  1000e410 f i RTreeCooking.obj
 0001:0000d440       ??$PxMax@I@physx@@YAIII@Z  1000e440 f i RTreeCooking.obj
 0001:0000d470       ??$PxMax@M@physx@@YAMMM@Z  1000e470 f i RTreeCooking.obj
 0001:0000d4a0       ??$PxMin@I@physx@@YAIII@Z  1000e4a0 f i RTreeCooking.obj
 0001:0000d4d0       ??$PxMin@M@physx@@YAMMM@Z  1000e4d0 f i RTreeCooking.obj
 0001:0000d500       ??$median3@I$$CBU?$Less@I@shdfnd@physx@@@internal@shdfnd@physx@@YAXPAIHHABU?$Less@I@12@@Z 1000e500 f i RTreeCooking.obj
 0001:0000d630       ??$median3@I$$CBUSortBoundsPredicate@physx@@@internal@shdfnd@physx@@YAXPAIHHABUSortBoundsPredicate@2@@Z 1000e630 f i RTreeCooking.obj
 0001:0000d760       ??$partition@I$$CBU?$Less@I@shdfnd@physx@@@internal@shdfnd@physx@@YAHPAIHHABU?$Less@I@12@@Z 1000e760 f i RTreeCooking.obj
 0001:0000d940       ??$partition@I$$CBUSortBoundsPredicate@physx@@@internal@shdfnd@physx@@YAHPAIHHABUSortBoundsPredicate@2@@Z 1000e940 f i RTreeCooking.obj
 0001:0000db20       ??$partition@UBoundsLTE@physx@@@quickSelect@physx@@YAIPIAIIIIABUBoundsLTE@1@@Z 1000eb20 f i RTreeCooking.obj
 0001:0000ddc0       ??$quickSelectFirstK@UBoundsLTE@physx@@@quickSelect@physx@@YAXPIAIIIIABUBoundsLTE@1@@Z 1000edc0 f i RTreeCooking.obj
 0001:0000df00       ??$smallSort@I$$CBU?$Less@I@shdfnd@physx@@@internal@shdfnd@physx@@YAXPAIHHABU?$Less@I@12@@Z 1000ef00 f i RTreeCooking.obj
 0001:0000dfc0       ??$smallSort@I$$CBUSortBoundsPredicate@physx@@@internal@shdfnd@physx@@YAXPAIHHABUSortBoundsPredicate@2@@Z 1000efc0 f i RTreeCooking.obj
 0001:0000e080       ??$sort@I@shdfnd@physx@@YAXPAII@Z 1000f080 f i RTreeCooking.obj
 0001:0000e0c0       ??$sort@IU?$Less@I@shdfnd@physx@@VNamedAllocator@23@@shdfnd@physx@@YAXPAIIABU?$Less@I@01@ABVNamedAllocator@01@I@Z 1000f0c0 f i RTreeCooking.obj
 0001:0000e3a0       ??$sort@IUSortBoundsPredicate@physx@@@shdfnd@physx@@YAXPAIIABUSortBoundsPredicate@1@@Z 1000f3a0 f i RTreeCooking.obj
 0001:0000e3e0       ??$sort@IUSortBoundsPredicate@physx@@VNamedAllocator@shdfnd@2@@shdfnd@physx@@YAXPAIIABUSortBoundsPredicate@1@ABVNamedAllocator@01@I@Z 1000f3e0 f i RTreeCooking.obj
 0001:0000e6c0       ??$swap@I@shdfnd@physx@@YAXAAI0@Z 1000f6c0 f i RTreeCooking.obj
 0001:0000e6f0       ??0?$AlignedAllocator@$0IA@VAllocator@shdfnd@physx@@@shdfnd@physx@@QAE@ABVAllocator@12@@Z 1000f6f0 f i RTreeCooking.obj
 0001:0000e710       ??0?$Array@IVNamedAllocator@shdfnd@physx@@@shdfnd@physx@@QAE@IABIABVNamedAllocator@12@@Z 1000f710 f i RTreeCooking.obj
 0001:0000e770       ??0?$Array@UInterval@physx@@V?$InlineAllocator@$0CA@VNamedAllocator@shdfnd@physx@@@shdfnd@2@@shdfnd@physx@@QAE@ABV?$InlineAllocator@$0CA@VNamedAllocator@shdfnd@physx@@@12@@Z 1000f770 f i RTreeCooking.obj
 0001:0000e7c0       ??0?$Array@UPxBounds3V@physx@@VNamedAllocator@shdfnd@2@@shdfnd@physx@@QAE@ABVNamedAllocator@12@@Z 1000f7c0 f i RTreeCooking.obj
 0001:0000e810       ??0?$Array@URTreeNodeNQ@physx@@VNamedAllocator@shdfnd@2@@shdfnd@physx@@QAE@ABVNamedAllocator@12@@Z 1000f810 f i RTreeCooking.obj
 0001:0000e860       ??0?$Array@URTreeNodeQ@Gu@physx@@VNamedAllocator@shdfnd@3@@shdfnd@physx@@QAE@ABVNamedAllocator@12@@Z 1000f860 f i RTreeCooking.obj
 0001:0000e8b0       ??0?$Array@VPxVec3@physx@@VNamedAllocator@shdfnd@2@@shdfnd@physx@@QAE@ABVNamedAllocator@12@@Z 1000f8b0 f i RTreeCooking.obj
 0001:0000e900       ??0?$InlineAllocator@$0CA@VNamedAllocator@shdfnd@physx@@@shdfnd@physx@@QAE@ABV012@@Z 1000f900 f i RTreeCooking.obj
 0001:0000e930       ??0?$InlineAllocator@$0CA@VNamedAllocator@shdfnd@physx@@@shdfnd@physx@@QAE@ABVNamedAllocator@12@@Z 1000f930 f i RTreeCooking.obj
 0001:0000e960       ??0?$InlineArray@UInterval@physx@@$03VNamedAllocator@shdfnd@2@@shdfnd@physx@@QAE@ABVNamedAllocator@12@@Z 1000f960 f i RTreeCooking.obj
 0001:0000e9c0       ??0?$ScopedPointer@HVTempAllocator@shdfnd@physx@@@shdfnd@physx@@QAE@XZ 1000f9c0 f i RTreeCooking.obj
 0001:0000e9e0       ??0?$Stack@VNamedAllocator@shdfnd@physx@@@internal@shdfnd@physx@@QAE@PAHIABVNamedAllocator@23@@Z 1000f9e0 f i RTreeCooking.obj
 0001:0000ea40       ??0BoundsLTE@physx@@QAE@IPBVPxVec3@1@@Z 1000fa40 f i RTreeCooking.obj
 0001:0000ea70       ??0Interval@physx@@QAE@II@Z 1000fa70 f i RTreeCooking.obj
 0001:0000eaa0       ??0PxBounds3@physx@@QAE@ABV01@@Z 1000faa0 f i RTreeCooking.obj
 0001:0000eaf0       ??0PxBounds3@physx@@QAE@ABVPxVec3@1@0@Z 1000faf0 f i RTreeCooking.obj
 0001:0000eb40       ??0PxBounds3V@physx@@QAE@AAT__m128@@0@Z 1000fb40 f i RTreeCooking.obj
 0001:0000eb80       ??0PxBounds3V@physx@@QAE@UU@01@@Z 1000fb80 f i RTreeCooking.obj
 0001:0000eba0       ??0PxVec3@physx@@QAE@ABV01@@Z 1000fba0 f i RTreeCooking.obj
 0001:0000ebe0       ??0PxVec3@physx@@QAE@M@Z   1000fbe0 f i RTreeCooking.obj
 0001:0000ec30       ??0PxVec3@physx@@QAE@MMM@Z 1000fc30 f i RTreeCooking.obj
 0001:0000ec80       ??0PxVec4@physx@@QAE@ABVPxVec3@1@M@Z 1000fc80 f i RTreeCooking.obj
 0001:0000ecd0       ??0PxVec4@physx@@QAE@M@Z   1000fcd0 f i RTreeCooking.obj
 0001:0000ed30       ??0PxVec4@physx@@QAE@MMMM@Z 1000fd30 f i RTreeCooking.obj
 0001:0000ed90       ??0RTreeNodeNQ@physx@@QAE@ABU01@@Z 1000fd90 f i RTreeCooking.obj
 0001:0000ede0       ??0RTreeNodeNQ@physx@@QAE@XZ 1000fde0 f i RTreeCooking.obj
 0001:0000ee20       ??0SortBoundsPredicate@physx@@QAE@IPBUPxBounds3V@1@@Z 1000fe20 f i RTreeCooking.obj
 0001:0000ee50       ??0SubSortQuick@physx@@QAE@PAIPBUPxBounds3V@1@IM@Z 1000fe50 f i RTreeCooking.obj
 0001:0000efd0       ??0SubSortSAH@physx@@QAE@PAIPBUPxBounds3V@1@IPBI22222M@Z 1000ffd0 f i RTreeCooking.obj
 0001:0000f170       ??1?$Array@IVNamedAllocator@shdfnd@physx@@@shdfnd@physx@@QAE@XZ 10010170 f i RTreeCooking.obj
 0001:0000f1e0       ??1?$Array@UInterval@physx@@V?$InlineAllocator@$0CA@VNamedAllocator@shdfnd@physx@@@shdfnd@2@@shdfnd@physx@@QAE@XZ 100101e0 f i RTreeCooking.obj
 0001:0000f250       ??1?$Array@UPxBounds3V@physx@@VNamedAllocator@shdfnd@2@@shdfnd@physx@@QAE@XZ 10010250 f i RTreeCooking.obj
 0001:0000f2c0       ??1?$Array@URTreeNodeNQ@physx@@VNamedAllocator@shdfnd@2@@shdfnd@physx@@QAE@XZ 100102c0 f i RTreeCooking.obj
 0001:0000f330       ??1?$Array@URTreeNodeQ@Gu@physx@@VNamedAllocator@shdfnd@3@@shdfnd@physx@@QAE@XZ 10010330 f i RTreeCooking.obj
 0001:0000f3a0       ??1?$Array@VPxVec3@physx@@VNamedAllocator@shdfnd@2@@shdfnd@physx@@QAE@XZ 100103a0 f i RTreeCooking.obj
 0001:0000f410       ??1?$InlineAllocator@$0CA@VNamedAllocator@shdfnd@physx@@@shdfnd@physx@@QAE@XZ 10010410 f i RTreeCooking.obj
 0001:0000f430       ??1?$InlineArray@UInterval@physx@@$03VNamedAllocator@shdfnd@2@@shdfnd@physx@@QAE@XZ 10010430 f i RTreeCooking.obj
 0001:0000f450       ??1?$ScopedPointer@HVTempAllocator@shdfnd@physx@@@shdfnd@physx@@QAE@XZ 10010450 f i RTreeCooking.obj
 0001:0000f480       ??1?$Stack@VNamedAllocator@shdfnd@physx@@@internal@shdfnd@physx@@QAE@XZ 10010480 f i RTreeCooking.obj
 0001:0000f4d0       ??1SubSortQuick@physx@@QAE@XZ 100104d0 f i RTreeCooking.obj
 0001:0000f4f0       ??1SubSortSAH@physx@@QAE@XZ 100104f0 f i RTreeCooking.obj
 0001:0000f5a0       ??2@YAPAXIPAX@Z            100105a0 f i RTreeCooking.obj
 0001:0000f5b0       ??4PxVec3@physx@@QAEAAV01@ABV01@@Z 100105b0 f i RTreeCooking.obj
 0001:0000f5f0       ??4PxVec4@physx@@QAEAAV01@ABV01@@Z 100105f0 f i RTreeCooking.obj
 0001:0000f640       ??A?$Array@IVNamedAllocator@shdfnd@physx@@@shdfnd@physx@@QAEAAII@Z 10010640 f i RTreeCooking.obj
 0001:0000f6c0       ??A?$Array@UInterval@physx@@V?$InlineAllocator@$0CA@VNamedAllocator@shdfnd@physx@@@shdfnd@2@@shdfnd@physx@@QAEAAUInterval@2@I@Z 100106c0 f i RTreeCooking.obj
 0001:0000f740       ??A?$Array@URTreeNodeNQ@physx@@VNamedAllocator@shdfnd@2@@shdfnd@physx@@QAEAAURTreeNodeNQ@2@I@Z 10010740 f i RTreeCooking.obj
 0001:0000f7c0       ??A?$Array@URTreeNodeQ@Gu@physx@@VNamedAllocator@shdfnd@3@@shdfnd@physx@@QAEAAURTreeNodeQ@Gu@2@I@Z 100107c0 f i RTreeCooking.obj
 0001:0000f840       ??APxVec3@physx@@QBEABMI@Z 10010840 f i RTreeCooking.obj
 0001:0000f8b0       ??B?$ScopedPointer@HVTempAllocator@shdfnd@physx@@@shdfnd@physx@@QBEPAHXZ 100108b0 f i RTreeCooking.obj
 0001:0000f8d0       ??GPxVec4@physx@@QBE?AV01@ABV01@@Z 100108d0 f i RTreeCooking.obj
 0001:0000f960       ??HPxVec3@physx@@QBE?AV01@ABV01@@Z 10010960 f i RTreeCooking.obj
 0001:0000f9d0       ??KPxVec4@physx@@QBE?AV01@M@Z 100109d0 f i RTreeCooking.obj
 0001:0000fa70       ??R?$Less@I@shdfnd@physx@@QBE_NABI0@Z 10010a70 f i RTreeCooking.obj
 0001:0000fab0       ??RBoundsLTE@physx@@QBE_NABI0@Z 10010ab0 f i RTreeCooking.obj
 0001:0000fb50       ??RSortBoundsPredicate@physx@@QBE_NABI0@Z 10010b50 f i RTreeCooking.obj
 0001:0000fcb0       ?FLoad@aos@shdfnd@physx@@YA?AT__m128@@M@Z 10010cb0 f i RTreeCooking.obj
 0001:0000fcf0       ?FMax@aos@shdfnd@physx@@YA?AT__m128@@XZ 10010cf0 f i RTreeCooking.obj
 0001:0000fd40       ?FNegMax@aos@shdfnd@physx@@YA?AT__m128@@XZ 10010d40 f i RTreeCooking.obj
 0001:0000fd90       ?FStore@aos@shdfnd@physx@@YAXT__m128@@PIAM@Z 10010d90 f i RTreeCooking.obj
 0001:0000fdd0       ?PxAbs@physx@@YAHH@Z       10010dd0 f i RTreeCooking.obj
 0001:0000fde0       ?PxIsFinite@physx@@YA_NM@Z 10010de0 f i RTreeCooking.obj
 0001:0000fe00       ?PxMemCopy@physx@@YAPAXPIAXPIBXI@Z 10010e00 f i RTreeCooking.obj
 0001:0000fe20       ?V3Add@aos@shdfnd@physx@@YA?AT__m128@@T4@0@Z 10010e20 f i RTreeCooking.obj
 0001:0000fe70       ?V3Dot@aos@shdfnd@physx@@YA?AT__m128@@T4@0@Z 10010e70 f i RTreeCooking.obj
 0001:0000ff50       ?V3Load@aos@shdfnd@physx@@YA?AT__m128@@M@Z 10010f50 f i RTreeCooking.obj
 0001:0000ffb0       ?V3LoadU@aos@shdfnd@physx@@YA?AT__m128@@ABVPxVec3@3@@Z 10010fb0 f i RTreeCooking.obj
 0001:00010010       ?V3Max@aos@shdfnd@physx@@YA?AT__m128@@T4@0@Z 10011010 f i RTreeCooking.obj
 0001:00010060       ?V3Min@aos@shdfnd@physx@@YA?AT__m128@@T4@0@Z 10011060 f i RTreeCooking.obj
 0001:000100b0       ?V3PermZXY@aos@shdfnd@physx@@YA?AT__m128@@T4@@Z 100110b0 f i RTreeCooking.obj
 0001:00010100       ?V3ReadXYZ@aos@shdfnd@physx@@YAABVPxVec3@3@ABT__m128@@@Z 10011100 f i RTreeCooking.obj
 0001:00010110       ?V3Splat@aos@shdfnd@physx@@YA?AT__m128@@T4@@Z 10011110 f i RTreeCooking.obj
 0001:00010180       ?V3StoreA@aos@shdfnd@physx@@YAXT__m128@@AAVPxVec3@3@@Z 10011180 f i RTreeCooking.obj
 0001:00010220       ?V3Sub@aos@shdfnd@physx@@YA?AT__m128@@T4@0@Z 10011220 f i RTreeCooking.obj
 0001:00010270       ?V3Zero@aos@shdfnd@physx@@YA?AT__m128@@XZ 10011270 f i RTreeCooking.obj
 0001:000102b0       ?V4ClearW@aos@shdfnd@physx@@YA?AT__m128@@T4@@Z 100112b0 f i RTreeCooking.obj
 0001:00010300       ?V4Load@aos@shdfnd@physx@@YA?AT__m128@@M@Z 10011300 f i RTreeCooking.obj
 0001:00010340       ?Vec3V_From_FloatV@aos@shdfnd@physx@@YA?AT__m128@@T4@@Z 10011340 f i RTreeCooking.obj
 0001:000103a0       ?Vec3V_From_Vec4V@aos@shdfnd@physx@@YA?AT__m128@@T4@@Z 100113a0 f i RTreeCooking.obj
 0001:000103f0       ?Vec4V_From_FloatV@aos@shdfnd@physx@@YA?AT__m128@@T4@@Z 100113f0 f i RTreeCooking.obj
 0001:00010430       ?allocate@?$AlignedAllocator@$0IA@VAllocator@shdfnd@physx@@@shdfnd@physx@@QAEPAXIPBDH@Z 10011430 f i RTreeCooking.obj
 0001:000104b0       ?allocate@?$Array@IVNamedAllocator@shdfnd@physx@@@shdfnd@physx@@IAEPAII@Z 100114b0 f i RTreeCooking.obj
 0001:00010530       ?allocate@?$Array@UInterval@physx@@V?$InlineAllocator@$0CA@VNamedAllocator@shdfnd@physx@@@shdfnd@2@@shdfnd@physx@@IAEPAUInterval@3@I@Z 10011530 f i RTreeCooking.obj
 0001:000105b0       ?allocate@?$Array@UPxBounds3V@physx@@VNamedAllocator@shdfnd@2@@shdfnd@physx@@IAEPAUPxBounds3V@3@I@Z 100115b0 f i RTreeCooking.obj
 0001:00010630       ?allocate@?$Array@URTreeNodeNQ@physx@@VNamedAllocator@shdfnd@2@@shdfnd@physx@@IAEPAURTreeNodeNQ@3@I@Z 10011630 f i RTreeCooking.obj
 0001:000106b0       ?allocate@?$Array@URTreeNodeQ@Gu@physx@@VNamedAllocator@shdfnd@3@@shdfnd@physx@@IAEPAURTreeNodeQ@Gu@3@I@Z 100116b0 f i RTreeCooking.obj
 0001:00010730       ?allocate@?$Array@VPxVec3@physx@@VNamedAllocator@shdfnd@2@@shdfnd@physx@@IAEPAVPxVec3@3@I@Z 10011730 f i RTreeCooking.obj
 0001:000107b0       ?allocate@?$InlineAllocator@$0CA@VNamedAllocator@shdfnd@physx@@@shdfnd@physx@@QAEPAXIPBDH@Z 100117b0 f i RTreeCooking.obj
 0001:00010800       ?begin@?$Array@IVNamedAllocator@shdfnd@physx@@@shdfnd@physx@@QAEPAIXZ 10011800 f i RTreeCooking.obj
 0001:00010820       ?begin@?$Array@UPxBounds3V@physx@@VNamedAllocator@shdfnd@2@@shdfnd@physx@@QAEPAUPxBounds3V@3@XZ 10011820 f i RTreeCooking.obj
 0001:00010840       ?begin@?$Array@VPxVec3@physx@@VNamedAllocator@shdfnd@2@@shdfnd@physx@@QAEPAVPxVec3@3@XZ 10011840 f i RTreeCooking.obj
 0001:00010860       ?capacity@?$Array@IVNamedAllocator@shdfnd@physx@@@shdfnd@physx@@QBEIXZ 10011860 f i RTreeCooking.obj
 0001:00010880       ?capacity@?$Array@UInterval@physx@@V?$InlineAllocator@$0CA@VNamedAllocator@shdfnd@physx@@@shdfnd@2@@shdfnd@physx@@QBEIXZ 10011880 f i RTreeCooking.obj
 0001:000108a0       ?capacity@?$Array@UPxBounds3V@physx@@VNamedAllocator@shdfnd@2@@shdfnd@physx@@QBEIXZ 100118a0 f i RTreeCooking.obj
 0001:000108c0       ?capacity@?$Array@URTreeNodeNQ@physx@@VNamedAllocator@shdfnd@2@@shdfnd@physx@@QBEIXZ 100118c0 f i RTreeCooking.obj
 0001:000108e0       ?capacity@?$Array@URTreeNodeQ@Gu@physx@@VNamedAllocator@shdfnd@3@@shdfnd@physx@@QBEIXZ 100118e0 f i RTreeCooking.obj
 0001:00010900       ?capacity@?$Array@VPxVec3@physx@@VNamedAllocator@shdfnd@2@@shdfnd@physx@@QBEIXZ 10011900 f i RTreeCooking.obj
 0001:00010920       ?capacityIncrement@?$Array@IVNamedAllocator@shdfnd@physx@@@shdfnd@physx@@IBEIXZ 10011920 f i RTreeCooking.obj
 0001:00010960       ?capacityIncrement@?$Array@UInterval@physx@@V?$InlineAllocator@$0CA@VNamedAllocator@shdfnd@physx@@@shdfnd@2@@shdfnd@physx@@IBEIXZ 10011960 f i RTreeCooking.obj
 0001:000109a0       ?capacityIncrement@?$Array@UPxBounds3V@physx@@VNamedAllocator@shdfnd@2@@shdfnd@physx@@IBEIXZ 100119a0 f i RTreeCooking.obj
 0001:000109e0       ?capacityIncrement@?$Array@URTreeNodeNQ@physx@@VNamedAllocator@shdfnd@2@@shdfnd@physx@@IBEIXZ 100119e0 f i RTreeCooking.obj
 0001:00010a20       ?capacityIncrement@?$Array@URTreeNodeQ@Gu@physx@@VNamedAllocator@shdfnd@3@@shdfnd@physx@@IBEIXZ 10011a20 f i RTreeCooking.obj
 0001:00010a60       ?capacityIncrement@?$Array@VPxVec3@physx@@VNamedAllocator@shdfnd@2@@shdfnd@physx@@IBEIXZ 10011a60 f i RTreeCooking.obj
 0001:00010aa0       ?computeSA@SubSortSAH@physx@@QAEMPBIABUInterval@2@@Z 10011aa0 f i RTreeCooking.obj
 0001:00010c30       ?copy@?$Array@IVNamedAllocator@shdfnd@physx@@@shdfnd@physx@@KAXPAI0PBI@Z 10011c30 f i RTreeCooking.obj
 0001:00010c90       ?copy@?$Array@UInterval@physx@@V?$InlineAllocator@$0CA@VNamedAllocator@shdfnd@physx@@@shdfnd@2@@shdfnd@physx@@KAXPAUInterval@3@0PBU43@@Z 10011c90 f i RTreeCooking.obj
 0001:00010cf0       ?copy@?$Array@UPxBounds3V@physx@@VNamedAllocator@shdfnd@2@@shdfnd@physx@@KAXPAUPxBounds3V@3@0PBU43@@Z 10011cf0 f i RTreeCooking.obj
 0001:00010d50       ?copy@?$Array@URTreeNodeNQ@physx@@VNamedAllocator@shdfnd@2@@shdfnd@physx@@KAXPAURTreeNodeNQ@3@0PBU43@@Z 10011d50 f i RTreeCooking.obj
 0001:00010db0       ?copy@?$Array@URTreeNodeQ@Gu@physx@@VNamedAllocator@shdfnd@3@@shdfnd@physx@@KAXPAURTreeNodeQ@Gu@3@0PBU453@@Z 10011db0 f i RTreeCooking.obj
 0001:00010e10       ?copy@?$Array@VPxVec3@physx@@VNamedAllocator@shdfnd@2@@shdfnd@physx@@KAXPAVPxVec3@3@0PBV43@@Z 10011e10 f i RTreeCooking.obj
 0001:00010e70       ?create@?$Array@IVNamedAllocator@shdfnd@physx@@@shdfnd@physx@@KAXPAI0ABI@Z 10011e70 f i RTreeCooking.obj
 0001:00010ec0       ?deallocate@?$Array@IVNamedAllocator@shdfnd@physx@@@shdfnd@physx@@IAEXPAX@Z 10011ec0 f i RTreeCooking.obj
 0001:00010ee0       ?deallocate@?$Array@UInterval@physx@@V?$InlineAllocator@$0CA@VNamedAllocator@shdfnd@physx@@@shdfnd@2@@shdfnd@physx@@IAEXPAX@Z 10011ee0 f i RTreeCooking.obj
 0001:00010f00       ?deallocate@?$Array@UPxBounds3V@physx@@VNamedAllocator@shdfnd@2@@shdfnd@physx@@IAEXPAX@Z 10011f00 f i RTreeCooking.obj
 0001:00010f20       ?deallocate@?$Array@URTreeNodeNQ@physx@@VNamedAllocator@shdfnd@2@@shdfnd@physx@@IAEXPAX@Z 10011f20 f i RTreeCooking.obj
 0001:00010f40       ?deallocate@?$Array@URTreeNodeQ@Gu@physx@@VNamedAllocator@shdfnd@3@@shdfnd@physx@@IAEXPAX@Z 10011f40 f i RTreeCooking.obj
 0001:00010f60       ?deallocate@?$Array@VPxVec3@physx@@VNamedAllocator@shdfnd@2@@shdfnd@physx@@IAEXPAX@Z 10011f60 f i RTreeCooking.obj
 0001:00010f80       ?deallocate@?$InlineAllocator@$0CA@VNamedAllocator@shdfnd@physx@@@shdfnd@physx@@QAEXPAX@Z 10011f80 f i RTreeCooking.obj
 0001:00010fc0       ?destroy@?$Array@IVNamedAllocator@shdfnd@physx@@@shdfnd@physx@@KAXPAI0@Z 10011fc0 f i RTreeCooking.obj
 0001:00010fe0       ?destroy@?$Array@UInterval@physx@@V?$InlineAllocator@$0CA@VNamedAllocator@shdfnd@physx@@@shdfnd@2@@shdfnd@physx@@KAXPAUInterval@3@0@Z 10011fe0 f i RTreeCooking.obj
 0001:00011000       ?destroy@?$Array@UPxBounds3V@physx@@VNamedAllocator@shdfnd@2@@shdfnd@physx@@KAXPAUPxBounds3V@3@0@Z 10012000 f i RTreeCooking.obj
 0001:00011020       ?destroy@?$Array@URTreeNodeNQ@physx@@VNamedAllocator@shdfnd@2@@shdfnd@physx@@KAXPAURTreeNodeNQ@3@0@Z 10012020 f i RTreeCooking.obj
 0001:00011040       ?destroy@?$Array@URTreeNodeQ@Gu@physx@@VNamedAllocator@shdfnd@3@@shdfnd@physx@@KAXPAURTreeNodeQ@Gu@3@0@Z 10012040 f i RTreeCooking.obj
 0001:00011060       ?destroy@?$Array@VPxVec3@physx@@VNamedAllocator@shdfnd@2@@shdfnd@physx@@KAXPAVPxVec3@3@0@Z 10012060 f i RTreeCooking.obj
 0001:00011080       ?empty@?$Stack@VNamedAllocator@shdfnd@physx@@@internal@shdfnd@physx@@QAE_NXZ 10012080 f i RTreeCooking.obj
 0001:000110c0       ?empty@PxBounds3@physx@@SA?AV12@XZ 100120c0 f i RTreeCooking.obj
 0001:00011130       ?getExtents@PxBounds3V@physx@@QBE?AT__m128@@XZ 10012130 f i RTreeCooking.obj
 0001:00011170       ?getMaxVec3@PxBounds3V@physx@@QBEABVPxVec3@2@XZ 10012170 f i RTreeCooking.obj
 0001:00011190       ?getMinVec3@PxBounds3V@physx@@QBEABVPxVec3@2@XZ 10012190 f i RTreeCooking.obj
 0001:000111b0       ?grow@?$Array@IVNamedAllocator@shdfnd@physx@@@shdfnd@physx@@IAEXI@Z 100121b0 f i RTreeCooking.obj
 0001:00011230       ?grow@?$Array@UPxBounds3V@physx@@VNamedAllocator@shdfnd@2@@shdfnd@physx@@IAEXI@Z 10012230 f i RTreeCooking.obj
 0001:000112b0       ?grow@?$Array@URTreeNodeNQ@physx@@VNamedAllocator@shdfnd@2@@shdfnd@physx@@IAEXI@Z 100122b0 f i RTreeCooking.obj
 0001:00011330       ?grow@?$Array@URTreeNodeQ@Gu@physx@@VNamedAllocator@shdfnd@3@@shdfnd@physx@@IAEXI@Z 10012330 f i RTreeCooking.obj
 0001:000113b0       ?grow@?$Array@VPxVec3@physx@@VNamedAllocator@shdfnd@2@@shdfnd@physx@@IAEXI@Z 100123b0 f i RTreeCooking.obj
 0001:00011430       ?grow@?$Stack@VNamedAllocator@shdfnd@physx@@@internal@shdfnd@physx@@QAEXXZ 10012430 f i RTreeCooking.obj
 0001:000114f0       ?growAndPushBack@?$Array@IVNamedAllocator@shdfnd@physx@@@shdfnd@physx@@IAEAAIABI@Z 100124f0 f i RTreeCooking.obj
 0001:00011660       ?growAndPushBack@?$Array@UInterval@physx@@V?$InlineAllocator@$0CA@VNamedAllocator@shdfnd@physx@@@shdfnd@2@@shdfnd@physx@@IAEAAUInterval@3@ABU43@@Z 10012660 f i RTreeCooking.obj
 0001:000117e0       ?growAndPushBack@?$Array@UPxBounds3V@physx@@VNamedAllocator@shdfnd@2@@shdfnd@physx@@IAEAAUPxBounds3V@3@ABU43@@Z 100127e0 f i RTreeCooking.obj
 0001:00011960       ?growAndPushBack@?$Array@URTreeNodeNQ@physx@@VNamedAllocator@shdfnd@2@@shdfnd@physx@@IAEAAURTreeNodeNQ@3@ABU43@@Z 10012960 f i RTreeCooking.obj
 0001:00011ae0       ?growAndPushBack@?$Array@URTreeNodeQ@Gu@physx@@VNamedAllocator@shdfnd@3@@shdfnd@physx@@IAEAAURTreeNodeQ@Gu@3@ABU453@@Z 10012ae0 f i RTreeCooking.obj
 0001:00011c50       ?growAndPushBack@?$Array@VPxVec3@physx@@VNamedAllocator@shdfnd@2@@shdfnd@physx@@IAEAAVPxVec3@3@ABV43@@Z 10012c50 f i RTreeCooking.obj
 0001:00011dc0       ?include@PxBounds3V@physx@@QAEXABU12@@Z 10012dc0 f i RTreeCooking.obj
 0001:00011e40       ?isFinite@PxBounds3@physx@@QBE_NXZ 10012e40 f i RTreeCooking.obj
 0001:00011ea0       ?isFinite@PxVec3@physx@@QBE_NXZ 10012ea0 f i RTreeCooking.obj
 0001:00011f40       ?isFinite@intrinsics@physx@@YA_NM@Z 10012f40 f i RTreeCooking.obj
 0001:00011f90       ?isInUserMemory@?$Array@IVNamedAllocator@shdfnd@physx@@@shdfnd@physx@@QBEIXZ 10012f90 f i RTreeCooking.obj
 0001:00011fb0       ?isInUserMemory@?$Array@UInterval@physx@@V?$InlineAllocator@$0CA@VNamedAllocator@shdfnd@physx@@@shdfnd@2@@shdfnd@physx@@QBEIXZ 10012fb0 f i RTreeCooking.obj
 0001:00011fd0       ?isInUserMemory@?$Array@UPxBounds3V@physx@@VNamedAllocator@shdfnd@2@@shdfnd@physx@@QBEIXZ 10012fd0 f i RTreeCooking.obj
 0001:00011ff0       ?isInUserMemory@?$Array@URTreeNodeNQ@physx@@VNamedAllocator@shdfnd@2@@shdfnd@physx@@QBEIXZ 10012ff0 f i RTreeCooking.obj
 0001:00012010       ?isInUserMemory@?$Array@URTreeNodeQ@Gu@physx@@VNamedAllocator@shdfnd@3@@shdfnd@physx@@QBEIXZ 10013010 f i RTreeCooking.obj
 0001:00012030       ?isInUserMemory@?$Array@VPxVec3@physx@@VNamedAllocator@shdfnd@2@@shdfnd@physx@@QBEIXZ 10013030 f i RTreeCooking.obj
 0001:00012050       ?isInside@PxBounds3@physx@@QBE_NABV12@@Z 10013050 f i RTreeCooking.obj
 0001:00012170       ?isLeaf@RTreeNodeQ@Gu@physx@@QBEIXZ 10013170 f i RTreeCooking.obj
 0001:00012190       ?isValid@PxBounds3@physx@@QBE_NXZ 10013190 f i RTreeCooking.obj
 0001:000122b0       ?memCopy@intrinsics@physx@@YAPAXPIAXPIBXI@Z 100132b0 f i RTreeCooking.obj
 0001:000122d0       ?pop@?$Stack@VNamedAllocator@shdfnd@physx@@@internal@shdfnd@physx@@QAEXAAH0@Z 100132d0 f i RTreeCooking.obj
 0001:000123c0       ?popBack@?$Array@IVNamedAllocator@shdfnd@physx@@@shdfnd@physx@@QAEIXZ 100133c0 f i RTreeCooking.obj
 0001:00012470       ?push@?$Stack@VNamedAllocator@shdfnd@physx@@@internal@shdfnd@physx@@QAEXHH@Z 10013470 f i RTreeCooking.obj
 0001:00012500       ?pushBack@?$Array@IVNamedAllocator@shdfnd@physx@@@shdfnd@physx@@QAEAAIABI@Z 10013500 f i RTreeCooking.obj
 0001:000125a0       ?pushBack@?$Array@UInterval@physx@@V?$InlineAllocator@$0CA@VNamedAllocator@shdfnd@physx@@@shdfnd@2@@shdfnd@physx@@QAEAAUInterval@3@ABU43@@Z 100135a0 f i RTreeCooking.obj
 0001:00012640       ?pushBack@?$Array@UPxBounds3V@physx@@VNamedAllocator@shdfnd@2@@shdfnd@physx@@QAEAAUPxBounds3V@3@ABU43@@Z 10013640 f i RTreeCooking.obj
 0001:000126e0       ?pushBack@?$Array@URTreeNodeNQ@physx@@VNamedAllocator@shdfnd@2@@shdfnd@physx@@QAEAAURTreeNodeNQ@3@ABU43@@Z 100136e0 f i RTreeCooking.obj
 0001:00012780       ?pushBack@?$Array@URTreeNodeQ@Gu@physx@@VNamedAllocator@shdfnd@3@@shdfnd@physx@@QAEAAURTreeNodeQ@Gu@3@ABU453@@Z 10013780 f i RTreeCooking.obj
 0001:00012820       ?pushBack@?$Array@VPxVec3@physx@@VNamedAllocator@shdfnd@2@@shdfnd@physx@@QAEAAVPxVec3@3@ABV43@@Z 10013820 f i RTreeCooking.obj
 0001:000128c0       ?recreate@?$Array@IVNamedAllocator@shdfnd@physx@@@shdfnd@physx@@IAEXI@Z 100138c0 f i RTreeCooking.obj
 0001:000129d0       ?recreate@?$Array@UPxBounds3V@physx@@VNamedAllocator@shdfnd@2@@shdfnd@physx@@IAEXI@Z 100139d0 f i RTreeCooking.obj
 0001:00012ae0       ?recreate@?$Array@URTreeNodeNQ@physx@@VNamedAllocator@shdfnd@2@@shdfnd@physx@@IAEXI@Z 10013ae0 f i RTreeCooking.obj
 0001:00012bf0       ?recreate@?$Array@URTreeNodeQ@Gu@physx@@VNamedAllocator@shdfnd@3@@shdfnd@physx@@IAEXI@Z 10013bf0 f i RTreeCooking.obj
 0001:00012d00       ?recreate@?$Array@VPxVec3@physx@@VNamedAllocator@shdfnd@2@@shdfnd@physx@@IAEXI@Z 10013d00 f i RTreeCooking.obj
 0001:00012e10       ?replaceWithLast@?$Array@UInterval@physx@@V?$InlineAllocator@$0CA@VNamedAllocator@shdfnd@physx@@@shdfnd@2@@shdfnd@physx@@QAEXI@Z 10013e10 f i RTreeCooking.obj
 0001:00012f00       ?reserve@?$Array@IVNamedAllocator@shdfnd@physx@@@shdfnd@physx@@QAEXI@Z 10013f00 f i RTreeCooking.obj
 0001:00012f30       ?reserve@?$Array@UPxBounds3V@physx@@VNamedAllocator@shdfnd@2@@shdfnd@physx@@QAEXI@Z 10013f30 f i RTreeCooking.obj
 0001:00012f60       ?reserve@?$Array@URTreeNodeNQ@physx@@VNamedAllocator@shdfnd@2@@shdfnd@physx@@QAEXI@Z 10013f60 f i RTreeCooking.obj
 0001:00012f90       ?reserve@?$Array@URTreeNodeQ@Gu@physx@@VNamedAllocator@shdfnd@3@@shdfnd@physx@@QAEXI@Z 10013f90 f i RTreeCooking.obj
 0001:00012fc0       ?reserve@?$Array@VPxVec3@physx@@VNamedAllocator@shdfnd@2@@shdfnd@physx@@QAEXI@Z 10013fc0 f i RTreeCooking.obj
 0001:00012ff0       ?resize@?$Array@IVNamedAllocator@shdfnd@physx@@@shdfnd@physx@@QAEXIABI@Z 10013ff0 f i RTreeCooking.obj
 0001:00013080       ?resizeUninitialized@?$Array@URTreeNodeNQ@physx@@VNamedAllocator@shdfnd@2@@shdfnd@physx@@QAEXI@Z 10014080 f i RTreeCooking.obj
 0001:000130b0       ?selectMax@intrinsics@physx@@YAMMM@Z 100140b0 f i RTreeCooking.obj
 0001:000130f0       ?selectMin@intrinsics@physx@@YAMMM@Z 100140f0 f i RTreeCooking.obj
 0001:00013130       ?setEmpty@PxBounds3@physx@@QAEXXZ 10014130 f i RTreeCooking.obj
 0001:000131a0       ?setLeaf@RTreeNodeQ@Gu@physx@@QAEX_N@Z 100141a0 f i RTreeCooking.obj
 0001:000131f0       ?size@?$Array@IVNamedAllocator@shdfnd@physx@@@shdfnd@physx@@QBEIXZ 100141f0 f i RTreeCooking.obj
 0001:00013210       ?size@?$Array@UInterval@physx@@V?$InlineAllocator@$0CA@VNamedAllocator@shdfnd@physx@@@shdfnd@2@@shdfnd@physx@@QBEIXZ 10014210 f i RTreeCooking.obj
 0001:00013230       ?size@?$Array@URTreeNodeNQ@physx@@VNamedAllocator@shdfnd@2@@shdfnd@physx@@QBEIXZ 10014230 f i RTreeCooking.obj
 0001:00013250       ?size@?$Array@URTreeNodeQ@Gu@physx@@VNamedAllocator@shdfnd@3@@shdfnd@physx@@QBEIXZ 10014250 f i RTreeCooking.obj
 0001:00013270       ?size@?$Array@VPxVec3@physx@@VNamedAllocator@shdfnd@2@@shdfnd@physx@@QBEIXZ 10014270 f i RTreeCooking.obj
 0001:00013290       ?sort4@SubSortQuick@physx@@QAEXPIAIIAAV?$Array@URTreeNodeNQ@physx@@VNamedAllocator@shdfnd@2@@shdfnd@2@AAIAAUPxBounds3V@2@I@Z 10014290 f i RTreeCooking.obj
 0001:00013b30       ?sort4@SubSortSAH@physx@@QAEXPAIIAAV?$Array@URTreeNodeNQ@physx@@VNamedAllocator@shdfnd@2@@shdfnd@2@AAIIPAURTreeNodeNQ@2@@Z 10014b30 f i RTreeCooking.obj
 0001:00014980       ?split@SubSortSAH@physx@@QAEIPAII@Z 10015980 f i RTreeCooking.obj
 0001:00015650       ?loadFromDesc@TriangleMeshBuilder@physx@@QAE_NABVPxTriangleMeshDesc@2@ABUPxCookingParams@2@_N@Z 10016650 f   TriangleMeshBuilder.obj
 0001:00015880       ?save@TriangleMeshBuilder@physx@@QBE_NAAVPxOutputStream@2@_NABUPxCookingParams@2@@Z 10016880 f   TriangleMeshBuilder.obj
 0001:00015e70       ?computeLocalBounds@TriangleMeshBuilder@physx@@IAEXXZ 10016e70 f   TriangleMeshBuilder.obj
 0001:00015fb0       ?importMesh@TriangleMeshBuilder@physx@@IAE_NABVPxTriangleMeshDesc@2@ABUPxCookingParams@2@_N@Z 10016fb0 f   TriangleMeshBuilder.obj
 0001:00016790       ??$?_UI@@YAPAXIV?$ReflectionAllocator@I@shdfnd@physx@@PBDH@Z 10017790 f i TriangleMeshBuilder.obj
 0001:000167b0       ??0?$PxFlags@W4Enum@PxMeshFlag@physx@@G@physx@@QAE@ABV01@@Z 100177b0 f i TriangleMeshBuilder.obj
 0001:000167e0       ??0?$PxFlags@W4Enum@PxMeshFlag@physx@@G@physx@@QAE@W4Enum@PxMeshFlag@1@@Z 100177e0 f i TriangleMeshBuilder.obj
 0001:00016800       ??0?$PxFlags@W4Enum@PxMeshFlag@physx@@G@physx@@QAE@XZ 10017800 f i TriangleMeshBuilder.obj
 0001:00016820       ??0?$PxFlags@W4Enum@PxMeshPreprocessingFlag@physx@@I@physx@@QAE@ABV01@@Z 10017820 f i TriangleMeshBuilder.obj
 0001:00016840       ??0?$ReflectionAllocator@I@shdfnd@physx@@QAE@PBD@Z 10017840 f i TriangleMeshBuilder.obj
 0001:00016860       ??0PxSimpleTriangleMesh@physx@@QAE@ABV01@@Z 10017860 f i TriangleMeshBuilder.obj
 0001:000168e0       ??0PxTriangleMeshDesc@physx@@QAE@ABV01@@Z 100178e0 f i TriangleMeshBuilder.obj
 0001:00016930       ??APxVec3@physx@@QAEAAMI@Z 10017930 f i TriangleMeshBuilder.obj
 0001:000169a0       ??B?$PxFlags@W4Enum@PxMeshFlag@physx@@G@physx@@QBE_NXZ 100179a0 f i TriangleMeshBuilder.obj
 0001:000169d0       ??B?$PxFlags@W4Enum@PxMeshPreprocessingFlag@physx@@I@physx@@QBE_NXZ 100179d0 f i TriangleMeshBuilder.obj
 0001:00016a00       ??I?$PxFlags@W4Enum@PxMeshFlag@physx@@G@physx@@QBE?AV01@W4Enum@PxMeshFlag@1@@Z 10017a00 f i TriangleMeshBuilder.obj
 0001:00016a50       ??I?$PxFlags@W4Enum@PxMeshPreprocessingFlag@physx@@I@physx@@QBE?AV01@W4Enum@PxMeshPreprocessingFlag@1@@Z 10017a50 f i TriangleMeshBuilder.obj
 0001:00016a90       ??S?$PxFlags@W4Enum@PxMeshFlag@physx@@G@physx@@QBE?AV01@XZ 10017a90 f i TriangleMeshBuilder.obj
 0001:00016ad0       ??Sphysx@@YA?AV?$PxFlags@W4Enum@PxMeshFlag@physx@@G@0@W4Enum@PxMeshFlag@0@@Z 10017ad0 f i TriangleMeshBuilder.obj
 0001:00016b10       ??_4?$PxFlags@W4Enum@PxMeshFlag@physx@@G@physx@@QAEAAV01@ABV01@@Z 10017b10 f i TriangleMeshBuilder.obj
 0001:00016b40       ??_H@YGXPAXIIP6EPAX0@Z@Z   10017b40 f i TriangleMeshBuilder.obj
 0001:00016b90       ?PxAbs@physx@@YAMM@Z       10017b90 f i TriangleMeshBuilder.obj
 0001:00016bb0       ?abs@intrinsics@physx@@YAMM@Z 10017bb0 f i TriangleMeshBuilder.obj
 0001:00016bd0       ?allocate@?$ReflectionAllocator@I@shdfnd@physx@@QAEPAXIPBDH@Z 10017bd0 f i TriangleMeshBuilder.obj
 0001:00016c40       ?gatherStrided@shdfnd@physx@@YAXPBXPAXIII@Z 10017c40 f i TriangleMeshBuilder.obj
 0001:00016cb0       ?getFoundation@shdfnd@physx@@YAAAVFoundation@12@XZ 10017cb0 f i TriangleMeshBuilder.obj
 0001:00016cc0       ?getName@?$ReflectionAllocator@I@shdfnd@physx@@CAPBDXZ 10017cc0 f i TriangleMeshBuilder.obj
 0001:00016d10       ?isValid@PxSimpleTriangleMesh@physx@@QBE_NXZ 10017d10 f i TriangleMeshBuilder.obj
 0001:00016df0       ?isValid@PxTriangleMeshDesc@physx@@QBE_NXZ 10017df0 f i TriangleMeshBuilder.obj
 0001:00016e60       ?name@type_info@@QBEPBDXZ  10017e60 f i TriangleMeshBuilder.obj
 0001:00016e90       ?to16@shdfnd@physx@@YAGI@Z 10017e90 f i TriangleMeshBuilder.obj
 0001:00016ef0       ?writeIntBuffer@physx@@YAXPBII_NAAVPxOutputStream@1@@Z 10017ef0 f i TriangleMeshBuilder.obj
 0001:00016f20       _fabsf                     10017f20 f i TriangleMeshBuilder.obj
 0001:00016f50       _powf                      10017f50 f i TriangleMeshBuilder.obj
 0001:00016f90       ??0BigConvexDataBuilder@physx@@QAE@PBUConvexHullData@Gu@1@PAVBigConvexData@1@PBVPxVec3@1@@Z 10017f90 f   BigConvexDataBuilder.obj
 0001:00016fc0       ??1BigConvexDataBuilder@physx@@QAE@XZ 10017fc0 f   BigConvexDataBuilder.obj
 0001:00016fd0       ?Precompute@BigConvexDataBuilder@physx@@QAE_NI@Z 10017fd0 f   BigConvexDataBuilder.obj
 0001:000173b0       ?Initialize@BigConvexDataBuilder@physx@@QAE_NXZ 100183b0 f   BigConvexDataBuilder.obj
 0001:00017410       ?PrecomputeSample@BigConvexDataBuilder@physx@@QAE_NIABVPxVec3@2@@Z 10018410 f   BigConvexDataBuilder.obj
 0001:00017510       ?Save@BigConvexDataBuilder@physx@@QBE_NAAVPxOutputStream@2@_NIPBUHullTriangleData@2@@Z 10018510 f   BigConvexDataBuilder.obj
 0001:00017610       ?ComputeValencies@BigConvexDataBuilder@physx@@QBE_NIPBUHullTriangleData@2@@Z 10018610 f   BigConvexDataBuilder.obj
 0001:00017660       ?Compute@BigConvexDataBuilder@physx@@QBE_NABUVALENCIESCREATE@2@@Z 10018660 f   BigConvexDataBuilder.obj
 0001:00017b60       ?Save@BigConvexDataBuilder@physx@@QBE_NAAVPxOutputStream@2@_N@Z 10018b60 f   BigConvexDataBuilder.obj
 0001:00018080       ??$?_UE@@YAPAXIV?$ReflectionAllocator@E@shdfnd@physx@@PBDH@Z 10019080 f i BigConvexDataBuilder.obj
 0001:000180a0       ??$?_UG@@YAPAXIV?$ReflectionAllocator@G@shdfnd@physx@@PBDH@Z 100190a0 f i BigConvexDataBuilder.obj
 0001:000180c0       ??$?_UUValency@Gu@physx@@@@YAPAXIV?$ReflectionAllocator@UValency@Gu@physx@@@shdfnd@physx@@PBDH@Z 100190c0 f i BigConvexDataBuilder.obj
 0001:000180e0       ??0?$ReflectionAllocator@E@shdfnd@physx@@QAE@PBD@Z 100190e0 f i BigConvexDataBuilder.obj
 0001:00018100       ??0?$ReflectionAllocator@G@shdfnd@physx@@QAE@PBD@Z 10019100 f i BigConvexDataBuilder.obj
 0001:00018120       ??0?$ReflectionAllocator@UValency@Gu@physx@@@shdfnd@physx@@QAE@PBD@Z 10019120 f i BigConvexDataBuilder.obj
 0001:00018140       ??0EDGELISTCREATE@Gu@physx@@QAE@XZ 10019140 f i BigConvexDataBuilder.obj
 0001:000181b0       ??0PxVec3@physx@@QAE@XZ    100191b0 f i BigConvexDataBuilder.obj
 0001:000181d0       ??0VALENCIESCREATE@physx@@QAE@XZ 100191d0 f i BigConvexDataBuilder.obj
 0001:00018200       ??_0PxVec3@physx@@QAEAAV01@M@Z 10019200 f i BigConvexDataBuilder.obj
 0001:00018280       ?GetEdge@EdgeList@Gu@physx@@QBEABUEdgeData@23@I@Z 10019280 f i BigConvexDataBuilder.obj
 0001:000182a0       ?GetNbEdges@EdgeList@Gu@physx@@QBEIXZ 100192a0 f i BigConvexDataBuilder.obj
 0001:000182c0       ?PxMemZero@physx@@YAPAXPIAXI@Z 100192c0 f i BigConvexDataBuilder.obj
 0001:000182e0       ?PxSqrt@physx@@YAMM@Z      100192e0 f i BigConvexDataBuilder.obj
 0001:00018300       ?allocate@?$ReflectionAllocator@E@shdfnd@physx@@QAEPAXIPBDH@Z 10019300 f i BigConvexDataBuilder.obj
 0001:00018370       ?allocate@?$ReflectionAllocator@G@shdfnd@physx@@QAEPAXIPBDH@Z 10019370 f i BigConvexDataBuilder.obj
 0001:000183e0       ?allocate@?$ReflectionAllocator@UValency@Gu@physx@@@shdfnd@physx@@QAEPAXIPBDH@Z 100193e0 f i BigConvexDataBuilder.obj
 0001:00018450       ?dot@PxVec3@physx@@QBEMABV12@@Z 10019450 f i BigConvexDataBuilder.obj
 0001:000184b0       ?getName@?$ReflectionAllocator@E@shdfnd@physx@@CAPBDXZ 100194b0 f i BigConvexDataBuilder.obj
 0001:00018500       ?getName@?$ReflectionAllocator@G@shdfnd@physx@@CAPBDXZ 10019500 f i BigConvexDataBuilder.obj
 0001:00018550       ?getName@?$ReflectionAllocator@UValency@Gu@physx@@@shdfnd@physx@@CAPBDXZ 10019550 f i BigConvexDataBuilder.obj
 0001:000185a0       ?magnitude@PxVec3@physx@@QBEMXZ 100195a0 f i BigConvexDataBuilder.obj
 0001:000185d0       ?magnitudeSquared@PxVec3@physx@@QBEMXZ 100195d0 f i BigConvexDataBuilder.obj
 0001:00018630       ?memZero@intrinsics@physx@@YAPAXPIAXI@Z 10019630 f i BigConvexDataBuilder.obj
 0001:00018650       ?normalize@PxVec3@physx@@QAEMXZ 10019650 f i BigConvexDataBuilder.obj
 0001:000186a0       ?sqrt@intrinsics@physx@@YAMM@Z 100196a0 f i BigConvexDataBuilder.obj
 0001:000186c0       _sqrtf                     100196c0 f i BigConvexDataBuilder.obj
 0001:00018740       ??0ConvexHullBuilder@physx@@QAE@PAUConvexHullData@Gu@1@@Z 10019740 f   ConvexHullBuilder.obj
 0001:000187c0       ??1ConvexHullBuilder@physx@@QAE@XZ 100197c0 f   ConvexHullBuilder.obj
 0001:00018910       ?Init@ConvexHullBuilder@physx@@QAE_NIPBVPxVec3@2@IPBIIPBUPxHullPolygon@2@@Z 10019910 f   ConvexHullBuilder.obj
 0001:00019270       ?Save@ConvexHullBuilder@physx@@QBE_NAAVPxOutputStream@2@_N@Z 1001a270 f   ConvexHullBuilder.obj
 0001:000194a0       ?CreateEdgeList@ConvexHullBuilder@physx@@QAE_NXZ 1001a4a0 f   ConvexHullBuilder.obj
 0001:0001a0a0       ?CreatePolygonData@ConvexHullBuilder@physx@@QAE_NXZ 1001b0a0 f   ConvexHullBuilder.obj
 0001:0001ae30       ?CheckHullPolygons@ConvexHullBuilder@physx@@QBE_NXZ 1001be30 f   ConvexHullBuilder.obj
 0001:0001b520       ?CreateTrianglesFromPolygons@ConvexHullBuilder@physx@@QAE_NXZ 1001c520 f   ConvexHullBuilder.obj
 0001:0001b9d0       ?ComputeGeomCenter@ConvexHullBuilder@physx@@QBE_NAAVPxVec3@2@@Z 1001c9d0 f   ConvexHullBuilder.obj
 0001:0001bb10       ?CalculateVertexMapTable@ConvexHullBuilder@physx@@QAE_NI_N@Z 1001cb10 f   ConvexHullBuilder.obj
 0001:0001bd40       ?ComputeHullPolygons@ConvexHullBuilder@physx@@QAE_NABIPBVPxVec3@2@0PBI@Z 1001cd40 f   ConvexHullBuilder.obj
 0001:0001f630       ??$?_UUEdgeDescData@Gu@physx@@@@YAPAXIV?$ReflectionAllocator@UEdgeDescData@Gu@physx@@@shdfnd@physx@@PBDH@Z 10020630 f i ConvexHullBuilder.obj
 0001:0001f650       ??$?_UUHullTriangleData@physx@@@@YAPAXIV?$ReflectionAllocator@UHullTriangleData@physx@@@shdfnd@physx@@PBDH@Z 10020650 f i ConvexHullBuilder.obj
 0001:0001f670       ??$PX_UNUSED@H@@YAXABH@Z   10020670 f i ConvexHullBuilder.obj
 0001:0001f680       ??$PlaneEquation@U?$TriangleT@I@Gu@physx@@@@YA?AVPxPlane@physx@@ABU?$TriangleT@I@Gu@1@PBVPxVec3@1@@Z 10020680 f i ConvexHullBuilder.obj
 0001:0001f700       ??$swap@E@shdfnd@physx@@YAXAAE0@Z 10020700 f i ConvexHullBuilder.obj
 0001:0001f730       ??0?$ReflectionAllocator@UEdgeDescData@Gu@physx@@@shdfnd@physx@@QAE@PBD@Z 10020730 f i ConvexHullBuilder.obj
 0001:0001f750       ??0?$ReflectionAllocator@UHullTriangleData@physx@@@shdfnd@physx@@QAE@PBD@Z 10020750 f i ConvexHullBuilder.obj
 0001:0001f770       ??0?$TriangleT@I@Gu@physx@@QAE@III@Z 10020770 f i ConvexHullBuilder.obj
 0001:0001f7d0       ??0ADJACENCIESCREATE@physx@@QAE@XZ 100207d0 f i ConvexHullBuilder.obj
 0001:0001f830       ??0HullPolygonData@Gu@physx@@QAE@ABU012@@Z 10020830 f i ConvexHullBuilder.obj
 0001:0001f890       ??0PxPlane@physx@@QAE@ABV01@@Z 10020890 f i ConvexHullBuilder.obj
 0001:0001f8d0       ??0PxPlane@physx@@QAE@ABVPxVec3@1@00@Z 100208d0 f i ConvexHullBuilder.obj
 0001:0001f980       ??0PxPlane@physx@@QAE@MMMM@Z 10020980 f i ConvexHullBuilder.obj
 0001:0001f9f0       ??4PxPlane@physx@@QAEAAV01@$$QAV01@@Z 100209f0 f i ConvexHullBuilder.obj
 0001:0001fa30       ??DPxVec3@physx@@QBE?AV01@M@Z 10020a30 f i ConvexHullBuilder.obj
 0001:0001faa0       ??GPxVec3@physx@@QBE?AV01@ABV01@@Z 10020aa0 f i ConvexHullBuilder.obj
 0001:0001fb10       ??GPxVec3@physx@@QBE?AV01@XZ 10020b10 f i ConvexHullBuilder.obj
 0001:0001fb80       ??YPxVec3@physx@@QAEAAV01@ABV01@@Z 10020b80 f i ConvexHullBuilder.obj
 0001:0001fbf0       ?ComputeNbPolygons@ConvexHullBuilder@physx@@QBEIXZ 10020bf0 f i ConvexHullBuilder.obj
 0001:0001fc30       ?Flip@physx@@YAXAAUHullTriangleData@1@@Z 10020c30 f i ConvexHullBuilder.obj
 0001:0001fc90       ?GetAdjTri@AdjTriangle@physx@@QBEIW4SharedEdgeIndex@2@@Z 10020c90 f i ConvexHullBuilder.obj
 0001:0001fcc0       ?GetFaces@ConvexHullBuilder@physx@@QBEPBUHullTriangleData@2@XZ 10020cc0 f i ConvexHullBuilder.obj
 0001:0001fce0       ?GetNbFaces@ConvexHullBuilder@physx@@QBEIXZ 10020ce0 f i ConvexHullBuilder.obj
 0001:0001fd00       ?HasActiveEdge01@AdjTriangle@physx@@QBEHXZ 10020d00 f i ConvexHullBuilder.obj
 0001:0001fd30       ?HasActiveEdge12@AdjTriangle@physx@@QBEHXZ 10020d30 f i ConvexHullBuilder.obj
 0001:0001fd60       ?HasActiveEdge20@AdjTriangle@physx@@QBEHXZ 10020d60 f i ConvexHullBuilder.obj
 0001:0001fd90       ?HasActiveEdge@AdjTriangle@physx@@QBEHI@Z 10020d90 f i ConvexHullBuilder.obj
 0001:0001fdc0       ?PxRecipSqrt@physx@@YAMM@Z 10020dc0 f i ConvexHullBuilder.obj
 0001:0001fde0       ?allocate@?$ReflectionAllocator@UEdgeDescData@Gu@physx@@@shdfnd@physx@@QAEPAXIPBDH@Z 10020de0 f i ConvexHullBuilder.obj
 0001:0001fe50       ?allocate@?$ReflectionAllocator@UHullTriangleData@physx@@@shdfnd@physx@@QAEPAXIPBDH@Z 10020e50 f i ConvexHullBuilder.obj
 0001:0001fec0       ?area@?$TriangleT@I@Gu@physx@@QBEMPBVPxVec3@3@@Z 10020ec0 f i ConvexHullBuilder.obj
 0001:0001ff90       ?center@?$TriangleT@I@Gu@physx@@QBEXPBVPxVec3@3@AAV43@@Z 10020f90 f i ConvexHullBuilder.obj
 0001:00020050       ?cross@PxVec3@physx@@QBE?AV12@ABV12@@Z 10021050 f i ConvexHullBuilder.obj
 0001:00020110       ?distance@PxPlane@physx@@QBEMABVPxVec3@2@@Z 10021110 f i ConvexHullBuilder.obj
 0001:00020150       ?flip@?$TriangleT@I@Gu@physx@@QAEXXZ 10021150 f i ConvexHullBuilder.obj
 0001:00020190       ?flip@physx@@YAXAAG@Z      10021190 f i ConvexHullBuilder.obj
 0001:00020200       ?flip@physx@@YAXAAM@Z      10021200 f i ConvexHullBuilder.obj
 0001:000202b0       ?flipData@Gu@physx@@YAXAAUHullPolygonData@12@@Z 100212b0 f i ConvexHullBuilder.obj
 0001:00020310       ?getName@?$ReflectionAllocator@UEdgeDescData@Gu@physx@@@shdfnd@physx@@CAPBDXZ 10021310 f i ConvexHullBuilder.obj
 0001:00020360       ?getName@?$ReflectionAllocator@UHullTriangleData@physx@@@shdfnd@physx@@CAPBDXZ 10021360 f i ConvexHullBuilder.obj
 0001:000203b0       ?getNormalized@PxVec3@physx@@QBE?AV12@XZ 100213b0 f i ConvexHullBuilder.obj
 0001:00020460       ?recipSqrt@intrinsics@physx@@YAMM@Z 10021460 f i ConvexHullBuilder.obj
 0001:000204b0       ?to8@shdfnd@physx@@YAEI@Z  100214b0 f i ConvexHullBuilder.obj
 0001:00020510       ??0ConvexMeshBuilder@physx@@QAE@XZ 10021510 f   ConvexMeshBuilder.obj
 0001:00020560       ??1ConvexMeshBuilder@physx@@UAE@XZ 10021560 f   ConvexMeshBuilder.obj
 0001:000205a0       ?loadFromDesc@ConvexMeshBuilder@physx@@QAE_NABVPxConvexMeshDesc@2@W4Enum@PxPlatform@2@@Z 100215a0 f   ConvexMeshBuilder.obj
 0001:00020660       ?save@ConvexMeshBuilder@physx@@QBE_NAAVPxOutputStream@2@_N@Z 10021660 f   ConvexMeshBuilder.obj
 0001:00020960       ?loadConvexHull@ConvexMeshBuilder@physx@@QAE_NABVPxConvexMeshDesc@2@@Z 10021960 f   ConvexMeshBuilder.obj
 0001:00020ca0       ?computeHullPolygons@ConvexMeshBuilder@physx@@QAE_NABIPBVPxVec3@2@0PBIAAVPxAllocatorCallback@2@AAIAAPAV32@4AAPAI4AAPAUPxHullPolygon@2@@Z 10021ca0 f   ConvexMeshBuilder.obj
 0001:00020f80       ?computeGaussMaps@ConvexMeshBuilder@physx@@QAE_NXZ 10021f80 f   ConvexMeshBuilder.obj
 0001:00021060       ?computeMassInfo@ConvexMeshBuilder@physx@@QAEXXZ 10022060 f   ConvexMeshBuilder.obj
 0001:000212c0       ?computeInternalObjects@ConvexMeshBuilder@physx@@QAEXXZ 100222c0 f   ConvexMeshBuilder.obj
 0001:00022200       ??0?$PxFlags@W4Enum@PxBaseFlag@physx@@G@physx@@QAE@ABV01@@Z 10023200 f i ConvexMeshBuilder.obj
 0001:00022230       ??0?$PxFlags@W4Enum@PxConvexFlag@physx@@G@physx@@QAE@ABV01@@Z 10023230 f i ConvexMeshBuilder.obj
 0001:00022260       ??0?$ReflectionAllocator@VBigConvexData@physx@@@shdfnd@physx@@QAE@PBD@Z 10023260 f i ConvexMeshBuilder.obj
 0001:00022280       ??0PxBoundedData@physx@@QAE@XZ 10023280 f i ConvexMeshBuilder.obj
 0001:000222b0       ??0PxIntegrals@physx@@QAE@XZ 100232b0 f i ConvexMeshBuilder.obj
 0001:000222d0       ??0PxMat33@physx@@QAE@ABVPxVec3@1@00@Z 100232d0 f i ConvexMeshBuilder.obj
 0001:00022340       ??0PxSimpleTriangleMesh@physx@@QAE@XZ 10023340 f i ConvexMeshBuilder.obj
 0001:00022380       ??0PxStridedData@physx@@QAE@XZ 10023380 f i ConvexMeshBuilder.obj
 0001:000223b0       ??2UserAllocated@shdfnd@physx@@SAPAXIPAX@Z 100233b0 f i ConvexMeshBuilder.obj
 0001:000223c0       ??3UserAllocated@shdfnd@physx@@SAXPAX@Z 100233c0 f i ConvexMeshBuilder.obj
 0001:000223f0       ??4PxMat33@physx@@QAEAAV01@ABV01@@Z 100233f0 f i ConvexMeshBuilder.obj
 0001:00022440       ??APxMat33@physx@@QAEAAVPxVec3@1@I@Z 10023440 f i ConvexMeshBuilder.obj
 0001:00022460       ??B?$PxFlags@W4Enum@PxBaseFlag@physx@@G@physx@@QBE_NXZ 10023460 f i ConvexMeshBuilder.obj
 0001:00022490       ??B?$PxFlags@W4Enum@PxConvexFlag@physx@@G@physx@@QBE_NXZ 10023490 f i ConvexMeshBuilder.obj
 0001:000224c0       ??GPxMat33@physx@@QBE?AV01@XZ 100234c0 f i ConvexMeshBuilder.obj
 0001:00022550       ??I?$PxFlags@W4Enum@PxBaseFlag@physx@@G@physx@@QBE?AV01@W4Enum@PxBaseFlag@1@@Z 10023550 f i ConvexMeshBuilder.obj
 0001:000225a0       ??I?$PxFlags@W4Enum@PxConvexFlag@physx@@G@physx@@QBE?AV01@W4Enum@PxConvexFlag@1@@Z 100235a0 f i ConvexMeshBuilder.obj
 0001:000225f0       ??RPxMat33@physx@@QAEAAMII@Z 100235f0 f i ConvexMeshBuilder.obj
 0001:00022630       ??XPxVec3@physx@@QAEAAV01@M@Z 10023630 f i ConvexMeshBuilder.obj
 0001:00022690       ??_EConvexMeshBuilder@physx@@W7AEPAXI@Z 10023690 f i ConvexMeshBuilder.obj
 0001:000226a0       ??_GBigConvexData@physx@@QAEPAXI@Z 100236a0 f i ConvexMeshBuilder.obj
 0001:00022700       ??_GConvexMeshBuilder@physx@@UAEPAXI@Z 10023700 f i ConvexMeshBuilder.obj
 0001:00022700       ??_EConvexMeshBuilder@physx@@UAEPAXI@Z 10023700 f i ConvexMeshBuilder.obj
 0001:00022760       ?PxGetGaussMapVertexLimitForPlatform@physx@@YAIW4Enum@PxPlatform@1@@Z 10023760 f i ConvexMeshBuilder.obj
 0001:00022820       ?allocate@?$ReflectionAllocator@VBigConvexData@physx@@@shdfnd@physx@@QAEPAXIPBDH@Z 10023820 f i ConvexMeshBuilder.obj
 0001:00022890       ?getName@?$ReflectionAllocator@VBigConvexData@physx@@@shdfnd@physx@@CAPBDXZ 10023890 f i ConvexMeshBuilder.obj
 0001:000228e0       ?getOriginInertia@PxIntegrals@physx@@QAEXAAVPxMat33@2@@Z 100238e0 f i ConvexMeshBuilder.obj
 0001:00022980       ?isReleasable@PxBase@physx@@UBE_NXZ 10023980 f i ConvexMeshBuilder.obj
 0001:000229c0       ?isValid@PxConvexMeshDesc@physx@@QBE_NXZ 100239c0 f i ConvexMeshBuilder.obj
 0001:00022be0       ?largestAxis@shdfnd@physx@@YAIABVPxVec3@2@@Z 10023be0 f i ConvexMeshBuilder.obj
 0001:00022c60       ?markSerializedMem@Cm@physx@@YAXPAXI@Z 10023c60 f i ConvexMeshBuilder.obj
 0001:00022ca0       ?requires@ConvexMesh@Gu@physx@@UAEXAAVPxProcessPxBaseCallback@3@@Z 10023ca0 f i ConvexMeshBuilder.obj
 0001:00022cb0       ??0HullLibrary@physx@@QAE@XZ 10023cb0 f   hulllib.obj
 0001:00022d20       ??1HullLibrary@physx@@QAE@XZ 10023d20 f   hulllib.obj
 0001:00022d70       ?CreateConvexHull@HullLibrary@physx@@QAE?AW4HullError@2@ABVHullDesc@2@AAVHullResult@2@@Z 10023d70 f   hulllib.obj
 0001:00023420       ?ReleaseResult@HullLibrary@physx@@QAE?AW4HullError@2@AAVHullResult@2@@Z 10024420 f   hulllib.obj
 0001:000234c0       ?CreateTriangleMesh@HullLibrary@physx@@QAE?AW4HullError@2@AAVHullResult@2@PAVConvexHullTriangleInterface@2@@Z 100244c0 f   hulllib.obj
 0001:00023640       ?b2bfix@HullLibrary@physx@@AAEXPAVTri@2@0@Z 10024640 f   hulllib.obj
 0001:00023870       ?removeb2b@HullLibrary@physx@@AAEXPAVTri@2@0@Z 10024870 f   hulllib.obj
 0001:000238c0       ?checkit@HullLibrary@physx@@ABEXPAVTri@2@@Z 100248c0 f   hulllib.obj
 0001:00023a80       ?extrude@HullLibrary@physx@@AAEXPAVTri@2@H@Z 10024a80 f   hulllib.obj
 0001:000240a0       ?extrudable@HullLibrary@physx@@ABEPAVTri@2@M@Z 100250a0 f   hulllib.obj
 0001:00024160       ?calchullgen@HullLibrary@physx@@AAE?AW4HullError@2@PAVfloat3@2@HHM@Z 10025160 f   hulllib.obj
 0001:00025210       ?calchull@HullLibrary@physx@@AAE?AW4HullError@2@PAVfloat3@2@HAAPAHAAHAAPAV42@2HM@Z 10026210 f   hulllib.obj
 0001:000254f0       ?expandhull@HullLibrary@physx@@AAE?AW4HullError@2@PAVfloat3@2@HAAPAV42@AAHM@Z 100264f0 f   hulllib.obj
 0001:000260b0       ?calchullpbev@HullLibrary@physx@@AAE?AW4HullError@2@PAVfloat3@2@HHAAV?$Array@VPlane@physx@@@hullLibArray@2@M@Z 100270b0 f   hulllib.obj
 0001:00026c00       ?ComputeHull@HullLibrary@physx@@AAE?AW4HullError@2@IPBMAAVPHullResult@2@IMM@Z 10027c00 f   hulllib.obj
 0001:00026ef0       ?overhullv@HullLibrary@physx@@AAE?AW4HullError@2@PAVfloat3@2@HHAAPAV42@AAHAAPAH2MMHM@Z 10027ef0 f   hulllib.obj
 0001:00027d40       ??0ConvexH@physx@@QAE@HHH@Z 10028d40 f   hulllib.obj
 0001:0002b2b0       ?neib@Tri@physx@@QAEAAHHH@Z 1002c2b0 f   hulllib.obj
 0001:00030a60       ??$?2V?$ReflectionAllocator@VConvexH@physx@@@shdfnd@physx@@@UserAllocated@shdfnd@physx@@SAPAXIV?$ReflectionAllocator@VConvexH@physx@@@12@PBDH@Z 10031a60 f i hulllib.obj
 0001:00030a80       ??$?2V?$ReflectionAllocator@VTri@physx@@@shdfnd@physx@@@UserAllocated@shdfnd@physx@@SAPAXIV?$ReflectionAllocator@VTri@physx@@@12@PBDH@Z 10031a80 f i hulllib.obj
 0001:00030aa0       ??$?_UM@@YAPAXIV?$ReflectionAllocator@M@shdfnd@physx@@PBDH@Z 10031aa0 f i hulllib.obj
 0001:00030ac0       ??$Max@M@physx@@YAMABM0@Z  10031ac0 f i hulllib.obj
 0001:00030b10       ??$Min@H@physx@@YAHABH0@Z  10031b10 f i hulllib.obj
 0001:00030b50       ??$Min@M@physx@@YAMABM0@Z  10031b50 f i hulllib.obj
 0001:00030ba0       ??$Swap@H@physx@@YAXAAH0@Z 10031ba0 f i hulllib.obj
 0001:00030bd0       ??$maxdir@Vfloat3@physx@@@physx@@YAHPBVfloat3@0@HABV10@@Z 10031bd0 f i hulllib.obj
 0001:00030cc0       ??$maxdirfiltered@Vfloat3@physx@@@physx@@YAHPBVfloat3@0@HABV10@PA_N@Z 10031cc0 f i hulllib.obj
 0001:00030e10       ??$maxdirsterid@Vfloat3@physx@@@physx@@YAHPBVfloat3@0@HABV10@AAV?$Array@H@hullLibArray@0@@Z 10031e10 f i hulllib.obj
 0001:000313b0       ??0?$Array@H@hullLibArray@physx@@QAE@H@Z 100323b0 f i hulllib.obj
 0001:00031400       ??0?$Array@PAVTri@physx@@@hullLibArray@physx@@QAE@H@Z 10032400 f i hulllib.obj
 0001:00031450       ??0?$Array@UExpandPlane@physx@@@hullLibArray@physx@@QAE@H@Z 10032450 f i hulllib.obj
 0001:000314a0       ??0?$Array@VHalfEdge@ConvexH@physx@@@hullLibArray@physx@@QAE@H@Z 100324a0 f i hulllib.obj
 0001:000314f0       ??0?$Array@VPlane@physx@@@hullLibArray@physx@@QAE@H@Z 100324f0 f i hulllib.obj
 0001:00031540       ??0?$Array@Vfloat3@physx@@@hullLibArray@physx@@QAE@H@Z 10032540 f i hulllib.obj
 0001:00031590       ??0?$Array@Vint3@physx@@@hullLibArray@physx@@QAE@H@Z 10032590 f i hulllib.obj
 0001:000315e0       ??0?$ReflectionAllocator@M@shdfnd@physx@@QAE@PBD@Z 100325e0 f i hulllib.obj
 0001:00031600       ??0?$ReflectionAllocator@VConvexH@physx@@@shdfnd@physx@@QAE@PBD@Z 10032600 f i hulllib.obj
 0001:00031620       ??0?$ReflectionAllocator@VTri@physx@@@shdfnd@physx@@QAE@PBD@Z 10032620 f i hulllib.obj
 0001:00031640       ??0?$ScopedPointer@_NVTempAllocator@shdfnd@physx@@@shdfnd@physx@@QAE@XZ 10032640 f i hulllib.obj
 0001:00031660       ??0ExpandPlane@physx@@QAE@XZ 10032660 f i hulllib.obj
 0001:000316f0       ??0HalfEdge@ConvexH@physx@@QAE@FEE@Z 100326f0 f i hulllib.obj
 0001:00031730       ??0HalfEdge@ConvexH@physx@@QAE@XZ 10032730 f i hulllib.obj
 0001:00031750       ??0PHullResult@physx@@QAE@XZ 10032750 f i hulllib.obj
 0001:000317a0       ??0Plane@physx@@QAE@ABVfloat3@1@M@Z 100327a0 f i hulllib.obj
 0001:000317e0       ??0Plane@physx@@QAE@XZ     100327e0 f i hulllib.obj
 0001:00031810       ??0Tri@physx@@QAE@HHHPAV?$Array@PAVTri@physx@@@hullLibArray@1@@Z 10032810 f i hulllib.obj
 0001:000318a0       ??0float3@physx@@QAE@MMM@Z 100328a0 f i hulllib.obj
 0001:000318f0       ??0float3@physx@@QAE@XZ    100328f0 f i hulllib.obj
 0001:00031930       ??0float3x3@physx@@QAE@Vfloat3@1@00@Z 10032930 f i hulllib.obj
 0001:000319a0       ??0float3x3@physx@@QAE@XZ  100329a0 f i hulllib.obj
 0001:000319e0       ??0int3@physx@@QAE@HHH@Z   100329e0 f i hulllib.obj
 0001:00031a20       ??0int4@physx@@QAE@HHHH@Z  10032a20 f i hulllib.obj
 0001:00031a60       ??1?$Array@H@hullLibArray@physx@@QAE@XZ 10032a60 f i hulllib.obj
 0001:00031ae0       ??1?$Array@PAVTri@physx@@@hullLibArray@physx@@QAE@XZ 10032ae0 f i hulllib.obj
 0001:00031b60       ??1?$Array@UExpandPlane@physx@@@hullLibArray@physx@@QAE@XZ 10032b60 f i hulllib.obj
 0001:00031be0       ??1?$Array@VHalfEdge@ConvexH@physx@@@hullLibArray@physx@@QAE@XZ 10032be0 f i hulllib.obj
 0001:00031c60       ??1?$Array@VPlane@physx@@@hullLibArray@physx@@QAE@XZ 10032c60 f i hulllib.obj
 0001:00031ce0       ??1?$Array@Vfloat3@physx@@@hullLibArray@physx@@QAE@XZ 10032ce0 f i hulllib.obj
 0001:00031d60       ??1?$Array@Vint3@physx@@@hullLibArray@physx@@QAE@XZ 10032d60 f i hulllib.obj
 0001:00031de0       ??1?$ScopedPointer@_NVTempAllocator@shdfnd@physx@@@shdfnd@physx@@QAE@XZ 10032de0 f i hulllib.obj
 0001:00031e10       ??1ConvexH@physx@@QAE@XZ   10032e10 f i hulllib.obj
 0001:00031e50       ??1Tri@physx@@IAE@XZ       10032e50 f i hulllib.obj
 0001:00031e60       ??8physx@@YAHABVPlane@0@0@Z 10032e60 f i hulllib.obj
 0001:00031ec0       ??8physx@@YAHABVfloat3@0@0@Z 10032ec0 f i hulllib.obj
 0001:00031f30       ??9physx@@YAHABVfloat3@0@0@Z 10032f30 f i hulllib.obj
 0001:00031fa0       ??A?$Array@H@hullLibArray@physx@@QAEAAHH@Z 10032fa0 f i hulllib.obj
 0001:00032020       ??A?$Array@PAVTri@physx@@@hullLibArray@physx@@QAEAAPAVTri@2@H@Z 10033020 f i hulllib.obj
 0001:000320a0       ??A?$Array@UExpandPlane@physx@@@hullLibArray@physx@@QAEAAUExpandPlane@2@H@Z 100330a0 f i hulllib.obj
 0001:00032120       ??A?$Array@VHalfEdge@ConvexH@physx@@@hullLibArray@physx@@QAEAAVHalfEdge@ConvexH@2@H@Z 10033120 f i hulllib.obj
 0001:000321a0       ??A?$Array@VPlane@physx@@@hullLibArray@physx@@QAEAAVPlane@2@H@Z 100331a0 f i hulllib.obj
 0001:00032220       ??A?$Array@Vfloat3@physx@@@hullLibArray@physx@@QAEAAVfloat3@2@H@Z 10033220 f i hulllib.obj
 0001:000322a0       ??Afloat3@physx@@QAEAAMH@Z 100332a0 f i hulllib.obj
 0001:00032320       ??Afloat3@physx@@QBEABMH@Z 10033320 f i hulllib.obj
 0001:000323a0       ??Afloat3x3@physx@@QAEAAVfloat3@1@H@Z 100333a0 f i hulllib.obj
 0001:00032420       ??Afloat3x3@physx@@QBEABVfloat3@1@H@Z 10033420 f i hulllib.obj
 0001:000324a0       ??Aint3@physx@@QAEAAHH@Z   100334a0 f i hulllib.obj
 0001:000324c0       ??Aint3@physx@@QBEABHH@Z   100334c0 f i hulllib.obj
 0001:000324e0       ??Aint4@physx@@QAEAAHH@Z   100334e0 f i hulllib.obj
 0001:00032500       ??B?$ScopedPointer@_NVTempAllocator@shdfnd@physx@@@shdfnd@physx@@QBEPA_NXZ 10033500 f i hulllib.obj
 0001:00032520       ??_G?$Array@PAVTri@physx@@@hullLibArray@physx@@QAEPAXI@Z 10033520 f i hulllib.obj
 0001:00032560       ??_GConvexH@physx@@QAEPAXI@Z 10033560 f i hulllib.obj
 0001:000325c0       ??_GTri@physx@@IAEPAXI@Z   100335c0 f i hulllib.obj
 0001:00032620       ?Add@?$Array@H@hullLibArray@physx@@QAEAAHH@Z 10033620 f i hulllib.obj
 0001:00032710       ?Add@?$Array@PAVTri@physx@@@hullLibArray@physx@@QAEAAPAVTri@3@PAV43@@Z 10033710 f i hulllib.obj
 0001:00032800       ?Add@?$Array@UExpandPlane@physx@@@hullLibArray@physx@@QAEAAUExpandPlane@3@U43@@Z 10033800 f i hulllib.obj
 0001:00032900       ?Add@?$Array@VPlane@physx@@@hullLibArray@physx@@QAEAAVPlane@3@V43@@Z 10033900 f i hulllib.obj
 0001:00032a10       ?Add@?$Array@Vfloat3@physx@@@hullLibArray@physx@@QAEAAVfloat3@3@V43@@Z 10033a10 f i hulllib.obj
 0001:00032b10       ?Add@?$Array@Vint3@physx@@@hullLibArray@physx@@QAEAAVint3@3@V43@@Z 10033b10 f i hulllib.obj
 0001:00032c10       ?HasHullFlag@HullDesc@physx@@QBE_NW4HullFlag@2@@Z 10033c10 f i hulllib.obj
 0001:00032c50       ?PxMemSet@physx@@YAPAXPIAXHI@Z 10033c50 f i hulllib.obj
 0001:00032c70       ?SetSize@?$Array@PAVTri@physx@@@hullLibArray@physx@@QAEXH@Z 10033c70 f i hulllib.obj
 0001:00032d00       ?SetSize@?$Array@Vint3@physx@@@hullLibArray@physx@@QAEXH@Z 10033d00 f i hulllib.obj
 0001:00032d90       ?allocate@?$Array@H@hullLibArray@physx@@QAEXH@Z 10033d90 f i hulllib.obj
 0001:00032f90       ?allocate@?$Array@PAVTri@physx@@@hullLibArray@physx@@QAEXH@Z 10033f90 f i hulllib.obj
 0001:00033190       ?allocate@?$Array@UExpandPlane@physx@@@hullLibArray@physx@@QAEXH@Z 10034190 f i hulllib.obj
 0001:00033390       ?allocate@?$Array@VHalfEdge@ConvexH@physx@@@hullLibArray@physx@@QAEXH@Z 10034390 f i hulllib.obj
 0001:00033590       ?allocate@?$Array@VPlane@physx@@@hullLibArray@physx@@QAEXH@Z 10034590 f i hulllib.obj
 0001:000337b0       ?allocate@?$Array@Vfloat3@physx@@@hullLibArray@physx@@QAEXH@Z 100347b0 f i hulllib.obj
 0001:000339c0       ?allocate@?$Array@Vint3@physx@@@hullLibArray@physx@@QAEXH@Z 100349c0 f i hulllib.obj
 0001:00033bd0       ?allocate@?$ReflectionAllocator@M@shdfnd@physx@@QAEPAXIPBDH@Z 10034bd0 f i hulllib.obj
 0001:00033c40       ?allocate@?$ReflectionAllocator@VConvexH@physx@@@shdfnd@physx@@QAEPAXIPBDH@Z 10034c40 f i hulllib.obj
 0001:00033cb0       ?allocate@?$ReflectionAllocator@VTri@physx@@@shdfnd@physx@@QAEPAXIPBDH@Z 10034cb0 f i hulllib.obj
 0001:00033d20       ?distance@Plane@physx@@QBEMABVfloat3@2@@Z 10034d20 f i hulllib.obj
 0001:00033d90       ?getName@?$ReflectionAllocator@M@shdfnd@physx@@CAPBDXZ 10034d90 f i hulllib.obj
 0001:00033de0       ?getName@?$ReflectionAllocator@VConvexH@physx@@@shdfnd@physx@@CAPBDXZ 10034de0 f i hulllib.obj
 0001:00033e30       ?getName@?$ReflectionAllocator@VTri@physx@@@shdfnd@physx@@CAPBDXZ 10034e30 f i hulllib.obj
 0001:00033e80       ?memSet@intrinsics@physx@@YAPAXPIAXHI@Z 10034e80 f i hulllib.obj
 0001:00033ea0       ?to8@shdfnd@physx@@YAEG@Z  10034ea0 f i hulllib.obj
 0001:00033f10       ___local_stdio_printf_options 10034f10 f i hulllib.obj
 0001:00033f20       __vfprintf_l               10034f20 f i hulllib.obj
 0001:00033f60       _cosf                      10034f60 f i hulllib.obj
 0001:00033f90       _printf                    10034f90 f i hulllib.obj
 0001:00033ff0       _sinf                      10034ff0 f i hulllib.obj
 0001:00034070       ?computeVolumeIntegrals@physx@@YA_NABVPxSimpleTriangleMesh@1@MAAUPxIntegrals@1@@Z 10035070 f   VolumeIntegration.obj
 0001:000340d0       ?computeVolumeIntegralsEberly@physx@@YA_NABVPxSimpleTriangleMesh@1@MAAUPxIntegrals@1@ABVPxVec3@1@@Z 100350d0 f   VolumeIntegration.obj
 0001:00037a50       ??4?$PxFlags@W4Enum@PxMeshFlag@physx@@G@physx@@QAEAAV01@ABV01@@Z 10038a50 f i VolumeIntegration.obj
 0001:00037a80       ??4PxSimpleTriangleMesh@physx@@QAEAAV01@ABV01@@Z 10038a80 f i VolumeIntegration.obj
 0001:00037af0       ?isZero@PxVec3@physx@@QBE_NXZ 10038af0 f i VolumeIntegration.obj
 0001:00037b70       ?ComputeNbBoundaryEdges@AdjTriangle@physx@@QBEIXZ 10038b70 f   Adjacencies.obj
 0001:00037c00       ?ComputeNbNeighbors@AdjTriangle@physx@@QBEIXZ 10038c00 f   Adjacencies.obj
 0001:00037c90       ?HasNeighbor@AdjTriangle@physx@@QBE_NIPAI@Z 10038c90 f   Adjacencies.obj
 0001:00037d80       ?Flip@AdjTriangle@physx@@QAEXXZ 10038d80 f   Adjacencies.obj
 0001:00037db0       ??0Adjacencies@physx@@QAE@XZ 10038db0 f   Adjacencies.obj
 0001:00037de0       ??1Adjacencies@physx@@QAE@XZ 10038de0 f   Adjacencies.obj
 0001:00037e20       ?Load@Adjacencies@physx@@QAE_NAAVPxInputStream@2@@Z 10038e20 f   Adjacencies.obj
 0001:00037f30       ?Walk@Adjacencies@physx@@QAE_NP6AXABUCommonWalkParams@2@IIII@ZPAX@Z 10038f30 f   Adjacencies.obj
 0001:00038050       ?Walk2@Adjacencies@physx@@QAE_NP6AXABUCommonWalkParams@2@IIII@ZPAXPBVPxVec3@2@PBU?$TriangleT@I@Gu@2@@Z 10039050 f   Adjacencies.obj
 0001:000381b0       ?ComputeNbBoundaryEdges@Adjacencies@physx@@QBEIXZ 100391b0 f   Adjacencies.obj
 0001:00038210       ?GetBoundaryVertices@Adjacencies@physx@@QBE_NIPA_NPBU?$TriangleT@I@Gu@2@@Z 10039210 f   Adjacencies.obj
 0001:00038430       ?MakeLastRef@Adjacencies@physx@@QAE_NAAVAdjTriangle@2@IPAU?$TriangleT@I@Gu@2@@Z 10039430 f   Adjacencies.obj
 0001:000386b0       ?AssignNewEdgeCode@Adjacencies@physx@@AAEXIE@Z 100396b0 f   Adjacencies.obj
 0001:00038730       ??0AdjacenciesBuilder@physx@@QAE@XZ 10039730 f   Adjacencies.obj
 0001:00038750       ??1AdjacenciesBuilder@physx@@QAE@XZ 10039750 f   Adjacencies.obj
 0001:00038770       ?Init@AdjacenciesBuilder@physx@@QAE_NABUADJACENCIESCREATE@2@@Z 10039770 f   Adjacencies.obj
 0001:0003a1a0       ??$?_UV?$ReflectionAllocator@VAdjEdge@@@shdfnd@physx@@@UserAllocated@shdfnd@physx@@SAPAXIV?$ReflectionAllocator@VAdjEdge@@@12@PBDH@Z 1003b1a0 f i Adjacencies.obj
 0001:0003a1c0       ??$?_UV?$ReflectionAllocator@VAdjTriangle@physx@@@shdfnd@physx@@@UserAllocated@shdfnd@physx@@SAPAXIV?$ReflectionAllocator@VAdjTriangle@physx@@@12@PBDH@Z 1003b1c0 f i Adjacencies.obj
 0001:0003a1e0       ??$swap@M@shdfnd@physx@@YAXAAM0@Z 1003b1e0 f i Adjacencies.obj
 0001:0003a220       ??0?$ReflectionAllocator@VAdjEdge@@@shdfnd@physx@@QAE@PBD@Z 1003b220 f i Adjacencies.obj
 0001:0003a240       ??0?$ReflectionAllocator@VAdjTriangle@physx@@@shdfnd@physx@@QAE@PBD@Z 1003b240 f i Adjacencies.obj
 0001:0003a260       ??0?$TriangleT@I@Gu@physx@@QAE@XZ 1003b260 f i Adjacencies.obj
 0001:0003a280       ??0AdjEdge@@QAE@XZ         1003b280 f i Adjacencies.obj
 0001:0003a2a0       ??0AdjTriangle@physx@@QAE@XZ 1003b2a0 f i Adjacencies.obj
 0001:0003a2c0       ??1AdjEdge@@QAE@XZ         1003b2c0 f i Adjacencies.obj
 0001:0003a2d0       ??1AdjTriangle@physx@@QAE@XZ 1003b2d0 f i Adjacencies.obj
 0001:0003a2e0       ??_EAdjEdge@@QAEPAXI@Z     1003b2e0 f i Adjacencies.obj
 0001:0003a3c0       ??_EAdjTriangle@physx@@QAEPAXI@Z 1003b3c0 f i Adjacencies.obj
 0001:0003a4a0       ??_I@YGXPAXIIP6EX0@Z@Z     1003b4a0 f i Adjacencies.obj
 0001:0003a500       ??_VUserAllocated@shdfnd@physx@@SAXPAX@Z 1003b500 f i Adjacencies.obj
 0001:0003a530       ?GetEdgeTriangle@EdgeList@Gu@physx@@QBEABUEdgeTriangleData@23@I@Z 1003b530 f i Adjacencies.obj
 0001:0003a550       ?HasActiveEdge01@EdgeTriangleAC@Gu@physx@@SAHABUEdgeTriangleData@23@@Z 1003b550 f i Adjacencies.obj
 0001:0003a570       ?HasActiveEdge12@EdgeTriangleAC@Gu@physx@@SAHABUEdgeTriangleData@23@@Z 1003b570 f i Adjacencies.obj
 0001:0003a590       ?HasActiveEdge20@EdgeTriangleAC@Gu@physx@@SAHABUEdgeTriangleData@23@@Z 1003b590 f i Adjacencies.obj
 0001:0003a5b0       ?allocate@?$ReflectionAllocator@VAdjEdge@@@shdfnd@physx@@QAEPAXIPBDH@Z 1003b5b0 f i Adjacencies.obj
 0001:0003a620       ?allocate@?$ReflectionAllocator@VAdjTriangle@physx@@@shdfnd@physx@@QAEPAXIPBDH@Z 1003b620 f i Adjacencies.obj
 0001:0003a690       ?findEdge@?$TriangleT@I@Gu@physx@@QBEEII@Z 1003b690 f i Adjacencies.obj
 0001:0003a800       ?getName@?$ReflectionAllocator@VAdjEdge@@@shdfnd@physx@@CAPBDXZ 1003b800 f i Adjacencies.obj
 0001:0003a850       ?getName@?$ReflectionAllocator@VAdjTriangle@physx@@@shdfnd@physx@@CAPBDXZ 1003b850 f i Adjacencies.obj
 0001:0003a8a0       _PxCreateCooking           1003b8a0 f   Cooking.obj
 0001:0003a950       ?release@Cooking@physx@@UAEXXZ 1003b950 f   Cooking.obj
 0001:0003a990       ?setParams@Cooking@physx@@UAEXABUPxCookingParams@2@@Z 1003b990 f   Cooking.obj
 0001:0003a9b0       ?getParams@Cooking@physx@@UAEABUPxCookingParams@2@XZ 1003b9b0 f   Cooking.obj
 0001:0003a9d0       ?platformMismatch@Cooking@physx@@UAE_NXZ 1003b9d0 f   Cooking.obj
 0001:0003ab00       ?cookTriangleMesh@Cooking@physx@@UAE_NABVPxTriangleMeshDesc@2@AAVPxOutputStream@2@@Z 1003bb00 f   Cooking.obj
 0001:0003ac60       ?createTriangleMesh@Cooking@physx@@UAEPAVPxTriangleMesh@2@ABVPxTriangleMeshDesc@2@AAVPxPhysicsInsertionCallback@2@@Z 1003bc60 f   Cooking.obj
 0001:0003ae10       ?validateTriangleMesh@Cooking@physx@@UAE_NABVPxTriangleMeshDesc@2@@Z 1003be10 f   Cooking.obj
 0001:0003aeb0       ?cookConvexMesh@Cooking@physx@@UAE_NABVPxConvexMeshDesc@2@AAVPxOutputStream@2@PAW4Enum@PxConvexMeshCookingResult@2@@Z 1003beb0 f   Cooking.obj
 0001:0003b380       ?computeHullPolygons@Cooking@physx@@UAE_NABVPxSimpleTriangleMesh@2@AAVPxAllocatorCallback@2@AAIAAPAVPxVec3@2@2AAPAI2AAPAUPxHullPolygon@2@@Z 1003c380 f   Cooking.obj
 0001:0003b540       ?cookHeightField@Cooking@physx@@UAE_NABVPxHeightFieldDesc@2@AAVPxOutputStream@2@@Z 1003c540 f   Cooking.obj
 0001:0003b730       ?createHeightField@Cooking@physx@@UAEPAVPxHeightField@2@ABVPxHeightFieldDesc@2@AAVPxPhysicsInsertionCallback@2@@Z 1003c730 f   Cooking.obj
 0001:0003b900       ?loadTriangleMeshDesc@Cooking@physx@@AAE_NABVPxTriangleMeshDesc@2@AAVTriangleMeshBuilder@2@@Z 1003c900 f   Cooking.obj
 0001:0003be20       ??$?2V?$ReflectionAllocator@VCooking@physx@@@shdfnd@physx@@@UserAllocated@shdfnd@physx@@SAPAXIV?$ReflectionAllocator@VCooking@physx@@@12@PBDH@Z 1003ce20 f i Cooking.obj
 0001:0003be40       ??$PX_UNUSED@VPxFoundation@physx@@@@YAXABVPxFoundation@physx@@@Z 1003ce40 f i Cooking.obj
 0001:0003be50       ??0?$PxFlags@W4Enum@PxConvexFlag@physx@@G@physx@@QAE@W4Enum@PxConvexFlag@1@@Z 1003ce50 f i Cooking.obj
 0001:0003be70       ??0?$PxFlags@W4Enum@PxConvexFlag@physx@@G@physx@@QAE@XZ 1003ce70 f i Cooking.obj
 0001:0003be90       ??0?$PxFlags@W4Enum@PxHeightFieldFlag@physx@@G@physx@@QAE@ABV01@@Z 1003ce90 f i Cooking.obj
 0001:0003bec0       ??0?$ReflectionAllocator@VCooking@physx@@@shdfnd@physx@@QAE@PBD@Z 1003cec0 f i Cooking.obj
 0001:0003bee0       ??0?$ReflectionAllocator@VHeightField@Gu@physx@@@shdfnd@physx@@QAE@PBD@Z 1003cee0 f i Cooking.obj
 0001:0003bf00       ??0?$ReflectionAllocator@VTriangleMeshBuilder@physx@@@shdfnd@physx@@QAE@PBD@Z 1003cf00 f i Cooking.obj
 0001:0003bf20       ??0Cooking@physx@@QAE@ABUPxCookingParams@1@@Z 1003cf20 f i Cooking.obj
 0001:0003bf70       ??0HullDesc@physx@@QAE@XZ  1003cf70 f i Cooking.obj
 0001:0003bff0       ??0HullResult@physx@@QAE@XZ 1003cff0 f i Cooking.obj
 0001:0003c050       ??0PxConvexMeshDesc@physx@@QAE@ABV01@@Z 1003d050 f i Cooking.obj
 0001:0003c120       ??0PxCooking@physx@@QAE@XZ 1003d120 f i Cooking.obj
 0001:0003c140       ??0PxCookingParams@physx@@QAE@ABU01@@Z 1003d140 f i Cooking.obj
 0001:0003c210       ??0TriangleMeshBuilder@physx@@QAE@XZ 1003d210 f i Cooking.obj
 0001:0003c250       ??1Cooking@physx@@UAE@XZ   1003d250 f i Cooking.obj
 0001:0003c270       ??1PxCooking@physx@@MAE@XZ 1003d270 f i Cooking.obj
 0001:0003c290       ??1TriangleMeshBuilder@physx@@UAE@XZ 1003d290 f i Cooking.obj
 0001:0003c2b0       ??4?$PxFlags@W4Enum@PxMeshPreprocessingFlag@physx@@I@physx@@QAEAAV01@ABV01@@Z 1003d2b0 f i Cooking.obj
 0001:0003c2d0       ??4PxCookingParams@physx@@QAEAAU01@ABU01@@Z 1003d2d0 f i Cooking.obj
 0001:0003c3a0       ??9?$PxFlags@W4Enum@PxHeightFieldFlag@physx@@G@physx@@QBE_NABV01@@Z 1003d3a0 f i Cooking.obj
 0001:0003c3e0       ??I?$PxFlags@W4Enum@PxHeightFieldFlag@physx@@G@physx@@QBE?AV01@W4Enum@PxHeightFieldFlag@1@@Z 1003d3e0 f i Cooking.obj
 0001:0003c430       ??S?$PxFlags@W4Enum@PxConvexFlag@physx@@G@physx@@QBE?AV01@XZ 1003d430 f i Cooking.obj
 0001:0003c470       ??Sphysx@@YA?AV?$PxFlags@W4Enum@PxConvexFlag@physx@@G@0@W4Enum@PxConvexFlag@0@@Z 1003d470 f i Cooking.obj
 0001:0003c4b0       ??_4?$PxFlags@W4Enum@PxConvexFlag@physx@@G@physx@@QAEAAV01@ABV01@@Z 1003d4b0 f i Cooking.obj
 0001:0003c4dd       ??_ETriangleMeshBuilder@physx@@W7AEPAXI@Z 1003d4dd f i Cooking.obj
 0001:0003c4f0       ??_GCooking@physx@@UAEPAXI@Z 1003d4f0 f i Cooking.obj
 0001:0003c4f0       ??_ECooking@physx@@UAEPAXI@Z 1003d4f0 f i Cooking.obj
 0001:0003c550       ??_GPxCooking@physx@@MAEPAXI@Z 1003d550 f i Cooking.obj
 0001:0003c550       ??_EPxCooking@physx@@MAEPAXI@Z 1003d550 f i Cooking.obj
 0001:0003c590       ??_GTriangleMeshBuilder@physx@@UAEPAXI@Z 1003d590 f i Cooking.obj
 0001:0003c590       ??_ETriangleMeshBuilder@physx@@UAEPAXI@Z 1003d590 f i Cooking.obj
 0001:0003c5f0       ?allocate@?$ReflectionAllocator@VCooking@physx@@@shdfnd@physx@@QAEPAXIPBDH@Z 1003d5f0 f i Cooking.obj
 0001:0003c660       ?allocate@?$ReflectionAllocator@VHeightField@Gu@physx@@@shdfnd@physx@@QAEPAXIPBDH@Z 1003d660 f i Cooking.obj
 0001:0003c6d0       ?allocate@?$ReflectionAllocator@VTriangleMeshBuilder@physx@@@shdfnd@physx@@QAEPAXIPBDH@Z 1003d6d0 f i Cooking.obj
 0001:0003c740       ?getName@?$ReflectionAllocator@VCooking@physx@@@shdfnd@physx@@CAPBDXZ 1003d740 f i Cooking.obj
 0001:0003c790       ?getName@?$ReflectionAllocator@VHeightField@Gu@physx@@@shdfnd@physx@@CAPBDXZ 1003d790 f i Cooking.obj
 0001:0003c7e0       ?getName@?$ReflectionAllocator@VTriangleMeshBuilder@physx@@@shdfnd@physx@@CAPBDXZ 1003d7e0 f i Cooking.obj
 0001:0003c830       ?isValid@PxHeightFieldDesc@physx@@QBE_NXZ 1003d830 f i Cooking.obj
 0001:0003c920       ?littleEndian@shdfnd@physx@@YADXZ 1003d920 f i Cooking.obj
 0001:0003c940       ?requires@TriangleMesh@Gu@physx@@UAEXAAVPxProcessPxBaseCallback@3@@Z 1003d940 f i Cooking.obj
 0001:0003c950       ??0ReducedVertexCloud@physx@@QAE@PBVPxVec3@1@I@Z 1003d950 f   CookingUtils.obj
 0001:0003c990       ??1ReducedVertexCloud@physx@@QAE@XZ 1003d990 f   CookingUtils.obj
 0001:0003c9b0       ?Clean@ReducedVertexCloud@physx@@QAEAAV12@XZ 1003d9b0 f   CookingUtils.obj
 0001:0003ca20       ?Reduce@ReducedVertexCloud@physx@@QAE_NPAUREDUCEDCLOUD@2@@Z 1003da20 f   CookingUtils.obj
 0001:0003ce70       ??0EdgeList@Gu@physx@@QAE@XZ 1003de70 f   EdgeList.obj
 0001:0003ceb0       ??1EdgeList@Gu@physx@@QAE@XZ 1003deb0 f   EdgeList.obj
 0001:0003cf80       ?Load@EdgeList@Gu@physx@@QAE_NAAVPxInputStream@3@@Z 1003df80 f   EdgeList.obj
 0001:0003d180       ??0EdgeListBuilder@Gu@physx@@QAE@XZ 1003e180 f   EdgeList.obj
 0001:0003d1a0       ??1EdgeListBuilder@Gu@physx@@QAE@XZ 1003e1a0 f   EdgeList.obj
 0001:0003d1c0       ?Init@EdgeListBuilder@Gu@physx@@QAE_NABUEDGELISTCREATE@23@@Z 1003e1c0 f   EdgeList.obj
 0001:0003d360       ?CreateFacesToEdges@EdgeListBuilder@Gu@physx@@AAE_NIPBIPBG@Z 1003e360 f   EdgeList.obj
 0001:0003d8a0       ?CreateEdgesToFaces@EdgeListBuilder@Gu@physx@@AAE_NIPBIPBG@Z 1003e8a0 f   EdgeList.obj
 0001:0003dcc0       ?ComputeActiveEdges@EdgeListBuilder@Gu@physx@@AAE_NIPBIPBGPBVPxVec3@3@M@Z 1003ecc0 f   EdgeList.obj
 0001:0003f7f0       ??$?_UUEdgeData@Gu@physx@@@@YAPAXIV?$ReflectionAllocator@UEdgeData@Gu@physx@@@shdfnd@physx@@PBDH@Z 100407f0 f i EdgeList.obj
 0001:0003f810       ??$?_UUEdgeTriangleData@Gu@physx@@@@YAPAXIV?$ReflectionAllocator@UEdgeTriangleData@Gu@physx@@@shdfnd@physx@@PBDH@Z 10040810 f i EdgeList.obj
 0001:0003f830       ??0?$ReflectionAllocator@UEdgeData@Gu@physx@@@shdfnd@physx@@QAE@PBD@Z 10040830 f i EdgeList.obj
 0001:0003f850       ??0?$ReflectionAllocator@UEdgeTriangleData@Gu@physx@@@shdfnd@physx@@QAE@PBD@Z 10040850 f i EdgeList.obj
 0001:0003f870       ??0PxTriangle@physx@@QAE@ABVPxVec3@1@00@Z 10040870 f i EdgeList.obj
 0001:0003f8f0       ??1PxTriangle@physx@@QAE@XZ 100408f0 f i EdgeList.obj
 0001:0003f900       ?GetEdgeToTriangles@EdgeList@Gu@physx@@QBEPBUEdgeDescData@23@XZ 10040900 f i EdgeList.obj
 0001:0003f920       ?GetEdges@EdgeList@Gu@physx@@QBEPBUEdgeData@23@XZ 10040920 f i EdgeList.obj
 0001:0003f940       ?GetFacesByEdges@EdgeList@Gu@physx@@QBEPBIXZ 10040940 f i EdgeList.obj
 0001:0003f960       ?OppositeVertex@@YAIIIIII@Z 10040960 f i EdgeList.obj
 0001:0003fa00       ?PxAtan2@physx@@YAMMM@Z    10040a00 f i EdgeList.obj
 0001:0003fa30       ?allocate@?$ReflectionAllocator@UEdgeData@Gu@physx@@@shdfnd@physx@@QAEPAXIPBDH@Z 10040a30 f i EdgeList.obj
 0001:0003faa0       ?allocate@?$ReflectionAllocator@UEdgeTriangleData@Gu@physx@@@shdfnd@physx@@QAEPAXIPBDH@Z 10040aa0 f i EdgeList.obj
 0001:0003fb10       ?angle@shdfnd@physx@@YAMABVPxVec3@2@0@Z 10040b10 f i EdgeList.obj
 0001:0003fb80       ?getName@?$ReflectionAllocator@UEdgeData@Gu@physx@@@shdfnd@physx@@CAPBDXZ 10040b80 f i EdgeList.obj
 0001:0003fbd0       ?getName@?$ReflectionAllocator@UEdgeTriangleData@Gu@physx@@@shdfnd@physx@@CAPBDXZ 10040bd0 f i EdgeList.obj
 0001:0003fc20       ?normal@PxTriangle@physx@@QBEXAAVPxVec3@2@@Z 10040c20 f i EdgeList.obj
 0001:0003fcd0       _atan2f                    10040cd0 f i EdgeList.obj
 0001:0003fd10       ??0InternalTriangleMeshBuilder@physx@@QAE@PAVInternalTriangleMesh@1@ABUPxCookingParams@1@@Z 10040d10 f   InternalTriangleMeshBuilder.obj
 0001:0003fd40       ??1InternalTriangleMeshBuilder@physx@@QAE@XZ 10040d40 f   InternalTriangleMeshBuilder.obj
 0001:0003fd60       ?cleanMesh@InternalTriangleMeshBuilder@physx@@QAE_N_N@Z 10040d60 f   InternalTriangleMeshBuilder.obj
 0001:000403b0       ?fillRemapTable@InternalTriangleMeshBuilder@physx@@QAEXXZ 100413b0 f   InternalTriangleMeshBuilder.obj
 0001:00040490       ?remapTopology@InternalTriangleMeshBuilder@physx@@QAEXPBI@Z 10041490 f   InternalTriangleMeshBuilder.obj
 0001:000407a0       ?createRTree@InternalTriangleMeshBuilder@physx@@QAE_NXZ 100417a0 f   InternalTriangleMeshBuilder.obj
 0001:00040910       ?createSharedEdgeData@InternalTriangleMeshBuilder@physx@@QAEX_N0@Z 10041910 f   InternalTriangleMeshBuilder.obj
 0001:00041010       ?releaseEdgeList@InternalTriangleMeshBuilder@physx@@AAEXXZ 10042010 f   InternalTriangleMeshBuilder.obj
 0001:00041050       ?createEdgeList@InternalTriangleMeshBuilder@physx@@AAEXXZ 10042050 f   InternalTriangleMeshBuilder.obj
 0001:00041670       ??$?2V?$ReflectionAllocator@VEdgeListBuilder@Gu@physx@@@shdfnd@physx@@@UserAllocated@shdfnd@physx@@SAPAXIV?$ReflectionAllocator@VEdgeListBuilder@Gu@physx@@@12@PBDH@Z 10042670 f i InternalTriangleMeshBuilder.obj
 0001:00041690       ??$PX_UNUSED@U?$TriangleT@I@Gu@physx@@@@YAXABU?$TriangleT@I@Gu@physx@@@Z 10042690 f i InternalTriangleMeshBuilder.obj
 0001:000416a0       ??0?$Array@IVNamedAllocator@shdfnd@physx@@@shdfnd@physx@@QAE@ABVNamedAllocator@12@@Z 100426a0 f i InternalTriangleMeshBuilder.obj
 0001:000416f0       ??0?$ReflectionAllocator@VEdgeListBuilder@Gu@physx@@@shdfnd@physx@@QAE@PBD@Z 100426f0 f i InternalTriangleMeshBuilder.obj
 0001:00041710       ??0RTreeCookerRemap@@QAE@I@Z 10042710 f i InternalTriangleMeshBuilder.obj
 0001:00041750       ??0RemapCallback@RTreeCooker@physx@@QAE@XZ 10042750 f i InternalTriangleMeshBuilder.obj
 0001:00041770       ??1RTreeCookerRemap@@UAE@XZ 10042770 f i InternalTriangleMeshBuilder.obj
 0001:00041790       ??1RemapCallback@RTreeCooker@physx@@UAE@XZ 10042790 f i InternalTriangleMeshBuilder.obj
 0001:000417b0       ??_GEdgeListBuilder@Gu@physx@@QAEPAXI@Z 100427b0 f i InternalTriangleMeshBuilder.obj
 0001:00041810       ??_GRTreeCookerRemap@@UAEPAXI@Z 10042810 f i InternalTriangleMeshBuilder.obj
 0001:00041810       ??_ERTreeCookerRemap@@UAEPAXI@Z 10042810 f i InternalTriangleMeshBuilder.obj
 0001:00041850       ??_ERemapCallback@RTreeCooker@physx@@UAEPAXI@Z 10042850 f i InternalTriangleMeshBuilder.obj
 0001:00041850       ??_GRemapCallback@RTreeCooker@physx@@UAEPAXI@Z 10042850 f i InternalTriangleMeshBuilder.obj
 0001:00041890       ?GetNbFaces@EdgeList@Gu@physx@@QBEIXZ 10042890 f i InternalTriangleMeshBuilder.obj
 0001:000418b0       ?LeafSetData@Gu@physx@@YAIII@Z 100428b0 f i InternalTriangleMeshBuilder.obj
 0001:00041980       ?SetData@LeafTriangles@Gu@physx@@QAEXII@Z 10042980 f i InternalTriangleMeshBuilder.obj
 0001:000419b0       ?allocate@?$ReflectionAllocator@VEdgeListBuilder@Gu@physx@@@shdfnd@physx@@QAEPAXIPBDH@Z 100429b0 f i InternalTriangleMeshBuilder.obj
 0001:00041a20       ?findEdgeCCW@?$TriangleT@I@Gu@physx@@QBEEII@Z 10042a20 f i InternalTriangleMeshBuilder.obj
 0001:00041b90       ?getName@?$ReflectionAllocator@VEdgeListBuilder@Gu@physx@@@shdfnd@physx@@CAPBDXZ 10042b90 f i InternalTriangleMeshBuilder.obj
 0001:00041be0       ?remap@RTreeCookerRemap@@UAEXPAIII@Z 10042be0 f i InternalTriangleMeshBuilder.obj
 0001:00041da0       ??0MeshCleaner@physx@@QAE@IPBVPxVec3@1@IPBIM@Z 10042da0 f   MeshCleaner.obj
 0001:00042710       ??1MeshCleaner@physx@@QAE@XZ 10043710 f   MeshCleaner.obj
 0001:00042c50       ??9Indices@@QBE_NABU0@@Z   10043c50 f i MeshCleaner.obj
 0001:00042cf0       ??9PxVec3@physx@@QBE_NABV01@@Z 10043cf0 f i MeshCleaner.obj
 0001:00042d70       ?PxFloor@physx@@YAMM@Z     10043d70 f i MeshCleaner.obj
 0001:00042d90       ?nextPowerOfTwo@shdfnd@physx@@YAII@Z 10043d90 f i MeshCleaner.obj
 0001:00042df0       _floorf                    10043df0 f i MeshCleaner.obj
 0001:00042e1b       _GetModuleFileNameA@12     10043e1b f   kernel32:KERNEL32.dll
 0001:00042e21       _LoadLibraryA@4            10043e21 f   kernel32:KERNEL32.dll
 0001:00042e27       __imp_load_?writeWord@physx@@YAXG_NAAVPxOutputStream@1@@Z 10043e27 f   PhysX3CommonDEBUG_x86:PhysX3CommonDEBUG_x86.dll
 0001:00042e31       ?writeWord@physx@@YAXG_NAAVPxOutputStream@1@@Z 10043e31 f   PhysX3CommonDEBUG_x86:PhysX3CommonDEBUG_x86.dll
 0001:00042e37       __tailMerge_physx3commondebug_x86_dll 10043e37     PhysX3CommonDEBUG_x86:PhysX3CommonDEBUG_x86.dll
 0001:00042e48       __imp_load_?writeDword@physx@@YAXI_NAAVPxOutputStream@1@@Z 10043e48 f   PhysX3CommonDEBUG_x86:PhysX3CommonDEBUG_x86.dll
 0001:00042e52       ?writeDword@physx@@YAXI_NAAVPxOutputStream@1@@Z 10043e52 f   PhysX3CommonDEBUG_x86:PhysX3CommonDEBUG_x86.dll
 0001:00042e58       __imp_load_?writeFloat@physx@@YAXM_NAAVPxOutputStream@1@@Z 10043e58 f   PhysX3CommonDEBUG_x86:PhysX3CommonDEBUG_x86.dll
 0001:00042e62       ?writeFloat@physx@@YAXM_NAAVPxOutputStream@1@@Z 10043e62 f   PhysX3CommonDEBUG_x86:PhysX3CommonDEBUG_x86.dll
 0001:00042e68       __imp_load_?writeHeader@physx@@YA_NCCCCI_NAAVPxOutputStream@1@@Z 10043e68 f   PhysX3CommonDEBUG_x86:PhysX3CommonDEBUG_x86.dll
 0001:00042e72       ?writeHeader@physx@@YA_NCCCCI_NAAVPxOutputStream@1@@Z 10043e72 f   PhysX3CommonDEBUG_x86:PhysX3CommonDEBUG_x86.dll
 0001:00042e78       __imp_load_??0Allocator@shdfnd@physx@@QAE@PBD@Z 10043e78 f   PhysX3CommonDEBUG_x86:PhysX3CommonDEBUG_x86.dll
 0001:00042e82       ??0Allocator@shdfnd@physx@@QAE@PBD@Z 10043e82 f   PhysX3CommonDEBUG_x86:PhysX3CommonDEBUG_x86.dll
 0001:00042e88       __imp_load_?allocate@Allocator@shdfnd@physx@@QAEPAXIPBDH@Z 10043e88 f   PhysX3CommonDEBUG_x86:PhysX3CommonDEBUG_x86.dll
 0001:00042e92       ?allocate@Allocator@shdfnd@physx@@QAEPAXIPBDH@Z 10043e92 f   PhysX3CommonDEBUG_x86:PhysX3CommonDEBUG_x86.dll
 0001:00042e98       __imp_load_??0NamedAllocator@shdfnd@physx@@QAE@PBD@Z 10043e98 f   PhysX3CommonDEBUG_x86:PhysX3CommonDEBUG_x86.dll
 0001:00042ea2       ??0NamedAllocator@shdfnd@physx@@QAE@PBD@Z 10043ea2 f   PhysX3CommonDEBUG_x86:PhysX3CommonDEBUG_x86.dll
 0001:00042ea8       __imp_load_??0NamedAllocator@shdfnd@physx@@QAE@ABV012@@Z 10043ea8 f   PhysX3CommonDEBUG_x86:PhysX3CommonDEBUG_x86.dll
 0001:00042eb2       ??0NamedAllocator@shdfnd@physx@@QAE@ABV012@@Z 10043eb2 f   PhysX3CommonDEBUG_x86:PhysX3CommonDEBUG_x86.dll
 0001:00042eb8       __imp_load_??1NamedAllocator@shdfnd@physx@@QAE@XZ 10043eb8 f   PhysX3CommonDEBUG_x86:PhysX3CommonDEBUG_x86.dll
 0001:00042ec2       ??1NamedAllocator@shdfnd@physx@@QAE@XZ 10043ec2 f   PhysX3CommonDEBUG_x86:PhysX3CommonDEBUG_x86.dll
 0001:00042ec8       __imp_load_?allocate@NamedAllocator@shdfnd@physx@@QAEPAXIPBDH@Z 10043ec8 f   PhysX3CommonDEBUG_x86:PhysX3CommonDEBUG_x86.dll
 0001:00042ed2       ?allocate@NamedAllocator@shdfnd@physx@@QAEPAXIPBDH@Z 10043ed2 f   PhysX3CommonDEBUG_x86:PhysX3CommonDEBUG_x86.dll
 0001:00042ed8       __imp_load_?deallocate@NamedAllocator@shdfnd@physx@@QAEXPAX@Z 10043ed8 f   PhysX3CommonDEBUG_x86:PhysX3CommonDEBUG_x86.dll
 0001:00042ee2       ?deallocate@NamedAllocator@shdfnd@physx@@QAEXPAX@Z 10043ee2 f   PhysX3CommonDEBUG_x86:PhysX3CommonDEBUG_x86.dll
 0001:00042ee8       __imp_load_?PxGetAssertHandler@physx@@YAAAVPxAssertHandler@1@XZ 10043ee8 f   PhysX3CommonDEBUG_x86:PhysX3CommonDEBUG_x86.dll
 0001:00042ef2       ?PxGetAssertHandler@physx@@YAAAVPxAssertHandler@1@XZ 10043ef2 f   PhysX3CommonDEBUG_x86:PhysX3CommonDEBUG_x86.dll
 0001:00042ef8       __imp_load_?validate@RTree@Gu@physx@@QAEXXZ 10043ef8 f   PhysX3CommonDEBUG_x86:PhysX3CommonDEBUG_x86.dll
 0001:00042f02       ?validate@RTree@Gu@physx@@QAEXXZ 10043f02 f   PhysX3CommonDEBUG_x86:PhysX3CommonDEBUG_x86.dll
 0001:00042f08       __imp_load_??0TempAllocator@shdfnd@physx@@QAE@PBD@Z 10043f08 f   PhysX3CommonDEBUG_x86:PhysX3CommonDEBUG_x86.dll
 0001:00042f12       ??0TempAllocator@shdfnd@physx@@QAE@PBD@Z 10043f12 f   PhysX3CommonDEBUG_x86:PhysX3CommonDEBUG_x86.dll
 0001:00042f18       __imp_load_?allocate@TempAllocator@shdfnd@physx@@QAEPAXIPBDH@Z 10043f18 f   PhysX3CommonDEBUG_x86:PhysX3CommonDEBUG_x86.dll
 0001:00042f22       ?allocate@TempAllocator@shdfnd@physx@@QAEPAXIPBDH@Z 10043f22 f   PhysX3CommonDEBUG_x86:PhysX3CommonDEBUG_x86.dll
 0001:00042f28       __imp_load_?deallocate@TempAllocator@shdfnd@physx@@QAEXPAX@Z 10043f28 f   PhysX3CommonDEBUG_x86:PhysX3CommonDEBUG_x86.dll
 0001:00042f32       ?deallocate@TempAllocator@shdfnd@physx@@QAEXPAX@Z 10043f32 f   PhysX3CommonDEBUG_x86:PhysX3CommonDEBUG_x86.dll
 0001:00042f38       __imp_load_?computeBoundsAroundVertices@Gu@physx@@YAXAAVPxBounds3@2@IPIBVPxVec3@2@@Z 10043f38 f   PhysX3CommonDEBUG_x86:PhysX3CommonDEBUG_x86.dll
 0001:00042f42       ?computeBoundsAroundVertices@Gu@physx@@YAXAAVPxBounds3@2@IPIBVPxVec3@2@@Z 10043f42 f   PhysX3CommonDEBUG_x86:PhysX3CommonDEBUG_x86.dll
 0001:00042f48       __imp_load__PxGetFoundation 10043f48 f   PhysX3CommonDEBUG_x86:PhysX3CommonDEBUG_x86.dll
 0001:00042f52       _PxGetFoundation           10043f52 f   PhysX3CommonDEBUG_x86:PhysX3CommonDEBUG_x86.dll
 0001:00042f58       __imp_load_?getAllocator@shdfnd@physx@@YAAAVPxAllocatorCallback@2@XZ 10043f58 f   PhysX3CommonDEBUG_x86:PhysX3CommonDEBUG_x86.dll
 0001:00042f62       ?getAllocator@shdfnd@physx@@YAAAVPxAllocatorCallback@2@XZ 10043f62 f   PhysX3CommonDEBUG_x86:PhysX3CommonDEBUG_x86.dll
 0001:00042f68       __imp_load_?deallocate@Allocator@shdfnd@physx@@QAEXPAX@Z 10043f68 f   PhysX3CommonDEBUG_x86:PhysX3CommonDEBUG_x86.dll
 0001:00042f72       ?deallocate@Allocator@shdfnd@physx@@QAEXPAX@Z 10043f72 f   PhysX3CommonDEBUG_x86:PhysX3CommonDEBUG_x86.dll
 0001:00042f78       __imp_load_?getInstance@Foundation@shdfnd@physx@@SAAAV123@XZ 10043f78 f   PhysX3CommonDEBUG_x86:PhysX3CommonDEBUG_x86.dll
 0001:00042f82       ?getInstance@Foundation@shdfnd@physx@@SAAAV123@XZ 10043f82 f   PhysX3CommonDEBUG_x86:PhysX3CommonDEBUG_x86.dll
 0001:00042f88       __imp_load_?error@Foundation@shdfnd@physx@@QAAXW4Enum@PxErrorCode@3@PBDH1ZZ 10043f88 f   PhysX3CommonDEBUG_x86:PhysX3CommonDEBUG_x86.dll
 0001:00042f92       ?error@Foundation@shdfnd@physx@@QAAXW4Enum@PxErrorCode@3@PBDH1ZZ 10043f92 f   PhysX3CommonDEBUG_x86:PhysX3CommonDEBUG_x86.dll
 0001:00042f98       __imp_load_?save@RTree@Gu@physx@@QBE_NAAVPxOutputStream@3@@Z 10043f98 f   PhysX3CommonDEBUG_x86:PhysX3CommonDEBUG_x86.dll
 0001:00042fa2       ?save@RTree@Gu@physx@@QBE_NAAVPxOutputStream@3@@Z 10043fa2 f   PhysX3CommonDEBUG_x86:PhysX3CommonDEBUG_x86.dll
 0001:00042fa8       __imp_load_?release@InternalTriangleMesh@physx@@QAEXXZ 10043fa8 f   PhysX3CommonDEBUG_x86:PhysX3CommonDEBUG_x86.dll
 0001:00042fb2       ?release@InternalTriangleMesh@physx@@QAEXXZ 10043fb2 f   PhysX3CommonDEBUG_x86:PhysX3CommonDEBUG_x86.dll
 0001:00042fb8       __imp_load_?allocateVertices@InternalTriangleMesh@physx@@QAEPAVPxVec3@2@I@Z 10043fb8 f   PhysX3CommonDEBUG_x86:PhysX3CommonDEBUG_x86.dll
 0001:00042fc2       ?allocateVertices@InternalTriangleMesh@physx@@QAEPAVPxVec3@2@I@Z 10043fc2 f   PhysX3CommonDEBUG_x86:PhysX3CommonDEBUG_x86.dll
 0001:00042fc8       __imp_load_?allocateTriangles@InternalTriangleMesh@physx@@QAEPAXI_N@Z 10043fc8 f   PhysX3CommonDEBUG_x86:PhysX3CommonDEBUG_x86.dll
 0001:00042fd2       ?allocateTriangles@InternalTriangleMesh@physx@@QAEPAXI_N@Z 10043fd2 f   PhysX3CommonDEBUG_x86:PhysX3CommonDEBUG_x86.dll
 0001:00042fd8       __imp_load_?allocateMaterials@InternalTriangleMesh@physx@@QAEPAGXZ 10043fd8 f   PhysX3CommonDEBUG_x86:PhysX3CommonDEBUG_x86.dll
 0001:00042fe2       ?allocateMaterials@InternalTriangleMesh@physx@@QAEPAGXZ 10043fe2 f   PhysX3CommonDEBUG_x86:PhysX3CommonDEBUG_x86.dll
 0001:00042fe8       __imp_load_?getNumVertices@InternalTriangleMesh@physx@@QBEIXZ 10043fe8 f   PhysX3CommonDEBUG_x86:PhysX3CommonDEBUG_x86.dll
 0001:00042ff2       ?getNumVertices@InternalTriangleMesh@physx@@QBEIXZ 10043ff2 f   PhysX3CommonDEBUG_x86:PhysX3CommonDEBUG_x86.dll
 0001:00042ff8       __imp_load_?getNumTriangles@InternalTriangleMesh@physx@@QBEIXZ 10043ff8 f   PhysX3CommonDEBUG_x86:PhysX3CommonDEBUG_x86.dll
 0001:00043002       ?getNumTriangles@InternalTriangleMesh@physx@@QBEIXZ 10044002 f   PhysX3CommonDEBUG_x86:PhysX3CommonDEBUG_x86.dll
 0001:00043008       __imp_load_?getVertices@InternalTriangleMesh@physx@@QBEPBVPxVec3@2@XZ 10044008 f   PhysX3CommonDEBUG_x86:PhysX3CommonDEBUG_x86.dll
 0001:00043012       ?getVertices@InternalTriangleMesh@physx@@QBEPBVPxVec3@2@XZ 10044012 f   PhysX3CommonDEBUG_x86:PhysX3CommonDEBUG_x86.dll
 0001:00043018       __imp_load_?getTriangles@InternalTriangleMesh@physx@@QBEPBXXZ 10044018 f   PhysX3CommonDEBUG_x86:PhysX3CommonDEBUG_x86.dll
 0001:00043022       ?getTriangles@InternalTriangleMesh@physx@@QBEPBXXZ 10044022 f   PhysX3CommonDEBUG_x86:PhysX3CommonDEBUG_x86.dll
 0001:00043028       __imp_load_?getMaterials@InternalTriangleMesh@physx@@QBEPBGXZ 10044028 f   PhysX3CommonDEBUG_x86:PhysX3CommonDEBUG_x86.dll
 0001:00043032       ?getMaterials@InternalTriangleMesh@physx@@QBEPBGXZ 10044032 f   PhysX3CommonDEBUG_x86:PhysX3CommonDEBUG_x86.dll
 0001:00043038       __imp_load_?getFaceRemap@InternalTriangleMesh@physx@@QBEPBIXZ 10044038 f   PhysX3CommonDEBUG_x86:PhysX3CommonDEBUG_x86.dll
 0001:00043042       ?getFaceRemap@InternalTriangleMesh@physx@@QBEPBIXZ 10044042 f   PhysX3CommonDEBUG_x86:PhysX3CommonDEBUG_x86.dll
 0001:00043048       __imp_load_?getAdjacencies@InternalTriangleMesh@physx@@QBEPBIXZ 10044048 f   PhysX3CommonDEBUG_x86:PhysX3CommonDEBUG_x86.dll
 0001:00043052       ?getAdjacencies@InternalTriangleMesh@physx@@QBEPBIXZ 10044052 f   PhysX3CommonDEBUG_x86:PhysX3CommonDEBUG_x86.dll
 0001:00043058       __imp_load_?getCollisionModel@InternalTriangleMesh@physx@@QBEABVRTreeMidphase@Gu@2@XZ 10044058 f   PhysX3CommonDEBUG_x86:PhysX3CommonDEBUG_x86.dll
 0001:00043062       ?getCollisionModel@InternalTriangleMesh@physx@@QBEABVRTreeMidphase@Gu@2@XZ 10044062 f   PhysX3CommonDEBUG_x86:PhysX3CommonDEBUG_x86.dll
 0001:00043068       __imp_load_?writeWordBuffer@physx@@YAXPBGI_NAAVPxOutputStream@1@@Z 10044068 f   PhysX3CommonDEBUG_x86:PhysX3CommonDEBUG_x86.dll
 0001:00043072       ?writeWordBuffer@physx@@YAXPBGI_NAAVPxOutputStream@1@@Z 10044072 f   PhysX3CommonDEBUG_x86:PhysX3CommonDEBUG_x86.dll
 0001:00043078       __imp_load_?writeFloatBuffer@physx@@YAXPBMI_NAAVPxOutputStream@1@@Z 10044078 f   PhysX3CommonDEBUG_x86:PhysX3CommonDEBUG_x86.dll
 0001:00043082       ?writeFloatBuffer@physx@@YAXPBMI_NAAVPxOutputStream@1@@Z 10044082 f   PhysX3CommonDEBUG_x86:PhysX3CommonDEBUG_x86.dll
 0001:00043088       __imp_load_?computeMaxIndex@physx@@YAIPBII@Z 10044088 f   PhysX3CommonDEBUG_x86:PhysX3CommonDEBUG_x86.dll
 0001:00043092       ?computeMaxIndex@physx@@YAIPBII@Z 10044092 f   PhysX3CommonDEBUG_x86:PhysX3CommonDEBUG_x86.dll
 0001:00043098       __imp_load_?storeIndices@physx@@YAXIIPBIAAVPxOutputStream@1@_N@Z 10044098 f   PhysX3CommonDEBUG_x86:PhysX3CommonDEBUG_x86.dll
 0001:000430a2       ?storeIndices@physx@@YAXIIPBIAAVPxOutputStream@1@_N@Z 100440a2 f   PhysX3CommonDEBUG_x86:PhysX3CommonDEBUG_x86.dll
 0001:000430a8       __imp_load_?computeMaxIndex@physx@@YAGPBGI@Z 100440a8 f   PhysX3CommonDEBUG_x86:PhysX3CommonDEBUG_x86.dll
 0001:000430b2       ?computeMaxIndex@physx@@YAGPBGI@Z 100440b2 f   PhysX3CommonDEBUG_x86:PhysX3CommonDEBUG_x86.dll
 0001:000430b8       __imp_load_?WriteHeader@Gu@physx@@YA_NEEEEI_NAAVPxOutputStream@2@@Z 100440b8 f   PhysX3CommonDEBUG_x86:PhysX3CommonDEBUG_x86.dll
 0001:000430c2       ?WriteHeader@Gu@physx@@YA_NEEEEI_NAAVPxOutputStream@2@@Z 100440c2 f   PhysX3CommonDEBUG_x86:PhysX3CommonDEBUG_x86.dll
 0001:000430c8       __imp_load_?StoreIndices@Gu@physx@@YAXGIPBGAAVPxOutputStream@2@_N@Z 100440c8 f   PhysX3CommonDEBUG_x86:PhysX3CommonDEBUG_x86.dll
 0001:000430d2       ?StoreIndices@Gu@physx@@YAXGIPBGAAVPxOutputStream@2@_N@Z 100440d2 f   PhysX3CommonDEBUG_x86:PhysX3CommonDEBUG_x86.dll
 0001:000430d8       __imp_load_?CreateOffsets@BigConvexData@physx@@IAEXXZ 100440d8 f   PhysX3CommonDEBUG_x86:PhysX3CommonDEBUG_x86.dll
 0001:000430e2       ?CreateOffsets@BigConvexData@physx@@IAEXXZ 100440e2 f   PhysX3CommonDEBUG_x86:PhysX3CommonDEBUG_x86.dll
 0001:000430e8       __imp_load_?GetRanks@RadixSort@Gu@physx@@QBEPBIXZ 100440e8 f   PhysX3CommonDEBUG_x86:PhysX3CommonDEBUG_x86.dll
 0001:000430f2       ?GetRanks@RadixSort@Gu@physx@@QBEPBIXZ 100440f2 f   PhysX3CommonDEBUG_x86:PhysX3CommonDEBUG_x86.dll
 0001:000430f8       __imp_load_??0RadixSortBuffered@Gu@physx@@QAE@XZ 100440f8 f   PhysX3CommonDEBUG_x86:PhysX3CommonDEBUG_x86.dll
 0001:00043102       ??0RadixSortBuffered@Gu@physx@@QAE@XZ 10044102 f   PhysX3CommonDEBUG_x86:PhysX3CommonDEBUG_x86.dll
 0001:00043108       __imp_load_??1RadixSortBuffered@Gu@physx@@UAE@XZ 10044108 f   PhysX3CommonDEBUG_x86:PhysX3CommonDEBUG_x86.dll
 0001:00043112       ??1RadixSortBuffered@Gu@physx@@UAE@XZ 10044112 f   PhysX3CommonDEBUG_x86:PhysX3CommonDEBUG_x86.dll
 0001:00043118       __imp_load_?Sort@RadixSortBuffered@Gu@physx@@QAEAAV123@PBIIW4RadixHint@23@@Z 10044118 f   PhysX3CommonDEBUG_x86:PhysX3CommonDEBUG_x86.dll
 0001:00043122       ?Sort@RadixSortBuffered@Gu@physx@@QAEAAV123@PBIIW4RadixHint@23@@Z 10044122 f   PhysX3CommonDEBUG_x86:PhysX3CommonDEBUG_x86.dll
 0001:00043128       __imp_load_??0Container@Gu@physx@@QAE@XZ 10044128 f   PhysX3CommonDEBUG_x86:PhysX3CommonDEBUG_x86.dll
 0001:00043132       ??0Container@Gu@physx@@QAE@XZ 10044132 f   PhysX3CommonDEBUG_x86:PhysX3CommonDEBUG_x86.dll
 0001:00043138       __imp_load_??0Container@Gu@physx@@QAE@ABV012@@Z 10044138 f   PhysX3CommonDEBUG_x86:PhysX3CommonDEBUG_x86.dll
 0001:00043142       ??0Container@Gu@physx@@QAE@ABV012@@Z 10044142 f   PhysX3CommonDEBUG_x86:PhysX3CommonDEBUG_x86.dll
 0001:00043148       __imp_load_??1Container@Gu@physx@@QAE@XZ 10044148 f   PhysX3CommonDEBUG_x86:PhysX3CommonDEBUG_x86.dll
 0001:00043152       ??1Container@Gu@physx@@QAE@XZ 10044152 f   PhysX3CommonDEBUG_x86:PhysX3CommonDEBUG_x86.dll
 0001:00043158       __imp_load_?Add@Container@Gu@physx@@QAEAAV123@I@Z 10044158 f   PhysX3CommonDEBUG_x86:PhysX3CommonDEBUG_x86.dll
 0001:00043162       ?Add@Container@Gu@physx@@QAEAAV123@I@Z 10044162 f   PhysX3CommonDEBUG_x86:PhysX3CommonDEBUG_x86.dll
 0001:00043168       __imp_load_?Add@Container@Gu@physx@@QAEAAV123@PBII@Z 10044168 f   PhysX3CommonDEBUG_x86:PhysX3CommonDEBUG_x86.dll
 0001:00043172       ?Add@Container@Gu@physx@@QAEAAV123@PBII@Z 10044172 f   PhysX3CommonDEBUG_x86:PhysX3CommonDEBUG_x86.dll
 0001:00043178       __imp_load_?Add@Container@Gu@physx@@QAEAAV123@ABV123@@Z 10044178 f   PhysX3CommonDEBUG_x86:PhysX3CommonDEBUG_x86.dll
 0001:00043182       ?Add@Container@Gu@physx@@QAEAAV123@ABV123@@Z 10044182 f   PhysX3CommonDEBUG_x86:PhysX3CommonDEBUG_x86.dll
 0001:00043188       __imp_load_?AddUnique@Container@Gu@physx@@QAEAAV123@I@Z 10044188 f   PhysX3CommonDEBUG_x86:PhysX3CommonDEBUG_x86.dll
 0001:00043192       ?AddUnique@Container@Gu@physx@@QAEAAV123@I@Z 10044192 f   PhysX3CommonDEBUG_x86:PhysX3CommonDEBUG_x86.dll
 0001:00043198       __imp_load_?Empty@Container@Gu@physx@@QAEAAV123@XZ 10044198 f   PhysX3CommonDEBUG_x86:PhysX3CommonDEBUG_x86.dll
 0001:000431a2       ?Empty@Container@Gu@physx@@QAEAAV123@XZ 100441a2 f   PhysX3CommonDEBUG_x86:PhysX3CommonDEBUG_x86.dll
 0001:000431a8       __imp_load_?Reset@Container@Gu@physx@@QAEXXZ 100441a8 f   PhysX3CommonDEBUG_x86:PhysX3CommonDEBUG_x86.dll
 0001:000431b2       ?Reset@Container@Gu@physx@@QAEXXZ 100441b2 f   PhysX3CommonDEBUG_x86:PhysX3CommonDEBUG_x86.dll
 0001:000431b8       __imp_load_?Contains@Container@Gu@physx@@QBE_NIPAI@Z 100441b8 f   PhysX3CommonDEBUG_x86:PhysX3CommonDEBUG_x86.dll
 0001:000431c2       ?Contains@Container@Gu@physx@@QBE_NIPAI@Z 100441c2 f   PhysX3CommonDEBUG_x86:PhysX3CommonDEBUG_x86.dll
 0001:000431c8       __imp_load_?DeleteIndex@Container@Gu@physx@@QAEXI@Z 100441c8 f   PhysX3CommonDEBUG_x86:PhysX3CommonDEBUG_x86.dll
 0001:000431d2       ?DeleteIndex@Container@Gu@physx@@QAEXI@Z 100441d2 f   PhysX3CommonDEBUG_x86:PhysX3CommonDEBUG_x86.dll
 0001:000431d8       __imp_load_?GetNbEntries@Container@Gu@physx@@QBEIXZ 100441d8 f   PhysX3CommonDEBUG_x86:PhysX3CommonDEBUG_x86.dll
 0001:000431e2       ?GetNbEntries@Container@Gu@physx@@QBEIXZ 100441e2 f   PhysX3CommonDEBUG_x86:PhysX3CommonDEBUG_x86.dll
 0001:000431e8       __imp_load_?GetEntry@Container@Gu@physx@@QBEII@Z 100441e8 f   PhysX3CommonDEBUG_x86:PhysX3CommonDEBUG_x86.dll
 0001:000431f2       ?GetEntry@Container@Gu@physx@@QBEII@Z 100441f2 f   PhysX3CommonDEBUG_x86:PhysX3CommonDEBUG_x86.dll
 0001:000431f8       __imp_load_?GetEntries@Container@Gu@physx@@QBEPAIXZ 100441f8 f   PhysX3CommonDEBUG_x86:PhysX3CommonDEBUG_x86.dll
 0001:00043202       ?GetEntries@Container@Gu@physx@@QBEPAIXZ 10044202 f   PhysX3CommonDEBUG_x86:PhysX3CommonDEBUG_x86.dll
 0001:00043208       __imp_load_??AContainer@Gu@physx@@QAEAAII@Z 10044208 f   PhysX3CommonDEBUG_x86:PhysX3CommonDEBUG_x86.dll
 0001:00043212       ??AContainer@Gu@physx@@QAEAAII@Z 10044212 f   PhysX3CommonDEBUG_x86:PhysX3CommonDEBUG_x86.dll
 0001:00043218       __imp_load_??4Container@Gu@physx@@QAEXABV012@@Z 10044218 f   PhysX3CommonDEBUG_x86:PhysX3CommonDEBUG_x86.dll
 0001:00043222       ??4Container@Gu@physx@@QAEXABV012@@Z 10044222 f   PhysX3CommonDEBUG_x86:PhysX3CommonDEBUG_x86.dll
 0001:00043228       __imp_load_??0ConvexMesh@Gu@physx@@QAE@XZ 10044228 f   PhysX3CommonDEBUG_x86:PhysX3CommonDEBUG_x86.dll
 0001:00043232       ??0ConvexMesh@Gu@physx@@QAE@XZ 10044232 f   PhysX3CommonDEBUG_x86:PhysX3CommonDEBUG_x86.dll
 0001:00043238       __imp_load_??1ConvexMesh@Gu@physx@@UAE@XZ 10044238 f   PhysX3CommonDEBUG_x86:PhysX3CommonDEBUG_x86.dll
 0001:00043242       ??1ConvexMesh@Gu@physx@@UAE@XZ 10044242 f   PhysX3CommonDEBUG_x86:PhysX3CommonDEBUG_x86.dll
 0001:00043248       __imp_load_??0BigConvexData@physx@@QAE@XZ 10044248 f   PhysX3CommonDEBUG_x86:PhysX3CommonDEBUG_x86.dll
 0001:00043252       ??0BigConvexData@physx@@QAE@XZ 10044252 f   PhysX3CommonDEBUG_x86:PhysX3CommonDEBUG_x86.dll
 0001:00043258       __imp_load_??1BigConvexData@physx@@QAE@XZ 10044258 f   PhysX3CommonDEBUG_x86:PhysX3CommonDEBUG_x86.dll
 0001:00043262       ??1BigConvexData@physx@@QAE@XZ 10044262 f   PhysX3CommonDEBUG_x86:PhysX3CommonDEBUG_x86.dll
 0001:00043268       __imp_load_?exportExtraData@ConvexMesh@Gu@physx@@UAEXAAVPxSerializationContext@3@@Z 10044268 f   PhysX3CommonDEBUG_x86:PhysX3CommonDEBUG_x86.dll
 0001:00043272       ?exportExtraData@ConvexMesh@Gu@physx@@UAEXAAVPxSerializationContext@3@@Z 10044272 f   PhysX3CommonDEBUG_x86:PhysX3CommonDEBUG_x86.dll
 0001:00043278       __imp_load_?getConcreteTypeName@PxConvexMesh@physx@@UBEPBDXZ 10044278 f   PhysX3CommonDEBUG_x86:PhysX3CommonDEBUG_x86.dll
 0001:00043282       ?getConcreteTypeName@PxConvexMesh@physx@@UBEPBDXZ 10044282 f   PhysX3CommonDEBUG_x86:PhysX3CommonDEBUG_x86.dll
 0001:00043288       __imp_load_?getIndexBuffer@ConvexMesh@Gu@physx@@UBEPBEXZ 10044288 f   PhysX3CommonDEBUG_x86:PhysX3CommonDEBUG_x86.dll
 0001:00043292       ?getIndexBuffer@ConvexMesh@Gu@physx@@UBEPBEXZ 10044292 f   PhysX3CommonDEBUG_x86:PhysX3CommonDEBUG_x86.dll
 0001:00043298       __imp_load_?getLocalBounds@ConvexMesh@Gu@physx@@UBE?AVPxBounds3@3@XZ 10044298 f   PhysX3CommonDEBUG_x86:PhysX3CommonDEBUG_x86.dll
 0001:000432a2       ?getLocalBounds@ConvexMesh@Gu@physx@@UBE?AVPxBounds3@3@XZ 100442a2 f   PhysX3CommonDEBUG_x86:PhysX3CommonDEBUG_x86.dll
 0001:000432a8       __imp_load_?getMassInformation@ConvexMesh@Gu@physx@@UBEXAAMAAVPxMat33@3@AAVPxVec3@3@@Z 100442a8 f   PhysX3CommonDEBUG_x86:PhysX3CommonDEBUG_x86.dll
 0001:000432b2       ?getMassInformation@ConvexMesh@Gu@physx@@UBEXAAMAAVPxMat33@3@AAVPxVec3@3@@Z 100442b2 f   PhysX3CommonDEBUG_x86:PhysX3CommonDEBUG_x86.dll
 0001:000432b8       __imp_load_?getNbPolygons@ConvexMesh@Gu@physx@@UBEIXZ 100442b8 f   PhysX3CommonDEBUG_x86:PhysX3CommonDEBUG_x86.dll
 0001:000432c2       ?getNbPolygons@ConvexMesh@Gu@physx@@UBEIXZ 100442c2 f   PhysX3CommonDEBUG_x86:PhysX3CommonDEBUG_x86.dll
 0001:000432c8       __imp_load_?getNbVertices@ConvexMesh@Gu@physx@@UBEIXZ 100442c8 f   PhysX3CommonDEBUG_x86:PhysX3CommonDEBUG_x86.dll
 0001:000432d2       ?getNbVertices@ConvexMesh@Gu@physx@@UBEIXZ 100442d2 f   PhysX3CommonDEBUG_x86:PhysX3CommonDEBUG_x86.dll
 0001:000432d8       __imp_load_?getPolygonData@ConvexMesh@Gu@physx@@UBE_NIAAUPxHullPolygon@3@@Z 100442d8 f   PhysX3CommonDEBUG_x86:PhysX3CommonDEBUG_x86.dll
 0001:000432e2       ?getPolygonData@ConvexMesh@Gu@physx@@UBE_NIAAUPxHullPolygon@3@@Z 100442e2 f   PhysX3CommonDEBUG_x86:PhysX3CommonDEBUG_x86.dll
 0001:000432e8       __imp_load_?getReferenceCount@ConvexMesh@Gu@physx@@UBEIXZ 100442e8 f   PhysX3CommonDEBUG_x86:PhysX3CommonDEBUG_x86.dll
 0001:000432f2       ?getReferenceCount@ConvexMesh@Gu@physx@@UBEIXZ 100442f2 f   PhysX3CommonDEBUG_x86:PhysX3CommonDEBUG_x86.dll
 0001:000432f8       __imp_load_?getVertices@ConvexMesh@Gu@physx@@UBEPBVPxVec3@3@XZ 100442f8 f   PhysX3CommonDEBUG_x86:PhysX3CommonDEBUG_x86.dll
 0001:00043302       ?getVertices@ConvexMesh@Gu@physx@@UBEPBVPxVec3@3@XZ 10044302 f   PhysX3CommonDEBUG_x86:PhysX3CommonDEBUG_x86.dll
 0001:00043308       __imp_load_?isKindOf@PxConvexMesh@physx@@MBE_NPBD@Z 10044308 f   PhysX3CommonDEBUG_x86:PhysX3CommonDEBUG_x86.dll
 0001:00043312       ?isKindOf@PxConvexMesh@physx@@MBE_NPBD@Z 10044312 f   PhysX3CommonDEBUG_x86:PhysX3CommonDEBUG_x86.dll
 0001:00043318       __imp_load_?onRefCountZero@ConvexMesh@Gu@physx@@UAEXXZ 10044318 f   PhysX3CommonDEBUG_x86:PhysX3CommonDEBUG_x86.dll
 0001:00043322       ?onRefCountZero@ConvexMesh@Gu@physx@@UAEXXZ 10044322 f   PhysX3CommonDEBUG_x86:PhysX3CommonDEBUG_x86.dll
 0001:00043328       __imp_load_?release@ConvexMesh@Gu@physx@@UAEXXZ 10044328 f   PhysX3CommonDEBUG_x86:PhysX3CommonDEBUG_x86.dll
 0001:00043332       ?release@ConvexMesh@Gu@physx@@UAEXXZ 10044332 f   PhysX3CommonDEBUG_x86:PhysX3CommonDEBUG_x86.dll
 0001:00043338       __imp_load_?readDword@physx@@YAI_NAAVPxInputStream@1@@Z 10044338 f   PhysX3CommonDEBUG_x86:PhysX3CommonDEBUG_x86.dll
 0001:00043342       ?readDword@physx@@YAI_NAAVPxInputStream@1@@Z 10044342 f   PhysX3CommonDEBUG_x86:PhysX3CommonDEBUG_x86.dll
 0001:00043348       __imp_load_?ReadHeader@Gu@physx@@YA_NEEEEAAIAA_NAAVPxInputStream@2@@Z 10044348 f   PhysX3CommonDEBUG_x86:PhysX3CommonDEBUG_x86.dll
 0001:00043352       ?ReadHeader@Gu@physx@@YA_NEEEEAAIAA_NAAVPxInputStream@2@@Z 10044352 f   PhysX3CommonDEBUG_x86:PhysX3CommonDEBUG_x86.dll
 0001:00043358       __imp_load_??0FPUGuard@shdfnd@physx@@QAE@XZ 10044358 f   PhysX3CommonDEBUG_x86:PhysX3CommonDEBUG_x86.dll
 0001:00043362       ??0FPUGuard@shdfnd@physx@@QAE@XZ 10044362 f   PhysX3CommonDEBUG_x86:PhysX3CommonDEBUG_x86.dll
 0001:00043368       __imp_load_??1FPUGuard@shdfnd@physx@@QAE@XZ 10044368 f   PhysX3CommonDEBUG_x86:PhysX3CommonDEBUG_x86.dll
 0001:00043372       ??1FPUGuard@shdfnd@physx@@QAE@XZ 10044372 f   PhysX3CommonDEBUG_x86:PhysX3CommonDEBUG_x86.dll
 0001:00043378       __imp_load_?incRefCount@Foundation@shdfnd@physx@@SAXXZ 10044378 f   PhysX3CommonDEBUG_x86:PhysX3CommonDEBUG_x86.dll
 0001:00043382       ?incRefCount@Foundation@shdfnd@physx@@SAXXZ 10044382 f   PhysX3CommonDEBUG_x86:PhysX3CommonDEBUG_x86.dll
 0001:00043388       __imp_load_?decRefCount@Foundation@shdfnd@physx@@SAXXZ 10044388 f   PhysX3CommonDEBUG_x86:PhysX3CommonDEBUG_x86.dll
 0001:00043392       ?decRefCount@Foundation@shdfnd@physx@@SAXXZ 10044392 f   PhysX3CommonDEBUG_x86:PhysX3CommonDEBUG_x86.dll
 0001:00043398       __imp_load_??0TriangleMesh@Gu@physx@@QAE@XZ 10044398 f   PhysX3CommonDEBUG_x86:PhysX3CommonDEBUG_x86.dll
 0001:000433a2       ??0TriangleMesh@Gu@physx@@QAE@XZ 100443a2 f   PhysX3CommonDEBUG_x86:PhysX3CommonDEBUG_x86.dll
 0001:000433a8       __imp_load_?checkMeshIndicesSize@TriangleMesh@Gu@physx@@QAEXXZ 100443a8 f   PhysX3CommonDEBUG_x86:PhysX3CommonDEBUG_x86.dll
 0001:000433b2       ?checkMeshIndicesSize@TriangleMesh@Gu@physx@@QAEXXZ 100443b2 f   PhysX3CommonDEBUG_x86:PhysX3CommonDEBUG_x86.dll
 0001:000433b8       __imp_load_??1TriangleMesh@Gu@physx@@UAE@XZ 100443b8 f   PhysX3CommonDEBUG_x86:PhysX3CommonDEBUG_x86.dll
 0001:000433c2       ??1TriangleMesh@Gu@physx@@UAE@XZ 100443c2 f   PhysX3CommonDEBUG_x86:PhysX3CommonDEBUG_x86.dll
 0001:000433c8       __imp_load_??0HeightField@Gu@physx@@QAE@PAVGuMeshFactory@2@@Z 100443c8 f   PhysX3CommonDEBUG_x86:PhysX3CommonDEBUG_x86.dll
 0001:000433d2       ??0HeightField@Gu@physx@@QAE@PAVGuMeshFactory@2@@Z 100443d2 f   PhysX3CommonDEBUG_x86:PhysX3CommonDEBUG_x86.dll
 0001:000433d8       __imp_load_?loadFromDesc@HeightField@Gu@physx@@QAE_NABVPxHeightFieldDesc@3@_N@Z 100443d8 f   PhysX3CommonDEBUG_x86:PhysX3CommonDEBUG_x86.dll
 0001:000433e2       ?loadFromDesc@HeightField@Gu@physx@@QAE_NABVPxHeightFieldDesc@3@_N@Z 100443e2 f   PhysX3CommonDEBUG_x86:PhysX3CommonDEBUG_x86.dll
 0001:000433e8       __imp_load_?releaseMemory@HeightField@Gu@physx@@QAEX_N@Z 100443e8 f   PhysX3CommonDEBUG_x86:PhysX3CommonDEBUG_x86.dll
 0001:000433f2       ?releaseMemory@HeightField@Gu@physx@@QAEX_N@Z 100443f2 f   PhysX3CommonDEBUG_x86:PhysX3CommonDEBUG_x86.dll
 0001:000433f8       __imp_load_?exportExtraData@TriangleMesh@Gu@physx@@UAEXAAVPxSerializationContext@3@@Z 100443f8 f   PhysX3CommonDEBUG_x86:PhysX3CommonDEBUG_x86.dll
 0001:00043402       ?exportExtraData@TriangleMesh@Gu@physx@@UAEXAAVPxSerializationContext@3@@Z 10044402 f   PhysX3CommonDEBUG_x86:PhysX3CommonDEBUG_x86.dll
 0001:00043408       __imp_load_?getConcreteTypeName@PxTriangleMesh@physx@@UBEPBDXZ 10044408 f   PhysX3CommonDEBUG_x86:PhysX3CommonDEBUG_x86.dll
 0001:00043412       ?getConcreteTypeName@PxTriangleMesh@physx@@UBEPBDXZ 10044412 f   PhysX3CommonDEBUG_x86:PhysX3CommonDEBUG_x86.dll
 0001:00043418       __imp_load_?getLocalBounds@TriangleMesh@Gu@physx@@UBE?AVPxBounds3@3@XZ 10044418 f   PhysX3CommonDEBUG_x86:PhysX3CommonDEBUG_x86.dll
 0001:00043422       ?getLocalBounds@TriangleMesh@Gu@physx@@UBE?AVPxBounds3@3@XZ 10044422 f   PhysX3CommonDEBUG_x86:PhysX3CommonDEBUG_x86.dll
 0001:00043428       __imp_load_?getNbTriangles@TriangleMesh@Gu@physx@@UBEIXZ 10044428 f   PhysX3CommonDEBUG_x86:PhysX3CommonDEBUG_x86.dll
 0001:00043432       ?getNbTriangles@TriangleMesh@Gu@physx@@UBEIXZ 10044432 f   PhysX3CommonDEBUG_x86:PhysX3CommonDEBUG_x86.dll
 0001:00043438       __imp_load_?getNbVertices@TriangleMesh@Gu@physx@@UBEIXZ 10044438 f   PhysX3CommonDEBUG_x86:PhysX3CommonDEBUG_x86.dll
 0001:00043442       ?getNbVertices@TriangleMesh@Gu@physx@@UBEIXZ 10044442 f   PhysX3CommonDEBUG_x86:PhysX3CommonDEBUG_x86.dll
 0001:00043448       __imp_load_?getReferenceCount@TriangleMesh@Gu@physx@@UBEIXZ 10044448 f   PhysX3CommonDEBUG_x86:PhysX3CommonDEBUG_x86.dll
 0001:00043452       ?getReferenceCount@TriangleMesh@Gu@physx@@UBEIXZ 10044452 f   PhysX3CommonDEBUG_x86:PhysX3CommonDEBUG_x86.dll
 0001:00043458       __imp_load_?getTriangleMaterialIndex@TriangleMesh@Gu@physx@@UBEGI@Z 10044458 f   PhysX3CommonDEBUG_x86:PhysX3CommonDEBUG_x86.dll
 0001:00043462       ?getTriangleMaterialIndex@TriangleMesh@Gu@physx@@UBEGI@Z 10044462 f   PhysX3CommonDEBUG_x86:PhysX3CommonDEBUG_x86.dll
 0001:00043468       __imp_load_?getTriangleMeshFlags@TriangleMesh@Gu@physx@@UBE?AV?$PxFlags@W4Enum@PxTriangleMeshFlag@physx@@E@3@XZ 10044468 f   PhysX3CommonDEBUG_x86:PhysX3CommonDEBUG_x86.dll
 0001:00043472       ?getTriangleMeshFlags@TriangleMesh@Gu@physx@@UBE?AV?$PxFlags@W4Enum@PxTriangleMeshFlag@physx@@E@3@XZ 10044472 f   PhysX3CommonDEBUG_x86:PhysX3CommonDEBUG_x86.dll
 0001:00043478       __imp_load_?getTriangles@TriangleMesh@Gu@physx@@UBEPBXXZ 10044478 f   PhysX3CommonDEBUG_x86:PhysX3CommonDEBUG_x86.dll
 0001:00043482       ?getTriangles@TriangleMesh@Gu@physx@@UBEPBXXZ 10044482 f   PhysX3CommonDEBUG_x86:PhysX3CommonDEBUG_x86.dll
 0001:00043488       __imp_load_?getTrianglesRemap@TriangleMesh@Gu@physx@@UBEPBIXZ 10044488 f   PhysX3CommonDEBUG_x86:PhysX3CommonDEBUG_x86.dll
 0001:00043492       ?getTrianglesRemap@TriangleMesh@Gu@physx@@UBEPBIXZ 10044492 f   PhysX3CommonDEBUG_x86:PhysX3CommonDEBUG_x86.dll
 0001:00043498       __imp_load_?getVertices@TriangleMesh@Gu@physx@@UBEPBVPxVec3@3@XZ 10044498 f   PhysX3CommonDEBUG_x86:PhysX3CommonDEBUG_x86.dll
 0001:000434a2       ?getVertices@TriangleMesh@Gu@physx@@UBEPBVPxVec3@3@XZ 100444a2 f   PhysX3CommonDEBUG_x86:PhysX3CommonDEBUG_x86.dll
 0001:000434a8       __imp_load_?isKindOf@PxTriangleMesh@physx@@MBE_NPBD@Z 100444a8 f   PhysX3CommonDEBUG_x86:PhysX3CommonDEBUG_x86.dll
 0001:000434b2       ?isKindOf@PxTriangleMesh@physx@@MBE_NPBD@Z 100444b2 f   PhysX3CommonDEBUG_x86:PhysX3CommonDEBUG_x86.dll
 0001:000434b8       __imp_load_?onRefCountZero@TriangleMesh@Gu@physx@@UAEXXZ 100444b8 f   PhysX3CommonDEBUG_x86:PhysX3CommonDEBUG_x86.dll
 0001:000434c2       ?onRefCountZero@TriangleMesh@Gu@physx@@UAEXXZ 100444c2 f   PhysX3CommonDEBUG_x86:PhysX3CommonDEBUG_x86.dll
 0001:000434c8       __imp_load_?release@TriangleMesh@Gu@physx@@UAEXXZ 100444c8 f   PhysX3CommonDEBUG_x86:PhysX3CommonDEBUG_x86.dll
 0001:000434d2       ?release@TriangleMesh@Gu@physx@@UAEXXZ 100444d2 f   PhysX3CommonDEBUG_x86:PhysX3CommonDEBUG_x86.dll
 0001:000434d8       __imp_load_?has16BitIndices@InternalTriangleMesh@physx@@QBE_NXZ 100444d8 f   PhysX3CommonDEBUG_x86:PhysX3CommonDEBUG_x86.dll
 0001:000434e2       ?has16BitIndices@InternalTriangleMesh@physx@@QBE_NXZ 100444e2 f   PhysX3CommonDEBUG_x86:PhysX3CommonDEBUG_x86.dll
 0001:000434e8       __imp_load_?setTriangleAdjacency@InternalTriangleMesh@physx@@QAEXIII@Z 100444e8 f   PhysX3CommonDEBUG_x86:PhysX3CommonDEBUG_x86.dll
 0001:000434f2       ?setTriangleAdjacency@InternalTriangleMesh@physx@@QAEXIII@Z 100444f2 f   PhysX3CommonDEBUG_x86:PhysX3CommonDEBUG_x86.dll
 0001:000434f8       __imp_load_?setupMeshInterface@InternalTriangleMesh@physx@@QAEXXZ 100444f8 f   PhysX3CommonDEBUG_x86:PhysX3CommonDEBUG_x86.dll
 0001:00043502       ?setupMeshInterface@InternalTriangleMesh@physx@@QAEXXZ 10044502 f   PhysX3CommonDEBUG_x86:PhysX3CommonDEBUG_x86.dll
 0001:00043508       ??$PFromRva@PAP6GHXZ@@YGPAP6GHXZK@Z 10044508 f i delayimp:delayhlp.obj
 0001:0004351e       ??$PFromRva@PAPAUHINSTANCE__@@@@YGPAPAUHINSTANCE__@@K@Z 1004451e f i delayimp:delayhlp.obj
 0001:00043534       ??$PFromRva@PAU_IMAGE_IMPORT_BY_NAME@@@@YGPAU_IMAGE_IMPORT_BY_NAME@@K@Z 10044534 f i delayimp:delayhlp.obj
 0001:0004354a       ??$PFromRva@PAU_IMAGE_THUNK_DATA32@@@@YGPAU_IMAGE_THUNK_DATA32@@K@Z 1004454a f i delayimp:delayhlp.obj
 0001:00043560       ??$PFromRva@PBD@@YGPBDK@Z  10044560 f i delayimp:delayhlp.obj
 0001:00043576       ??$PFromRva@PBUImgDelayDescr@@@@YGPBUImgDelayDescr@@K@Z 10044576 f i delayimp:delayhlp.obj
 0001:0004358c       ??$PFromRva@PBU_IMAGE_THUNK_DATA32@@@@YGPBU_IMAGE_THUNK_DATA32@@K@Z 1004458c f i delayimp:delayhlp.obj
 0001:000435a2       ?CountOfImports@@YGIPBU_IMAGE_THUNK_DATA32@@@Z 100445a2 f i delayimp:delayhlp.obj
 0001:000435c3       ?DloadAcquireSectionWriteAccess@@YGXXZ 100445c3 f i delayimp:delayhlp.obj
 0001:00043602       ?DloadGetSRWLockFunctionPointers@@YGEXZ 10044602 f i delayimp:delayhlp.obj
 0001:00043691       ?DloadLock@@YGXXZ          10044691 f i delayimp:delayhlp.obj
 0001:000436df       ?DloadMakePermanentImageCommit@@YGXPAXK@Z 100446df f i delayimp:delayhlp.obj
 0001:00043769       ?DloadObtainSection@@YGPAXPAK0@Z 10044769 f i delayimp:delayhlp.obj
 0001:00043802       ?DloadProtectSection@@YGXKPAK@Z 10044802 f i delayimp:delayhlp.obj
 0001:0004388b       ?DloadReleaseSectionWriteAccess@@YGXXZ 1004488b f i delayimp:delayhlp.obj
 0001:000438ce       ?DloadUnlock@@YGXXZ        100448ce f i delayimp:delayhlp.obj
 0001:0004391f       ?IndexFromPImgThunkData@@YGIPBU_IMAGE_THUNK_DATA32@@0@Z 1004491f f i delayimp:delayhlp.obj
 0001:00043ad3       _HRESULT_FROM_WIN32@4      10044ad3 f i delayimp:delayhlp.obj
 0001:00043af1       _ReadAcquire@4             10044af1 f i delayimp:delayhlp.obj
 0001:00043b02       _ReadPointerAcquire@4      10044b02 f i delayimp:delayhlp.obj
 0001:00043b13       _WritePointerRelease@8     10044b13 f i delayimp:delayhlp.obj
 0001:00043b28       _WriteRelease@8            10044b28 f i delayimp:delayhlp.obj
 0001:00043b3d       __InlineInterlockedCompareExchangePointer@12 10044b3d f i delayimp:delayhlp.obj
 0001:00043b58       ___FUnloadDelayLoadedDLL2@4 10044b58 f   delayimp:delayhlp.obj
 0001:00043bfd       ___HrLoadAllImportsForDll@4 10044bfd f   delayimp:delayhlp.obj
 0001:00043c76       ___delayLoadHelper2@8      10044c76 f   delayimp:delayhlp.obj
 0001:00043f80       ??_U@YAPAXI@Z              10044f80 f   LIBCMTD:new_array.obj
 0001:00043fa0       ??_V@YAXPAX@Z              10044fa0 f   LIBCMTD:delete_array.obj
 0001:00043fc0       __alloca_probe_16          10044fc0 f   LIBCMTD:alloca16.obj
 0001:00043fd6       __alloca_probe_8           10044fd6     LIBCMTD:alloca16.obj
 0001:00044000       __ftoui3                   10045000 f   LIBCMTD:ftol3.obj
 0001:00044060       __ftoul3                   10045060 f   LIBCMTD:ftol3.obj
 0001:000440f0       __ftol3                    100450f0 f   LIBCMTD:ftol3.obj
 0001:00044180       __dtoui3                   10045180 f   LIBCMTD:ftol3.obj
 0001:00044220       __dtoul3                   10045220 f   LIBCMTD:ftol3.obj
 0001:000442f0       __dtol3                    100452f0 f   LIBCMTD:ftol3.obj
 0001:000443d0       __ultod3                   100453d0 f   LIBCMTD:ftol3.obj
 0001:00044440       __ltod3                    10045440 f   LIBCMTD:ftol3.obj
 0001:000444a0       ??1type_info@@UAE@XZ       100454a0 f   LIBCMTD:std_type_info_static.obj
 0001:000444c0       ??_Etype_info@@UAEPAXI@Z   100454c0 f i LIBCMTD:std_type_info_static.obj
 0001:000444c0       ??_Gtype_info@@UAEPAXI@Z   100454c0 f i LIBCMTD:std_type_info_static.obj
 0001:00044500       ?__scrt_initialize_type_info@@YAXXZ 10045500 f   LIBCMTD:tncleanup.obj
 0001:00044520       ?__scrt_uninitialize_type_info@@YAXXZ 10045520 f   LIBCMTD:tncleanup.obj
 0001:00044540       ??3@YAXPAXI@Z              10045540 f   LIBCMTD:delete_scalar_size.obj
 0001:00044560       __chkstk                   10045560 f   LIBCMTD:chkstk.obj
 0001:00044560       __alloca_probe             10045560 f   LIBCMTD:chkstk.obj
 0001:00044ba0       __CRT_INIT@12              10045ba0 f   LIBCMTD:dll_dllmain.obj
 0001:00044bc0       __DllMainCRTStartup@12     10045bc0 f   LIBCMTD:dll_dllmain.obj
 0001:00044bf0       @_guard_check_icall_nop@4  10045bf0 f i LIBCMTD:guard_support.obj
 0001:00044c00       _ReadNoFence               10045c00 f i LIBCMTD:guard_support.obj
 0001:00044c20       _ReadPointerNoFence        10045c20 f i LIBCMTD:guard_support.obj
 0001:00044c40       ___castguard_check_failure_debugbreak 10045c40 f i LIBCMTD:guard_support.obj
 0001:00044c60       ___castguard_check_failure_fastfail 10045c60 f i LIBCMTD:guard_support.obj
 0001:00044c90       ___castguard_check_failure_nop 10045c90 f i LIBCMTD:guard_support.obj
 0001:00044ca0       ___castguard_check_failure_os_handled 10045ca0 f i LIBCMTD:guard_support.obj
 0001:00044d40       ___castguard_slow_path_check_debugbreak 10045d40 f i LIBCMTD:guard_support.obj
 0001:00044d80       ___castguard_slow_path_check_fastfail 10045d80 f i LIBCMTD:guard_support.obj
 0001:00044dd0       ___castguard_slow_path_check_nop 10045dd0 f i LIBCMTD:guard_support.obj
 0001:00044de0       ___castguard_slow_path_check_os_handled 10045de0 f i LIBCMTD:guard_support.obj
 0001:00044ea0       __guard_icall_checks_enforced 10045ea0 f i LIBCMTD:guard_support.obj
 0001:00044ee0       ??2@YAPAXI@Z               10045ee0 f   LIBCMTD:new_scalar.obj
 0001:00044f40       ??3@YAXPAX@Z               10045f40 f   LIBCMTD:delete_scalar.obj
 0001:00044f60       ___isa_available_init      10045f60 f   LIBCMTD:cpu_disp.obj
 0001:000453f0       ___security_init_cookie    100463f0 f   LIBCMTD:gs_support.obj
 0001:00045490       _DllMain@12                10046490 f   LIBCMTD:dll_dllmain_stub.obj
 0001:000454a0       ___local_stdio_scanf_options 100464a0 f i LIBCMTD:default_local_stdio_options.obj
 0001:000454b0       ___scrt_initialize_default_local_stdio_options 100464b0 f   LIBCMTD:default_local_stdio_options.obj
 0001:00045500       ?configure_argv@__scrt_narrow_argv_policy@@SAHXZ 10046500 f i LIBCMTD:utility.obj
 0001:000455d0       ?initialize_environment@__scrt_narrow_environment_policy@@SAHXZ 100465d0 f i LIBCMTD:utility.obj
 0001:00045670       _NtCurrentTeb              10046670 f i LIBCMTD:utility.obj
 0001:00045680       ___scrt_acquire_startup_lock 10046680 f   LIBCMTD:utility.obj
 0001:000456e0       ___scrt_dllmain_after_initialize_c 100466e0 f   LIBCMTD:utility.obj
 0001:00045720       ___scrt_dllmain_before_initialize_c 10046720 f   LIBCMTD:utility.obj
 0001:00045750       ___scrt_dllmain_crt_thread_attach 10046750 f   LIBCMTD:utility.obj
 0001:00045790       ___scrt_dllmain_crt_thread_detach 10046790 f   LIBCMTD:utility.obj
 0001:000457b0       ___scrt_dllmain_exception_filter 100467b0 f   LIBCMTD:utility.obj
 0001:00045810       ___scrt_dllmain_uninitialize_c 10046810 f   LIBCMTD:utility.obj
 0001:00045850       ___scrt_dllmain_uninitialize_critical 10046850 f   LIBCMTD:utility.obj
 0001:00045870       ___scrt_initialize_crt     10046870 f   LIBCMTD:utility.obj
 0001:000458d0       ___scrt_initialize_onexit_tables 100468d0 f   LIBCMTD:utility.obj
 0001:000459e0       ___scrt_is_nonwritable_in_current_image 100469e0 f   LIBCMTD:utility.obj
 0001:00045b60       ___scrt_release_startup_lock 10046b60 f   LIBCMTD:utility.obj
 0001:00045b90       ___scrt_uninitialize_crt   10046b90 f   LIBCMTD:utility.obj
 0001:00045be0       __onexit                   10046be0 f   LIBCMTD:utility.obj
 0001:00045c60       _at_quick_exit             10046c60 f   LIBCMTD:utility.obj
 0001:00045cb0       _atexit                    10046cb0 f   LIBCMTD:utility.obj
 0001:00045cf0       ___scrt_get_dyn_tls_init_callback 10046cf0 f   LIBCMTD:dyn_tls_init.obj
 0001:00045d00       ___scrt_fastfail           10046d00 f   LIBCMTD:utility_desktop.obj
 0001:00045e90       ___scrt_get_show_window_mode 10046e90 f   LIBCMTD:utility_desktop.obj
 0001:00045ee0       ___scrt_initialize_mta     10046ee0 f   LIBCMTD:utility_desktop.obj
 0001:00045ef0       ___scrt_initialize_winrt   10046ef0 f   LIBCMTD:utility_desktop.obj
 0001:00045f00       ___scrt_is_managed_app     10046f00 f   LIBCMTD:utility_desktop.obj
 0001:00045fb0       ___scrt_set_unhandled_exception_filter 10046fb0 f   LIBCMTD:utility_desktop.obj
 0001:00045fd0       ___scrt_exe_initialize_mta 10046fd0 f   LIBCMTD:utility_desktop.obj
 0001:00045fd0       ___scrt_stub_for_initialize_mta 10046fd0 f   LIBCMTD:utility_desktop.obj
 0001:00045fe0       ___scrt_unhandled_exception_filter@4 10046fe0 f   LIBCMTD:utility_desktop.obj
 0001:00046080       __crt_debugger_hook        10047080 f   LIBCMTD:utility_desktop.obj
 0001:000460a0       __RTC_Initialize           100470a0 f   LIBCMTD:initsect.obj
 0001:000460e0       __RTC_Terminate            100470e0 f   LIBCMTD:initsect.obj
 0001:00046120       ??0bad_alloc@std@@AAE@QBD@Z 10047120 f i LIBCMTD:throw_bad_alloc.obj
 0001:00046150       ??0bad_alloc@std@@QAE@ABV01@@Z 10047150 f i LIBCMTD:throw_bad_alloc.obj
 0001:00046180       ??0bad_alloc@std@@QAE@XZ   10047180 f i LIBCMTD:throw_bad_alloc.obj
 0001:000461b0       ??0bad_array_new_length@std@@QAE@ABV01@@Z 100471b0 f i LIBCMTD:throw_bad_alloc.obj
 0001:000461e0       ??0bad_array_new_length@std@@QAE@XZ 100471e0 f i LIBCMTD:throw_bad_alloc.obj
 0001:00046210       ??0exception@std@@QAE@ABV01@@Z 10047210 f i LIBCMTD:throw_bad_alloc.obj
 0001:00046260       ??0exception@std@@QAE@QBDH@Z 10047260 f i LIBCMTD:throw_bad_alloc.obj
 0001:000462a0       ??1bad_alloc@std@@UAE@XZ   100472a0 f i LIBCMTD:throw_bad_alloc.obj
 0001:000462c0       ??1bad_array_new_length@std@@UAE@XZ 100472c0 f i LIBCMTD:throw_bad_alloc.obj
 0001:000462e0       ??1exception@std@@UAE@XZ   100472e0 f i LIBCMTD:throw_bad_alloc.obj
 0001:00046310       ??_Ebad_alloc@std@@UAEPAXI@Z 10047310 f i LIBCMTD:throw_bad_alloc.obj
 0001:00046310       ??_Gbad_alloc@std@@UAEPAXI@Z 10047310 f i LIBCMTD:throw_bad_alloc.obj
 0001:00046350       ??_Ebad_array_new_length@std@@UAEPAXI@Z 10047350 f i LIBCMTD:throw_bad_alloc.obj
 0001:00046350       ??_Gbad_array_new_length@std@@UAEPAXI@Z 10047350 f i LIBCMTD:throw_bad_alloc.obj
 0001:00046390       ??_Gexception@std@@UAEPAXI@Z 10047390 f i LIBCMTD:throw_bad_alloc.obj
 0001:00046390       ??_Eexception@std@@UAEPAXI@Z 10047390 f i LIBCMTD:throw_bad_alloc.obj
 0001:000463d0       ?__scrt_throw_std_bad_alloc@@YAXXZ 100473d0 f   LIBCMTD:throw_bad_alloc.obj
 0001:00046400       ?__scrt_throw_std_bad_array_new_length@@YAXXZ 10047400 f   LIBCMTD:throw_bad_alloc.obj
 0001:00046430       ?what@exception@std@@UBEPBDXZ 10047430 f i LIBCMTD:throw_bad_alloc.obj
 0001:00046470       @__security_check_cookie@4 10047470 f   LIBCMTD:secchk.obj
 0001:00046490       __get_startup_argv_mode    10047490 f   LIBCMTD:argv_mode.obj
 0001:000464a0       ___scrt_is_ucrt_dll_in_use 100474a0 f   LIBCMTD:ucrt_detection.obj
 0001:000464d0       ___raise_securityfailure   100474d0 f   LIBCMTD:gs_report.obj
 0001:00046510       ___report_gsfailure        10047510 f   LIBCMTD:gs_report.obj
 0001:00046660       ___report_rangecheckfailure 10047660 f   LIBCMTD:gs_report.obj
 0001:00046670       ___report_securityfailure  10047670 f   LIBCMTD:gs_report.obj
 0001:00046780       ___report_securityfailureEx 10047780 f   LIBCMTD:gs_report.obj
 0001:000468f0       _strstr                    100478f0 f   libvcruntimed:strstr.obj
 0001:00046c00       _memset                    10047c00 f   libvcruntimed:memset.obj
 0001:00046db0       _memcpy                    10047db0 f   libvcruntimed:memcpy.obj
 0001:000474d0       ??$?RD@__crt_internal_free_policy@@QBEXQBD@Z 100484d0 f i libvcruntimed:std_type_info.obj
 0001:00047500       ??$?RX@__crt_internal_free_policy@@QBEXQBX@Z 10048500 f i libvcruntimed:std_type_info.obj
 0001:00047530       ??$__crt_interlocked_compare_exchange_pointer@$$CBDPAD$$T@@YAPBDPDSBDQAD$$T@Z 10048530 f i libvcruntimed:std_type_info.obj
 0001:00047550       ??$__crt_interlocked_read_pointer@$$CBD@@YAPBDPDSBD@Z 10048550 f i libvcruntimed:std_type_info.obj
 0001:00047570       ??0?$__crt_unique_heap_ptr@DU__crt_internal_free_policy@@@@QAE@QAD@Z 10048570 f i libvcruntimed:std_type_info.obj
 0001:00047590       ??0?$__crt_unique_heap_ptr@XU__crt_internal_free_policy@@@@QAE@QAX@Z 10048590 f i libvcruntimed:std_type_info.obj
 0001:000475b0       ??1?$__crt_unique_heap_ptr@DU__crt_internal_free_policy@@@@QAE@XZ 100485b0 f i libvcruntimed:std_type_info.obj
 0001:000475d0       ??1?$__crt_unique_heap_ptr@XU__crt_internal_free_policy@@@@QAE@XZ 100485d0 f i libvcruntimed:std_type_info.obj
 0001:000475f0       ??B?$__crt_unique_heap_ptr@DU__crt_internal_free_policy@@@@QBE_NXZ 100485f0 f i libvcruntimed:std_type_info.obj
 0001:00047610       ??B?$__crt_unique_heap_ptr@XU__crt_internal_free_policy@@@@QBE_NXZ 10048610 f i libvcruntimed:std_type_info.obj
 0001:000476d0       ?__crt_interlocked_read_32@@YAHPDH@Z 100486d0 f i libvcruntimed:std_type_info.obj
 0001:000476f0       ?detach@?$__crt_unique_heap_ptr@XU__crt_internal_free_policy@@@@QAEPAXXZ 100486f0 f i libvcruntimed:std_type_info.obj
 0001:00047720       ?get@?$__crt_unique_heap_ptr@DU__crt_internal_free_policy@@@@QBEPADXZ 10048720 f i libvcruntimed:std_type_info.obj
 0001:00047740       ?get@?$__crt_unique_heap_ptr@XU__crt_internal_free_policy@@@@QBEPAXXZ 10048740 f i libvcruntimed:std_type_info.obj
 0001:00047760       ?is_valid@?$__crt_unique_heap_ptr@DU__crt_internal_free_policy@@@@QBE_NXZ 10048760 f i libvcruntimed:std_type_info.obj
 0001:000477a0       ?is_valid@?$__crt_unique_heap_ptr@XU__crt_internal_free_policy@@@@QBE_NXZ 100487a0 f i libvcruntimed:std_type_info.obj
 0001:000477e0       ?release@?$__crt_unique_heap_ptr@DU__crt_internal_free_policy@@@@QAEXXZ 100487e0 f i libvcruntimed:std_type_info.obj
 0001:00047810       ?release@?$__crt_unique_heap_ptr@XU__crt_internal_free_policy@@@@QAEXXZ 10048810 f i libvcruntimed:std_type_info.obj
 0001:00047840       ___std_type_info_compare   10048840 f   libvcruntimed:std_type_info.obj
 0001:00047870       ___std_type_info_destroy_list 10048870 f   libvcruntimed:std_type_info.obj
 0001:000478c0       ___std_type_info_hash      100488c0 f   libvcruntimed:std_type_info.obj
 0001:00047930       ___std_type_info_name      10048930 f   libvcruntimed:std_type_info.obj
 0001:00047b80       ??$__crt_interlocked_exchange_pointer@$$A6AXXZP6AXXZ@@YAP6AXXZPDS6AXXZQ6AXXZ@Z 10048b80 f i libvcruntimed:purevirt.obj
 0001:00047b90       ??$__crt_interlocked_read_pointer@$$A6AXXZ@@YAP6AXXZPDS6AXXZ@Z 10048b90 f i libvcruntimed:purevirt.obj
 0001:00047bb0       __get_purecall_handler     10048bb0 f   libvcruntimed:purevirt.obj
 0001:00047bd0       __purecall                 10048bd0 f   libvcruntimed:purevirt.obj
 0001:00047c10       __set_purecall_handler     10048c10 f   libvcruntimed:purevirt.obj
 0001:00047cb0       __except_handler4          10048cb0 f   libvcruntimed:chandler4.obj
 0001:00047f10       ___vcrt_initialize         10048f10 f   libvcruntimed:initialization.obj
 0001:00047f50       ___vcrt_thread_attach      10048f50 f   libvcruntimed:initialization.obj
 0001:00047f70       ___vcrt_thread_detach      10048f70 f   libvcruntimed:initialization.obj
 0001:00047f90       ___vcrt_uninitialize       10048f90 f   libvcruntimed:initialization.obj
 0001:00047fb0       ___vcrt_uninitialize_critical 10048fb0 f   libvcruntimed:initialization.obj
 0001:00047fd0       ___DestructExceptionObject 10048fd0 f   libvcruntimed:ehhelpers.obj
 0001:00048140       ?_CallMemberFunction0@@YGXQAX0@Z 10049140 f i libvcruntimed:ehhelpers.obj
 0001:00048210       ?raw_name@type_info@@QBEPBDXZ 10049210 f i libvcruntimed:ehhelpers.obj
 0001:00048230       __IsExceptionObjectToBeDestroyed 10049230 f   libvcruntimed:ehhelpers.obj
 0001:00048280       __SetWinRTOutOfMemoryExceptionCallback 10049280 f   libvcruntimed:ehhelpers.obj
 0001:00048290       ___AdjustPointer           10049290 f   libvcruntimed:ehhelpers.obj
 0001:000482f0       ___FrameUnwindFilter       100492f0 f   libvcruntimed:ehhelpers.obj
 0001:000483a0       ___GetPlatformExceptionInfo 100493a0 f   libvcruntimed:ehhelpers.obj
 0001:00048440       ___current_exception       10049440 f   libvcruntimed:ehhelpers.obj
 0001:00048450       ___current_exception_context 10049450 f   libvcruntimed:ehhelpers.obj
 0001:00048460       ___processing_throw        10049460 f   libvcruntimed:ehhelpers.obj
 0001:00048470       ___std_terminate           10049470 f   libvcruntimed:ehhelpers.obj
 0001:00048480       __is_exception_typeof      10049480 f   libvcruntimed:ehhelpers.obj
 0001:00048590       ??$?RD@__crt_public_free_policy@@QBEXQBD@Z 10049590 f i libvcruntimed:std_exception.obj
 0001:000485b0       ??0?$__crt_unique_heap_ptr@DU__crt_public_free_policy@@@@QAE@QAD@Z 100495b0 f i libvcruntimed:std_exception.obj
 0001:000485d0       ??1?$__crt_unique_heap_ptr@DU__crt_public_free_policy@@@@QAE@XZ 100495d0 f i libvcruntimed:std_exception.obj
 0001:000485f0       ??B?$__crt_unique_heap_ptr@DU__crt_public_free_policy@@@@QBE_NXZ 100495f0 f i libvcruntimed:std_exception.obj
 0001:00048610       ?detach@?$__crt_unique_heap_ptr@DU__crt_public_free_policy@@@@QAEPADXZ 10049610 f i libvcruntimed:std_exception.obj
 0001:00048640       ?get@?$__crt_unique_heap_ptr@DU__crt_public_free_policy@@@@QBEPADXZ 10049640 f i libvcruntimed:std_exception.obj
 0001:00048660       ?is_valid@?$__crt_unique_heap_ptr@DU__crt_public_free_policy@@@@QBE_NXZ 10049660 f i libvcruntimed:std_exception.obj
 0001:000486a0       ?release@?$__crt_unique_heap_ptr@DU__crt_public_free_policy@@@@QAEXXZ 100496a0 f i libvcruntimed:std_exception.obj
 0001:000486d0       ___std_exception_copy      100496d0 f   libvcruntimed:std_exception.obj
 0001:00048800       ___std_exception_destroy   10049800 f   libvcruntimed:std_exception.obj
 0001:00048840       __CxxThrowException@8      10049840 f   libvcruntimed:throw.obj
 0001:00048910       _strchr                    10049910 f   libvcruntimed:strchr.obj
 0001:0004897e       ___from_strstr_to_strchr   1004997e     libvcruntimed:strchr.obj
 0001:00048a90       ??$?0$00@DName@@QAE@PBDU?$StringLifeSelector@$00@@@Z 10049a90 f i libvcruntimed:undname.obj
 0001:00048b00       ??$?0$00@pcharNode@@QAE@PBDHU?$StringLifeSelector@$00@@@Z 10049b00 f i libvcruntimed:undname.obj
 0001:00048b40       ??$?0$01@DName@@QAE@PBDU?$StringLifeSelector@$01@@@Z 10049b40 f i libvcruntimed:undname.obj
 0001:00048bb0       ??$?0$01@pcharNode@@QAE@PBDHU?$StringLifeSelector@$01@@@Z 10049bb0 f i libvcruntimed:undname.obj
 0001:00048c50       ??$?0$0A@@DName@@QAE@PBDU?$StringLifeSelector@$0A@@@@Z 10049c50 f i libvcruntimed:undname.obj
 0001:00048cc0       ??$?0$0A@@pcharNode@@QAE@PBDHU?$StringLifeSelector@$0A@@@@Z 10049cc0 f i libvcruntimed:undname.obj
 0001:00048d60       ??$?0_K$0A@@?$optional@_K@std@@QAE@$$QA_K@Z 10049d60 f i libvcruntimed:undname.obj
 0001:00048db0       ??$?0_K@?$_Optional_construct_base@_K@std@@QAE@Uin_place_t@1@$$QA_K@Z 10049db0 f i libvcruntimed:undname.obj
 0001:00048de0       ??$?0_K@?$_Optional_destruct_base@_K$00@std@@QAE@Uin_place_t@1@$$QA_K@Z 10049de0 f i libvcruntimed:undname.obj
 0001:00048e20       ??$append@VDNameNode@@@DName@@AAEXPBVDNameNode@@@Z 10049e20 f i libvcruntimed:undname.obj
 0001:00048ed0       ??$append@VDNameStatusNode@@@DName@@AAEXPBVDNameStatusNode@@@Z 10049ed0 f i libvcruntimed:undname.obj
 0001:00048f80       ??$append@VcharNode@@@DName@@AAEXPBVcharNode@@@Z 10049f80 f i libvcruntimed:undname.obj
 0001:00049030       ??$append@VpDNameNode@@@DName@@AAEXPBVpDNameNode@@@Z 1004a030 f i libvcruntimed:undname.obj
 0001:000490e0       ??$append@VpcharNode@@@DName@@AAEXPBVpcharNode@@@Z 1004a0e0 f i libvcruntimed:undname.obj
 0001:00049190       ??$doPchar@$00@DName@@AAEXPBDH@Z 1004a190 f i libvcruntimed:undname.obj
 0001:000492e0       ??$doPchar@$01@DName@@AAEXPBDH@Z 1004a2e0 f i libvcruntimed:undname.obj
 0001:00049430       ??$doPchar@$0A@@DName@@AAEXPBDH@Z 1004a430 f i libvcruntimed:undname.obj
 0001:00049580       ??$forward@_K@std@@YA$$QA_KAA_K@Z 1004a580 f i libvcruntimed:undname.obj
 0001:00049590       ??$size@D$04@std@@YAIAAY04$$CBD@Z 1004a590 f i libvcruntimed:undname.obj
 0001:000495a0       ??$size@D$0EB@@std@@YAIAAY0EB@$$CBD@Z 1004a5a0 f i libvcruntimed:undname.obj
 0001:000495b0       ??0?$_Optional_construct_base@_K@std@@QAE@XZ 1004a5b0 f i libvcruntimed:undname.obj
 0001:000495d0       ??0?$_Optional_destruct_base@_K$00@std@@QAE@XZ 1004a5d0 f i libvcruntimed:undname.obj
 0001:00049600       ??0?$optional@_K@std@@QAE@XZ 1004a600 f i libvcruntimed:undname.obj
 0001:00049620       ??0Block@_HeapManager@@QAE@XZ 1004a620 f i libvcruntimed:undname.obj
 0001:00049640       ??0DName@@QAE@AAPBDD@Z     1004a640 f   libvcruntimed:undname.obj
 0001:00049810       ??0DName@@QAE@ABUStringLiteral@@@Z 1004a810 f   libvcruntimed:undname.obj
 0001:00049870       ??0DName@@QAE@ABV0@@Z      1004a870 f i libvcruntimed:undname.obj
 0001:000498a0       ??0DName@@QAE@D@Z          1004a8a0 f   libvcruntimed:undname.obj
 0001:000498e0       ??0DName@@QAE@PAV0@@Z      1004a8e0 f   libvcruntimed:undname.obj
 0001:000499c0       ??0DName@@QAE@W4DNameStatus@@@Z 1004a9c0 f   libvcruntimed:undname.obj
 0001:00049a80       ??0DName@@QAE@XZ           1004aa80 f i libvcruntimed:undname.obj
 0001:00049ab0       ??0DName@@QAE@_J@Z         1004aab0 f   libvcruntimed:undname.obj
 0001:00049bd0       ??0DName@@QAE@_K@Z         1004abd0 f   libvcruntimed:undname.obj
 0001:00049ca0       ??0DNameNode@@IAE@XZ       1004aca0 f i libvcruntimed:undname.obj
 0001:00049cc0       ??0Replicator@@QAE@XZ      1004acc0 f i libvcruntimed:undname.obj
 0001:00049d10       ??0UnDecorator@@QAE@PBDP6APADJ@ZK@Z 1004ad10 f i libvcruntimed:undname.obj
 0001:00049db0       ??0_Nontrivial_dummy_type@std@@QAE@XZ 1004adb0 f i libvcruntimed:undname.obj
 0001:00049dd0       ??0charNode@@QAE@D@Z       1004add0 f i libvcruntimed:undname.obj
 0001:00049e10       ??0pDNameNode@@QAE@PAVDName@@@Z 1004ae10 f   libvcruntimed:undname.obj
 0001:00049e90       ??0pairNode@@QAE@PBVDNameNode@@0@Z 1004ae90 f i libvcruntimed:undname.obj
 0001:00049f00       ??2@YAPAXIAAV_HeapManager@@H@Z 1004af00 f   libvcruntimed:undname.obj
 0001:00049f50       ??4DName@@QAEAAV0@ABUStringLiteral@@@Z 1004af50 f   libvcruntimed:undname.obj
 0001:00049fa0       ??4DName@@QAEAAV0@ABV0@@Z  1004afa0 f   libvcruntimed:undname.obj
 0001:00049fd0       ??4DName@@QAEAAV0@D@Z      1004afd0 f i libvcruntimed:undname.obj
 0001:0004a010       ??4DName@@QAEAAV0@PAV0@@Z  1004b010 f   libvcruntimed:undname.obj
 0001:0004a0d0       ??4DName@@QAEAAV0@W4DNameStatus@@@Z 1004b0d0 f   libvcruntimed:undname.obj
 0001:0004a170       ??AReplicator@@QBE?AVDName@@H@Z 1004b170 f   libvcruntimed:undname.obj
 0001:0004a1f0       ??B?$optional@_K@std@@QBE_NXZ 1004b1f0 f i libvcruntimed:undname.obj
 0001:0004a210       ??D?$optional@_K@std@@QGAEAA_KXZ 1004b210 f i libvcruntimed:undname.obj
 0001:0004a290       ??H@YA?AVDName@@ABUStringLiteral@@ABV0@@Z 1004b290 f i libvcruntimed:undname.obj
 0001:0004a2d0       ??H@YA?AVDName@@DABV0@@Z   1004b2d0 f i libvcruntimed:undname.obj
 0001:0004a310       ??H@YA?AVDName@@W4DNameStatus@@ABV0@@Z 1004b310 f i libvcruntimed:undname.obj
 0001:0004a350       ??HDName@@QBE?AV0@ABUStringLiteral@@@Z 1004b350 f   libvcruntimed:undname.obj
 0001:0004a3a0       ??HDName@@QBE?AV0@ABV0@@Z  1004b3a0 f   libvcruntimed:undname.obj
 0001:0004a3f0       ??HDName@@QBE?AV0@D@Z      1004b3f0 f   libvcruntimed:undname.obj
 0001:0004a440       ??HDName@@QBE?AV0@PAV0@@Z  1004b440 f   libvcruntimed:undname.obj
 0001:0004a490       ??HDName@@QBE?AV0@W4DNameStatus@@@Z 1004b490 f   libvcruntimed:undname.obj
 0001:0004a4e0       ??HStringLiteral@@QBE?AU0@H@Z 1004b4e0 f i libvcruntimed:undname.obj
 0001:0004a520       ??YDName@@QAEAAV0@ABUStringLiteral@@@Z 1004b520 f   libvcruntimed:undname.obj
 0001:0004a5e0       ??YDName@@QAEAAV0@ABV0@@Z  1004b5e0 f   libvcruntimed:undname.obj
 0001:0004a6a0       ??YDName@@QAEAAV0@D@Z      1004b6a0 f   libvcruntimed:undname.obj
 0001:0004a740       ??YDName@@QAEAAV0@PAV0@@Z  1004b740 f   libvcruntimed:undname.obj
 0001:0004a820       ??YDName@@QAEAAV0@W4DNameStatus@@@Z 1004b820 f   libvcruntimed:undname.obj
 0001:0004a8a0       ??YReplicator@@QAEAAV0@ABVDName@@@Z 1004b8a0 f   libvcruntimed:undname.obj
 0001:0004a950       ??_5DName@@QAEAAV0@ABV0@@Z 1004b950 f   libvcruntimed:undname.obj
 0001:0004a9c0       ??__K_l@@YA?AUStringLiteral@@PBDI@Z 1004b9c0 f i libvcruntimed:undname.obj
 0001:0004a9f0       ?Constructor@_HeapManager@@QAEXP6APAXI@ZP6AXPAX@Z@Z 1004b9f0 f i libvcruntimed:undname.obj
 0001:0004aa40       ?Destructor@_HeapManager@@QAEXXZ 1004ba40 f i libvcruntimed:undname.obj
 0001:0004aae0       ?UScore@UnDecorator@@SA?AUStringLiteral@@W4Tokens@@@Z 1004bae0 f   libvcruntimed:undname.obj
 0001:0004ab40       ?composeDeclaration@UnDecorator@@CA?AVDName@@ABV2@@Z 1004bb40 f i libvcruntimed:undname.obj
 0001:0004d290       ?dbGetString@DName@@QBEPADXZ 1004e290 f   libvcruntimed:undname.obj
 0001:0004d2c0       ?doAccessSpecifiers@UnDecorator@@SAHXZ 1004e2c0 f i libvcruntimed:undname.obj
 0001:0004d2f0       ?doAllocationLanguage@UnDecorator@@SAHXZ 1004e2f0 f i libvcruntimed:undname.obj
 0001:0004d320       ?doAllocationModel@UnDecorator@@SAHXZ 1004e320 f i libvcruntimed:undname.obj
 0001:0004d350       ?doEcsu@UnDecorator@@SAHXZ 1004e350 f i libvcruntimed:undname.obj
 0001:0004d380       ?doEllipsis@UnDecorator@@SAHXZ 1004e380 f i libvcruntimed:undname.obj
 0001:0004d3b0       ?doFunctionReturns@UnDecorator@@SAHXZ 1004e3b0 f i libvcruntimed:undname.obj
 0001:0004d3e0       ?doMSKeywords@UnDecorator@@SAHXZ 1004e3e0 f i libvcruntimed:undname.obj
 0001:0004d410       ?doMemberTypes@UnDecorator@@SAHXZ 1004e410 f i libvcruntimed:undname.obj
 0001:0004d440       ?doNameOnly@UnDecorator@@SAHXZ 1004e440 f i libvcruntimed:undname.obj
 0001:0004d460       ?doNoIdentCharCheck@UnDecorator@@SAHXZ 1004e460 f i libvcruntimed:undname.obj
 0001:0004d480       ?doPchar@DName@@AAEXD@Z    1004e480 f   libvcruntimed:undname.obj
 0001:0004d510       ?doPtr64@UnDecorator@@SAHXZ 1004e510 f i libvcruntimed:undname.obj
 0001:0004d540       ?doRestrictionSpec@UnDecorator@@SAHXZ 1004e540 f i libvcruntimed:undname.obj
 0001:0004d570       ?doThisTypes@UnDecorator@@SAHXZ 1004e570 f i libvcruntimed:undname.obj
 0001:0004d5b0       ?doThrowTypes@UnDecorator@@SAHXZ 1004e5b0 f i libvcruntimed:undname.obj
 0001:0004d5e0       ?doTypeOnly@UnDecorator@@SAHXZ 1004e5e0 f i libvcruntimed:undname.obj
 0001:0004d600       ?doUnderScore@UnDecorator@@SAHXZ 1004e600 f i libvcruntimed:undname.obj
 0001:0004d630       ?getAddressOf@UnDecorator@@CA?AVDName@@XZ 1004e630 f   libvcruntimed:undname.obj
 0001:0004d6d0       ?getArgumentList@UnDecorator@@CA?AVDName@@XZ 1004e6d0 f   libvcruntimed:undname.obj
 0001:0004d870       ?getArgumentTypes@UnDecorator@@CA?AVDName@@XZ 1004e870 f   libvcruntimed:undname.obj
 0001:0004db00       ?getArrayAccess@UnDecorator@@CA?AVDName@@XZ 1004eb00 f   libvcruntimed:undname.obj
 0001:0004dbc0       ?getArrayObject@UnDecorator@@CA?AVDName@@XZ 1004ebc0 f   libvcruntimed:undname.obj
 0001:0004dce0       ?getArrayType@UnDecorator@@CA?AVDName@@ABV2@@Z 1004ece0 f i libvcruntimed:undname.obj
 0001:0004e020       ?getBasedType@UnDecorator@@CA?AVDName@@XZ 1004f020 f   libvcruntimed:undname.obj
 0001:0004e150       ?getBasicDataType@UnDecorator@@CA?AVDName@@ABV2@@Z 1004f150 f   libvcruntimed:undname.obj
 0001:0004ed20       ?getCHPEName@UnDecorator@@QAEPADPADH@Z 1004fd20 f i libvcruntimed:undname.obj
 0001:0004eee0       ?getCallIndex@UnDecorator@@CA?AVDName@@XZ 1004fee0 f i libvcruntimed:undname.obj
 0001:0004ef00       ?getCallingConvention@UnDecorator@@CA?AVDName@@XZ 1004ff00 f   libvcruntimed:undname.obj
 0001:0004f1c0       ?getDataIndirectType@UnDecorator@@CA?AVDName@@ABV2@W4IndirectionKind@@0H@Z 100501c0 f   libvcruntimed:undname.obj
 0001:0004fd20       ?getDataIndirectType@UnDecorator@@CA?AVDName@@XZ 10050d20 f i libvcruntimed:undname.obj
 0001:0004fd70       ?getDataType@UnDecorator@@CA?AVDName@@PAV2@@Z 10050d70 f   libvcruntimed:undname.obj
 0001:0004ff00       ?getDecoratedName@UnDecorator@@CA?AVDName@@XZ 10050f00 f   libvcruntimed:undname.obj
 0001:00050440       ?getDimension@UnDecorator@@CA?AVDName@@_N@Z 10051440 f   libvcruntimed:undname.obj
 0001:00050740       ?getDispatchTarget@UnDecorator@@CA?AVDName@@XZ 10051740 f   libvcruntimed:undname.obj
 0001:00050810       ?getDisplacement@UnDecorator@@CA?AVDName@@XZ 10051810 f i libvcruntimed:undname.obj
 0001:00050830       ?getECSUDataType@UnDecorator@@CA?AVDName@@XZ 10051830 f   libvcruntimed:undname.obj
 0001:00050b20       ?getECSUName@UnDecorator@@CA?AVDName@@XZ 10051b20 f i libvcruntimed:undname.obj
 0001:00050b40       ?getEnumType@UnDecorator@@CA?AVDName@@XZ 10051b40 f i libvcruntimed:undname.obj
 0001:00050d70       ?getExtendedDataIndirectType@UnDecorator@@CA?AVDName@@AAW4IndirectionKind@@AA_NH@Z 10051d70 f   libvcruntimed:undname.obj
 0001:00051050       ?getExternalDataType@UnDecorator@@CA?AVDName@@ABV2@@Z 10052050 f i libvcruntimed:undname.obj
 0001:00051110       ?getFloatingPoint@UnDecorator@@CA?AVDName@@H@Z 10052110 f   libvcruntimed:undname.obj
 0001:00051340       ?getFunctionIndirectType@UnDecorator@@CA?AVDName@@ABV2@@Z 10052340 f   libvcruntimed:undname.obj
 0001:00051960       ?getGuardNumber@UnDecorator@@CA?AVDName@@XZ 10052960 f i libvcruntimed:undname.obj
 0001:00051980       ?getLastChar@DName@@QBEDXZ 10052980 f i libvcruntimed:undname.obj
 0001:000519d0       ?getLastChar@DNameStatusNode@@UBEDXZ 100529d0 f i libvcruntimed:undname.obj
 0001:00051a10       ?getLastChar@charNode@@UBEDXZ 10052a10 f i libvcruntimed:undname.obj
 0001:00051a30       ?getLastChar@pDNameNode@@UBEDXZ 10052a30 f i libvcruntimed:undname.obj
 0001:00051a70       ?getLastChar@pairNode@@UBEDXZ 10052a70 f i libvcruntimed:undname.obj
 0001:00051af0       ?getLastChar@pcharNode@@UBEDXZ 10052af0 f i libvcruntimed:undname.obj
 0001:00051b30       ?getLexicalFrame@UnDecorator@@CA?AVDName@@XZ 10052b30 f i libvcruntimed:undname.obj
 0001:00051b80       ?getMemberAccess@UnDecorator@@CA?AVDName@@XZ 10052b80 f   libvcruntimed:undname.obj
 0001:00051c30       ?getMemoryWithBuffer@_HeapManager@@QAEPAXI@Z 10052c30 f   libvcruntimed:undname.obj
 0001:00051d50       ?getMemoryWithoutBuffer@_HeapManager@@QAEPAXI@Z 10052d50 f   libvcruntimed:undname.obj
 0001:00051da0       ?getNoexcept@UnDecorator@@CA?AVDName@@XZ 10052da0 f   libvcruntimed:undname.obj
 0001:00051e40       ?getNumberOfDimensions@UnDecorator@@CAHXZ 10052e40 f   libvcruntimed:undname.obj
 0001:00051f80       ?getOperatorName@UnDecorator@@CA?AVDName@@_NPA_N@Z 10052f80 f i libvcruntimed:undname.obj
 0001:00052d40       ?getPointerToMember@UnDecorator@@CA?AVDName@@XZ 10053d40 f   libvcruntimed:undname.obj
 0001:00052e70       ?getPointerType@UnDecorator@@CA?AVDName@@ABV2@0@Z 10053e70 f i libvcruntimed:undname.obj
 0001:00052ea0       ?getPointerTypeArray@UnDecorator@@CA?AVDName@@ABV2@0@Z 10053ea0 f i libvcruntimed:undname.obj
 0001:00052ed0       ?getPrimaryDataType@UnDecorator@@CA?AVDName@@ABV2@@Z 10053ed0 f   libvcruntimed:undname.obj
 0001:00053480       ?getPtrRefDataType@UnDecorator@@CA?AVDName@@ABV2@H@Z 10054480 f   libvcruntimed:undname.obj
 0001:000537d0       ?getPtrRefType@UnDecorator@@CA?AVDName@@ABV2@0W4IndirectionKind@@@Z 100547d0 f   libvcruntimed:undname.obj
 0001:000539b0       ?getReferenceType@UnDecorator@@CA?AVDName@@ABV2@0W4IndirectionKind@@@Z 100549b0 f i libvcruntimed:undname.obj
 0001:000539e0       ?getRestrictionSpec@UnDecorator@@CA?AVDName@@XZ 100549e0 f   libvcruntimed:undname.obj
 0001:00053c10       ?getReturnType@UnDecorator@@CA?AVDName@@PAV2@@Z 10054c10 f   libvcruntimed:undname.obj
 0001:00053c70       ?getScope@UnDecorator@@CA?AVDName@@XZ 10054c70 f   libvcruntimed:undname.obj
 0001:00054360       ?getScopedName@UnDecorator@@CA?AVDName@@XZ 10055360 f   libvcruntimed:undname.obj
 0001:00054500       ?getSignedDimension@UnDecorator@@CA?AVDName@@XZ 10055500 f   libvcruntimed:undname.obj
 0001:000545a0       ?getStorageConvention@UnDecorator@@CA?AVDName@@XZ 100555a0 f i libvcruntimed:undname.obj
 0001:000545c0       ?getString@DName@@QBEPADPAD0@Z 100555c0 f i libvcruntimed:undname.obj
 0001:00054630       ?getString@DName@@QBEPADPADH@Z 10055630 f i libvcruntimed:undname.obj
 0001:000546e0       ?getString@DNameStatusNode@@UBEPADPAD0@Z 100556e0 f i libvcruntimed:undname.obj
 0001:00054720       ?getString@charNode@@UBEPADPAD0@Z 10055720 f i libvcruntimed:undname.obj
 0001:00054760       ?getString@pDNameNode@@UBEPADPAD0@Z 10055760 f i libvcruntimed:undname.obj
 0001:000547b0       ?getString@pairNode@@UBEPADPAD0@Z 100557b0 f i libvcruntimed:undname.obj
 0001:00054860       ?getString@pcharNode@@UBEPADPAD0@Z 10055860 f i libvcruntimed:undname.obj
 0001:000548a0       ?getStringEncoding@UnDecorator@@CA?AVDName@@W4PrefixKind@@H@Z 100558a0 f   libvcruntimed:undname.obj
 0001:000549f0       ?getStringHelper@@YAPADPADPBD1H@Z 100559f0 f i libvcruntimed:undname.obj
 0001:00054a40       ?getStringObject@UnDecorator@@CA?AVDName@@XZ 10055a40 f   libvcruntimed:undname.obj
 0001:00054b10       ?getSymbolName@UnDecorator@@CA?AVDName@@XZ 10055b10 f i libvcruntimed:undname.obj
 0001:00054bc0       ?getTemplateArgumentList@UnDecorator@@CA?AVDName@@XZ 10055bc0 f   libvcruntimed:undname.obj
 0001:00054f60       ?getTemplateName@UnDecorator@@CA?AVDName@@_N@Z 10055f60 f   libvcruntimed:undname.obj
 0001:00055190       ?getTemplateNonTypeArgument@UnDecorator@@CA?AVDName@@XZ 10056190 f   libvcruntimed:undname.obj
 0001:00055910       ?getTemplateTypeArgument@UnDecorator@@CA?AVDName@@XZ 10056910 f   libvcruntimed:undname.obj
 0001:00055b20       ?getThisType@UnDecorator@@CA?AVDName@@XZ 10056b20 f i libvcruntimed:undname.obj
 0001:00055b70       ?getThrowTypes@UnDecorator@@CA?AVDName@@XZ 10056b70 f   libvcruntimed:undname.obj
 0001:00055bc0       ?getTypeEncoding@UnDecorator@@CAHXZ 10056bc0 f i libvcruntimed:undname.obj
 0001:00056930       ?getUndecoratedName@UnDecorator@@QAEPADPADH@Z 10057930 f i libvcruntimed:undname.obj
 0001:00056ae0       ?getUnionObject@UnDecorator@@CA?AVDName@@XZ 10057ae0 f   libvcruntimed:undname.obj
 0001:00056bf0       ?getVCallThunkType@UnDecorator@@CA?AVDName@@XZ 10057bf0 f i libvcruntimed:undname.obj
 0001:00056c80       ?getValue@UnDecorator@@CA?AV?$optional@_K@std@@XZ 10057c80 f   libvcruntimed:undname.obj
 0001:00056d70       ?getValueObject@UnDecorator@@CA?AVDName@@XZ 10057d70 f   libvcruntimed:undname.obj
 0001:00056fc0       ?getVbTableType@UnDecorator@@CA?AVDName@@ABV2@@Z 10057fc0 f i libvcruntimed:undname.obj
 0001:00056fe0       ?getVdispMapType@UnDecorator@@CA?AVDName@@ABV2@@Z 10057fe0 f i libvcruntimed:undname.obj
 0001:00057090       ?getVfTableType@UnDecorator@@CA?AVDName@@ABV2@@Z 10058090 f i libvcruntimed:undname.obj
 0001:00057310       ?getZName@UnDecorator@@CA?AVDName@@_N0@Z 10058310 f   libvcruntimed:undname.obj
 0001:00057720       ?haveTemplateParameters@UnDecorator@@SAHXZ 10058720 f i libvcruntimed:undname.obj
 0001:00057740       ?isArray@DName@@QBEHXZ     10058740 f i libvcruntimed:undname.obj
 0001:00057760       ?isComArray@DName@@QBEHXZ  10058760 f i libvcruntimed:undname.obj
 0001:00057780       ?isEmpty@DName@@QBEHXZ     10058780 f i libvcruntimed:undname.obj
 0001:000577c0       ?isFull@Replicator@@QBEHXZ 100587c0 f i libvcruntimed:undname.obj
 0001:00057800       ?isNoTE@DName@@QBEHXZ      10058800 f i libvcruntimed:undname.obj
 0001:00057820       ?isPinPtr@DName@@QBEHXZ    10058820 f i libvcruntimed:undname.obj
 0001:00057840       ?isPtrRef@DName@@QBEHXZ    10058840 f i libvcruntimed:undname.obj
 0001:00057860       ?isUDC@DName@@QBEHXZ       10058860 f i libvcruntimed:undname.obj
 0001:000578b0       ?isUDTThunk@DName@@QBEHXZ  100588b0 f i libvcruntimed:undname.obj
 0001:00057900       ?isVCallThunk@DName@@QBEHXZ 10058900 f i libvcruntimed:undname.obj
 0001:00057920       ?isValid@DName@@QBEHXZ     10058920 f i libvcruntimed:undname.obj
 0001:00057960       ?length@DName@@QBEHXZ      10058960 f i libvcruntimed:undname.obj
 0001:000579b0       ?length@DNameStatusNode@@UBEHXZ 100589b0 f i libvcruntimed:undname.obj
 0001:000579d0       ?length@charNode@@UBEHXZ   100589d0 f i libvcruntimed:undname.obj
 0001:000579f0       ?length@pDNameNode@@UBEHXZ 100589f0 f i libvcruntimed:undname.obj
 0001:00057a30       ?length@pairNode@@UBEHXZ   10058a30 f i libvcruntimed:undname.obj
 0001:00057ac0       ?length@pcharNode@@UBEHXZ  10058ac0 f i libvcruntimed:undname.obj
 0001:00057ae0       ?make@DNameStatusNode@@SAPBV1@W4DNameStatus@@@Z 10058ae0 f i libvcruntimed:undname.obj
 0001:00057b20       ?parseDecoratedName@UnDecorator@@CA?AVDName@@XZ 10058b20 f   libvcruntimed:undname.obj
 0001:00057d10       ?raw_length@DNameStatusNode@@UBEHXZ 10058d10 f i libvcruntimed:undname.obj
 0001:00057d30       ?raw_length@charNode@@UBEHXZ 10058d30 f i libvcruntimed:undname.obj
 0001:00057d50       ?raw_length@pDNameNode@@UBEHXZ 10058d50 f i libvcruntimed:undname.obj
 0001:00057d70       ?raw_length@pairNode@@UBEHXZ 10058d70 f i libvcruntimed:undname.obj
 0001:00057d90       ?raw_length@pcharNode@@UBEHXZ 10058d90 f i libvcruntimed:undname.obj
 0001:00057db0       ?setIsArray@DName@@QAEXXZ  10058db0 f i libvcruntimed:undname.obj
 0001:00057de0       ?setIsComArray@DName@@QAEXXZ 10058de0 f i libvcruntimed:undname.obj
 0001:00057e10       ?setIsNoTE@DName@@QAEXXZ   10058e10 f i libvcruntimed:undname.obj
 0001:00057e40       ?setIsPinPtr@DName@@QAEXXZ 10058e40 f i libvcruntimed:undname.obj
 0001:00057e70       ?setIsUDC@DName@@QAEXXZ    10058e70 f i libvcruntimed:undname.obj
 0001:00057eb0       ?setIsVCallThunk@DName@@QAEXXZ 10058eb0 f i libvcruntimed:undname.obj
 0001:00057ee0       ?setPtrRef@DName@@QAEAAV1@XZ 10058ee0 f i libvcruntimed:undname.obj
 0001:00057f10       ?status@DName@@QBE?AW4DNameStatus@@XZ 10058f10 f i libvcruntimed:undname.obj
 0001:00058030       ___unDName                 10059030 f   libvcruntimed:undname.obj
 0001:00058070       ___unDNameEx               10059070 f   libvcruntimed:undname.obj
 0001:00058170       __vsprintf_s_l             10059170 f i libvcruntimed:undname.obj
 0001:000581d0       _sprintf_s                 100591d0 f i libvcruntimed:undname.obj
 0001:00058220       _unDNameGenerateCHPE       10059220 f   libvcruntimed:undname.obj
 0001:000582a0       __local_unwind4            100592a0 f   libvcruntimed:exsup4.obj
 0001:000583d0       __seh_longjmp_unwind4@4    100593d0 f   libvcruntimed:exsup4.obj
 0001:00058410       @_EH4_CallFilterFunc@8     10059410 f   libvcruntimed:exsup4.obj
 0001:00058430       @_EH4_TransferToHandler@8  10059430 f   libvcruntimed:exsup4.obj
 0001:00058450       @_EH4_GlobalUnwind2@8      10059450 f   libvcruntimed:exsup4.obj
 0001:00058470       @_EH4_LocalUnwind@16       10059470 f   libvcruntimed:exsup4.obj
 0001:000584a0       ___except_validate_context_record 100594a0 f   libvcruntimed:jbcxrval.obj
 0001:00058500       ___except_validate_jump_buffer 10059500 f   libvcruntimed:jbcxrval.obj
 0001:00058520       ___except_validate_jump_buffer_common 10059520 f i libvcruntimed:jbcxrval.obj
 0001:00058590       ??$?RU__vcrt_ptd@@@__crt_internal_free_policy@@QBEXQBU__vcrt_ptd@@@Z 10059590 f i libvcruntimed:per_thread_data.obj
 0001:000585c0       ??0?$__crt_unique_heap_ptr@U__vcrt_ptd@@U__crt_internal_free_policy@@@@QAE@QAU__vcrt_ptd@@@Z 100595c0 f i libvcruntimed:per_thread_data.obj
 0001:00058600       ??1?$__crt_unique_heap_ptr@U__vcrt_ptd@@U__crt_internal_free_policy@@@@QAE@XZ 10059600 f i libvcruntimed:per_thread_data.obj
 0001:00058640       ??B?$__crt_unique_heap_ptr@U__vcrt_ptd@@U__crt_internal_free_policy@@@@QBE_NXZ 10059640 f i libvcruntimed:per_thread_data.obj
 0001:00058660       ?detach@?$__crt_unique_heap_ptr@U__vcrt_ptd@@U__crt_internal_free_policy@@@@QAEPAU__vcrt_ptd@@XZ 10059660 f i libvcruntimed:per_thread_data.obj
 0001:00058690       ?get@?$__crt_unique_heap_ptr@U__vcrt_ptd@@U__crt_internal_free_policy@@@@QBEPAU__vcrt_ptd@@XZ 10059690 f i libvcruntimed:per_thread_data.obj
 0001:000586b0       ?is_valid@?$__crt_unique_heap_ptr@U__vcrt_ptd@@U__crt_internal_free_policy@@@@QBE_NXZ 100596b0 f i libvcruntimed:per_thread_data.obj
 0001:000586f0       ?release@?$__crt_unique_heap_ptr@U__vcrt_ptd@@U__crt_internal_free_policy@@@@QAEXXZ 100596f0 f i libvcruntimed:per_thread_data.obj
 0001:00058750       ___vcrt_freefls@4          10059750 f   libvcruntimed:per_thread_data.obj
 0001:00058780       ___vcrt_freeptd            10059780 f   libvcruntimed:per_thread_data.obj
 0001:000587f0       ___vcrt_getptd             100597f0 f   libvcruntimed:per_thread_data.obj
 0001:00058820       ___vcrt_getptd_noexit      10059820 f   libvcruntimed:per_thread_data.obj
 0001:000589d0       ___vcrt_getptd_noinit      100599d0 f   libvcruntimed:per_thread_data.obj
 0001:00058a40       ___vcrt_initialize_ptd     10059a40 f   libvcruntimed:per_thread_data.obj
 0001:00058aa0       ___vcrt_uninitialize_ptd   10059aa0 f   libvcruntimed:per_thread_data.obj
 0001:00058ae0       ___vcrt_initialize_locks   10059ae0 f   libvcruntimed:locks.obj
 0001:00058b50       ___vcrt_lock               10059b50 f   libvcruntimed:locks.obj
 0001:00058b70       ___vcrt_uninitialize_locks 10059b70 f   libvcruntimed:locks.obj
 0001:00058bd0       ___vcrt_unlock             10059bd0 f   libvcruntimed:locks.obj
 0001:00058bf0       ??$?0AAViterator@TryBlockMap@__FrameHandler3@@AAV012@$0A@@?$pair@Viterator@TryBlockMap@__FrameHandler3@@V123@@std@@QAE@AAViterator@TryBlockMap@__FrameHandler3@@0@Z 10059bf0 f i libvcruntimed:trnsctrl.obj
 0001:00058c50       ??$forward@AAViterator@TryBlockMap@__FrameHandler3@@@std@@YAAAViterator@TryBlockMap@__FrameHandler3@@AAV123@@Z 10059c50 f i libvcruntimed:trnsctrl.obj
 0001:00058c60       ??0iterator@TryBlockMap@__FrameHandler3@@QAE@AAV12@I@Z 10059c60 f i libvcruntimed:trnsctrl.obj
 0001:00058c90       ?GetRangeOfTrysToCheck@__FrameHandler3@@SA?AU?$pair@Viterator@TryBlockMap@__FrameHandler3@@V123@@std@@AAVTryBlockMap@1@HPAXPBU_s_FuncInfo@@H@Z 10059c90 f   libvcruntimed:trnsctrl.obj
 0001:00058db0       ?_CallCatchBlock2@@YAPAXPAUEHRegistrationNode@@PBU_s_FuncInfo@@PAXHK@Z 10059db0 f   libvcruntimed:trnsctrl.obj
 0001:00058e40       ?_CallSETranslator@@YAHPAUEHExceptionRecord@@PAUEHRegistrationNode@@PAX2PBU_s_FuncInfo@@H1@Z 10059e40 f   libvcruntimed:trnsctrl.obj
 0001:00058fa0       ?_JumpToContinuation@@YGXPAXPAUEHRegistrationNode@@@Z 10059fa0 f   libvcruntimed:trnsctrl.obj
 0001:00058fe0       ?_UnwindNestedFrames@@YGXPAUEHRegistrationNode@@PAUEHExceptionRecord@@@Z 10059fe0 f   libvcruntimed:trnsctrl.obj
 0001:00059050       __CatchGuardHandler        1005a050 f   libvcruntimed:trnsctrl.obj
 0001:000590b0       __CreateFrameInfo          1005a0b0 f   libvcruntimed:trnsctrl.obj
 0001:000590f0       __FindAndUnlinkFrame       1005a0f0 f   libvcruntimed:trnsctrl.obj
 0001:00059180       __TranslatorGuardHandler   1005a180 f   libvcruntimed:trnsctrl.obj
 0001:00059260       ___CxxFrameHandler         1005a260 f   libvcruntimed:trnsctrl.obj
 0001:000592b0       ___CxxFrameHandler2        1005a2b0 f   libvcruntimed:trnsctrl.obj
 0001:00059300       ___CxxFrameHandler3        1005a300 f   libvcruntimed:trnsctrl.obj
 0001:00059350       ___CxxLongjmpUnwind@4      1005a350 f   libvcruntimed:trnsctrl.obj
 0001:000593a0       __global_unwind2           1005a3a0 f   libvcruntimed:exsup.obj
 0001:00059430       __local_unwind2            1005a430 f   libvcruntimed:exsup.obj
 0001:000594f0       __abnormal_termination     1005a4f0 f   libvcruntimed:exsup.obj
 0001:00059530       __NLG_Notify1              1005a530 f   libvcruntimed:exsup.obj
 0001:00059540       __NLG_Notify               1005a540 f   libvcruntimed:exsup.obj
 0001:00059557       __NLG_Dispatch             1005a557     libvcruntimed:exsup.obj
 0001:00059557       __NLG_Dispatch2            1005a557     libvcruntimed:exsup.obj
 0001:00059570       __NLG_Call                 1005a570 f   libvcruntimed:exsup.obj
 0001:00059572       __NLG_Return2              1005a572     libvcruntimed:exsup.obj
 0001:00059580       ??$__crt_interlocked_exchange_pointer@UHINSTANCE__@@PAU1@@@YAPAUHINSTANCE__@@PDSAU0@QAU0@@Z 1005a580 f i libvcruntimed:winapi_downlevel.obj
 0001:00059590       ??$__crt_interlocked_exchange_pointer@UHINSTANCE__@@PAX@@YAPAUHINSTANCE__@@PDSAU0@QAX@Z 1005a590 f i libvcruntimed:winapi_downlevel.obj
 0001:000595a0       ??$__crt_interlocked_exchange_pointer@XPAX@@YAPAXPDSAXQAX@Z 1005a5a0 f i libvcruntimed:winapi_downlevel.obj
 0001:000595b0       ??$__crt_interlocked_read_pointer@UHINSTANCE__@@@@YAPAUHINSTANCE__@@PDSAU0@@Z 1005a5b0 f i libvcruntimed:winapi_downlevel.obj
 0001:000595d0       ??$__crt_interlocked_read_pointer@X@@YAPAXPDSAX@Z 1005a5d0 f i libvcruntimed:winapi_downlevel.obj
 0001:00059aa0       ___vcrt_FlsAlloc           1005aaa0 f   libvcruntimed:winapi_downlevel.obj
 0001:00059af0       ___vcrt_FlsFree            1005aaf0 f   libvcruntimed:winapi_downlevel.obj
 0001:00059b40       ___vcrt_FlsGetValue        1005ab40 f   libvcruntimed:winapi_downlevel.obj
 0001:00059b90       ___vcrt_FlsSetValue        1005ab90 f   libvcruntimed:winapi_downlevel.obj
 0001:00059bf0       ___vcrt_InitializeCriticalSectionEx 1005abf0 f   libvcruntimed:winapi_downlevel.obj
 0001:0005aa70       ??$TypeMatchHelper@V__FrameHandler3@@@@YAHPBU_s_HandlerType@@PBU_s_CatchableType@@PBU_s_ThrowInfo@@@Z 1005ba70 f i libvcruntimed:frame.obj
 0001:0005ab80       ??$__InternalCxxFrameHandler@V__FrameHandler3@@@@YA?AW4_EXCEPTION_DISPOSITION@@PAUEHExceptionRecord@@PAUEHRegistrationNode@@PAU_CONTEXT@@PAXPBU_s_FuncInfo@@H1E@Z 1005bb80 f i libvcruntimed:frame.obj
 0001:0005adb0       ??0HandlerMap@__FrameHandler3@@QAE@PBU_s_TryBlockMapEntry@@II@Z 1005bdb0 f i libvcruntimed:frame.obj
 0001:0005ade0       ??0TryBlockMap@__FrameHandler3@@QAE@PBU_s_FuncInfo@@I@Z 1005bde0 f i libvcruntimed:frame.obj
 0001:0005ae10       ??0bad_exception@std@@QAE@ABV01@@Z 1005be10 f i libvcruntimed:frame.obj
 0001:0005ae40       ??0bad_exception@std@@QAE@XZ 1005be40 f i libvcruntimed:frame.obj
 0001:0005ae70       ??0iterator@HandlerMap@__FrameHandler3@@QAE@AAV12@I@Z 1005be70 f i libvcruntimed:frame.obj
 0001:0005aea0       ??1bad_exception@std@@UAE@XZ 1005bea0 f i libvcruntimed:frame.obj
 0001:0005aec0       ??8iterator@HandlerMap@__FrameHandler3@@QBE_NABV012@@Z 1005bec0 f i libvcruntimed:frame.obj
 0001:0005af00       ??8type_info@@QBE_NABV0@@Z 1005bf00 f i libvcruntimed:frame.obj
 0001:0005af50       ??9iterator@HandlerMap@__FrameHandler3@@QBE_NABV012@@Z 1005bf50 f i libvcruntimed:frame.obj
 0001:0005afa0       ??Diterator@HandlerMap@__FrameHandler3@@QAE?BU_s_HandlerType@@XZ 1005bfa0 f i libvcruntimed:frame.obj
 0001:0005aff0       ??Diterator@TryBlockMap@__FrameHandler3@@QAE?BU_s_TryBlockMapEntry@@XZ 1005bff0 f i libvcruntimed:frame.obj
 0001:0005b050       ??Eiterator@HandlerMap@__FrameHandler3@@QAEAAV012@XZ 1005c050 f i libvcruntimed:frame.obj
 0001:0005b080       ??Eiterator@TryBlockMap@__FrameHandler3@@QAEAAV012@XZ 1005c080 f i libvcruntimed:frame.obj
 0001:0005b0b0       ??Miterator@TryBlockMap@__FrameHandler3@@QBE_NABV012@@Z 1005c0b0 f i libvcruntimed:frame.obj
 0001:0005b0f0       ??_Ebad_exception@std@@UAEPAXI@Z 1005c0f0 f i libvcruntimed:frame.obj
 0001:0005b0f0       ??_Gbad_exception@std@@UAEPAXI@Z 1005c0f0 f i libvcruntimed:frame.obj
 0001:0005b130       ?BuildCatchObject@__FrameHandler3@@SAXPAUEHExceptionRecord@@PAXPBU_s_HandlerType@@PBU_s_CatchableType@@@Z 1005c130 f   libvcruntimed:frame.obj
 0001:0005b160       ?BuildCatchObjectHelper@__FrameHandler3@@SAHPAUEHExceptionRecord@@PAXPBU_s_HandlerType@@PBU_s_CatchableType@@@Z 1005c160 f   libvcruntimed:frame.obj
 0001:0005b5e0       ?FrameUnwindToEmptyState@__FrameHandler3@@SAXPAUEHRegistrationNode@@PAXPBU_s_FuncInfo@@@Z 1005c5e0 f   libvcruntimed:frame.obj
 0001:0005b610       ?FrameUnwindToState@__FrameHandler3@@SAXPAUEHRegistrationNode@@PAXPBU_s_FuncInfo@@H@Z 1005c610 f   libvcruntimed:frame.obj
 0001:0005b7f0       ?GetMaxState@__FrameHandler3@@SAHPAXPBU_s_FuncInfo@@@Z 1005c7f0 f i libvcruntimed:frame.obj
 0001:0005b940       ?TypeMatch@__FrameHandler3@@SAHPBU_s_HandlerType@@PBU_s_CatchableType@@PBU_s_ThrowInfo@@@Z 1005c940 f   libvcruntimed:frame.obj
 0001:0005b960       ?_CallMemberFunction1@@YGXQAX00@Z 1005c960 f i libvcruntimed:frame.obj
 0001:0005b990       ?_CallMemberFunction2@@YGXQAX00H@Z 1005c990 f i libvcruntimed:frame.obj
 0001:0005b9c0       ?begin@HandlerMap@__FrameHandler3@@QAE?AViterator@12@XZ 1005c9c0 f i libvcruntimed:frame.obj
 0001:0005b9f0       ?end@HandlerMap@__FrameHandler3@@QAE?AViterator@12@XZ 1005c9f0 f i libvcruntimed:frame.obj
 0001:0005ba20       ?getESTypes@__FrameHandler3@@SAPBU_s_ESTypeList@@PBU_s_FuncInfo@@@Z 1005ca20 f i libvcruntimed:frame.obj
 0001:0005ba30       ?getLastEntry@HandlerMap@__FrameHandler3@@QAEPBU_s_HandlerType@@XZ 1005ca30 f i libvcruntimed:frame.obj
 0001:0005ba60       ?getMagicNum@__FrameHandler3@@SAIPBU_s_FuncInfo@@@Z 1005ca60 f i libvcruntimed:frame.obj
 0001:0005ba80       ?getNumTryBlocks@TryBlockMap@__FrameHandler3@@QAEIXZ 1005ca80 f i libvcruntimed:frame.obj
 0001:0005baa0       ?isEHs@__FrameHandler3@@SA_NPBU_s_FuncInfo@@@Z 1005caa0 f i libvcruntimed:frame.obj
 0001:0005bad0       ?isNoExcept@__FrameHandler3@@SA_NPBU_s_FuncInfo@@@Z 1005cad0 f i libvcruntimed:frame.obj
 0001:0005bb00       ___BuildCatchObject        1005cb00 f   libvcruntimed:frame.obj
 0001:0005bb30       ___BuildCatchObjectHelper  1005cb30 f   libvcruntimed:frame.obj
 0001:0005bb60       ___TypeMatch               1005cb60 f   libvcruntimed:frame.obj
 0001:0005bb80       ___vcrt_EncodePointer      1005cb80 f i libvcruntimed:frame.obj
 0001:0005bba0       __CallSettingFrame@12      1005cba0 f   libvcruntimed:lowhelpr.obj
 0001:0005bbc7       __NLG_Return               1005cbc7     libvcruntimed:lowhelpr.obj
 0001:0005bc30       __get_unexpected           1005cc30 f   libvcruntimed:unexpected.obj
 0001:0005bc50       _set_unexpected            1005cc50 f   libvcruntimed:unexpected.obj
 0001:0005bc90       _unexpected                1005cc90 f   libvcruntimed:unexpected.obj
 0001:0005bcd0       _memmove                   1005ccd0 f   libvcruntimed:memmove.obj
 0001:0005c3b0       ?GetCurrentState@__FrameHandler3@@SAHPAUEHRegistrationNode@@PAXPBU_s_FuncInfo@@@Z 1005d3b0 f   libvcruntimed:ehstate.obj
 0001:0005c3f0       ?SetState@__FrameHandler3@@SAXPAUEHRegistrationNode@@PBU_s_FuncInfo@@H@Z 1005d3f0 f   libvcruntimed:ehstate.obj
 0001:0005c410       _strcmp                    1005d410 f   libucrtd:strcmp.obj
 0001:0005c4c0       __chgsign                  1005d4c0 f   libucrtd:ieeemisc.obj
 0001:0005c500       __chgsignf                 1005d500 f   libucrtd:ieeemisc.obj
 0001:0005c550       __copysign                 1005d550 f   libucrtd:ieeemisc.obj
 0001:0005c590       __copysignf                1005d590 f   libucrtd:ieeemisc.obj
 0001:0005c5f0       __finite                   1005d5f0 f   libucrtd:ieeemisc.obj
 0001:0005c620       __fpclass                  1005d620 f   libucrtd:ieeemisc.obj
 0001:0005c750       __isnan                    1005d750 f   libucrtd:ieeemisc.obj
 0001:0005c7b0       __logb                     1005d7b0 f   libucrtd:ieeemisc.obj
 0001:0005c910       __nextafter                1005d910 f   libucrtd:ieeemisc.obj
 0001:0005c940       __scalb                    1005d940 f   libucrtd:ieeemisc.obj
 0001:0005c980       _fabs                      1005d980 f   libucrtd:fabs.obj
 0001:0005ca40       _pow                       1005da40 f   libucrtd:pow.obj
 0001:0005caa0       _sqrt                      1005daa0 f   libucrtd:sqrt.obj
 0001:0005cac0       ??$?RPAU__crt_stdio_stream_data@@@__crt_internal_free_policy@@QBEXQBQAU__crt_stdio_stream_data@@@Z 1005dac0 f i libucrtd:_file.obj
 0001:0005caf0       ??0?$__crt_unique_heap_ptr@PAU__crt_stdio_stream_data@@U__crt_internal_free_policy@@@@QAE@QAPAU__crt_stdio_stream_data@@@Z 1005daf0 f i libucrtd:_file.obj
 0001:0005cb10       ??0__crt_stdio_stream@@QAE@QAU_iobuf@@@Z 1005db10 f i libucrtd:_file.obj
 0001:0005cb30       ??1?$__crt_unique_heap_ptr@PAU__crt_stdio_stream_data@@U__crt_internal_free_policy@@@@QAE@XZ 1005db30 f i libucrtd:_file.obj
 0001:0005cb50       ??C__crt_stdio_stream@@QBEPAU__crt_stdio_stream_data@@XZ 1005db50 f i libucrtd:_file.obj
 0001:0005cb70       ?detach@?$__crt_unique_heap_ptr@PAU__crt_stdio_stream_data@@U__crt_internal_free_policy@@@@QAEPAPAU__crt_stdio_stream_data@@XZ 1005db70 f i libucrtd:_file.obj
 0001:0005cba0       ?release@?$__crt_unique_heap_ptr@PAU__crt_stdio_stream_data@@U__crt_internal_free_policy@@@@QAEXXZ 1005dba0 f i libucrtd:_file.obj
 0001:0005cbd0       ___acrt_initialize_stdio   1005dbd0 f   libucrtd:_file.obj
 0001:0005cda0       ___acrt_iob_func           1005dda0 f   libucrtd:_file.obj
 0001:0005cdc0       ___acrt_uninitialize_stdio 1005ddc0 f   libucrtd:_file.obj
 0001:0005ce60       __get_stream_buffer_pointers 1005de60 f   libucrtd:_file.obj
 0001:0005cf70       __lock_file                1005df70 f   libucrtd:_file.obj
 0001:0005cfa0       __unlock_file              1005dfa0 f   libucrtd:_file.obj
 0001:0005cfd0       ??$?0ABV?$stream_output_adapter@D@__crt_stdio_output@@AB_KABQBDAAV__crt_cached_ptd_host@@ABQAD@?$format_validation_base@DV?$stream_output_adapter@D@__crt_stdio_output@@@__crt_stdio_output@@IAE@ABV?$stream_output_adapter@D@1@AB_KABQBDAAV__crt_cached_ptd_host@@ABQAD@Z 1005dfd0 f i libucrtd:output.obj
 0001:0005d010       ??$?0ABV?$stream_output_adapter@D@__crt_stdio_output@@AB_KABQBDAAV__crt_cached_ptd_host@@ABQAD@?$positional_parameter_base@DV?$stream_output_adapter@D@__crt_stdio_output@@@__crt_stdio_output@@IAE@ABV?$stream_output_adapter@D@1@AB_KABQBDAAV__crt_cached_ptd_host@@ABQAD@Z 1005e010 f i libucrtd:output.obj
 0001:0005d0a0       ??$?0ABV?$stream_output_adapter@D@__crt_stdio_output@@AB_KABQBDAAV__crt_cached_ptd_host@@ABQAD@?$standard_base@DV?$stream_output_adapter@D@__crt_stdio_output@@@__crt_stdio_output@@IAE@ABV?$stream_output_adapter@D@1@AB_KABQBDAAV__crt_cached_ptd_host@@ABQAD@Z 1005e0a0 f i libucrtd:output.obj
 0001:0005d100       ??$?0ABV?$stream_output_adapter@_W@__crt_stdio_output@@AB_KABQB_WAAV__crt_cached_ptd_host@@ABQAD@?$format_validation_base@_WV?$stream_output_adapter@_W@__crt_stdio_output@@@__crt_stdio_output@@IAE@ABV?$stream_output_adapter@_W@1@AB_KABQB_WAAV__crt_cached_ptd_host@@ABQAD@Z 1005e100 f i libucrtd:output.obj
 0001:0005d140       ??$?0ABV?$stream_output_adapter@_W@__crt_stdio_output@@AB_KABQB_WAAV__crt_cached_ptd_host@@ABQAD@?$positional_parameter_base@_WV?$stream_output_adapter@_W@__crt_stdio_output@@@__crt_stdio_output@@IAE@ABV?$stream_output_adapter@_W@1@AB_KABQB_WAAV__crt_cached_ptd_host@@ABQAD@Z 1005e140 f i libucrtd:output.obj
 0001:0005d1d0       ??$?0ABV?$stream_output_adapter@_W@__crt_stdio_output@@AB_KABQB_WAAV__crt_cached_ptd_host@@ABQAD@?$standard_base@_WV?$stream_output_adapter@_W@__crt_stdio_output@@@__crt_stdio_output@@IAE@ABV?$stream_output_adapter@_W@1@AB_KABQB_WAAV__crt_cached_ptd_host@@ABQAD@Z 1005e1d0 f i libucrtd:output.obj
 0001:0005d230       ??$?0ABV?$string_output_adapter@D@__crt_stdio_output@@AB_KABQBDAAV__crt_cached_ptd_host@@ABQAD@?$format_validation_base@DV?$string_output_adapter@D@__crt_stdio_output@@@__crt_stdio_output@@IAE@ABV?$string_output_adapter@D@1@AB_KABQBDAAV__crt_cached_ptd_host@@ABQAD@Z 1005e230 f i libucrtd:output.obj
 0001:0005d270       ??$?0ABV?$string_output_adapter@D@__crt_stdio_output@@AB_KABQBDAAV__crt_cached_ptd_host@@ABQAD@?$positional_parameter_base@DV?$string_output_adapter@D@__crt_stdio_output@@@__crt_stdio_output@@IAE@ABV?$string_output_adapter@D@1@AB_KABQBDAAV__crt_cached_ptd_host@@ABQAD@Z 1005e270 f i libucrtd:output.obj
 0001:0005d300       ??$?0ABV?$string_output_adapter@D@__crt_stdio_output@@AB_KABQBDAAV__crt_cached_ptd_host@@ABQAD@?$standard_base@DV?$string_output_adapter@D@__crt_stdio_output@@@__crt_stdio_output@@IAE@ABV?$string_output_adapter@D@1@AB_KABQBDAAV__crt_cached_ptd_host@@ABQAD@Z 1005e300 f i libucrtd:output.obj
 0001:0005d360       ??$?0ABV?$string_output_adapter@_W@__crt_stdio_output@@AB_KABQB_WAAV__crt_cached_ptd_host@@ABQAD@?$format_validation_base@_WV?$string_output_adapter@_W@__crt_stdio_output@@@__crt_stdio_output@@IAE@ABV?$string_output_adapter@_W@1@AB_KABQB_WAAV__crt_cached_ptd_host@@ABQAD@Z 1005e360 f i libucrtd:output.obj
 0001:0005d3a0       ??$?0ABV?$string_output_adapter@_W@__crt_stdio_output@@AB_KABQB_WAAV__crt_cached_ptd_host@@ABQAD@?$positional_parameter_base@_WV?$string_output_adapter@_W@__crt_stdio_output@@@__crt_stdio_output@@IAE@ABV?$string_output_adapter@_W@1@AB_KABQB_WAAV__crt_cached_ptd_host@@ABQAD@Z 1005e3a0 f i libucrtd:output.obj
 0001:0005d430       ??$?0ABV?$string_output_adapter@_W@__crt_stdio_output@@AB_KABQB_WAAV__crt_cached_ptd_host@@ABQAD@?$standard_base@_WV?$string_output_adapter@_W@__crt_stdio_output@@@__crt_stdio_output@@IAE@ABV?$string_output_adapter@_W@1@AB_KABQB_WAAV__crt_cached_ptd_host@@ABQAD@Z 1005e430 f i libucrtd:output.obj
 0001:0005dc10       ??$__crt_interlocked_read@J@@YAJPDJ@Z 1005ec10 f i libucrtd:output.obj
 0001:0005dc30       ??$_tcstol_internal@DPAPAD$0A@@@YAJAAV__crt_cached_ptd_host@@QBDQAPADH@Z 1005ec30 f i libucrtd:output.obj
 0001:0005dc80       ??$_tcstol_internal@_WPAPA_W$0A@@@YAJAAV__crt_cached_ptd_host@@QB_WQAPA_WH@Z 1005ec80 f i libucrtd:output.obj
 0001:00061820       ??$count@D@formatting_buffer@__crt_stdio_output@@QBEIXZ 10062820 f i libucrtd:output.obj
 0001:00061870       ??$count@_W@formatting_buffer@__crt_stdio_output@@QBEIXZ 10062870 f i libucrtd:output.obj
 0001:000618c0       ??$data@D@formatting_buffer@__crt_stdio_output@@QAEPADXZ 100628c0 f i libucrtd:output.obj
 0001:00061910       ??$data@_W@formatting_buffer@__crt_stdio_output@@QAEPA_WXZ 10062910 f i libucrtd:output.obj
 0001:00061960       ??$ensure_buffer_is_big_enough@D@formatting_buffer@__crt_stdio_output@@QAE_NIAAV__crt_cached_ptd_host@@@Z 10062960 f i libucrtd:output.obj
 0001:00061a90       ??$ensure_buffer_is_big_enough@_W@formatting_buffer@__crt_stdio_output@@QAE_NIAAV__crt_cached_ptd_host@@@Z 10062a90 f i libucrtd:output.obj
 0001:00061bc0       ??$extract_argument_from_va_list@C_J@?$positional_parameter_base@DV?$stream_output_adapter@D@__crt_stdio_output@@@__crt_stdio_output@@IAE_NAA_J@Z 10062bc0 f i libucrtd:output.obj
 0001:00061d80       ??$extract_argument_from_va_list@C_J@?$positional_parameter_base@DV?$string_output_adapter@D@__crt_stdio_output@@@__crt_stdio_output@@IAE_NAA_J@Z 10062d80 f i libucrtd:output.obj
 0001:00061f40       ??$extract_argument_from_va_list@C_J@?$positional_parameter_base@_WV?$stream_output_adapter@_W@__crt_stdio_output@@@__crt_stdio_output@@IAE_NAA_J@Z 10062f40 f i libucrtd:output.obj
 0001:00062100       ??$extract_argument_from_va_list@C_J@?$positional_parameter_base@_WV?$string_output_adapter@_W@__crt_stdio_output@@@__crt_stdio_output@@IAE_NAA_J@Z 10063100 f i libucrtd:output.obj
 0001:000622c0       ??$extract_argument_from_va_list@C_J@?$standard_base@DV?$stream_output_adapter@D@__crt_stdio_output@@@__crt_stdio_output@@IAE_NAA_J@Z 100632c0 f i libucrtd:output.obj
 0001:00062300       ??$extract_argument_from_va_list@C_J@?$standard_base@DV?$string_output_adapter@D@__crt_stdio_output@@@__crt_stdio_output@@IAE_NAA_J@Z 10063300 f i libucrtd:output.obj
 0001:00062340       ??$extract_argument_from_va_list@C_J@?$standard_base@_WV?$stream_output_adapter@_W@__crt_stdio_output@@@__crt_stdio_output@@IAE_NAA_J@Z 10063340 f i libucrtd:output.obj
 0001:00062380       ??$extract_argument_from_va_list@C_J@?$standard_base@_WV?$string_output_adapter@_W@__crt_stdio_output@@@__crt_stdio_output@@IAE_NAA_J@Z 10063380 f i libucrtd:output.obj
 0001:000623c0       ??$extract_argument_from_va_list@E_J@?$positional_parameter_base@DV?$stream_output_adapter@D@__crt_stdio_output@@@__crt_stdio_output@@IAE_NAA_J@Z 100633c0 f i libucrtd:output.obj
 0001:00062580       ??$extract_argument_from_va_list@E_J@?$positional_parameter_base@DV?$string_output_adapter@D@__crt_stdio_output@@@__crt_stdio_output@@IAE_NAA_J@Z 10063580 f i libucrtd:output.obj
 0001:00062740       ??$extract_argument_from_va_list@E_J@?$positional_parameter_base@_WV?$stream_output_adapter@_W@__crt_stdio_output@@@__crt_stdio_output@@IAE_NAA_J@Z 10063740 f i libucrtd:output.obj
 0001:00062900       ??$extract_argument_from_va_list@E_J@?$positional_parameter_base@_WV?$string_output_adapter@_W@__crt_stdio_output@@@__crt_stdio_output@@IAE_NAA_J@Z 10063900 f i libucrtd:output.obj
 0001:00062ac0       ??$extract_argument_from_va_list@E_J@?$standard_base@DV?$stream_output_adapter@D@__crt_stdio_output@@@__crt_stdio_output@@IAE_NAA_J@Z 10063ac0 f i libucrtd:output.obj
 0001:00062b00       ??$extract_argument_from_va_list@E_J@?$standard_base@DV?$string_output_adapter@D@__crt_stdio_output@@@__crt_stdio_output@@IAE_NAA_J@Z 10063b00 f i libucrtd:output.obj
 0001:00062b40       ??$extract_argument_from_va_list@E_J@?$standard_base@_WV?$stream_output_adapter@_W@__crt_stdio_output@@@__crt_stdio_output@@IAE_NAA_J@Z 10063b40 f i libucrtd:output.obj
 0001:00062b80       ??$extract_argument_from_va_list@E_J@?$standard_base@_WV?$string_output_adapter@_W@__crt_stdio_output@@@__crt_stdio_output@@IAE_NAA_J@Z 10063b80 f i libucrtd:output.obj
 0001:00062bc0       ??$extract_argument_from_va_list@F_J@?$positional_parameter_base@DV?$stream_output_adapter@D@__crt_stdio_output@@@__crt_stdio_output@@IAE_NAA_J@Z 10063bc0 f i libucrtd:output.obj
 0001:00062d80       ??$extract_argument_from_va_list@F_J@?$positional_parameter_base@DV?$string_output_adapter@D@__crt_stdio_output@@@__crt_stdio_output@@IAE_NAA_J@Z 10063d80 f i libucrtd:output.obj
 0001:00062f40       ??$extract_argument_from_va_list@F_J@?$positional_parameter_base@_WV?$stream_output_adapter@_W@__crt_stdio_output@@@__crt_stdio_output@@IAE_NAA_J@Z 10063f40 f i libucrtd:output.obj
 0001:00063100       ??$extract_argument_from_va_list@F_J@?$positional_parameter_base@_WV?$string_output_adapter@_W@__crt_stdio_output@@@__crt_stdio_output@@IAE_NAA_J@Z 10064100 f i libucrtd:output.obj
 0001:000632c0       ??$extract_argument_from_va_list@F_J@?$standard_base@DV?$stream_output_adapter@D@__crt_stdio_output@@@__crt_stdio_output@@IAE_NAA_J@Z 100642c0 f i libucrtd:output.obj
 0001:00063300       ??$extract_argument_from_va_list@F_J@?$standard_base@DV?$string_output_adapter@D@__crt_stdio_output@@@__crt_stdio_output@@IAE_NAA_J@Z 10064300 f i libucrtd:output.obj
 0001:00063340       ??$extract_argument_from_va_list@F_J@?$standard_base@_WV?$stream_output_adapter@_W@__crt_stdio_output@@@__crt_stdio_output@@IAE_NAA_J@Z 10064340 f i libucrtd:output.obj
 0001:00063380       ??$extract_argument_from_va_list@F_J@?$standard_base@_WV?$string_output_adapter@_W@__crt_stdio_output@@@__crt_stdio_output@@IAE_NAA_J@Z 10064380 f i libucrtd:output.obj
 0001:000633c0       ??$extract_argument_from_va_list@GD@?$positional_parameter_base@DV?$stream_output_adapter@D@__crt_stdio_output@@@__crt_stdio_output@@IAE_NAAD@Z 100643c0 f i libucrtd:output.obj
 0001:00063570       ??$extract_argument_from_va_list@GD@?$positional_parameter_base@DV?$string_output_adapter@D@__crt_stdio_output@@@__crt_stdio_output@@IAE_NAAD@Z 10064570 f i libucrtd:output.obj
 0001:00063720       ??$extract_argument_from_va_list@GD@?$standard_base@DV?$stream_output_adapter@D@__crt_stdio_output@@@__crt_stdio_output@@IAE_NAAD@Z 10064720 f i libucrtd:output.obj
 0001:00063750       ??$extract_argument_from_va_list@GD@?$standard_base@DV?$string_output_adapter@D@__crt_stdio_output@@@__crt_stdio_output@@IAE_NAAD@Z 10064750 f i libucrtd:output.obj
 0001:00063780       ??$extract_argument_from_va_list@G_J@?$positional_parameter_base@DV?$stream_output_adapter@D@__crt_stdio_output@@@__crt_stdio_output@@IAE_NAA_J@Z 10064780 f i libucrtd:output.obj
 0001:00063940       ??$extract_argument_from_va_list@G_J@?$positional_parameter_base@DV?$string_output_adapter@D@__crt_stdio_output@@@__crt_stdio_output@@IAE_NAA_J@Z 10064940 f i libucrtd:output.obj
 0001:00063b00       ??$extract_argument_from_va_list@G_J@?$positional_parameter_base@_WV?$stream_output_adapter@_W@__crt_stdio_output@@@__crt_stdio_output@@IAE_NAA_J@Z 10064b00 f i libucrtd:output.obj
 0001:00063cc0       ??$extract_argument_from_va_list@G_J@?$positional_parameter_base@_WV?$string_output_adapter@_W@__crt_stdio_output@@@__crt_stdio_output@@IAE_NAA_J@Z 10064cc0 f i libucrtd:output.obj
 0001:00063e80       ??$extract_argument_from_va_list@G_J@?$standard_base@DV?$stream_output_adapter@D@__crt_stdio_output@@@__crt_stdio_output@@IAE_NAA_J@Z 10064e80 f i libucrtd:output.obj
 0001:00063ec0       ??$extract_argument_from_va_list@G_J@?$standard_base@DV?$string_output_adapter@D@__crt_stdio_output@@@__crt_stdio_output@@IAE_NAA_J@Z 10064ec0 f i libucrtd:output.obj
 0001:00063f00       ??$extract_argument_from_va_list@G_J@?$standard_base@_WV?$stream_output_adapter@_W@__crt_stdio_output@@@__crt_stdio_output@@IAE_NAA_J@Z 10064f00 f i libucrtd:output.obj
 0001:00063f40       ??$extract_argument_from_va_list@G_J@?$standard_base@_WV?$string_output_adapter@_W@__crt_stdio_output@@@__crt_stdio_output@@IAE_NAA_J@Z 10064f40 f i libucrtd:output.obj
 0001:00063f80       ??$extract_argument_from_va_list@H_J@?$positional_parameter_base@DV?$stream_output_adapter@D@__crt_stdio_output@@@__crt_stdio_output@@IAE_NAA_J@Z 10064f80 f i libucrtd:output.obj
 0001:00064140       ??$extract_argument_from_va_list@H_J@?$positional_parameter_base@DV?$string_output_adapter@D@__crt_stdio_output@@@__crt_stdio_output@@IAE_NAA_J@Z 10065140 f i libucrtd:output.obj
 0001:00064300       ??$extract_argument_from_va_list@H_J@?$positional_parameter_base@_WV?$stream_output_adapter@_W@__crt_stdio_output@@@__crt_stdio_output@@IAE_NAA_J@Z 10065300 f i libucrtd:output.obj
 0001:000644c0       ??$extract_argument_from_va_list@H_J@?$positional_parameter_base@_WV?$string_output_adapter@_W@__crt_stdio_output@@@__crt_stdio_output@@IAE_NAA_J@Z 100654c0 f i libucrtd:output.obj
 0001:00064680       ??$extract_argument_from_va_list@H_J@?$standard_base@DV?$stream_output_adapter@D@__crt_stdio_output@@@__crt_stdio_output@@IAE_NAA_J@Z 10065680 f i libucrtd:output.obj
 0001:000646c0       ??$extract_argument_from_va_list@H_J@?$standard_base@DV?$string_output_adapter@D@__crt_stdio_output@@@__crt_stdio_output@@IAE_NAA_J@Z 100656c0 f i libucrtd:output.obj
 0001:00064700       ??$extract_argument_from_va_list@H_J@?$standard_base@_WV?$stream_output_adapter@_W@__crt_stdio_output@@@__crt_stdio_output@@IAE_NAA_J@Z 10065700 f i libucrtd:output.obj
 0001:00064740       ??$extract_argument_from_va_list@H_J@?$standard_base@_WV?$string_output_adapter@_W@__crt_stdio_output@@@__crt_stdio_output@@IAE_NAA_J@Z 10065740 f i libucrtd:output.obj
 0001:00064780       ??$extract_argument_from_va_list@I_J@?$positional_parameter_base@DV?$stream_output_adapter@D@__crt_stdio_output@@@__crt_stdio_output@@IAE_NAA_J@Z 10065780 f i libucrtd:output.obj
 0001:00064940       ??$extract_argument_from_va_list@I_J@?$positional_parameter_base@DV?$string_output_adapter@D@__crt_stdio_output@@@__crt_stdio_output@@IAE_NAA_J@Z 10065940 f i libucrtd:output.obj
 0001:00064b00       ??$extract_argument_from_va_list@I_J@?$positional_parameter_base@_WV?$stream_output_adapter@_W@__crt_stdio_output@@@__crt_stdio_output@@IAE_NAA_J@Z 10065b00 f i libucrtd:output.obj
 0001:00064cc0       ??$extract_argument_from_va_list@I_J@?$positional_parameter_base@_WV?$string_output_adapter@_W@__crt_stdio_output@@@__crt_stdio_output@@IAE_NAA_J@Z 10065cc0 f i libucrtd:output.obj
 0001:00064e80       ??$extract_argument_from_va_list@I_J@?$standard_base@DV?$stream_output_adapter@D@__crt_stdio_output@@@__crt_stdio_output@@IAE_NAA_J@Z 10065e80 f i libucrtd:output.obj
 0001:00064ec0       ??$extract_argument_from_va_list@I_J@?$standard_base@DV?$string_output_adapter@D@__crt_stdio_output@@@__crt_stdio_output@@IAE_NAA_J@Z 10065ec0 f i libucrtd:output.obj
 0001:00064f00       ??$extract_argument_from_va_list@I_J@?$standard_base@_WV?$stream_output_adapter@_W@__crt_stdio_output@@@__crt_stdio_output@@IAE_NAA_J@Z 10065f00 f i libucrtd:output.obj
 0001:00064f40       ??$extract_argument_from_va_list@I_J@?$standard_base@_WV?$string_output_adapter@_W@__crt_stdio_output@@@__crt_stdio_output@@IAE_NAA_J@Z 10065f40 f i libucrtd:output.obj
 0001:00064f80       ??$extract_argument_from_va_list@PADPAD@?$positional_parameter_base@DV?$stream_output_adapter@D@__crt_stdio_output@@@__crt_stdio_output@@IAE_NAAPAD@Z 10065f80 f i libucrtd:output.obj
 0001:00065130       ??$extract_argument_from_va_list@PADPAD@?$positional_parameter_base@DV?$string_output_adapter@D@__crt_stdio_output@@@__crt_stdio_output@@IAE_NAAPAD@Z 10066130 f i libucrtd:output.obj
 0001:000652e0       ??$extract_argument_from_va_list@PADPAD@?$positional_parameter_base@_WV?$stream_output_adapter@_W@__crt_stdio_output@@@__crt_stdio_output@@IAE_NAAPAD@Z 100662e0 f i libucrtd:output.obj
 0001:000654a0       ??$extract_argument_from_va_list@PADPAD@?$positional_parameter_base@_WV?$string_output_adapter@_W@__crt_stdio_output@@@__crt_stdio_output@@IAE_NAAPAD@Z 100664a0 f i libucrtd:output.obj
 0001:00065660       ??$extract_argument_from_va_list@PADPAD@?$standard_base@DV?$stream_output_adapter@D@__crt_stdio_output@@@__crt_stdio_output@@IAE_NAAPAD@Z 10066660 f i libucrtd:output.obj
 0001:00065690       ??$extract_argument_from_va_list@PADPAD@?$standard_base@DV?$string_output_adapter@D@__crt_stdio_output@@@__crt_stdio_output@@IAE_NAAPAD@Z 10066690 f i libucrtd:output.obj
 0001:000656c0       ??$extract_argument_from_va_list@PADPAD@?$standard_base@_WV?$stream_output_adapter@_W@__crt_stdio_output@@@__crt_stdio_output@@IAE_NAAPAD@Z 100666c0 f i libucrtd:output.obj
 0001:000656f0       ??$extract_argument_from_va_list@PADPAD@?$standard_base@_WV?$string_output_adapter@_W@__crt_stdio_output@@@__crt_stdio_output@@IAE_NAAPAD@Z 100666f0 f i libucrtd:output.obj
 0001:00065720       ??$extract_argument_from_va_list@PAUansi_string@?1??type_case_Z@?$output_processor@DV?$stream_output_adapter@D@__crt_stdio_output@@V?$format_validation_base@DV?$stream_output_adapter@D@__crt_stdio_output@@@2@@__crt_stdio_output@@AAE_NXZ@PAU1?1??234@AAE_NXZ@@?$standard_base@DV?$stream_output_adapter@D@__crt_stdio_output@@@__crt_stdio_output@@IAE_NAAPAUansi_string@?1??type_case_Z@?$output_processor@DV?$stream_output_adapter@D@__crt_stdio_output@@V?$format_validation_base@DV?$stream_output_adapter@D@__crt_stdio_output@@@2@@1@AAE_NXZ@@Z 10066720 f i libucrtd:output.obj
 0001:00065750       ??$extract_argument_from_va_list@PAUansi_string@?1??type_case_Z@?$output_processor@DV?$stream_output_adapter@D@__crt_stdio_output@@V?$positional_parameter_base@DV?$stream_output_adapter@D@__crt_stdio_output@@@2@@__crt_stdio_output@@AAE_NXZ@PAU1?1??234@AAE_NXZ@@?$positional_parameter_base@DV?$stream_output_adapter@D@__crt_stdio_output@@@__crt_stdio_output@@IAE_NAAPAUansi_string@?1??type_case_Z@?$output_processor@DV?$stream_output_adapter@D@__crt_stdio_output@@V?$positional_parameter_base@DV?$stream_output_adapter@D@__crt_stdio_output@@@2@@1@AAE_NXZ@@Z 10066750 f i libucrtd:output.obj
 0001:00065900       ??$extract_argument_from_va_list@PAUansi_string@?1??type_case_Z@?$output_processor@DV?$stream_output_adapter@D@__crt_stdio_output@@V?$positional_parameter_base@DV?$stream_output_adapter@D@__crt_stdio_output@@@2@@__crt_stdio_output@@AAE_NXZ@PAU1?1??234@AAE_NXZ@@?$standard_base@DV?$stream_output_adapter@D@__crt_stdio_output@@@__crt_stdio_output@@IAE_NAAPAUansi_string@?1??type_case_Z@?$output_processor@DV?$stream_output_adapter@D@__crt_stdio_output@@V?$positional_parameter_base@DV?$stream_output_adapter@D@__crt_stdio_output@@@2@@1@AAE_NXZ@@Z 10066900 f i libucrtd:output.obj
 0001:00065930       ??$extract_argument_from_va_list@PAUansi_string@?1??type_case_Z@?$output_processor@DV?$stream_output_adapter@D@__crt_stdio_output@@V?$standard_base@DV?$stream_output_adapter@D@__crt_stdio_output@@@2@@__crt_stdio_output@@AAE_NXZ@PAU1?1??234@AAE_NXZ@@?$standard_base@DV?$stream_output_adapter@D@__crt_stdio_output@@@__crt_stdio_output@@IAE_NAAPAUansi_string@?1??type_case_Z@?$output_processor@DV?$stream_output_adapter@D@__crt_stdio_output@@V?$standard_base@DV?$stream_output_adapter@D@__crt_stdio_output@@@2@@1@AAE_NXZ@@Z 10066930 f i libucrtd:output.obj
 0001:00065960       ??$extract_argument_from_va_list@PAUansi_string@?1??type_case_Z@?$output_processor@DV?$string_output_adapter@D@__crt_stdio_output@@V?$format_validation_base@DV?$string_output_adapter@D@__crt_stdio_output@@@2@@__crt_stdio_output@@AAE_NXZ@PAU1?1??234@AAE_NXZ@@?$standard_base@DV?$string_output_adapter@D@__crt_stdio_output@@@__crt_stdio_output@@IAE_NAAPAUansi_string@?1??type_case_Z@?$output_processor@DV?$string_output_adapter@D@__crt_stdio_output@@V?$format_validation_base@DV?$string_output_adapter@D@__crt_stdio_output@@@2@@1@AAE_NXZ@@Z 10066960 f i libucrtd:output.obj
 0001:00065990       ??$extract_argument_from_va_list@PAUansi_string@?1??type_case_Z@?$output_processor@DV?$string_output_adapter@D@__crt_stdio_output@@V?$positional_parameter_base@DV?$string_output_adapter@D@__crt_stdio_output@@@2@@__crt_stdio_output@@AAE_NXZ@PAU1?1??234@AAE_NXZ@@?$positional_parameter_base@DV?$string_output_adapter@D@__crt_stdio_output@@@__crt_stdio_output@@IAE_NAAPAUansi_string@?1??type_case_Z@?$output_processor@DV?$string_output_adapter@D@__crt_stdio_output@@V?$positional_parameter_base@DV?$string_output_adapter@D@__crt_stdio_output@@@2@@1@AAE_NXZ@@Z 10066990 f i libucrtd:output.obj
 0001:00065b40       ??$extract_argument_from_va_list@PAUansi_string@?1??type_case_Z@?$output_processor@DV?$string_output_adapter@D@__crt_stdio_output@@V?$positional_parameter_base@DV?$string_output_adapter@D@__crt_stdio_output@@@2@@__crt_stdio_output@@AAE_NXZ@PAU1?1??234@AAE_NXZ@@?$standard_base@DV?$string_output_adapter@D@__crt_stdio_output@@@__crt_stdio_output@@IAE_NAAPAUansi_string@?1??type_case_Z@?$output_processor@DV?$string_output_adapter@D@__crt_stdio_output@@V?$positional_parameter_base@DV?$string_output_adapter@D@__crt_stdio_output@@@2@@1@AAE_NXZ@@Z 10066b40 f i libucrtd:output.obj
 0001:00065b70       ??$extract_argument_from_va_list@PAUansi_string@?1??type_case_Z@?$output_processor@DV?$string_output_adapter@D@__crt_stdio_output@@V?$standard_base@DV?$string_output_adapter@D@__crt_stdio_output@@@2@@__crt_stdio_output@@AAE_NXZ@PAU1?1??234@AAE_NXZ@@?$standard_base@DV?$string_output_adapter@D@__crt_stdio_output@@@__crt_stdio_output@@IAE_NAAPAUansi_string@?1??type_case_Z@?$output_processor@DV?$string_output_adapter@D@__crt_stdio_output@@V?$standard_base@DV?$string_output_adapter@D@__crt_stdio_output@@@2@@1@AAE_NXZ@@Z 10066b70 f i libucrtd:output.obj
 0001:00065ba0       ??$extract_argument_from_va_list@PAUansi_string@?1??type_case_Z@?$output_processor@_WV?$stream_output_adapter@_W@__crt_stdio_output@@V?$format_validation_base@_WV?$stream_output_adapter@_W@__crt_stdio_output@@@2@@__crt_stdio_output@@AAE_NXZ@PAU1?1??234@AAE_NXZ@@?$standard_base@_WV?$stream_output_adapter@_W@__crt_stdio_output@@@__crt_stdio_output@@IAE_NAAPAUansi_string@?1??type_case_Z@?$output_processor@_WV?$stream_output_adapter@_W@__crt_stdio_output@@V?$format_validation_base@_WV?$stream_output_adapter@_W@__crt_stdio_output@@@2@@1@AAE_NXZ@@Z 10066ba0 f i libucrtd:output.obj
 0001:00065bd0       ??$extract_argument_from_va_list@PAUansi_string@?1??type_case_Z@?$output_processor@_WV?$stream_output_adapter@_W@__crt_stdio_output@@V?$positional_parameter_base@_WV?$stream_output_adapter@_W@__crt_stdio_output@@@2@@__crt_stdio_output@@AAE_NXZ@PAU1?1??234@AAE_NXZ@@?$positional_parameter_base@_WV?$stream_output_adapter@_W@__crt_stdio_output@@@__crt_stdio_output@@IAE_NAAPAUansi_string@?1??type_case_Z@?$output_processor@_WV?$stream_output_adapter@_W@__crt_stdio_output@@V?$positional_parameter_base@_WV?$stream_output_adapter@_W@__crt_stdio_output@@@2@@1@AAE_NXZ@@Z 10066bd0 f i libucrtd:output.obj
 0001:00065d90       ??$extract_argument_from_va_list@PAUansi_string@?1??type_case_Z@?$output_processor@_WV?$stream_output_adapter@_W@__crt_stdio_output@@V?$positional_parameter_base@_WV?$stream_output_adapter@_W@__crt_stdio_output@@@2@@__crt_stdio_output@@AAE_NXZ@PAU1?1??234@AAE_NXZ@@?$standard_base@_WV?$stream_output_adapter@_W@__crt_stdio_output@@@__crt_stdio_output@@IAE_NAAPAUansi_string@?1??type_case_Z@?$output_processor@_WV?$stream_output_adapter@_W@__crt_stdio_output@@V?$positional_parameter_base@_WV?$stream_output_adapter@_W@__crt_stdio_output@@@2@@1@AAE_NXZ@@Z 10066d90 f i libucrtd:output.obj
 0001:00065dc0       ??$extract_argument_from_va_list@PAUansi_string@?1??type_case_Z@?$output_processor@_WV?$stream_output_adapter@_W@__crt_stdio_output@@V?$standard_base@_WV?$stream_output_adapter@_W@__crt_stdio_output@@@2@@__crt_stdio_output@@AAE_NXZ@PAU1?1??234@AAE_NXZ@@?$standard_base@_WV?$stream_output_adapter@_W@__crt_stdio_output@@@__crt_stdio_output@@IAE_NAAPAUansi_string@?1??type_case_Z@?$output_processor@_WV?$stream_output_adapter@_W@__crt_stdio_output@@V?$standard_base@_WV?$stream_output_adapter@_W@__crt_stdio_output@@@2@@1@AAE_NXZ@@Z 10066dc0 f i libucrtd:output.obj
 0001:00065df0       ??$extract_argument_from_va_list@PAUansi_string@?1??type_case_Z@?$output_processor@_WV?$string_output_adapter@_W@__crt_stdio_output@@V?$format_validation_base@_WV?$string_output_adapter@_W@__crt_stdio_output@@@2@@__crt_stdio_output@@AAE_NXZ@PAU1?1??234@AAE_NXZ@@?$standard_base@_WV?$string_output_adapter@_W@__crt_stdio_output@@@__crt_stdio_output@@IAE_NAAPAUansi_string@?1??type_case_Z@?$output_processor@_WV?$string_output_adapter@_W@__crt_stdio_output@@V?$format_validation_base@_WV?$string_output_adapter@_W@__crt_stdio_output@@@2@@1@AAE_NXZ@@Z 10066df0 f i libucrtd:output.obj
 0001:00065e20       ??$extract_argument_from_va_list@PAUansi_string@?1??type_case_Z@?$output_processor@_WV?$string_output_adapter@_W@__crt_stdio_output@@V?$positional_parameter_base@_WV?$string_output_adapter@_W@__crt_stdio_output@@@2@@__crt_stdio_output@@AAE_NXZ@PAU1?1??234@AAE_NXZ@@?$positional_parameter_base@_WV?$string_output_adapter@_W@__crt_stdio_output@@@__crt_stdio_output@@IAE_NAAPAUansi_string@?1??type_case_Z@?$output_processor@_WV?$string_output_adapter@_W@__crt_stdio_output@@V?$positional_parameter_base@_WV?$string_output_adapter@_W@__crt_stdio_output@@@2@@1@AAE_NXZ@@Z 10066e20 f i libucrtd:output.obj
 0001:00065fe0       ??$extract_argument_from_va_list@PAUansi_string@?1??type_case_Z@?$output_processor@_WV?$string_output_adapter@_W@__crt_stdio_output@@V?$positional_parameter_base@_WV?$string_output_adapter@_W@__crt_stdio_output@@@2@@__crt_stdio_output@@AAE_NXZ@PAU1?1??234@AAE_NXZ@@?$standard_base@_WV?$string_output_adapter@_W@__crt_stdio_output@@@__crt_stdio_output@@IAE_NAAPAUansi_string@?1??type_case_Z@?$output_processor@_WV?$string_output_adapter@_W@__crt_stdio_output@@V?$positional_parameter_base@_WV?$string_output_adapter@_W@__crt_stdio_output@@@2@@1@AAE_NXZ@@Z 10066fe0 f i libucrtd:output.obj
 0001:00066010       ??$extract_argument_from_va_list@PAUansi_string@?1??type_case_Z@?$output_processor@_WV?$string_output_adapter@_W@__crt_stdio_output@@V?$standard_base@_WV?$string_output_adapter@_W@__crt_stdio_output@@@2@@__crt_stdio_output@@AAE_NXZ@PAU1?1??234@AAE_NXZ@@?$standard_base@_WV?$string_output_adapter@_W@__crt_stdio_output@@@__crt_stdio_output@@IAE_NAAPAUansi_string@?1??type_case_Z@?$output_processor@_WV?$string_output_adapter@_W@__crt_stdio_output@@V?$standard_base@_WV?$string_output_adapter@_W@__crt_stdio_output@@@2@@1@AAE_NXZ@@Z 10067010 f i libucrtd:output.obj
 0001:00066040       ??$extract_argument_from_va_list@PAXPAX@?$positional_parameter_base@DV?$stream_output_adapter@D@__crt_stdio_output@@@__crt_stdio_output@@IAE_NAAPAX@Z 10067040 f i libucrtd:output.obj
 0001:000661f0       ??$extract_argument_from_va_list@PAXPAX@?$positional_parameter_base@DV?$string_output_adapter@D@__crt_stdio_output@@@__crt_stdio_output@@IAE_NAAPAX@Z 100671f0 f i libucrtd:output.obj
 0001:000663a0       ??$extract_argument_from_va_list@PAXPAX@?$positional_parameter_base@_WV?$stream_output_adapter@_W@__crt_stdio_output@@@__crt_stdio_output@@IAE_NAAPAX@Z 100673a0 f i libucrtd:output.obj
 0001:00066560       ??$extract_argument_from_va_list@PAXPAX@?$positional_parameter_base@_WV?$string_output_adapter@_W@__crt_stdio_output@@@__crt_stdio_output@@IAE_NAAPAX@Z 10067560 f i libucrtd:output.obj
 0001:00066720       ??$extract_argument_from_va_list@PAXPAX@?$standard_base@DV?$stream_output_adapter@D@__crt_stdio_output@@@__crt_stdio_output@@IAE_NAAPAX@Z 10067720 f i libucrtd:output.obj
 0001:00066750       ??$extract_argument_from_va_list@PAXPAX@?$standard_base@DV?$string_output_adapter@D@__crt_stdio_output@@@__crt_stdio_output@@IAE_NAAPAX@Z 10067750 f i libucrtd:output.obj
 0001:00066780       ??$extract_argument_from_va_list@PAXPAX@?$standard_base@_WV?$stream_output_adapter@_W@__crt_stdio_output@@@__crt_stdio_output@@IAE_NAAPAX@Z 10067780 f i libucrtd:output.obj
 0001:000667b0       ??$extract_argument_from_va_list@PAXPAX@?$standard_base@_WV?$string_output_adapter@_W@__crt_stdio_output@@@__crt_stdio_output@@IAE_NAAPAX@Z 100677b0 f i libucrtd:output.obj
 0001:000667e0       ??$extract_argument_from_va_list@U_CRT_DOUBLE@@U1@@?$positional_parameter_base@DV?$stream_output_adapter@D@__crt_stdio_output@@@__crt_stdio_output@@IAE_NAAU_CRT_DOUBLE@@@Z 100677e0 f i libucrtd:output.obj
 0001:000669d0       ??$extract_argument_from_va_list@U_CRT_DOUBLE@@U1@@?$positional_parameter_base@DV?$string_output_adapter@D@__crt_stdio_output@@@__crt_stdio_output@@IAE_NAAU_CRT_DOUBLE@@@Z 100679d0 f i libucrtd:output.obj
 0001:00066bc0       ??$extract_argument_from_va_list@U_CRT_DOUBLE@@U1@@?$positional_parameter_base@_WV?$stream_output_adapter@_W@__crt_stdio_output@@@__crt_stdio_output@@IAE_NAAU_CRT_DOUBLE@@@Z 10067bc0 f i libucrtd:output.obj
 0001:00066db0       ??$extract_argument_from_va_list@U_CRT_DOUBLE@@U1@@?$positional_parameter_base@_WV?$string_output_adapter@_W@__crt_stdio_output@@@__crt_stdio_output@@IAE_NAAU_CRT_DOUBLE@@@Z 10067db0 f i libucrtd:output.obj
 0001:00066fa0       ??$extract_argument_from_va_list@U_CRT_DOUBLE@@U1@@?$standard_base@DV?$stream_output_adapter@D@__crt_stdio_output@@@__crt_stdio_output@@IAE_NAAU_CRT_DOUBLE@@@Z 10067fa0 f i libucrtd:output.obj
 0001:00067000       ??$extract_argument_from_va_list@U_CRT_DOUBLE@@U1@@?$standard_base@DV?$string_output_adapter@D@__crt_stdio_output@@@__crt_stdio_output@@IAE_NAAU_CRT_DOUBLE@@@Z 10068000 f i libucrtd:output.obj
 0001:00067060       ??$extract_argument_from_va_list@U_CRT_DOUBLE@@U1@@?$standard_base@_WV?$stream_output_adapter@_W@__crt_stdio_output@@@__crt_stdio_output@@IAE_NAAU_CRT_DOUBLE@@@Z 10068060 f i libucrtd:output.obj
 0001:000670c0       ??$extract_argument_from_va_list@U_CRT_DOUBLE@@U1@@?$standard_base@_WV?$string_output_adapter@_W@__crt_stdio_output@@@__crt_stdio_output@@IAE_NAAU_CRT_DOUBLE@@@Z 100680c0 f i libucrtd:output.obj
 0001:00067120       ??$extract_argument_from_va_list@_J_J@?$positional_parameter_base@DV?$stream_output_adapter@D@__crt_stdio_output@@@__crt_stdio_output@@IAE_NAA_J@Z 10068120 f i libucrtd:output.obj
 0001:000672e0       ??$extract_argument_from_va_list@_J_J@?$positional_parameter_base@DV?$string_output_adapter@D@__crt_stdio_output@@@__crt_stdio_output@@IAE_NAA_J@Z 100682e0 f i libucrtd:output.obj
 0001:000674a0       ??$extract_argument_from_va_list@_J_J@?$positional_parameter_base@_WV?$stream_output_adapter@_W@__crt_stdio_output@@@__crt_stdio_output@@IAE_NAA_J@Z 100684a0 f i libucrtd:output.obj
 0001:00067660       ??$extract_argument_from_va_list@_J_J@?$positional_parameter_base@_WV?$string_output_adapter@_W@__crt_stdio_output@@@__crt_stdio_output@@IAE_NAA_J@Z 10068660 f i libucrtd:output.obj
 0001:00067820       ??$extract_argument_from_va_list@_J_J@?$standard_base@DV?$stream_output_adapter@D@__crt_stdio_output@@@__crt_stdio_output@@IAE_NAA_J@Z 10068820 f i libucrtd:output.obj
 0001:00067860       ??$extract_argument_from_va_list@_J_J@?$standard_base@DV?$string_output_adapter@D@__crt_stdio_output@@@__crt_stdio_output@@IAE_NAA_J@Z 10068860 f i libucrtd:output.obj
 0001:000678a0       ??$extract_argument_from_va_list@_J_J@?$standard_base@_WV?$stream_output_adapter@_W@__crt_stdio_output@@@__crt_stdio_output@@IAE_NAA_J@Z 100688a0 f i libucrtd:output.obj
 0001:000678e0       ??$extract_argument_from_va_list@_J_J@?$standard_base@_WV?$string_output_adapter@_W@__crt_stdio_output@@@__crt_stdio_output@@IAE_NAA_J@Z 100688e0 f i libucrtd:output.obj
 0001:00067920       ??$extract_argument_from_va_list@_K_J@?$positional_parameter_base@DV?$stream_output_adapter@D@__crt_stdio_output@@@__crt_stdio_output@@IAE_NAA_J@Z 10068920 f i libucrtd:output.obj
 0001:00067ae0       ??$extract_argument_from_va_list@_K_J@?$positional_parameter_base@DV?$string_output_adapter@D@__crt_stdio_output@@@__crt_stdio_output@@IAE_NAA_J@Z 10068ae0 f i libucrtd:output.obj
 0001:00067ca0       ??$extract_argument_from_va_list@_K_J@?$positional_parameter_base@_WV?$stream_output_adapter@_W@__crt_stdio_output@@@__crt_stdio_output@@IAE_NAA_J@Z 10068ca0 f i libucrtd:output.obj
 0001:00067e60       ??$extract_argument_from_va_list@_K_J@?$positional_parameter_base@_WV?$string_output_adapter@_W@__crt_stdio_output@@@__crt_stdio_output@@IAE_NAA_J@Z 10068e60 f i libucrtd:output.obj
 0001:00068020       ??$extract_argument_from_va_list@_K_J@?$standard_base@DV?$stream_output_adapter@D@__crt_stdio_output@@@__crt_stdio_output@@IAE_NAA_J@Z 10069020 f i libucrtd:output.obj
 0001:00068060       ??$extract_argument_from_va_list@_K_J@?$standard_base@DV?$string_output_adapter@D@__crt_stdio_output@@@__crt_stdio_output@@IAE_NAA_J@Z 10069060 f i libucrtd:output.obj
 0001:000680a0       ??$extract_argument_from_va_list@_K_J@?$standard_base@_WV?$stream_output_adapter@_W@__crt_stdio_output@@@__crt_stdio_output@@IAE_NAA_J@Z 100690a0 f i libucrtd:output.obj
 0001:000680e0       ??$extract_argument_from_va_list@_K_J@?$standard_base@_WV?$string_output_adapter@_W@__crt_stdio_output@@@__crt_stdio_output@@IAE_NAA_J@Z 100690e0 f i libucrtd:output.obj
 0001:00068120       ??$extract_argument_from_va_list@_W_W@?$positional_parameter_base@DV?$stream_output_adapter@D@__crt_stdio_output@@@__crt_stdio_output@@IAE_NAA_W@Z 10069120 f i libucrtd:output.obj
 0001:000682d0       ??$extract_argument_from_va_list@_W_W@?$positional_parameter_base@DV?$string_output_adapter@D@__crt_stdio_output@@@__crt_stdio_output@@IAE_NAA_W@Z 100692d0 f i libucrtd:output.obj
 0001:00068480       ??$extract_argument_from_va_list@_W_W@?$positional_parameter_base@_WV?$stream_output_adapter@_W@__crt_stdio_output@@@__crt_stdio_output@@IAE_NAA_W@Z 10069480 f i libucrtd:output.obj
 0001:00068640       ??$extract_argument_from_va_list@_W_W@?$positional_parameter_base@_WV?$string_output_adapter@_W@__crt_stdio_output@@@__crt_stdio_output@@IAE_NAA_W@Z 10069640 f i libucrtd:output.obj
 0001:00068800       ??$extract_argument_from_va_list@_W_W@?$standard_base@DV?$stream_output_adapter@D@__crt_stdio_output@@@__crt_stdio_output@@IAE_NAA_W@Z 10069800 f i libucrtd:output.obj
 0001:00068830       ??$extract_argument_from_va_list@_W_W@?$standard_base@DV?$string_output_adapter@D@__crt_stdio_output@@@__crt_stdio_output@@IAE_NAA_W@Z 10069830 f i libucrtd:output.obj
 0001:00068860       ??$extract_argument_from_va_list@_W_W@?$standard_base@_WV?$stream_output_adapter@_W@__crt_stdio_output@@@__crt_stdio_output@@IAE_NAA_W@Z 10069860 f i libucrtd:output.obj
 0001:00068890       ??$extract_argument_from_va_list@_W_W@?$standard_base@_WV?$string_output_adapter@_W@__crt_stdio_output@@@__crt_stdio_output@@IAE_NAA_W@Z 10069890 f i libucrtd:output.obj
 0001:000688c0       ??$get_parameter_type@D@?$positional_parameter_base@DV?$stream_output_adapter@D@__crt_stdio_output@@@__crt_stdio_output@@CA?AW4parameter_type@01@PAD@Z 100698c0 f i libucrtd:output.obj
 0001:000688d0       ??$get_parameter_type@D@?$positional_parameter_base@DV?$string_output_adapter@D@__crt_stdio_output@@@__crt_stdio_output@@CA?AW4parameter_type@01@PAD@Z 100698d0 f i libucrtd:output.obj
 0001:000688e0       ??$get_parameter_type@D@?$positional_parameter_base@_WV?$stream_output_adapter@_W@__crt_stdio_output@@@__crt_stdio_output@@CA?AW4parameter_type@01@PAD@Z 100698e0 f i libucrtd:output.obj
 0001:000688f0       ??$get_parameter_type@D@?$positional_parameter_base@_WV?$string_output_adapter@_W@__crt_stdio_output@@@__crt_stdio_output@@CA?AW4parameter_type@01@PAD@Z 100698f0 f i libucrtd:output.obj
 0001:00068900       ??$get_parameter_type@Uansi_string@?1??type_case_Z@?$output_processor@DV?$stream_output_adapter@D@__crt_stdio_output@@V?$positional_parameter_base@DV?$stream_output_adapter@D@__crt_stdio_output@@@2@@__crt_stdio_output@@AAE_NXZ@@?$positional_parameter_base@DV?$stream_output_adapter@D@__crt_stdio_output@@@__crt_stdio_output@@CA?AW4parameter_type@01@PAUansi_string@?1??type_case_Z@?$output_processor@DV?$stream_output_adapter@D@__crt_stdio_output@@V?$positional_parameter_base@DV?$stream_output_adapter@D@__crt_stdio_output@@@2@@1@AAE_NXZ@@Z 10069900 f i libucrtd:output.obj
 0001:00068910       ??$get_parameter_type@Uansi_string@?1??type_case_Z@?$output_processor@DV?$string_output_adapter@D@__crt_stdio_output@@V?$positional_parameter_base@DV?$string_output_adapter@D@__crt_stdio_output@@@2@@__crt_stdio_output@@AAE_NXZ@@?$positional_parameter_base@DV?$string_output_adapter@D@__crt_stdio_output@@@__crt_stdio_output@@CA?AW4parameter_type@01@PAUansi_string@?1??type_case_Z@?$output_processor@DV?$string_output_adapter@D@__crt_stdio_output@@V?$positional_parameter_base@DV?$string_output_adapter@D@__crt_stdio_output@@@2@@1@AAE_NXZ@@Z 10069910 f i libucrtd:output.obj
 0001:00068920       ??$get_parameter_type@Uansi_string@?1??type_case_Z@?$output_processor@_WV?$stream_output_adapter@_W@__crt_stdio_output@@V?$positional_parameter_base@_WV?$stream_output_adapter@_W@__crt_stdio_output@@@2@@__crt_stdio_output@@AAE_NXZ@@?$positional_parameter_base@_WV?$stream_output_adapter@_W@__crt_stdio_output@@@__crt_stdio_output@@CA?AW4parameter_type@01@PAUansi_string@?1??type_case_Z@?$output_processor@_WV?$stream_output_adapter@_W@__crt_stdio_output@@V?$positional_parameter_base@_WV?$stream_output_adapter@_W@__crt_stdio_output@@@2@@1@AAE_NXZ@@Z 10069920 f i libucrtd:output.obj
 0001:00068930       ??$get_parameter_type@Uansi_string@?1??type_case_Z@?$output_processor@_WV?$string_output_adapter@_W@__crt_stdio_output@@V?$positional_parameter_base@_WV?$string_output_adapter@_W@__crt_stdio_output@@@2@@__crt_stdio_output@@AAE_NXZ@@?$positional_parameter_base@_WV?$string_output_adapter@_W@__crt_stdio_output@@@__crt_stdio_output@@CA?AW4parameter_type@01@PAUansi_string@?1??type_case_Z@?$output_processor@_WV?$string_output_adapter@_W@__crt_stdio_output@@V?$positional_parameter_base@_WV?$string_output_adapter@_W@__crt_stdio_output@@@2@@1@AAE_NXZ@@Z 10069930 f i libucrtd:output.obj
 0001:00068940       ??$get_parameter_type@X@?$positional_parameter_base@DV?$stream_output_adapter@D@__crt_stdio_output@@@__crt_stdio_output@@CA?AW4parameter_type@01@PAX@Z 10069940 f i libucrtd:output.obj
 0001:00068950       ??$get_parameter_type@X@?$positional_parameter_base@DV?$string_output_adapter@D@__crt_stdio_output@@@__crt_stdio_output@@CA?AW4parameter_type@01@PAX@Z 10069950 f i libucrtd:output.obj
 0001:00068960       ??$get_parameter_type@X@?$positional_parameter_base@_WV?$stream_output_adapter@_W@__crt_stdio_output@@@__crt_stdio_output@@CA?AW4parameter_type@01@PAX@Z 10069960 f i libucrtd:output.obj
 0001:00068970       ??$get_parameter_type@X@?$positional_parameter_base@_WV?$string_output_adapter@_W@__crt_stdio_output@@@__crt_stdio_output@@CA?AW4parameter_type@01@PAX@Z 10069970 f i libucrtd:output.obj
 0001:00068980       ??$is_character_specifier@D@?$positional_parameter_base@DV?$stream_output_adapter@D@__crt_stdio_output@@@__crt_stdio_output@@CA_ND@Z 10069980 f i libucrtd:output.obj
 0001:000689c0       ??$is_character_specifier@D@?$positional_parameter_base@DV?$string_output_adapter@D@__crt_stdio_output@@@__crt_stdio_output@@CA_ND@Z 100699c0 f i libucrtd:output.obj
 0001:00068a00       ??$is_character_specifier@_W@?$positional_parameter_base@_WV?$stream_output_adapter@_W@__crt_stdio_output@@@__crt_stdio_output@@CA_N_W@Z 10069a00 f i libucrtd:output.obj
 0001:00068a40       ??$is_character_specifier@_W@?$positional_parameter_base@_WV?$string_output_adapter@_W@__crt_stdio_output@@@__crt_stdio_output@@CA_N_W@Z 10069a40 f i libucrtd:output.obj
 0001:00068a80       ??$is_integral_specifier@D@?$positional_parameter_base@DV?$stream_output_adapter@D@__crt_stdio_output@@@__crt_stdio_output@@CA_ND@Z 10069a80 f i libucrtd:output.obj
 0001:00068b00       ??$is_integral_specifier@D@?$positional_parameter_base@DV?$string_output_adapter@D@__crt_stdio_output@@@__crt_stdio_output@@CA_ND@Z 10069b00 f i libucrtd:output.obj
 0001:00068b80       ??$is_integral_specifier@_W@?$positional_parameter_base@_WV?$stream_output_adapter@_W@__crt_stdio_output@@@__crt_stdio_output@@CA_N_W@Z 10069b80 f i libucrtd:output.obj
 0001:00068c00       ??$is_integral_specifier@_W@?$positional_parameter_base@_WV?$string_output_adapter@_W@__crt_stdio_output@@@__crt_stdio_output@@CA_N_W@Z 10069c00 f i libucrtd:output.obj
 0001:00068c80       ??$is_overflow_condition@K@__crt_strtox@@YA_NIK@Z 10069c80 f i libucrtd:output.obj
 0001:00068cf0       ??$is_pointer_specifier@D@?$positional_parameter_base@DV?$stream_output_adapter@D@__crt_stdio_output@@@__crt_stdio_output@@CA_ND@Z 10069cf0 f i libucrtd:output.obj
 0001:00068d20       ??$is_pointer_specifier@D@?$positional_parameter_base@DV?$string_output_adapter@D@__crt_stdio_output@@@__crt_stdio_output@@CA_ND@Z 10069d20 f i libucrtd:output.obj
 0001:00068d50       ??$is_pointer_specifier@_W@?$positional_parameter_base@_WV?$stream_output_adapter@_W@__crt_stdio_output@@@__crt_stdio_output@@CA_N_W@Z 10069d50 f i libucrtd:output.obj
 0001:00068d80       ??$is_pointer_specifier@_W@?$positional_parameter_base@_WV?$string_output_adapter@_W@__crt_stdio_output@@@__crt_stdio_output@@CA_N_W@Z 10069d80 f i libucrtd:output.obj
 0001:00068db0       ??$is_string_specifier@D@?$positional_parameter_base@DV?$stream_output_adapter@D@__crt_stdio_output@@@__crt_stdio_output@@CA_ND@Z 10069db0 f i libucrtd:output.obj
 0001:00068df0       ??$is_string_specifier@D@?$positional_parameter_base@DV?$string_output_adapter@D@__crt_stdio_output@@@__crt_stdio_output@@CA_ND@Z 10069df0 f i libucrtd:output.obj
 0001:00068e30       ??$is_string_specifier@_W@?$positional_parameter_base@_WV?$stream_output_adapter@_W@__crt_stdio_output@@@__crt_stdio_output@@CA_N_W@Z 10069e30 f i libucrtd:output.obj
 0001:00068e70       ??$is_string_specifier@_W@?$positional_parameter_base@_WV?$string_output_adapter@_W@__crt_stdio_output@@@__crt_stdio_output@@CA_N_W@Z 10069e70 f i libucrtd:output.obj
 0001:00068eb0       ??$is_wide_character_specifier@D@__crt_stdio_output@@YA_N_KDW4length_modifier@0@@Z 10069eb0 f i libucrtd:output.obj
 0001:00068f50       ??$is_wide_character_specifier@_W@__crt_stdio_output@@YA_N_K_WW4length_modifier@0@@Z 10069f50 f i libucrtd:output.obj
 0001:00069040       ??$make_c_string_character_source@DPAPAD@__crt_strtox@@YA?AV?$c_string_character_source@D@0@QBDQAPAD@Z 1006a040 f i libucrtd:output.obj
 0001:00069060       ??$make_c_string_character_source@_WPAPA_W@__crt_strtox@@YA?AV?$c_string_character_source@_W@0@QB_WQAPA_W@Z 1006a060 f i libucrtd:output.obj
 0001:00069080       ??$parse_integer@KV?$c_string_character_source@D@__crt_strtox@@$0A@@__crt_strtox@@YAKAAV__crt_cached_ptd_host@@V?$c_string_character_source@D@0@H_N@Z 1006a080 f i libucrtd:output.obj
 0001:00069480       ??$parse_integer@KV?$c_string_character_source@_W@__crt_strtox@@$0A@@__crt_strtox@@YAKAAV__crt_cached_ptd_host@@V?$c_string_character_source@_W@0@H_N@Z 1006a480 f i libucrtd:output.obj
 0001:00069880       ??$peek_va_arg@C@__crt_stdio_output@@YACPAD@Z 1006a880 f i libucrtd:output.obj
 0001:000698a0       ??$peek_va_arg@E@__crt_stdio_output@@YAEPAD@Z 1006a8a0 f i libucrtd:output.obj
 0001:000698c0       ??$peek_va_arg@F@__crt_stdio_output@@YAFPAD@Z 1006a8c0 f i libucrtd:output.obj
 0001:000698e0       ??$peek_va_arg@G@__crt_stdio_output@@YAGPAD@Z 1006a8e0 f i libucrtd:output.obj
 0001:00069900       ??$peek_va_arg@H@__crt_stdio_output@@YAHPAD@Z 1006a900 f i libucrtd:output.obj
 0001:00069920       ??$peek_va_arg@I@__crt_stdio_output@@YAIPAD@Z 1006a920 f i libucrtd:output.obj
 0001:00069940       ??$peek_va_arg@PAD@__crt_stdio_output@@YAPADPAD@Z 1006a940 f i libucrtd:output.obj
 0001:00069960       ??$peek_va_arg@PAUansi_string@?1??type_case_Z@?$output_processor@DV?$stream_output_adapter@D@__crt_stdio_output@@V?$positional_parameter_base@DV?$stream_output_adapter@D@__crt_stdio_output@@@2@@__crt_stdio_output@@AAE_NXZ@@__crt_stdio_output@@YAPAUansi_string@?1??type_case_Z@?$output_processor@DV?$stream_output_adapter@D@__crt_stdio_output@@V?$positional_parameter_base@DV?$stream_output_adapter@D@__crt_stdio_output@@@2@@0@AAE_NXZ@PAD@Z 1006a960 f i libucrtd:output.obj
 0001:00069980       ??$peek_va_arg@PAUansi_string@?1??type_case_Z@?$output_processor@DV?$string_output_adapter@D@__crt_stdio_output@@V?$positional_parameter_base@DV?$string_output_adapter@D@__crt_stdio_output@@@2@@__crt_stdio_output@@AAE_NXZ@@__crt_stdio_output@@YAPAUansi_string@?1??type_case_Z@?$output_processor@DV?$string_output_adapter@D@__crt_stdio_output@@V?$positional_parameter_base@DV?$string_output_adapter@D@__crt_stdio_output@@@2@@0@AAE_NXZ@PAD@Z 1006a980 f i libucrtd:output.obj
 0001:000699a0       ??$peek_va_arg@PAUansi_string@?1??type_case_Z@?$output_processor@_WV?$stream_output_adapter@_W@__crt_stdio_output@@V?$positional_parameter_base@_WV?$stream_output_adapter@_W@__crt_stdio_output@@@2@@__crt_stdio_output@@AAE_NXZ@@__crt_stdio_output@@YAPAUansi_string@?1??type_case_Z@?$output_processor@_WV?$stream_output_adapter@_W@__crt_stdio_output@@V?$positional_parameter_base@_WV?$stream_output_adapter@_W@__crt_stdio_output@@@2@@0@AAE_NXZ@PAD@Z 1006a9a0 f i libucrtd:output.obj
 0001:000699c0       ??$peek_va_arg@PAUansi_string@?1??type_case_Z@?$output_processor@_WV?$string_output_adapter@_W@__crt_stdio_output@@V?$positional_parameter_base@_WV?$string_output_adapter@_W@__crt_stdio_output@@@2@@__crt_stdio_output@@AAE_NXZ@@__crt_stdio_output@@YAPAUansi_string@?1??type_case_Z@?$output_processor@_WV?$string_output_adapter@_W@__crt_stdio_output@@V?$positional_parameter_base@_WV?$string_output_adapter@_W@__crt_stdio_output@@@2@@0@AAE_NXZ@PAD@Z 1006a9c0 f i libucrtd:output.obj
 0001:000699e0       ??$peek_va_arg@PAX@__crt_stdio_output@@YAPAXPAD@Z 1006a9e0 f i libucrtd:output.obj
 0001:00069a00       ??$peek_va_arg@U_CRT_DOUBLE@@@__crt_stdio_output@@YA?AU_CRT_DOUBLE@@PAD@Z 1006aa00 f i libucrtd:output.obj
 0001:00069a20       ??$peek_va_arg@_J@__crt_stdio_output@@YA_JPAD@Z 1006aa20 f i libucrtd:output.obj
 0001:00069a40       ??$peek_va_arg@_K@__crt_stdio_output@@YA_KPAD@Z 1006aa40 f i libucrtd:output.obj
 0001:00069a60       ??$peek_va_arg@_W@__crt_stdio_output@@YA_WPAD@Z 1006aa60 f i libucrtd:output.obj
 0001:00069a80       ??$puttc_nolock_internal@ABDPAU_iobuf@@AAV__crt_cached_ptd_host@@@?$__crt_char_traits@D@@SAHABD$$QAPAU_iobuf@@AAV__crt_cached_ptd_host@@@Z 1006aa80 f i libucrtd:output.obj
 0001:00069ab0       ??$puttc_nolock_internal@AB_WPAU_iobuf@@AAV__crt_cached_ptd_host@@@?$__crt_char_traits@_W@@SAGAB_W$$QAPAU_iobuf@@AAV__crt_cached_ptd_host@@@Z 1006aab0 f i libucrtd:output.obj
 0001:00069ae0       ??$read_va_arg@C@__crt_stdio_output@@YACAAPAD@Z 1006aae0 f i libucrtd:output.obj
 0001:00069b10       ??$read_va_arg@E@__crt_stdio_output@@YAEAAPAD@Z 1006ab10 f i libucrtd:output.obj
 0001:00069b40       ??$read_va_arg@F@__crt_stdio_output@@YAFAAPAD@Z 1006ab40 f i libucrtd:output.obj
 0001:00069b70       ??$read_va_arg@G@__crt_stdio_output@@YAGAAPAD@Z 1006ab70 f i libucrtd:output.obj
 0001:00069ba0       ??$read_va_arg@H@__crt_stdio_output@@YAHAAPAD@Z 1006aba0 f i libucrtd:output.obj
 0001:00069bd0       ??$read_va_arg@I@__crt_stdio_output@@YAIAAPAD@Z 1006abd0 f i libucrtd:output.obj
 0001:00069c00       ??$read_va_arg@PAD@__crt_stdio_output@@YAPADAAPAD@Z 1006ac00 f i libucrtd:output.obj
 0001:00069c30       ??$read_va_arg@PAUansi_string@?1??type_case_Z@?$output_processor@DV?$stream_output_adapter@D@__crt_stdio_output@@V?$format_validation_base@DV?$stream_output_adapter@D@__crt_stdio_output@@@2@@__crt_stdio_output@@AAE_NXZ@@__crt_stdio_output@@YAPAUansi_string@?1??type_case_Z@?$output_processor@DV?$stream_output_adapter@D@__crt_stdio_output@@V?$format_validation_base@DV?$stream_output_adapter@D@__crt_stdio_output@@@2@@0@AAE_NXZ@AAPAD@Z 1006ac30 f i libucrtd:output.obj
 0001:00069c60       ??$read_va_arg@PAUansi_string@?1??type_case_Z@?$output_processor@DV?$stream_output_adapter@D@__crt_stdio_output@@V?$positional_parameter_base@DV?$stream_output_adapter@D@__crt_stdio_output@@@2@@__crt_stdio_output@@AAE_NXZ@@__crt_stdio_output@@YAPAUansi_string@?1??type_case_Z@?$output_processor@DV?$stream_output_adapter@D@__crt_stdio_output@@V?$positional_parameter_base@DV?$stream_output_adapter@D@__crt_stdio_output@@@2@@0@AAE_NXZ@AAPAD@Z 1006ac60 f i libucrtd:output.obj
 0001:00069c90       ??$read_va_arg@PAUansi_string@?1??type_case_Z@?$output_processor@DV?$stream_output_adapter@D@__crt_stdio_output@@V?$standard_base@DV?$stream_output_adapter@D@__crt_stdio_output@@@2@@__crt_stdio_output@@AAE_NXZ@@__crt_stdio_output@@YAPAUansi_string@?1??type_case_Z@?$output_processor@DV?$stream_output_adapter@D@__crt_stdio_output@@V?$standard_base@DV?$stream_output_adapter@D@__crt_stdio_output@@@2@@0@AAE_NXZ@AAPAD@Z 1006ac90 f i libucrtd:output.obj
 0001:00069cc0       ??$read_va_arg@PAUansi_string@?1??type_case_Z@?$output_processor@DV?$string_output_adapter@D@__crt_stdio_output@@V?$format_validation_base@DV?$string_output_adapter@D@__crt_stdio_output@@@2@@__crt_stdio_output@@AAE_NXZ@@__crt_stdio_output@@YAPAUansi_string@?1??type_case_Z@?$output_processor@DV?$string_output_adapter@D@__crt_stdio_output@@V?$format_validation_base@DV?$string_output_adapter@D@__crt_stdio_output@@@2@@0@AAE_NXZ@AAPAD@Z 1006acc0 f i libucrtd:output.obj
 0001:00069cf0       ??$read_va_arg@PAUansi_string@?1??type_case_Z@?$output_processor@DV?$string_output_adapter@D@__crt_stdio_output@@V?$positional_parameter_base@DV?$string_output_adapter@D@__crt_stdio_output@@@2@@__crt_stdio_output@@AAE_NXZ@@__crt_stdio_output@@YAPAUansi_string@?1??type_case_Z@?$output_processor@DV?$string_output_adapter@D@__crt_stdio_output@@V?$positional_parameter_base@DV?$string_output_adapter@D@__crt_stdio_output@@@2@@0@AAE_NXZ@AAPAD@Z 1006acf0 f i libucrtd:output.obj
 0001:00069d20       ??$read_va_arg@PAUansi_string@?1??type_case_Z@?$output_processor@DV?$string_output_adapter@D@__crt_stdio_output@@V?$standard_base@DV?$string_output_adapter@D@__crt_stdio_output@@@2@@__crt_stdio_output@@AAE_NXZ@@__crt_stdio_output@@YAPAUansi_string@?1??type_case_Z@?$output_processor@DV?$string_output_adapter@D@__crt_stdio_output@@V?$standard_base@DV?$string_output_adapter@D@__crt_stdio_output@@@2@@0@AAE_NXZ@AAPAD@Z 1006ad20 f i libucrtd:output.obj
 0001:00069d50       ??$read_va_arg@PAUansi_string@?1??type_case_Z@?$output_processor@_WV?$stream_output_adapter@_W@__crt_stdio_output@@V?$format_validation_base@_WV?$stream_output_adapter@_W@__crt_stdio_output@@@2@@__crt_stdio_output@@AAE_NXZ@@__crt_stdio_output@@YAPAUansi_string@?1??type_case_Z@?$output_processor@_WV?$stream_output_adapter@_W@__crt_stdio_output@@V?$format_validation_base@_WV?$stream_output_adapter@_W@__crt_stdio_output@@@2@@0@AAE_NXZ@AAPAD@Z 1006ad50 f i libucrtd:output.obj
 0001:00069d80       ??$read_va_arg@PAUansi_string@?1??type_case_Z@?$output_processor@_WV?$stream_output_adapter@_W@__crt_stdio_output@@V?$positional_parameter_base@_WV?$stream_output_adapter@_W@__crt_stdio_output@@@2@@__crt_stdio_output@@AAE_NXZ@@__crt_stdio_output@@YAPAUansi_string@?1??type_case_Z@?$output_processor@_WV?$stream_output_adapter@_W@__crt_stdio_output@@V?$positional_parameter_base@_WV?$stream_output_adapter@_W@__crt_stdio_output@@@2@@0@AAE_NXZ@AAPAD@Z 1006ad80 f i libucrtd:output.obj
 0001:00069db0       ??$read_va_arg@PAUansi_string@?1??type_case_Z@?$output_processor@_WV?$stream_output_adapter@_W@__crt_stdio_output@@V?$standard_base@_WV?$stream_output_adapter@_W@__crt_stdio_output@@@2@@__crt_stdio_output@@AAE_NXZ@@__crt_stdio_output@@YAPAUansi_string@?1??type_case_Z@?$output_processor@_WV?$stream_output_adapter@_W@__crt_stdio_output@@V?$standard_base@_WV?$stream_output_adapter@_W@__crt_stdio_output@@@2@@0@AAE_NXZ@AAPAD@Z 1006adb0 f i libucrtd:output.obj
 0001:00069de0       ??$read_va_arg@PAUansi_string@?1??type_case_Z@?$output_processor@_WV?$string_output_adapter@_W@__crt_stdio_output@@V?$format_validation_base@_WV?$string_output_adapter@_W@__crt_stdio_output@@@2@@__crt_stdio_output@@AAE_NXZ@@__crt_stdio_output@@YAPAUansi_string@?1??type_case_Z@?$output_processor@_WV?$string_output_adapter@_W@__crt_stdio_output@@V?$format_validation_base@_WV?$string_output_adapter@_W@__crt_stdio_output@@@2@@0@AAE_NXZ@AAPAD@Z 1006ade0 f i libucrtd:output.obj
 0001:00069e10       ??$read_va_arg@PAUansi_string@?1??type_case_Z@?$output_processor@_WV?$string_output_adapter@_W@__crt_stdio_output@@V?$positional_parameter_base@_WV?$string_output_adapter@_W@__crt_stdio_output@@@2@@__crt_stdio_output@@AAE_NXZ@@__crt_stdio_output@@YAPAUansi_string@?1??type_case_Z@?$output_processor@_WV?$string_output_adapter@_W@__crt_stdio_output@@V?$positional_parameter_base@_WV?$string_output_adapter@_W@__crt_stdio_output@@@2@@0@AAE_NXZ@AAPAD@Z 1006ae10 f i libucrtd:output.obj
 0001:00069e40       ??$read_va_arg@PAUansi_string@?1??type_case_Z@?$output_processor@_WV?$string_output_adapter@_W@__crt_stdio_output@@V?$standard_base@_WV?$string_output_adapter@_W@__crt_stdio_output@@@2@@__crt_stdio_output@@AAE_NXZ@@__crt_stdio_output@@YAPAUansi_string@?1??type_case_Z@?$output_processor@_WV?$string_output_adapter@_W@__crt_stdio_output@@V?$standard_base@_WV?$string_output_adapter@_W@__crt_stdio_output@@@2@@0@AAE_NXZ@AAPAD@Z 1006ae40 f i libucrtd:output.obj
 0001:00069e70       ??$read_va_arg@PAX@__crt_stdio_output@@YAPAXAAPAD@Z 1006ae70 f i libucrtd:output.obj
 0001:00069ea0       ??$read_va_arg@U_CRT_DOUBLE@@@__crt_stdio_output@@YA?AU_CRT_DOUBLE@@AAPAD@Z 1006aea0 f i libucrtd:output.obj
 0001:00069ed0       ??$read_va_arg@_J@__crt_stdio_output@@YA_JAAPAD@Z 1006aed0 f i libucrtd:output.obj
 0001:00069f00       ??$read_va_arg@_K@__crt_stdio_output@@YA_KAAPAD@Z 1006af00 f i libucrtd:output.obj
 0001:00069f30       ??$read_va_arg@_W@__crt_stdio_output@@YA_WAAPAD@Z 1006af30 f i libucrtd:output.obj
 0001:00069f60       ??$scratch_count@D@formatting_buffer@__crt_stdio_output@@QBEIXZ 1006af60 f i libucrtd:output.obj
 0001:00069f80       ??$scratch_data@D@formatting_buffer@__crt_stdio_output@@QAEPADXZ 1006af80 f i libucrtd:output.obj
 0001:00069fe0       ??$type_case_integer@$07@?$output_processor@DV?$stream_output_adapter@D@__crt_stdio_output@@V?$format_validation_base@DV?$stream_output_adapter@D@__crt_stdio_output@@@2@@__crt_stdio_output@@AAE_N_N@Z 1006afe0 f i libucrtd:output.obj
 0001:0006a420       ??$type_case_integer@$07@?$output_processor@DV?$stream_output_adapter@D@__crt_stdio_output@@V?$positional_parameter_base@DV?$stream_output_adapter@D@__crt_stdio_output@@@2@@__crt_stdio_output@@AAE_N_N@Z 1006b420 f i libucrtd:output.obj
 0001:0006a860       ??$type_case_integer@$07@?$output_processor@DV?$stream_output_adapter@D@__crt_stdio_output@@V?$standard_base@DV?$stream_output_adapter@D@__crt_stdio_output@@@2@@__crt_stdio_output@@AAE_N_N@Z 1006b860 f i libucrtd:output.obj
 0001:0006aca0       ??$type_case_integer@$07@?$output_processor@DV?$string_output_adapter@D@__crt_stdio_output@@V?$format_validation_base@DV?$string_output_adapter@D@__crt_stdio_output@@@2@@__crt_stdio_output@@AAE_N_N@Z 1006bca0 f i libucrtd:output.obj
 0001:0006b0e0       ??$type_case_integer@$07@?$output_processor@DV?$string_output_adapter@D@__crt_stdio_output@@V?$positional_parameter_base@DV?$string_output_adapter@D@__crt_stdio_output@@@2@@__crt_stdio_output@@AAE_N_N@Z 1006c0e0 f i libucrtd:output.obj
 0001:0006b520       ??$type_case_integer@$07@?$output_processor@DV?$string_output_adapter@D@__crt_stdio_output@@V?$standard_base@DV?$string_output_adapter@D@__crt_stdio_output@@@2@@__crt_stdio_output@@AAE_N_N@Z 1006c520 f i libucrtd:output.obj
 0001:0006b960       ??$type_case_integer@$07@?$output_processor@_WV?$stream_output_adapter@_W@__crt_stdio_output@@V?$format_validation_base@_WV?$stream_output_adapter@_W@__crt_stdio_output@@@2@@__crt_stdio_output@@AAE_N_N@Z 1006c960 f i libucrtd:output.obj
 0001:0006bda0       ??$type_case_integer@$07@?$output_processor@_WV?$stream_output_adapter@_W@__crt_stdio_output@@V?$positional_parameter_base@_WV?$stream_output_adapter@_W@__crt_stdio_output@@@2@@__crt_stdio_output@@AAE_N_N@Z 1006cda0 f i libucrtd:output.obj
 0001:0006c1e0       ??$type_case_integer@$07@?$output_processor@_WV?$stream_output_adapter@_W@__crt_stdio_output@@V?$standard_base@_WV?$stream_output_adapter@_W@__crt_stdio_output@@@2@@__crt_stdio_output@@AAE_N_N@Z 1006d1e0 f i libucrtd:output.obj
 0001:0006c620       ??$type_case_integer@$07@?$output_processor@_WV?$string_output_adapter@_W@__crt_stdio_output@@V?$format_validation_base@_WV?$string_output_adapter@_W@__crt_stdio_output@@@2@@__crt_stdio_output@@AAE_N_N@Z 1006d620 f i libucrtd:output.obj
 0001:0006ca60       ??$type_case_integer@$07@?$output_processor@_WV?$string_output_adapter@_W@__crt_stdio_output@@V?$positional_parameter_base@_WV?$string_output_adapter@_W@__crt_stdio_output@@@2@@__crt_stdio_output@@AAE_N_N@Z 1006da60 f i libucrtd:output.obj
 0001:0006cea0       ??$type_case_integer@$07@?$output_processor@_WV?$string_output_adapter@_W@__crt_stdio_output@@V?$standard_base@_WV?$string_output_adapter@_W@__crt_stdio_output@@@2@@__crt_stdio_output@@AAE_N_N@Z 1006dea0 f i libucrtd:output.obj
 0001:0006d2e0       ??$type_case_integer@$09@?$output_processor@DV?$stream_output_adapter@D@__crt_stdio_output@@V?$format_validation_base@DV?$stream_output_adapter@D@__crt_stdio_output@@@2@@__crt_stdio_output@@AAE_N_N@Z 1006e2e0 f i libucrtd:output.obj
 0001:0006d720       ??$type_case_integer@$09@?$output_processor@DV?$stream_output_adapter@D@__crt_stdio_output@@V?$positional_parameter_base@DV?$stream_output_adapter@D@__crt_stdio_output@@@2@@__crt_stdio_output@@AAE_N_N@Z 1006e720 f i libucrtd:output.obj
 0001:0006db60       ??$type_case_integer@$09@?$output_processor@DV?$stream_output_adapter@D@__crt_stdio_output@@V?$standard_base@DV?$stream_output_adapter@D@__crt_stdio_output@@@2@@__crt_stdio_output@@AAE_N_N@Z 1006eb60 f i libucrtd:output.obj
 0001:0006dfa0       ??$type_case_integer@$09@?$output_processor@DV?$string_output_adapter@D@__crt_stdio_output@@V?$format_validation_base@DV?$string_output_adapter@D@__crt_stdio_output@@@2@@__crt_stdio_output@@AAE_N_N@Z 1006efa0 f i libucrtd:output.obj
 0001:0006e3e0       ??$type_case_integer@$09@?$output_processor@DV?$string_output_adapter@D@__crt_stdio_output@@V?$positional_parameter_base@DV?$string_output_adapter@D@__crt_stdio_output@@@2@@__crt_stdio_output@@AAE_N_N@Z 1006f3e0 f i libucrtd:output.obj
 0001:0006e820       ??$type_case_integer@$09@?$output_processor@DV?$string_output_adapter@D@__crt_stdio_output@@V?$standard_base@DV?$string_output_adapter@D@__crt_stdio_output@@@2@@__crt_stdio_output@@AAE_N_N@Z 1006f820 f i libucrtd:output.obj
 0001:0006ec60       ??$type_case_integer@$09@?$output_processor@_WV?$stream_output_adapter@_W@__crt_stdio_output@@V?$format_validation_base@_WV?$stream_output_adapter@_W@__crt_stdio_output@@@2@@__crt_stdio_output@@AAE_N_N@Z 1006fc60 f i libucrtd:output.obj
 0001:0006f0a0       ??$type_case_integer@$09@?$output_processor@_WV?$stream_output_adapter@_W@__crt_stdio_output@@V?$positional_parameter_base@_WV?$stream_output_adapter@_W@__crt_stdio_output@@@2@@__crt_stdio_output@@AAE_N_N@Z 100700a0 f i libucrtd:output.obj
 0001:0006f4e0       ??$type_case_integer@$09@?$output_processor@_WV?$stream_output_adapter@_W@__crt_stdio_output@@V?$standard_base@_WV?$stream_output_adapter@_W@__crt_stdio_output@@@2@@__crt_stdio_output@@AAE_N_N@Z 100704e0 f i libucrtd:output.obj
 0001:0006f920       ??$type_case_integer@$09@?$output_processor@_WV?$string_output_adapter@_W@__crt_stdio_output@@V?$format_validation_base@_WV?$string_output_adapter@_W@__crt_stdio_output@@@2@@__crt_stdio_output@@AAE_N_N@Z 10070920 f i libucrtd:output.obj
 0001:0006fd60       ??$type_case_integer@$09@?$output_processor@_WV?$string_output_adapter@_W@__crt_stdio_output@@V?$positional_parameter_base@_WV?$string_output_adapter@_W@__crt_stdio_output@@@2@@__crt_stdio_output@@AAE_N_N@Z 10070d60 f i libucrtd:output.obj
 0001:000701a0       ??$type_case_integer@$09@?$output_processor@_WV?$string_output_adapter@_W@__crt_stdio_output@@V?$standard_base@_WV?$string_output_adapter@_W@__crt_stdio_output@@@2@@__crt_stdio_output@@AAE_N_N@Z 100711a0 f i libucrtd:output.obj
 0001:000705e0       ??$type_case_integer@$0BA@@?$output_processor@DV?$stream_output_adapter@D@__crt_stdio_output@@V?$format_validation_base@DV?$stream_output_adapter@D@__crt_stdio_output@@@2@@__crt_stdio_output@@AAE_N_N@Z 100715e0 f i libucrtd:output.obj
 0001:00070a20       ??$type_case_integer@$0BA@@?$output_processor@DV?$stream_output_adapter@D@__crt_stdio_output@@V?$positional_parameter_base@DV?$stream_output_adapter@D@__crt_stdio_output@@@2@@__crt_stdio_output@@AAE_N_N@Z 10071a20 f i libucrtd:output.obj
 0001:00070e60       ??$type_case_integer@$0BA@@?$output_processor@DV?$stream_output_adapter@D@__crt_stdio_output@@V?$standard_base@DV?$stream_output_adapter@D@__crt_stdio_output@@@2@@__crt_stdio_output@@AAE_N_N@Z 10071e60 f i libucrtd:output.obj
 0001:000712a0       ??$type_case_integer@$0BA@@?$output_processor@DV?$string_output_adapter@D@__crt_stdio_output@@V?$format_validation_base@DV?$string_output_adapter@D@__crt_stdio_output@@@2@@__crt_stdio_output@@AAE_N_N@Z 100722a0 f i libucrtd:output.obj
 0001:000716e0       ??$type_case_integer@$0BA@@?$output_processor@DV?$string_output_adapter@D@__crt_stdio_output@@V?$positional_parameter_base@DV?$string_output_adapter@D@__crt_stdio_output@@@2@@__crt_stdio_output@@AAE_N_N@Z 100726e0 f i libucrtd:output.obj
 0001:00071b20       ??$type_case_integer@$0BA@@?$output_processor@DV?$string_output_adapter@D@__crt_stdio_output@@V?$standard_base@DV?$string_output_adapter@D@__crt_stdio_output@@@2@@__crt_stdio_output@@AAE_N_N@Z 10072b20 f i libucrtd:output.obj
 0001:00071f60       ??$type_case_integer@$0BA@@?$output_processor@_WV?$stream_output_adapter@_W@__crt_stdio_output@@V?$format_validation_base@_WV?$stream_output_adapter@_W@__crt_stdio_output@@@2@@__crt_stdio_output@@AAE_N_N@Z 10072f60 f i libucrtd:output.obj
 0001:000723a0       ??$type_case_integer@$0BA@@?$output_processor@_WV?$stream_output_adapter@_W@__crt_stdio_output@@V?$positional_parameter_base@_WV?$stream_output_adapter@_W@__crt_stdio_output@@@2@@__crt_stdio_output@@AAE_N_N@Z 100733a0 f i libucrtd:output.obj
 0001:000727e0       ??$type_case_integer@$0BA@@?$output_processor@_WV?$stream_output_adapter@_W@__crt_stdio_output@@V?$standard_base@_WV?$stream_output_adapter@_W@__crt_stdio_output@@@2@@__crt_stdio_output@@AAE_N_N@Z 100737e0 f i libucrtd:output.obj
 0001:00072c20       ??$type_case_integer@$0BA@@?$output_processor@_WV?$string_output_adapter@_W@__crt_stdio_output@@V?$format_validation_base@_WV?$string_output_adapter@_W@__crt_stdio_output@@@2@@__crt_stdio_output@@AAE_N_N@Z 10073c20 f i libucrtd:output.obj
 0001:00073060       ??$type_case_integer@$0BA@@?$output_processor@_WV?$string_output_adapter@_W@__crt_stdio_output@@V?$positional_parameter_base@_WV?$string_output_adapter@_W@__crt_stdio_output@@@2@@__crt_stdio_output@@AAE_N_N@Z 10074060 f i libucrtd:output.obj
 0001:000734a0       ??$type_case_integer@$0BA@@?$output_processor@_WV?$string_output_adapter@_W@__crt_stdio_output@@V?$standard_base@_WV?$string_output_adapter@_W@__crt_stdio_output@@@2@@__crt_stdio_output@@AAE_N_N@Z 100744a0 f i libucrtd:output.obj
 0001:000738e0       ??$type_case_integer_parse_into_buffer@I$07@?$output_processor@DV?$stream_output_adapter@D@__crt_stdio_output@@V?$format_validation_base@DV?$stream_output_adapter@D@__crt_stdio_output@@@2@@__crt_stdio_output@@AAEXI_N@Z 100748e0 f i libucrtd:output.obj
 0001:000739f0       ??$type_case_integer_parse_into_buffer@I$07@?$output_processor@DV?$stream_output_adapter@D@__crt_stdio_output@@V?$positional_parameter_base@DV?$stream_output_adapter@D@__crt_stdio_output@@@2@@__crt_stdio_output@@AAEXI_N@Z 100749f0 f i libucrtd:output.obj
 0001:00073b00       ??$type_case_integer_parse_into_buffer@I$07@?$output_processor@DV?$stream_output_adapter@D@__crt_stdio_output@@V?$standard_base@DV?$stream_output_adapter@D@__crt_stdio_output@@@2@@__crt_stdio_output@@AAEXI_N@Z 10074b00 f i libucrtd:output.obj
 0001:00073c10       ??$type_case_integer_parse_into_buffer@I$07@?$output_processor@DV?$string_output_adapter@D@__crt_stdio_output@@V?$format_validation_base@DV?$string_output_adapter@D@__crt_stdio_output@@@2@@__crt_stdio_output@@AAEXI_N@Z 10074c10 f i libucrtd:output.obj
 0001:00073d20       ??$type_case_integer_parse_into_buffer@I$07@?$output_processor@DV?$string_output_adapter@D@__crt_stdio_output@@V?$positional_parameter_base@DV?$string_output_adapter@D@__crt_stdio_output@@@2@@__crt_stdio_output@@AAEXI_N@Z 10074d20 f i libucrtd:output.obj
 0001:00073e30       ??$type_case_integer_parse_into_buffer@I$07@?$output_processor@DV?$string_output_adapter@D@__crt_stdio_output@@V?$standard_base@DV?$string_output_adapter@D@__crt_stdio_output@@@2@@__crt_stdio_output@@AAEXI_N@Z 10074e30 f i libucrtd:output.obj
 0001:00073f40       ??$type_case_integer_parse_into_buffer@I$07@?$output_processor@_WV?$stream_output_adapter@_W@__crt_stdio_output@@V?$format_validation_base@_WV?$stream_output_adapter@_W@__crt_stdio_output@@@2@@__crt_stdio_output@@AAEXI_N@Z 10074f40 f i libucrtd:output.obj
 0001:00074050       ??$type_case_integer_parse_into_buffer@I$07@?$output_processor@_WV?$stream_output_adapter@_W@__crt_stdio_output@@V?$positional_parameter_base@_WV?$stream_output_adapter@_W@__crt_stdio_output@@@2@@__crt_stdio_output@@AAEXI_N@Z 10075050 f i libucrtd:output.obj
 0001:00074160       ??$type_case_integer_parse_into_buffer@I$07@?$output_processor@_WV?$stream_output_adapter@_W@__crt_stdio_output@@V?$standard_base@_WV?$stream_output_adapter@_W@__crt_stdio_output@@@2@@__crt_stdio_output@@AAEXI_N@Z 10075160 f i libucrtd:output.obj
 0001:00074270       ??$type_case_integer_parse_into_buffer@I$07@?$output_processor@_WV?$string_output_adapter@_W@__crt_stdio_output@@V?$format_validation_base@_WV?$string_output_adapter@_W@__crt_stdio_output@@@2@@__crt_stdio_output@@AAEXI_N@Z 10075270 f i libucrtd:output.obj
 0001:00074380       ??$type_case_integer_parse_into_buffer@I$07@?$output_processor@_WV?$string_output_adapter@_W@__crt_stdio_output@@V?$positional_parameter_base@_WV?$string_output_adapter@_W@__crt_stdio_output@@@2@@__crt_stdio_output@@AAEXI_N@Z 10075380 f i libucrtd:output.obj
 0001:00074490       ??$type_case_integer_parse_into_buffer@I$07@?$output_processor@_WV?$string_output_adapter@_W@__crt_stdio_output@@V?$standard_base@_WV?$string_output_adapter@_W@__crt_stdio_output@@@2@@__crt_stdio_output@@AAEXI_N@Z 10075490 f i libucrtd:output.obj
 0001:000745a0       ??$type_case_integer_parse_into_buffer@I$09@?$output_processor@DV?$stream_output_adapter@D@__crt_stdio_output@@V?$format_validation_base@DV?$stream_output_adapter@D@__crt_stdio_output@@@2@@__crt_stdio_output@@AAEXI_N@Z 100755a0 f i libucrtd:output.obj
 0001:000746b0       ??$type_case_integer_parse_into_buffer@I$09@?$output_processor@DV?$stream_output_adapter@D@__crt_stdio_output@@V?$positional_parameter_base@DV?$stream_output_adapter@D@__crt_stdio_output@@@2@@__crt_stdio_output@@AAEXI_N@Z 100756b0 f i libucrtd:output.obj
 0001:000747c0       ??$type_case_integer_parse_into_buffer@I$09@?$output_processor@DV?$stream_output_adapter@D@__crt_stdio_output@@V?$standard_base@DV?$stream_output_adapter@D@__crt_stdio_output@@@2@@__crt_stdio_output@@AAEXI_N@Z 100757c0 f i libucrtd:output.obj
 0001:000748d0       ??$type_case_integer_parse_into_buffer@I$09@?$output_processor@DV?$string_output_adapter@D@__crt_stdio_output@@V?$format_validation_base@DV?$string_output_adapter@D@__crt_stdio_output@@@2@@__crt_stdio_output@@AAEXI_N@Z 100758d0 f i libucrtd:output.obj
 0001:000749e0       ??$type_case_integer_parse_into_buffer@I$09@?$output_processor@DV?$string_output_adapter@D@__crt_stdio_output@@V?$positional_parameter_base@DV?$string_output_adapter@D@__crt_stdio_output@@@2@@__crt_stdio_output@@AAEXI_N@Z 100759e0 f i libucrtd:output.obj
 0001:00074af0       ??$type_case_integer_parse_into_buffer@I$09@?$output_processor@DV?$string_output_adapter@D@__crt_stdio_output@@V?$standard_base@DV?$string_output_adapter@D@__crt_stdio_output@@@2@@__crt_stdio_output@@AAEXI_N@Z 10075af0 f i libucrtd:output.obj
 0001:00074c00       ??$type_case_integer_parse_into_buffer@I$09@?$output_processor@_WV?$stream_output_adapter@_W@__crt_stdio_output@@V?$format_validation_base@_WV?$stream_output_adapter@_W@__crt_stdio_output@@@2@@__crt_stdio_output@@AAEXI_N@Z 10075c00 f i libucrtd:output.obj
 0001:00074d20       ??$type_case_integer_parse_into_buffer@I$09@?$output_processor@_WV?$stream_output_adapter@_W@__crt_stdio_output@@V?$positional_parameter_base@_WV?$stream_output_adapter@_W@__crt_stdio_output@@@2@@__crt_stdio_output@@AAEXI_N@Z 10075d20 f i libucrtd:output.obj
 0001:00074e40       ??$type_case_integer_parse_into_buffer@I$09@?$output_processor@_WV?$stream_output_adapter@_W@__crt_stdio_output@@V?$standard_base@_WV?$stream_output_adapter@_W@__crt_stdio_output@@@2@@__crt_stdio_output@@AAEXI_N@Z 10075e40 f i libucrtd:output.obj
 0001:00074f60       ??$type_case_integer_parse_into_buffer@I$09@?$output_processor@_WV?$string_output_adapter@_W@__crt_stdio_output@@V?$format_validation_base@_WV?$string_output_adapter@_W@__crt_stdio_output@@@2@@__crt_stdio_output@@AAEXI_N@Z 10075f60 f i libucrtd:output.obj
 0001:00075080       ??$type_case_integer_parse_into_buffer@I$09@?$output_processor@_WV?$string_output_adapter@_W@__crt_stdio_output@@V?$positional_parameter_base@_WV?$string_output_adapter@_W@__crt_stdio_output@@@2@@__crt_stdio_output@@AAEXI_N@Z 10076080 f i libucrtd:output.obj
 0001:000751a0       ??$type_case_integer_parse_into_buffer@I$09@?$output_processor@_WV?$string_output_adapter@_W@__crt_stdio_output@@V?$standard_base@_WV?$string_output_adapter@_W@__crt_stdio_output@@@2@@__crt_stdio_output@@AAEXI_N@Z 100761a0 f i libucrtd:output.obj
 0001:000752c0       ??$type_case_integer_parse_into_buffer@I$0BA@@?$output_processor@DV?$stream_output_adapter@D@__crt_stdio_output@@V?$format_validation_base@DV?$stream_output_adapter@D@__crt_stdio_output@@@2@@__crt_stdio_output@@AAEXI_N@Z 100762c0 f i libucrtd:output.obj
 0001:000753d0       ??$type_case_integer_parse_into_buffer@I$0BA@@?$output_processor@DV?$stream_output_adapter@D@__crt_stdio_output@@V?$positional_parameter_base@DV?$stream_output_adapter@D@__crt_stdio_output@@@2@@__crt_stdio_output@@AAEXI_N@Z 100763d0 f i libucrtd:output.obj
 0001:000754e0       ??$type_case_integer_parse_into_buffer@I$0BA@@?$output_processor@DV?$stream_output_adapter@D@__crt_stdio_output@@V?$standard_base@DV?$stream_output_adapter@D@__crt_stdio_output@@@2@@__crt_stdio_output@@AAEXI_N@Z 100764e0 f i libucrtd:output.obj
 0001:000755f0       ??$type_case_integer_parse_into_buffer@I$0BA@@?$output_processor@DV?$string_output_adapter@D@__crt_stdio_output@@V?$format_validation_base@DV?$string_output_adapter@D@__crt_stdio_output@@@2@@__crt_stdio_output@@AAEXI_N@Z 100765f0 f i libucrtd:output.obj
 0001:00075700       ??$type_case_integer_parse_into_buffer@I$0BA@@?$output_processor@DV?$string_output_adapter@D@__crt_stdio_output@@V?$positional_parameter_base@DV?$string_output_adapter@D@__crt_stdio_output@@@2@@__crt_stdio_output@@AAEXI_N@Z 10076700 f i libucrtd:output.obj
 0001:00075810       ??$type_case_integer_parse_into_buffer@I$0BA@@?$output_processor@DV?$string_output_adapter@D@__crt_stdio_output@@V?$standard_base@DV?$string_output_adapter@D@__crt_stdio_output@@@2@@__crt_stdio_output@@AAEXI_N@Z 10076810 f i libucrtd:output.obj
 0001:00075920       ??$type_case_integer_parse_into_buffer@I$0BA@@?$output_processor@_WV?$stream_output_adapter@_W@__crt_stdio_output@@V?$format_validation_base@_WV?$stream_output_adapter@_W@__crt_stdio_output@@@2@@__crt_stdio_output@@AAEXI_N@Z 10076920 f i libucrtd:output.obj
 0001:00075a30       ??$type_case_integer_parse_into_buffer@I$0BA@@?$output_processor@_WV?$stream_output_adapter@_W@__crt_stdio_output@@V?$positional_parameter_base@_WV?$stream_output_adapter@_W@__crt_stdio_output@@@2@@__crt_stdio_output@@AAEXI_N@Z 10076a30 f i libucrtd:output.obj
 0001:00075b40       ??$type_case_integer_parse_into_buffer@I$0BA@@?$output_processor@_WV?$stream_output_adapter@_W@__crt_stdio_output@@V?$standard_base@_WV?$stream_output_adapter@_W@__crt_stdio_output@@@2@@__crt_stdio_output@@AAEXI_N@Z 10076b40 f i libucrtd:output.obj
 0001:00075c50       ??$type_case_integer_parse_into_buffer@I$0BA@@?$output_processor@_WV?$string_output_adapter@_W@__crt_stdio_output@@V?$format_validation_base@_WV?$string_output_adapter@_W@__crt_stdio_output@@@2@@__crt_stdio_output@@AAEXI_N@Z 10076c50 f i libucrtd:output.obj
 0001:00075d60       ??$type_case_integer_parse_into_buffer@I$0BA@@?$output_processor@_WV?$string_output_adapter@_W@__crt_stdio_output@@V?$positional_parameter_base@_WV?$string_output_adapter@_W@__crt_stdio_output@@@2@@__crt_stdio_output@@AAEXI_N@Z 10076d60 f i libucrtd:output.obj
 0001:00075e70       ??$type_case_integer_parse_into_buffer@I$0BA@@?$output_processor@_WV?$string_output_adapter@_W@__crt_stdio_output@@V?$standard_base@_WV?$string_output_adapter@_W@__crt_stdio_output@@@2@@__crt_stdio_output@@AAEXI_N@Z 10076e70 f i libucrtd:output.obj
 0001:00075f80       ??$type_case_integer_parse_into_buffer@_K$07@?$output_processor@DV?$stream_output_adapter@D@__crt_stdio_output@@V?$format_validation_base@DV?$stream_output_adapter@D@__crt_stdio_output@@@2@@__crt_stdio_output@@AAEX_K_N@Z 10076f80 f i libucrtd:output.obj
 0001:000760b0       ??$type_case_integer_parse_into_buffer@_K$07@?$output_processor@DV?$stream_output_adapter@D@__crt_stdio_output@@V?$positional_parameter_base@DV?$stream_output_adapter@D@__crt_stdio_output@@@2@@__crt_stdio_output@@AAEX_K_N@Z 100770b0 f i libucrtd:output.obj
 0001:000761e0       ??$type_case_integer_parse_into_buffer@_K$07@?$output_processor@DV?$stream_output_adapter@D@__crt_stdio_output@@V?$standard_base@DV?$stream_output_adapter@D@__crt_stdio_output@@@2@@__crt_stdio_output@@AAEX_K_N@Z 100771e0 f i libucrtd:output.obj
 0001:00076310       ??$type_case_integer_parse_into_buffer@_K$07@?$output_processor@DV?$string_output_adapter@D@__crt_stdio_output@@V?$format_validation_base@DV?$string_output_adapter@D@__crt_stdio_output@@@2@@__crt_stdio_output@@AAEX_K_N@Z 10077310 f i libucrtd:output.obj
 0001:00076440       ??$type_case_integer_parse_into_buffer@_K$07@?$output_processor@DV?$string_output_adapter@D@__crt_stdio_output@@V?$positional_parameter_base@DV?$string_output_adapter@D@__crt_stdio_output@@@2@@__crt_stdio_output@@AAEX_K_N@Z 10077440 f i libucrtd:output.obj
 0001:00076570       ??$type_case_integer_parse_into_buffer@_K$07@?$output_processor@DV?$string_output_adapter@D@__crt_stdio_output@@V?$standard_base@DV?$string_output_adapter@D@__crt_stdio_output@@@2@@__crt_stdio_output@@AAEX_K_N@Z 10077570 f i libucrtd:output.obj
 0001:000766a0       ??$type_case_integer_parse_into_buffer@_K$07@?$output_processor@_WV?$stream_output_adapter@_W@__crt_stdio_output@@V?$format_validation_base@_WV?$stream_output_adapter@_W@__crt_stdio_output@@@2@@__crt_stdio_output@@AAEX_K_N@Z 100776a0 f i libucrtd:output.obj
 0001:000767d0       ??$type_case_integer_parse_into_buffer@_K$07@?$output_processor@_WV?$stream_output_adapter@_W@__crt_stdio_output@@V?$positional_parameter_base@_WV?$stream_output_adapter@_W@__crt_stdio_output@@@2@@__crt_stdio_output@@AAEX_K_N@Z 100777d0 f i libucrtd:output.obj
 0001:00076900       ??$type_case_integer_parse_into_buffer@_K$07@?$output_processor@_WV?$stream_output_adapter@_W@__crt_stdio_output@@V?$standard_base@_WV?$stream_output_adapter@_W@__crt_stdio_output@@@2@@__crt_stdio_output@@AAEX_K_N@Z 10077900 f i libucrtd:output.obj
 0001:00076a30       ??$type_case_integer_parse_into_buffer@_K$07@?$output_processor@_WV?$string_output_adapter@_W@__crt_stdio_output@@V?$format_validation_base@_WV?$string_output_adapter@_W@__crt_stdio_output@@@2@@__crt_stdio_output@@AAEX_K_N@Z 10077a30 f i libucrtd:output.obj
 0001:00076b60       ??$type_case_integer_parse_into_buffer@_K$07@?$output_processor@_WV?$string_output_adapter@_W@__crt_stdio_output@@V?$positional_parameter_base@_WV?$string_output_adapter@_W@__crt_stdio_output@@@2@@__crt_stdio_output@@AAEX_K_N@Z 10077b60 f i libucrtd:output.obj
 0001:00076c90       ??$type_case_integer_parse_into_buffer@_K$07@?$output_processor@_WV?$string_output_adapter@_W@__crt_stdio_output@@V?$standard_base@_WV?$string_output_adapter@_W@__crt_stdio_output@@@2@@__crt_stdio_output@@AAEX_K_N@Z 10077c90 f i libucrtd:output.obj
 0001:00076dc0       ??$type_case_integer_parse_into_buffer@_K$09@?$output_processor@DV?$stream_output_adapter@D@__crt_stdio_output@@V?$format_validation_base@DV?$stream_output_adapter@D@__crt_stdio_output@@@2@@__crt_stdio_output@@AAEX_K_N@Z 10077dc0 f i libucrtd:output.obj
 0001:00076ef0       ??$type_case_integer_parse_into_buffer@_K$09@?$output_processor@DV?$stream_output_adapter@D@__crt_stdio_output@@V?$positional_parameter_base@DV?$stream_output_adapter@D@__crt_stdio_output@@@2@@__crt_stdio_output@@AAEX_K_N@Z 10077ef0 f i libucrtd:output.obj
 0001:00077020       ??$type_case_integer_parse_into_buffer@_K$09@?$output_processor@DV?$stream_output_adapter@D@__crt_stdio_output@@V?$standard_base@DV?$stream_output_adapter@D@__crt_stdio_output@@@2@@__crt_stdio_output@@AAEX_K_N@Z 10078020 f i libucrtd:output.obj
 0001:00077150       ??$type_case_integer_parse_into_buffer@_K$09@?$output_processor@DV?$string_output_adapter@D@__crt_stdio_output@@V?$format_validation_base@DV?$string_output_adapter@D@__crt_stdio_output@@@2@@__crt_stdio_output@@AAEX_K_N@Z 10078150 f i libucrtd:output.obj
 0001:00077280       ??$type_case_integer_parse_into_buffer@_K$09@?$output_processor@DV?$string_output_adapter@D@__crt_stdio_output@@V?$positional_parameter_base@DV?$string_output_adapter@D@__crt_stdio_output@@@2@@__crt_stdio_output@@AAEX_K_N@Z 10078280 f i libucrtd:output.obj
 0001:000773b0       ??$type_case_integer_parse_into_buffer@_K$09@?$output_processor@DV?$string_output_adapter@D@__crt_stdio_output@@V?$standard_base@DV?$string_output_adapter@D@__crt_stdio_output@@@2@@__crt_stdio_output@@AAEX_K_N@Z 100783b0 f i libucrtd:output.obj
 0001:000774e0       ??$type_case_integer_parse_into_buffer@_K$09@?$output_processor@_WV?$stream_output_adapter@_W@__crt_stdio_output@@V?$format_validation_base@_WV?$stream_output_adapter@_W@__crt_stdio_output@@@2@@__crt_stdio_output@@AAEX_K_N@Z 100784e0 f i libucrtd:output.obj
 0001:00077610       ??$type_case_integer_parse_into_buffer@_K$09@?$output_processor@_WV?$stream_output_adapter@_W@__crt_stdio_output@@V?$positional_parameter_base@_WV?$stream_output_adapter@_W@__crt_stdio_output@@@2@@__crt_stdio_output@@AAEX_K_N@Z 10078610 f i libucrtd:output.obj
 0001:00077740       ??$type_case_integer_parse_into_buffer@_K$09@?$output_processor@_WV?$stream_output_adapter@_W@__crt_stdio_output@@V?$standard_base@_WV?$stream_output_adapter@_W@__crt_stdio_output@@@2@@__crt_stdio_output@@AAEX_K_N@Z 10078740 f i libucrtd:output.obj
 0001:00077870       ??$type_case_integer_parse_into_buffer@_K$09@?$output_processor@_WV?$string_output_adapter@_W@__crt_stdio_output@@V?$format_validation_base@_WV?$string_output_adapter@_W@__crt_stdio_output@@@2@@__crt_stdio_output@@AAEX_K_N@Z 10078870 f i libucrtd:output.obj
 0001:000779a0       ??$type_case_integer_parse_into_buffer@_K$09@?$output_processor@_WV?$string_output_adapter@_W@__crt_stdio_output@@V?$positional_parameter_base@_WV?$string_output_adapter@_W@__crt_stdio_output@@@2@@__crt_stdio_output@@AAEX_K_N@Z 100789a0 f i libucrtd:output.obj
 0001:00077ad0       ??$type_case_integer_parse_into_buffer@_K$09@?$output_processor@_WV?$string_output_adapter@_W@__crt_stdio_output@@V?$standard_base@_WV?$string_output_adapter@_W@__crt_stdio_output@@@2@@__crt_stdio_output@@AAEX_K_N@Z 10078ad0 f i libucrtd:output.obj
 0001:00077c00       ??$type_case_integer_parse_into_buffer@_K$0BA@@?$output_processor@DV?$stream_output_adapter@D@__crt_stdio_output@@V?$format_validation_base@DV?$stream_output_adapter@D@__crt_stdio_output@@@2@@__crt_stdio_output@@AAEX_K_N@Z 10078c00 f i libucrtd:output.obj
 0001:00077d30       ??$type_case_integer_parse_into_buffer@_K$0BA@@?$output_processor@DV?$stream_output_adapter@D@__crt_stdio_output@@V?$positional_parameter_base@DV?$stream_output_adapter@D@__crt_stdio_output@@@2@@__crt_stdio_output@@AAEX_K_N@Z 10078d30 f i libucrtd:output.obj
 0001:00077e60       ??$type_case_integer_parse_into_buffer@_K$0BA@@?$output_processor@DV?$stream_output_adapter@D@__crt_stdio_output@@V?$standard_base@DV?$stream_output_adapter@D@__crt_stdio_output@@@2@@__crt_stdio_output@@AAEX_K_N@Z 10078e60 f i libucrtd:output.obj
 0001:00077f90       ??$type_case_integer_parse_into_buffer@_K$0BA@@?$output_processor@DV?$string_output_adapter@D@__crt_stdio_output@@V?$format_validation_base@DV?$string_output_adapter@D@__crt_stdio_output@@@2@@__crt_stdio_output@@AAEX_K_N@Z 10078f90 f i libucrtd:output.obj
 0001:000780c0       ??$type_case_integer_parse_into_buffer@_K$0BA@@?$output_processor@DV?$string_output_adapter@D@__crt_stdio_output@@V?$positional_parameter_base@DV?$string_output_adapter@D@__crt_stdio_output@@@2@@__crt_stdio_output@@AAEX_K_N@Z 100790c0 f i libucrtd:output.obj
 0001:000781f0       ??$type_case_integer_parse_into_buffer@_K$0BA@@?$output_processor@DV?$string_output_adapter@D@__crt_stdio_output@@V?$standard_base@DV?$string_output_adapter@D@__crt_stdio_output@@@2@@__crt_stdio_output@@AAEX_K_N@Z 100791f0 f i libucrtd:output.obj
 0001:00078320       ??$type_case_integer_parse_into_buffer@_K$0BA@@?$output_processor@_WV?$stream_output_adapter@_W@__crt_stdio_output@@V?$format_validation_base@_WV?$stream_output_adapter@_W@__crt_stdio_output@@@2@@__crt_stdio_output@@AAEX_K_N@Z 10079320 f i libucrtd:output.obj
 0001:00078450       ??$type_case_integer_parse_into_buffer@_K$0BA@@?$output_processor@_WV?$stream_output_adapter@_W@__crt_stdio_output@@V?$positional_parameter_base@_WV?$stream_output_adapter@_W@__crt_stdio_output@@@2@@__crt_stdio_output@@AAEX_K_N@Z 10079450 f i libucrtd:output.obj
 0001:00078580       ??$type_case_integer_parse_into_buffer@_K$0BA@@?$output_processor@_WV?$stream_output_adapter@_W@__crt_stdio_output@@V?$standard_base@_WV?$stream_output_adapter@_W@__crt_stdio_output@@@2@@__crt_stdio_output@@AAEX_K_N@Z 10079580 f i libucrtd:output.obj
 0001:000786b0       ??$type_case_integer_parse_into_buffer@_K$0BA@@?$output_processor@_WV?$string_output_adapter@_W@__crt_stdio_output@@V?$format_validation_base@_WV?$string_output_adapter@_W@__crt_stdio_output@@@2@@__crt_stdio_output@@AAEX_K_N@Z 100796b0 f i libucrtd:output.obj
 0001:000787e0       ??$type_case_integer_parse_into_buffer@_K$0BA@@?$output_processor@_WV?$string_output_adapter@_W@__crt_stdio_output@@V?$positional_parameter_base@_WV?$string_output_adapter@_W@__crt_stdio_output@@@2@@__crt_stdio_output@@AAEX_K_N@Z 100797e0 f i libucrtd:output.obj
 0001:00078910       ??$type_case_integer_parse_into_buffer@_K$0BA@@?$output_processor@_WV?$string_output_adapter@_W@__crt_stdio_output@@V?$standard_base@_WV?$string_output_adapter@_W@__crt_stdio_output@@@2@@__crt_stdio_output@@AAEX_K_N@Z 10079910 f i libucrtd:output.obj
 0001:00078a40       ??$write_multiple_characters@V?$stream_output_adapter@D@__crt_stdio_output@@D@__crt_stdio_output@@YAXABV?$stream_output_adapter@D@0@DHQAHAAV__crt_cached_ptd_host@@@Z 10079a40 f i libucrtd:output.obj
 0001:00078aa0       ??$write_multiple_characters@V?$stream_output_adapter@_W@__crt_stdio_output@@D@__crt_stdio_output@@YAXABV?$stream_output_adapter@_W@0@DHQAHAAV__crt_cached_ptd_host@@@Z 10079aa0 f i libucrtd:output.obj
 0001:00078b00       ??$write_multiple_characters@V?$string_output_adapter@D@__crt_stdio_output@@D@__crt_stdio_output@@YAXABV?$string_output_adapter@D@0@DHQAHAAV__crt_cached_ptd_host@@@Z 10079b00 f i libucrtd:output.obj
 0001:00078b60       ??$write_multiple_characters@V?$string_output_adapter@_W@__crt_stdio_output@@D@__crt_stdio_output@@YAXABV?$string_output_adapter@_W@0@DHQAHAAV__crt_cached_ptd_host@@@Z 10079b60 f i libucrtd:output.obj
 0001:00078fe0       ??0?$c_string_character_source@D@__crt_strtox@@QAE@QBDQAPBD@Z 10079fe0 f i libucrtd:output.obj
 0001:00079020       ??0?$c_string_character_source@_W@__crt_strtox@@QAE@QB_WQAPB_W@Z 1007a020 f i libucrtd:output.obj
 0001:00079060       ??0?$cached@H@__crt_cached_ptd_host@@QAE@XZ 1007a060 f i libucrtd:output.obj
 0001:00079080       ??0?$cached@K@__crt_cached_ptd_host@@QAE@XZ 1007a080 f i libucrtd:output.obj
 0001:000790a0       ??0?$common_data@D@__crt_stdio_output@@IAE@AAV__crt_cached_ptd_host@@@Z 1007a0a0 f i libucrtd:output.obj
 0001:00079160       ??0?$common_data@_W@__crt_stdio_output@@IAE@AAV__crt_cached_ptd_host@@@Z 1007a160 f i libucrtd:output.obj
 0001:00079220       ??0?$output_adapter_data@DV?$stream_output_adapter@D@__crt_stdio_output@@@__crt_stdio_output@@IAE@ABV?$stream_output_adapter@D@1@_KQBDAAV__crt_cached_ptd_host@@QAD@Z 1007a220 f i libucrtd:output.obj
 0001:000792c0       ??0?$output_adapter_data@DV?$string_output_adapter@D@__crt_stdio_output@@@__crt_stdio_output@@IAE@ABV?$string_output_adapter@D@1@_KQBDAAV__crt_cached_ptd_host@@QAD@Z 1007a2c0 f i libucrtd:output.obj
 0001:00079360       ??0?$output_adapter_data@_WV?$stream_output_adapter@_W@__crt_stdio_output@@@__crt_stdio_output@@IAE@ABV?$stream_output_adapter@_W@1@_KQB_WAAV__crt_cached_ptd_host@@QAD@Z 1007a360 f i libucrtd:output.obj
 0001:00079400       ??0?$output_adapter_data@_WV?$string_output_adapter@_W@__crt_stdio_output@@@__crt_stdio_output@@IAE@ABV?$string_output_adapter@_W@1@_KQB_WAAV__crt_cached_ptd_host@@QAD@Z 1007a400 f i libucrtd:output.obj
 0001:000794a0       ??0?$output_processor@DV?$stream_output_adapter@D@__crt_stdio_output@@V?$format_validation_base@DV?$stream_output_adapter@D@__crt_stdio_output@@@2@@__crt_stdio_output@@QAE@ABV?$stream_output_adapter@D@1@_KQBDAAV__crt_cached_ptd_host@@QAD@Z 1007a4a0 f i libucrtd:output.obj
 0001:000794e0       ??0?$output_processor@DV?$stream_output_adapter@D@__crt_stdio_output@@V?$positional_parameter_base@DV?$stream_output_adapter@D@__crt_stdio_output@@@2@@__crt_stdio_output@@QAE@ABV?$stream_output_adapter@D@1@_KQBDAAV__crt_cached_ptd_host@@QAD@Z 1007a4e0 f i libucrtd:output.obj
 0001:00079520       ??0?$output_processor@DV?$stream_output_adapter@D@__crt_stdio_output@@V?$standard_base@DV?$stream_output_adapter@D@__crt_stdio_output@@@2@@__crt_stdio_output@@QAE@ABV?$stream_output_adapter@D@1@_KQBDAAV__crt_cached_ptd_host@@QAD@Z 1007a520 f i libucrtd:output.obj
 0001:00079560       ??0?$output_processor@DV?$string_output_adapter@D@__crt_stdio_output@@V?$format_validation_base@DV?$string_output_adapter@D@__crt_stdio_output@@@2@@__crt_stdio_output@@QAE@ABV?$string_output_adapter@D@1@_KQBDAAV__crt_cached_ptd_host@@QAD@Z 1007a560 f i libucrtd:output.obj
 0001:000795a0       ??0?$output_processor@DV?$string_output_adapter@D@__crt_stdio_output@@V?$positional_parameter_base@DV?$string_output_adapter@D@__crt_stdio_output@@@2@@__crt_stdio_output@@QAE@ABV?$string_output_adapter@D@1@_KQBDAAV__crt_cached_ptd_host@@QAD@Z 1007a5a0 f i libucrtd:output.obj
 0001:000795e0       ??0?$output_processor@DV?$string_output_adapter@D@__crt_stdio_output@@V?$standard_base@DV?$string_output_adapter@D@__crt_stdio_output@@@2@@__crt_stdio_output@@QAE@ABV?$string_output_adapter@D@1@_KQBDAAV__crt_cached_ptd_host@@QAD@Z 1007a5e0 f i libucrtd:output.obj
 0001:00079620       ??0?$output_processor@_WV?$stream_output_adapter@_W@__crt_stdio_output@@V?$format_validation_base@_WV?$stream_output_adapter@_W@__crt_stdio_output@@@2@@__crt_stdio_output@@QAE@ABV?$stream_output_adapter@_W@1@_KQB_WAAV__crt_cached_ptd_host@@QAD@Z 1007a620 f i libucrtd:output.obj
 0001:00079660       ??0?$output_processor@_WV?$stream_output_adapter@_W@__crt_stdio_output@@V?$positional_parameter_base@_WV?$stream_output_adapter@_W@__crt_stdio_output@@@2@@__crt_stdio_output@@QAE@ABV?$stream_output_adapter@_W@1@_KQB_WAAV__crt_cached_ptd_host@@QAD@Z 1007a660 f i libucrtd:output.obj
 0001:000796a0       ??0?$output_processor@_WV?$stream_output_adapter@_W@__crt_stdio_output@@V?$standard_base@_WV?$stream_output_adapter@_W@__crt_stdio_output@@@2@@__crt_stdio_output@@QAE@ABV?$stream_output_adapter@_W@1@_KQB_WAAV__crt_cached_ptd_host@@QAD@Z 1007a6a0 f i libucrtd:output.obj
 0001:000796e0       ??0?$output_processor@_WV?$string_output_adapter@_W@__crt_stdio_output@@V?$format_validation_base@_WV?$string_output_adapter@_W@__crt_stdio_output@@@2@@__crt_stdio_output@@QAE@ABV?$string_output_adapter@_W@1@_KQB_WAAV__crt_cached_ptd_host@@QAD@Z 1007a6e0 f i libucrtd:output.obj
 0001:00079720       ??0?$output_processor@_WV?$string_output_adapter@_W@__crt_stdio_output@@V?$positional_parameter_base@_WV?$string_output_adapter@_W@__crt_stdio_output@@@2@@__crt_stdio_output@@QAE@ABV?$string_output_adapter@_W@1@_KQB_WAAV__crt_cached_ptd_host@@QAD@Z 1007a720 f i libucrtd:output.obj
 0001:00079760       ??0?$output_processor@_WV?$string_output_adapter@_W@__crt_stdio_output@@V?$standard_base@_WV?$string_output_adapter@_W@__crt_stdio_output@@@2@@__crt_stdio_output@@QAE@ABV?$string_output_adapter@_W@1@_KQB_WAAV__crt_cached_ptd_host@@QAD@Z 1007a760 f i libucrtd:output.obj
 0001:000797a0       ??0?$stream_output_adapter@D@__crt_stdio_output@@QAE@QAU_iobuf@@@Z 1007a7a0 f i libucrtd:output.obj
 0001:000797d0       ??0?$stream_output_adapter@_W@__crt_stdio_output@@QAE@QAU_iobuf@@@Z 1007a7d0 f i libucrtd:output.obj
 0001:00079800       ??0?$string_output_adapter@D@__crt_stdio_output@@QAE@QAU?$string_output_adapter_context@D@1@@Z 1007a800 f i libucrtd:output.obj
 0001:00079820       ??0?$string_output_adapter@_W@__crt_stdio_output@@QAE@QAU?$string_output_adapter_context@_W@1@@Z 1007a820 f i libucrtd:output.obj
 0001:00079840       ??0__acrt_stdio_temporary_buffering_guard@@QAE@QAU_iobuf@@AAV__crt_cached_ptd_host@@@Z 1007a840 f i libucrtd:output.obj
 0001:00079890       ??0__crt_cached_ptd_host@@QAE@QAU__crt_locale_pointers@@@Z 1007a890 f i libucrtd:output.obj
 0001:00079940       ??0__crt_scoped_get_last_error_reset@@QAE@XZ 1007a940 f i libucrtd:output.obj
 0001:00079970       ??0formatting_buffer@__crt_stdio_output@@QAE@XZ 1007a970 f i libucrtd:output.obj
 0001:000799c0       ??0guard@?$cached@H@__crt_cached_ptd_host@@QAE@AAU12@@Z 1007a9c0 f i libucrtd:output.obj
 0001:00079a00       ??1?$c_string_character_source@D@__crt_strtox@@QAE@XZ 1007aa00 f i libucrtd:output.obj
 0001:00079a30       ??1?$c_string_character_source@_W@__crt_strtox@@QAE@XZ 1007aa30 f i libucrtd:output.obj
 0001:00079a60       ??1?$common_data@D@__crt_stdio_output@@QAE@XZ 1007aa60 f i libucrtd:output.obj
 0001:00079a80       ??1?$common_data@_W@__crt_stdio_output@@QAE@XZ 1007aa80 f i libucrtd:output.obj
 0001:00079aa0       ??1?$format_validation_base@DV?$stream_output_adapter@D@__crt_stdio_output@@@__crt_stdio_output@@QAE@XZ 1007aaa0 f i libucrtd:output.obj
 0001:00079ac0       ??1?$format_validation_base@DV?$string_output_adapter@D@__crt_stdio_output@@@__crt_stdio_output@@QAE@XZ 1007aac0 f i libucrtd:output.obj
 0001:00079ae0       ??1?$format_validation_base@_WV?$stream_output_adapter@_W@__crt_stdio_output@@@__crt_stdio_output@@QAE@XZ 1007aae0 f i libucrtd:output.obj
 0001:00079b00       ??1?$format_validation_base@_WV?$string_output_adapter@_W@__crt_stdio_output@@@__crt_stdio_output@@QAE@XZ 1007ab00 f i libucrtd:output.obj
 0001:00079b20       ??1?$output_adapter_data@DV?$stream_output_adapter@D@__crt_stdio_output@@@__crt_stdio_output@@QAE@XZ 1007ab20 f i libucrtd:output.obj
 0001:00079b40       ??1?$output_adapter_data@DV?$string_output_adapter@D@__crt_stdio_output@@@__crt_stdio_output@@QAE@XZ 1007ab40 f i libucrtd:output.obj
 0001:00079b60       ??1?$output_adapter_data@_WV?$stream_output_adapter@_W@__crt_stdio_output@@@__crt_stdio_output@@QAE@XZ 1007ab60 f i libucrtd:output.obj
 0001:00079b80       ??1?$output_adapter_data@_WV?$string_output_adapter@_W@__crt_stdio_output@@@__crt_stdio_output@@QAE@XZ 1007ab80 f i libucrtd:output.obj
 0001:00079ba0       ??1?$output_processor@DV?$stream_output_adapter@D@__crt_stdio_output@@V?$format_validation_base@DV?$stream_output_adapter@D@__crt_stdio_output@@@2@@__crt_stdio_output@@QAE@XZ 1007aba0 f i libucrtd:output.obj
 0001:00079bc0       ??1?$output_processor@DV?$stream_output_adapter@D@__crt_stdio_output@@V?$positional_parameter_base@DV?$stream_output_adapter@D@__crt_stdio_output@@@2@@__crt_stdio_output@@QAE@XZ 1007abc0 f i libucrtd:output.obj
 0001:00079be0       ??1?$output_processor@DV?$stream_output_adapter@D@__crt_stdio_output@@V?$standard_base@DV?$stream_output_adapter@D@__crt_stdio_output@@@2@@__crt_stdio_output@@QAE@XZ 1007abe0 f i libucrtd:output.obj
 0001:00079c00       ??1?$output_processor@DV?$string_output_adapter@D@__crt_stdio_output@@V?$format_validation_base@DV?$string_output_adapter@D@__crt_stdio_output@@@2@@__crt_stdio_output@@QAE@XZ 1007ac00 f i libucrtd:output.obj
 0001:00079c20       ??1?$output_processor@DV?$string_output_adapter@D@__crt_stdio_output@@V?$positional_parameter_base@DV?$string_output_adapter@D@__crt_stdio_output@@@2@@__crt_stdio_output@@QAE@XZ 1007ac20 f i libucrtd:output.obj
 0001:00079c40       ??1?$output_processor@DV?$string_output_adapter@D@__crt_stdio_output@@V?$standard_base@DV?$string_output_adapter@D@__crt_stdio_output@@@2@@__crt_stdio_output@@QAE@XZ 1007ac40 f i libucrtd:output.obj
 0001:00079c60       ??1?$output_processor@_WV?$stream_output_adapter@_W@__crt_stdio_output@@V?$format_validation_base@_WV?$stream_output_adapter@_W@__crt_stdio_output@@@2@@__crt_stdio_output@@QAE@XZ 1007ac60 f i libucrtd:output.obj
 0001:00079c80       ??1?$output_processor@_WV?$stream_output_adapter@_W@__crt_stdio_output@@V?$positional_parameter_base@_WV?$stream_output_adapter@_W@__crt_stdio_output@@@2@@__crt_stdio_output@@QAE@XZ 1007ac80 f i libucrtd:output.obj
 0001:00079ca0       ??1?$output_processor@_WV?$stream_output_adapter@_W@__crt_stdio_output@@V?$standard_base@_WV?$stream_output_adapter@_W@__crt_stdio_output@@@2@@__crt_stdio_output@@QAE@XZ 1007aca0 f i libucrtd:output.obj
 0001:00079cc0       ??1?$output_processor@_WV?$string_output_adapter@_W@__crt_stdio_output@@V?$format_validation_base@_WV?$string_output_adapter@_W@__crt_stdio_output@@@2@@__crt_stdio_output@@QAE@XZ 1007acc0 f i libucrtd:output.obj
 0001:00079ce0       ??1?$output_processor@_WV?$string_output_adapter@_W@__crt_stdio_output@@V?$positional_parameter_base@_WV?$string_output_adapter@_W@__crt_stdio_output@@@2@@__crt_stdio_output@@QAE@XZ 1007ace0 f i libucrtd:output.obj
 0001:00079d00       ??1?$output_processor@_WV?$string_output_adapter@_W@__crt_stdio_output@@V?$standard_base@_WV?$string_output_adapter@_W@__crt_stdio_output@@@2@@__crt_stdio_output@@QAE@XZ 1007ad00 f i libucrtd:output.obj
 0001:00079d20       ??1?$positional_parameter_base@DV?$stream_output_adapter@D@__crt_stdio_output@@@__crt_stdio_output@@QAE@XZ 1007ad20 f i libucrtd:output.obj
 0001:00079d40       ??1?$positional_parameter_base@DV?$string_output_adapter@D@__crt_stdio_output@@@__crt_stdio_output@@QAE@XZ 1007ad40 f i libucrtd:output.obj
 0001:00079d60       ??1?$positional_parameter_base@_WV?$stream_output_adapter@_W@__crt_stdio_output@@@__crt_stdio_output@@QAE@XZ 1007ad60 f i libucrtd:output.obj
 0001:00079d80       ??1?$positional_parameter_base@_WV?$string_output_adapter@_W@__crt_stdio_output@@@__crt_stdio_output@@QAE@XZ 1007ad80 f i libucrtd:output.obj
 0001:00079da0       ??1?$standard_base@DV?$stream_output_adapter@D@__crt_stdio_output@@@__crt_stdio_output@@QAE@XZ 1007ada0 f i libucrtd:output.obj
 0001:00079dc0       ??1?$standard_base@DV?$string_output_adapter@D@__crt_stdio_output@@@__crt_stdio_output@@QAE@XZ 1007adc0 f i libucrtd:output.obj
 0001:00079de0       ??1?$standard_base@_WV?$stream_output_adapter@_W@__crt_stdio_output@@@__crt_stdio_output@@QAE@XZ 1007ade0 f i libucrtd:output.obj
 0001:00079e00       ??1?$standard_base@_WV?$string_output_adapter@_W@__crt_stdio_output@@@__crt_stdio_output@@QAE@XZ 1007ae00 f i libucrtd:output.obj
 0001:00079e20       ??1__acrt_stdio_temporary_buffering_guard@@QAE@XZ 1007ae20 f i libucrtd:output.obj
 0001:00079e60       ??1__crt_cached_ptd_host@@QAE@XZ 1007ae60 f i libucrtd:output.obj
 0001:00079f10       ??1__crt_scoped_get_last_error_reset@@QAE@XZ 1007af10 f i libucrtd:output.obj
 0001:00079f30       ??1formatting_buffer@__crt_stdio_output@@QAE@XZ 1007af30 f i libucrtd:output.obj
 0001:00079f60       ??1guard@?$cached@H@__crt_cached_ptd_host@@QAE@XZ 1007af60 f i libucrtd:output.obj
 0001:00079fa0       ??4?$__crt_unique_heap_ptr@DU__crt_internal_free_policy@@@@QAEAAV0@$$QAV0@@Z 1007afa0 f i libucrtd:output.obj
 0001:00079fe0       ??A?$spectre_mitigated_lookup_table@Ustate_transition_pair@__crt_stdio_output@@$0IA@@__crt_stdio_output@@QBEABUstate_transition_pair@1@I@Z 1007afe0 f i libucrtd:output.obj
 0001:0007aa90       ?adjust_hexit@?$output_processor@DV?$stream_output_adapter@D@__crt_stdio_output@@V?$format_validation_base@DV?$stream_output_adapter@D@__crt_stdio_output@@@2@@__crt_stdio_output@@CADH_N@Z 1007ba90 f i libucrtd:output.obj
 0001:0007aae0       ?adjust_hexit@?$output_processor@DV?$stream_output_adapter@D@__crt_stdio_output@@V?$positional_parameter_base@DV?$stream_output_adapter@D@__crt_stdio_output@@@2@@__crt_stdio_output@@CADH_N@Z 1007bae0 f i libucrtd:output.obj
 0001:0007ab30       ?adjust_hexit@?$output_processor@DV?$stream_output_adapter@D@__crt_stdio_output@@V?$standard_base@DV?$stream_output_adapter@D@__crt_stdio_output@@@2@@__crt_stdio_output@@CADH_N@Z 1007bb30 f i libucrtd:output.obj
 0001:0007ab80       ?adjust_hexit@?$output_processor@DV?$string_output_adapter@D@__crt_stdio_output@@V?$format_validation_base@DV?$string_output_adapter@D@__crt_stdio_output@@@2@@__crt_stdio_output@@CADH_N@Z 1007bb80 f i libucrtd:output.obj
 0001:0007abd0       ?adjust_hexit@?$output_processor@DV?$string_output_adapter@D@__crt_stdio_output@@V?$positional_parameter_base@DV?$string_output_adapter@D@__crt_stdio_output@@@2@@__crt_stdio_output@@CADH_N@Z 1007bbd0 f i libucrtd:output.obj
 0001:0007ac20       ?adjust_hexit@?$output_processor@DV?$string_output_adapter@D@__crt_stdio_output@@V?$standard_base@DV?$string_output_adapter@D@__crt_stdio_output@@@2@@__crt_stdio_output@@CADH_N@Z 1007bc20 f i libucrtd:output.obj
 0001:0007ac70       ?adjust_hexit@?$output_processor@_WV?$stream_output_adapter@_W@__crt_stdio_output@@V?$format_validation_base@_WV?$stream_output_adapter@_W@__crt_stdio_output@@@2@@__crt_stdio_output@@CADH_N@Z 1007bc70 f i libucrtd:output.obj
 0001:0007acc0       ?adjust_hexit@?$output_processor@_WV?$stream_output_adapter@_W@__crt_stdio_output@@V?$positional_parameter_base@_WV?$stream_output_adapter@_W@__crt_stdio_output@@@2@@__crt_stdio_output@@CADH_N@Z 1007bcc0 f i libucrtd:output.obj
 0001:0007ad10       ?adjust_hexit@?$output_processor@_WV?$stream_output_adapter@_W@__crt_stdio_output@@V?$standard_base@_WV?$stream_output_adapter@_W@__crt_stdio_output@@@2@@__crt_stdio_output@@CADH_N@Z 1007bd10 f i libucrtd:output.obj
 0001:0007ad60       ?adjust_hexit@?$output_processor@_WV?$string_output_adapter@_W@__crt_stdio_output@@V?$format_validation_base@_WV?$string_output_adapter@_W@__crt_stdio_output@@@2@@__crt_stdio_output@@CADH_N@Z 1007bd60 f i libucrtd:output.obj
 0001:0007adb0       ?adjust_hexit@?$output_processor@_WV?$string_output_adapter@_W@__crt_stdio_output@@V?$positional_parameter_base@_WV?$string_output_adapter@_W@__crt_stdio_output@@@2@@__crt_stdio_output@@CADH_N@Z 1007bdb0 f i libucrtd:output.obj
 0001:0007ae00       ?adjust_hexit@?$output_processor@_WV?$string_output_adapter@_W@__crt_stdio_output@@V?$standard_base@_WV?$string_output_adapter@_W@__crt_stdio_output@@@2@@__crt_stdio_output@@CADH_N@Z 1007be00 f i libucrtd:output.obj
 0001:0007ae50       ?advance_to_next_pass@?$positional_parameter_base@DV?$stream_output_adapter@D@__crt_stdio_output@@@__crt_stdio_output@@IAE_NXZ 1007be50 f i libucrtd:output.obj
 0001:0007af10       ?advance_to_next_pass@?$positional_parameter_base@DV?$string_output_adapter@D@__crt_stdio_output@@@__crt_stdio_output@@IAE_NXZ 1007bf10 f i libucrtd:output.obj
 0001:0007afd0       ?advance_to_next_pass@?$positional_parameter_base@_WV?$stream_output_adapter@_W@__crt_stdio_output@@@__crt_stdio_output@@IAE_NXZ 1007bfd0 f i libucrtd:output.obj
 0001:0007b090       ?advance_to_next_pass@?$positional_parameter_base@_WV?$string_output_adapter@_W@__crt_stdio_output@@@__crt_stdio_output@@IAE_NXZ 1007c090 f i libucrtd:output.obj
 0001:0007b150       ?advance_to_next_pass@?$standard_base@DV?$stream_output_adapter@D@__crt_stdio_output@@@__crt_stdio_output@@IAE_NXZ 1007c150 f i libucrtd:output.obj
 0001:0007b1b0       ?advance_to_next_pass@?$standard_base@DV?$string_output_adapter@D@__crt_stdio_output@@@__crt_stdio_output@@IAE_NXZ 1007c1b0 f i libucrtd:output.obj
 0001:0007b210       ?advance_to_next_pass@?$standard_base@_WV?$stream_output_adapter@_W@__crt_stdio_output@@@__crt_stdio_output@@IAE_NXZ 1007c210 f i libucrtd:output.obj
 0001:0007b270       ?advance_to_next_pass@?$standard_base@_WV?$string_output_adapter@_W@__crt_stdio_output@@@__crt_stdio_output@@IAE_NXZ 1007c270 f i libucrtd:output.obj
 0001:0007b2d0       ?check@?$cached@H@__crt_cached_ptd_host@@QBE_NH@Z 1007c2d0 f i libucrtd:output.obj
 0001:0007b320       ?check_synchronize_global_state_index@__crt_cached_ptd_host@@AAEIABV__crt_scoped_get_last_error_reset@@@Z 1007c320 f i libucrtd:output.obj
 0001:0007b360       ?check_synchronize_per_thread_data@__crt_cached_ptd_host@@AAEPAU__acrt_ptd@@XZ 1007c360 f i libucrtd:output.obj
 0001:0007b3a0       ?create_guard@?$cached@H@__crt_cached_ptd_host@@QAE?AVguard@12@XZ 1007c3a0 f i libucrtd:output.obj
 0001:0007b3d0       ?crop_zeroes@__crt_stdio_output@@YAXPADQAU__crt_locale_pointers@@@Z 1007c3d0 f i libucrtd:output.obj
 0001:0007b510       ?disable@guard@?$cached@H@__crt_cached_ptd_host@@QAEXXZ 1007c510 f i libucrtd:output.obj
 0001:0007b530       ?enable@guard@?$cached@H@__crt_cached_ptd_host@@QAEXXZ 1007c530 f i libucrtd:output.obj
 0001:0007b550       ?find_next_state@?$output_processor@DV?$stream_output_adapter@D@__crt_stdio_output@@V?$format_validation_base@DV?$stream_output_adapter@D@__crt_stdio_output@@@2@@__crt_stdio_output@@ABE?AW4state@2@DW432@@Z 1007c550 f i libucrtd:output.obj
 0001:0007b620       ?find_next_state@?$output_processor@DV?$stream_output_adapter@D@__crt_stdio_output@@V?$positional_parameter_base@DV?$stream_output_adapter@D@__crt_stdio_output@@@2@@__crt_stdio_output@@ABE?AW4state@2@DW432@@Z 1007c620 f i libucrtd:output.obj
 0001:0007b6f0       ?find_next_state@?$output_processor@DV?$stream_output_adapter@D@__crt_stdio_output@@V?$standard_base@DV?$stream_output_adapter@D@__crt_stdio_output@@@2@@__crt_stdio_output@@ABE?AW4state@2@DW432@@Z 1007c6f0 f i libucrtd:output.obj
 0001:0007b7c0       ?find_next_state@?$output_processor@DV?$string_output_adapter@D@__crt_stdio_output@@V?$format_validation_base@DV?$string_output_adapter@D@__crt_stdio_output@@@2@@__crt_stdio_output@@ABE?AW4state@2@DW432@@Z 1007c7c0 f i libucrtd:output.obj
 0001:0007b890       ?find_next_state@?$output_processor@DV?$string_output_adapter@D@__crt_stdio_output@@V?$positional_parameter_base@DV?$string_output_adapter@D@__crt_stdio_output@@@2@@__crt_stdio_output@@ABE?AW4state@2@DW432@@Z 1007c890 f i libucrtd:output.obj
 0001:0007b960       ?find_next_state@?$output_processor@DV?$string_output_adapter@D@__crt_stdio_output@@V?$standard_base@DV?$string_output_adapter@D@__crt_stdio_output@@@2@@__crt_stdio_output@@ABE?AW4state@2@DW432@@Z 1007c960 f i libucrtd:output.obj
 0001:0007ba30       ?find_next_state@?$output_processor@_WV?$stream_output_adapter@_W@__crt_stdio_output@@V?$format_validation_base@_WV?$stream_output_adapter@_W@__crt_stdio_output@@@2@@__crt_stdio_output@@ABE?AW4state@2@_WW432@@Z 1007ca30 f i libucrtd:output.obj
 0001:0007bb00       ?find_next_state@?$output_processor@_WV?$stream_output_adapter@_W@__crt_stdio_output@@V?$positional_parameter_base@_WV?$stream_output_adapter@_W@__crt_stdio_output@@@2@@__crt_stdio_output@@ABE?AW4state@2@_WW432@@Z 1007cb00 f i libucrtd:output.obj
 0001:0007bbd0       ?find_next_state@?$output_processor@_WV?$stream_output_adapter@_W@__crt_stdio_output@@V?$standard_base@_WV?$stream_output_adapter@_W@__crt_stdio_output@@@2@@__crt_stdio_output@@ABE?AW4state@2@_WW432@@Z 1007cbd0 f i libucrtd:output.obj
 0001:0007bca0       ?find_next_state@?$output_processor@_WV?$string_output_adapter@_W@__crt_stdio_output@@V?$format_validation_base@_WV?$string_output_adapter@_W@__crt_stdio_output@@@2@@__crt_stdio_output@@ABE?AW4state@2@_WW432@@Z 1007cca0 f i libucrtd:output.obj
 0001:0007bd70       ?find_next_state@?$output_processor@_WV?$string_output_adapter@_W@__crt_stdio_output@@V?$positional_parameter_base@_WV?$string_output_adapter@_W@__crt_stdio_output@@@2@@__crt_stdio_output@@ABE?AW4state@2@_WW432@@Z 1007cd70 f i libucrtd:output.obj
 0001:0007be40       ?find_next_state@?$output_processor@_WV?$string_output_adapter@_W@__crt_stdio_output@@V?$standard_base@_WV?$string_output_adapter@_W@__crt_stdio_output@@@2@@__crt_stdio_output@@ABE?AW4state@2@_WW432@@Z 1007ce40 f i libucrtd:output.obj
 0001:0007bf10       ?force_decimal_point@__crt_stdio_output@@YAXPADQAU__crt_locale_pointers@@@Z 1007cf10 f i libucrtd:output.obj
 0001:0007c010       ?force_synchronize_global_state_index@__crt_cached_ptd_host@@AAEIABV__crt_scoped_get_last_error_reset@@@Z 1007d010 f i libucrtd:output.obj
 0001:0007c050       ?force_synchronize_per_thread_data@__crt_cached_ptd_host@@AAEPAU__acrt_ptd@@XZ 1007d050 f i libucrtd:output.obj
 0001:0007c0b0       ?get@?$c_string_character_source@D@__crt_strtox@@QAEDXZ 1007d0b0 f i libucrtd:output.obj
 0001:0007c0f0       ?get@?$c_string_character_source@_W@__crt_strtox@@QAE_WXZ 1007d0f0 f i libucrtd:output.obj
 0001:0007c130       ?get_current_state_index@__crt_state_management@@YAIABV__crt_scoped_get_last_error_reset@@@Z 1007d130 f i libucrtd:output.obj
 0001:0007c140       ?get_errno@__crt_cached_ptd_host@@QAE@XZ 1007d140 f i libucrtd:output.obj
 0001:0007c160       ?get_flags@__crt_stdio_stream@@QBEJXZ 1007d160 f i libucrtd:output.obj
 0001:0007c190       ?get_locale@__crt_cached_ptd_host@@QAEPAU__crt_locale_pointers@@XZ 1007d190 f i libucrtd:output.obj
 0001:0007c1c0       ?get_parameter_type@?$positional_parameter_base@DV?$stream_output_adapter@D@__crt_stdio_output@@@__crt_stdio_output@@CA?AW4parameter_type@12@F@Z 1007d1c0 f i libucrtd:output.obj
 0001:0007c1d0       ?get_parameter_type@?$positional_parameter_base@DV?$stream_output_adapter@D@__crt_stdio_output@@@__crt_stdio_output@@CA?AW4parameter_type@12@G@Z 1007d1d0 f i libucrtd:output.obj
 0001:0007c1e0       ?get_parameter_type@?$positional_parameter_base@DV?$stream_output_adapter@D@__crt_stdio_output@@@__crt_stdio_output@@CA?AW4parameter_type@12@H@Z 1007d1e0 f i libucrtd:output.obj
 0001:0007c1f0       ?get_parameter_type@?$positional_parameter_base@DV?$stream_output_adapter@D@__crt_stdio_output@@@__crt_stdio_output@@CA?AW4parameter_type@12@I@Z 1007d1f0 f i libucrtd:output.obj
 0001:0007c200       ?get_parameter_type@?$positional_parameter_base@DV?$stream_output_adapter@D@__crt_stdio_output@@@__crt_stdio_output@@CA?AW4parameter_type@12@U_CRT_DOUBLE@@@Z 1007d200 f i libucrtd:output.obj
 0001:0007c210       ?get_parameter_type@?$positional_parameter_base@DV?$stream_output_adapter@D@__crt_stdio_output@@@__crt_stdio_output@@CA?AW4parameter_type@12@_J@Z 1007d210 f i libucrtd:output.obj
 0001:0007c220       ?get_parameter_type@?$positional_parameter_base@DV?$stream_output_adapter@D@__crt_stdio_output@@@__crt_stdio_output@@CA?AW4parameter_type@12@_K@Z 1007d220 f i libucrtd:output.obj
 0001:0007c230       ?get_parameter_type@?$positional_parameter_base@DV?$stream_output_adapter@D@__crt_stdio_output@@@__crt_stdio_output@@CA?AW4parameter_type@12@_W@Z 1007d230 f i libucrtd:output.obj
 0001:0007c240       ?get_parameter_type@?$positional_parameter_base@DV?$string_output_adapter@D@__crt_stdio_output@@@__crt_stdio_output@@CA?AW4parameter_type@12@F@Z 1007d240 f i libucrtd:output.obj
 0001:0007c250       ?get_parameter_type@?$positional_parameter_base@DV?$string_output_adapter@D@__crt_stdio_output@@@__crt_stdio_output@@CA?AW4parameter_type@12@G@Z 1007d250 f i libucrtd:output.obj
 0001:0007c260       ?get_parameter_type@?$positional_parameter_base@DV?$string_output_adapter@D@__crt_stdio_output@@@__crt_stdio_output@@CA?AW4parameter_type@12@H@Z 1007d260 f i libucrtd:output.obj
 0001:0007c270       ?get_parameter_type@?$positional_parameter_base@DV?$string_output_adapter@D@__crt_stdio_output@@@__crt_stdio_output@@CA?AW4parameter_type@12@I@Z 1007d270 f i libucrtd:output.obj
 0001:0007c280       ?get_parameter_type@?$positional_parameter_base@DV?$string_output_adapter@D@__crt_stdio_output@@@__crt_stdio_output@@CA?AW4parameter_type@12@U_CRT_DOUBLE@@@Z 1007d280 f i libucrtd:output.obj
 0001:0007c290       ?get_parameter_type@?$positional_parameter_base@DV?$string_output_adapter@D@__crt_stdio_output@@@__crt_stdio_output@@CA?AW4parameter_type@12@_J@Z 1007d290 f i libucrtd:output.obj
 0001:0007c2a0       ?get_parameter_type@?$positional_parameter_base@DV?$string_output_adapter@D@__crt_stdio_output@@@__crt_stdio_output@@CA?AW4parameter_type@12@_K@Z 1007d2a0 f i libucrtd:output.obj
 0001:0007c2b0       ?get_parameter_type@?$positional_parameter_base@DV?$string_output_adapter@D@__crt_stdio_output@@@__crt_stdio_output@@CA?AW4parameter_type@12@_W@Z 1007d2b0 f i libucrtd:output.obj
 0001:0007c2c0       ?get_parameter_type@?$positional_parameter_base@_WV?$stream_output_adapter@_W@__crt_stdio_output@@@__crt_stdio_output@@CA?AW4parameter_type@12@F@Z 1007d2c0 f i libucrtd:output.obj
 0001:0007c2d0       ?get_parameter_type@?$positional_parameter_base@_WV?$stream_output_adapter@_W@__crt_stdio_output@@@__crt_stdio_output@@CA?AW4parameter_type@12@G@Z 1007d2d0 f i libucrtd:output.obj
 0001:0007c2e0       ?get_parameter_type@?$positional_parameter_base@_WV?$stream_output_adapter@_W@__crt_stdio_output@@@__crt_stdio_output@@CA?AW4parameter_type@12@H@Z 1007d2e0 f i libucrtd:output.obj
 0001:0007c2f0       ?get_parameter_type@?$positional_parameter_base@_WV?$stream_output_adapter@_W@__crt_stdio_output@@@__crt_stdio_output@@CA?AW4parameter_type@12@I@Z 1007d2f0 f i libucrtd:output.obj
 0001:0007c300       ?get_parameter_type@?$positional_parameter_base@_WV?$stream_output_adapter@_W@__crt_stdio_output@@@__crt_stdio_output@@CA?AW4parameter_type@12@U_CRT_DOUBLE@@@Z 1007d300 f i libucrtd:output.obj
 0001:0007c310       ?get_parameter_type@?$positional_parameter_base@_WV?$stream_output_adapter@_W@__crt_stdio_output@@@__crt_stdio_output@@CA?AW4parameter_type@12@_J@Z 1007d310 f i libucrtd:output.obj
 0001:0007c320       ?get_parameter_type@?$positional_parameter_base@_WV?$stream_output_adapter@_W@__crt_stdio_output@@@__crt_stdio_output@@CA?AW4parameter_type@12@_K@Z 1007d320 f i libucrtd:output.obj
 0001:0007c330       ?get_parameter_type@?$positional_parameter_base@_WV?$stream_output_adapter@_W@__crt_stdio_output@@@__crt_stdio_output@@CA?AW4parameter_type@12@_W@Z 1007d330 f i libucrtd:output.obj
 0001:0007c340       ?get_parameter_type@?$positional_parameter_base@_WV?$string_output_adapter@_W@__crt_stdio_output@@@__crt_stdio_output@@CA?AW4parameter_type@12@F@Z 1007d340 f i libucrtd:output.obj
 0001:0007c350       ?get_parameter_type@?$positional_parameter_base@_WV?$string_output_adapter@_W@__crt_stdio_output@@@__crt_stdio_output@@CA?AW4parameter_type@12@G@Z 1007d350 f i libucrtd:output.obj
 0001:0007c360       ?get_parameter_type@?$positional_parameter_base@_WV?$string_output_adapter@_W@__crt_stdio_output@@@__crt_stdio_output@@CA?AW4parameter_type@12@H@Z 1007d360 f i libucrtd:output.obj
 0001:0007c370       ?get_parameter_type@?$positional_parameter_base@_WV?$string_output_adapter@_W@__crt_stdio_output@@@__crt_stdio_output@@CA?AW4parameter_type@12@I@Z 1007d370 f i libucrtd:output.obj
 0001:0007c380       ?get_parameter_type@?$positional_parameter_base@_WV?$string_output_adapter@_W@__crt_stdio_output@@@__crt_stdio_output@@CA?AW4parameter_type@12@U_CRT_DOUBLE@@@Z 1007d380 f i libucrtd:output.obj
 0001:0007c390       ?get_parameter_type@?$positional_parameter_base@_WV?$string_output_adapter@_W@__crt_stdio_output@@@__crt_stdio_output@@CA?AW4parameter_type@12@_J@Z 1007d390 f i libucrtd:output.obj
 0001:0007c3a0       ?get_parameter_type@?$positional_parameter_base@_WV?$string_output_adapter@_W@__crt_stdio_output@@@__crt_stdio_output@@CA?AW4parameter_type@12@_K@Z 1007d3a0 f i libucrtd:output.obj
 0001:0007c3b0       ?get_parameter_type@?$positional_parameter_base@_WV?$string_output_adapter@_W@__crt_stdio_output@@@__crt_stdio_output@@CA?AW4parameter_type@12@_W@Z 1007d3b0 f i libucrtd:output.obj
 0001:0007c3c0       ?get_raw_ptd@__crt_cached_ptd_host@@QAEPAU__acrt_ptd@@XZ 1007d3c0 f i libucrtd:output.obj
 0001:0007c3e0       ?has_flag@?$output_processor@DV?$stream_output_adapter@D@__crt_stdio_output@@V?$format_validation_base@DV?$stream_output_adapter@D@__crt_stdio_output@@@2@@__crt_stdio_output@@ABE_NI@Z 1007d3e0 f i libucrtd:output.obj
 0001:0007c420       ?has_flag@?$output_processor@DV?$stream_output_adapter@D@__crt_stdio_output@@V?$positional_parameter_base@DV?$stream_output_adapter@D@__crt_stdio_output@@@2@@__crt_stdio_output@@ABE_NI@Z 1007d420 f i libucrtd:output.obj
 0001:0007c460       ?has_flag@?$output_processor@DV?$stream_output_adapter@D@__crt_stdio_output@@V?$standard_base@DV?$stream_output_adapter@D@__crt_stdio_output@@@2@@__crt_stdio_output@@ABE_NI@Z 1007d460 f i libucrtd:output.obj
 0001:0007c4a0       ?has_flag@?$output_processor@DV?$string_output_adapter@D@__crt_stdio_output@@V?$format_validation_base@DV?$string_output_adapter@D@__crt_stdio_output@@@2@@__crt_stdio_output@@ABE_NI@Z 1007d4a0 f i libucrtd:output.obj
 0001:0007c4e0       ?has_flag@?$output_processor@DV?$string_output_adapter@D@__crt_stdio_output@@V?$positional_parameter_base@DV?$string_output_adapter@D@__crt_stdio_output@@@2@@__crt_stdio_output@@ABE_NI@Z 1007d4e0 f i libucrtd:output.obj
 0001:0007c520       ?has_flag@?$output_processor@DV?$string_output_adapter@D@__crt_stdio_output@@V?$standard_base@DV?$string_output_adapter@D@__crt_stdio_output@@@2@@__crt_stdio_output@@ABE_NI@Z 1007d520 f i libucrtd:output.obj
 0001:0007c560       ?has_flag@?$output_processor@_WV?$stream_output_adapter@_W@__crt_stdio_output@@V?$format_validation_base@_WV?$stream_output_adapter@_W@__crt_stdio_output@@@2@@__crt_stdio_output@@ABE_NI@Z 1007d560 f i libucrtd:output.obj
 0001:0007c5a0       ?has_flag@?$output_processor@_WV?$stream_output_adapter@_W@__crt_stdio_output@@V?$positional_parameter_base@_WV?$stream_output_adapter@_W@__crt_stdio_output@@@2@@__crt_stdio_output@@ABE_NI@Z 1007d5a0 f i libucrtd:output.obj
 0001:0007c5e0       ?has_flag@?$output_processor@_WV?$stream_output_adapter@_W@__crt_stdio_output@@V?$standard_base@_WV?$stream_output_adapter@_W@__crt_stdio_output@@@2@@__crt_stdio_output@@ABE_NI@Z 1007d5e0 f i libucrtd:output.obj
 0001:0007c620       ?has_flag@?$output_processor@_WV?$string_output_adapter@_W@__crt_stdio_output@@V?$format_validation_base@_WV?$string_output_adapter@_W@__crt_stdio_output@@@2@@__crt_stdio_output@@ABE_NI@Z 1007d620 f i libucrtd:output.obj
 0001:0007c660       ?has_flag@?$output_processor@_WV?$string_output_adapter@_W@__crt_stdio_output@@V?$positional_parameter_base@_WV?$string_output_adapter@_W@__crt_stdio_output@@@2@@__crt_stdio_output@@ABE_NI@Z 1007d660 f i libucrtd:output.obj
 0001:0007c6a0       ?has_flag@?$output_processor@_WV?$string_output_adapter@_W@__crt_stdio_output@@V?$standard_base@_WV?$string_output_adapter@_W@__crt_stdio_output@@@2@@__crt_stdio_output@@ABE_NI@Z 1007d6a0 f i libucrtd:output.obj
 0001:0007c6e0       ?is_positional_parameter_reappearance_consistent@?$positional_parameter_base@DV?$stream_output_adapter@D@__crt_stdio_output@@@__crt_stdio_output@@AAE_NABUparameter_data@12@W4parameter_type@12@DW4length_modifier@2@@Z 1007d6e0 f i libucrtd:output.obj
 0001:0007c990       ?is_positional_parameter_reappearance_consistent@?$positional_parameter_base@DV?$string_output_adapter@D@__crt_stdio_output@@@__crt_stdio_output@@AAE_NABUparameter_data@12@W4parameter_type@12@DW4length_modifier@2@@Z 1007d990 f i libucrtd:output.obj
 0001:0007cc40       ?is_positional_parameter_reappearance_consistent@?$positional_parameter_base@_WV?$stream_output_adapter@_W@__crt_stdio_output@@@__crt_stdio_output@@AAE_NABUparameter_data@12@W4parameter_type@12@_WW4length_modifier@2@@Z 1007dc40 f i libucrtd:output.obj
 0001:0007cef0       ?is_positional_parameter_reappearance_consistent@?$positional_parameter_base@_WV?$string_output_adapter@_W@__crt_stdio_output@@@__crt_stdio_output@@AAE_NABUparameter_data@12@W4parameter_type@12@_WW4length_modifier@2@@Z 1007def0 f i libucrtd:output.obj
 0001:0007d1a0       ?is_string_backed@__crt_stdio_stream@@QBE_NXZ 1007e1a0 f i libucrtd:output.obj
 0001:0007d1e0       ?maximum_signed_value@__crt_strtox@@YAJK@Z 1007e1e0 f i libucrtd:output.obj
 0001:0007d1f0       ?minimum_signed_value@__crt_strtox@@YAJK@Z 1007e1f0 f i libucrtd:output.obj
 0001:0007d200       ?narrow_null_string@?$output_processor@DV?$stream_output_adapter@D@__crt_stdio_output@@V?$format_validation_base@DV?$stream_output_adapter@D@__crt_stdio_output@@@2@@__crt_stdio_output@@CAPADXZ 1007e200 f i libucrtd:output.obj
 0001:0007d210       ?narrow_null_string@?$output_processor@DV?$stream_output_adapter@D@__crt_stdio_output@@V?$positional_parameter_base@DV?$stream_output_adapter@D@__crt_stdio_output@@@2@@__crt_stdio_output@@CAPADXZ 1007e210 f i libucrtd:output.obj
 0001:0007d220       ?narrow_null_string@?$output_processor@DV?$stream_output_adapter@D@__crt_stdio_output@@V?$standard_base@DV?$stream_output_adapter@D@__crt_stdio_output@@@2@@__crt_stdio_output@@CAPADXZ 1007e220 f i libucrtd:output.obj
 0001:0007d230       ?narrow_null_string@?$output_processor@DV?$string_output_adapter@D@__crt_stdio_output@@V?$format_validation_base@DV?$string_output_adapter@D@__crt_stdio_output@@@2@@__crt_stdio_output@@CAPADXZ 1007e230 f i libucrtd:output.obj
 0001:0007d240       ?narrow_null_string@?$output_processor@DV?$string_output_adapter@D@__crt_stdio_output@@V?$positional_parameter_base@DV?$string_output_adapter@D@__crt_stdio_output@@@2@@__crt_stdio_output@@CAPADXZ 1007e240 f i libucrtd:output.obj
 0001:0007d250       ?narrow_null_string@?$output_processor@DV?$string_output_adapter@D@__crt_stdio_output@@V?$standard_base@DV?$string_output_adapter@D@__crt_stdio_output@@@2@@__crt_stdio_output@@CAPADXZ 1007e250 f i libucrtd:output.obj
 0001:0007d260       ?narrow_null_string@?$output_processor@_WV?$stream_output_adapter@_W@__crt_stdio_output@@V?$format_validation_base@_WV?$stream_output_adapter@_W@__crt_stdio_output@@@2@@__crt_stdio_output@@CAPADXZ 1007e260 f i libucrtd:output.obj
 0001:0007d270       ?narrow_null_string@?$output_processor@_WV?$stream_output_adapter@_W@__crt_stdio_output@@V?$positional_parameter_base@_WV?$stream_output_adapter@_W@__crt_stdio_output@@@2@@__crt_stdio_output@@CAPADXZ 1007e270 f i libucrtd:output.obj
 0001:0007d280       ?narrow_null_string@?$output_processor@_WV?$stream_output_adapter@_W@__crt_stdio_output@@V?$standard_base@_WV?$stream_output_adapter@_W@__crt_stdio_output@@@2@@__crt_stdio_output@@CAPADXZ 1007e280 f i libucrtd:output.obj
 0001:0007d290       ?narrow_null_string@?$output_processor@_WV?$string_output_adapter@_W@__crt_stdio_output@@V?$format_validation_base@_WV?$string_output_adapter@_W@__crt_stdio_output@@@2@@__crt_stdio_output@@CAPADXZ 1007e290 f i libucrtd:output.obj
 0001:0007d2a0       ?narrow_null_string@?$output_processor@_WV?$string_output_adapter@_W@__crt_stdio_output@@V?$positional_parameter_base@_WV?$string_output_adapter@_W@__crt_stdio_output@@@2@@__crt_stdio_output@@CAPADXZ 1007e2a0 f i libucrtd:output.obj
 0001:0007d2b0       ?narrow_null_string@?$output_processor@_WV?$string_output_adapter@_W@__crt_stdio_output@@V?$standard_base@_WV?$string_output_adapter@_W@__crt_stdio_output@@@2@@__crt_stdio_output@@CAPADXZ 1007e2b0 f i libucrtd:output.obj
 0001:0007d2c0       ?parse_digit@__crt_strtox@@YAID@Z 1007e2c0 f i libucrtd:output.obj
 0001:0007d340       ?parse_digit@__crt_strtox@@YAI_W@Z 1007e340 f i libucrtd:output.obj
 0001:0007d3a0       ?parse_int_from_format_string@?$output_processor@DV?$stream_output_adapter@D@__crt_stdio_output@@V?$format_validation_base@DV?$stream_output_adapter@D@__crt_stdio_output@@@2@@__crt_stdio_output@@AAE_NQAH@Z 1007e3a0 f i libucrtd:output.obj
 0001:0007d490       ?parse_int_from_format_string@?$output_processor@DV?$stream_output_adapter@D@__crt_stdio_output@@V?$positional_parameter_base@DV?$stream_output_adapter@D@__crt_stdio_output@@@2@@__crt_stdio_output@@AAE_NQAH@Z 1007e490 f i libucrtd:output.obj
 0001:0007d580       ?parse_int_from_format_string@?$output_processor@DV?$stream_output_adapter@D@__crt_stdio_output@@V?$standard_base@DV?$stream_output_adapter@D@__crt_stdio_output@@@2@@__crt_stdio_output@@AAE_NQAH@Z 1007e580 f i libucrtd:output.obj
 0001:0007d670       ?parse_int_from_format_string@?$output_processor@DV?$string_output_adapter@D@__crt_stdio_output@@V?$format_validation_base@DV?$string_output_adapter@D@__crt_stdio_output@@@2@@__crt_stdio_output@@AAE_NQAH@Z 1007e670 f i libucrtd:output.obj
 0001:0007d760       ?parse_int_from_format_string@?$output_processor@DV?$string_output_adapter@D@__crt_stdio_output@@V?$positional_parameter_base@DV?$string_output_adapter@D@__crt_stdio_output@@@2@@__crt_stdio_output@@AAE_NQAH@Z 1007e760 f i libucrtd:output.obj
 0001:0007d850       ?parse_int_from_format_string@?$output_processor@DV?$string_output_adapter@D@__crt_stdio_output@@V?$standard_base@DV?$string_output_adapter@D@__crt_stdio_output@@@2@@__crt_stdio_output@@AAE_NQAH@Z 1007e850 f i libucrtd:output.obj
 0001:0007d940       ?parse_int_from_format_string@?$output_processor@_WV?$stream_output_adapter@_W@__crt_stdio_output@@V?$format_validation_base@_WV?$stream_output_adapter@_W@__crt_stdio_output@@@2@@__crt_stdio_output@@AAE_NQAH@Z 1007e940 f i libucrtd:output.obj
 0001:0007da30       ?parse_int_from_format_string@?$output_processor@_WV?$stream_output_adapter@_W@__crt_stdio_output@@V?$positional_parameter_base@_WV?$stream_output_adapter@_W@__crt_stdio_output@@@2@@__crt_stdio_output@@AAE_NQAH@Z 1007ea30 f i libucrtd:output.obj
 0001:0007db20       ?parse_int_from_format_string@?$output_processor@_WV?$stream_output_adapter@_W@__crt_stdio_output@@V?$standard_base@_WV?$stream_output_adapter@_W@__crt_stdio_output@@@2@@__crt_stdio_output@@AAE_NQAH@Z 1007eb20 f i libucrtd:output.obj
 0001:0007dc10       ?parse_int_from_format_string@?$output_processor@_WV?$string_output_adapter@_W@__crt_stdio_output@@V?$format_validation_base@_WV?$string_output_adapter@_W@__crt_stdio_output@@@2@@__crt_stdio_output@@AAE_NQAH@Z 1007ec10 f i libucrtd:output.obj
 0001:0007dd00       ?parse_int_from_format_string@?$output_processor@_WV?$string_output_adapter@_W@__crt_stdio_output@@V?$positional_parameter_base@_WV?$string_output_adapter@_W@__crt_stdio_output@@@2@@__crt_stdio_output@@AAE_NQAH@Z 1007ed00 f i libucrtd:output.obj
 0001:0007ddf0       ?parse_int_from_format_string@?$output_processor@_WV?$string_output_adapter@_W@__crt_stdio_output@@V?$standard_base@_WV?$string_output_adapter@_W@__crt_stdio_output@@@2@@__crt_stdio_output@@AAE_NQAH@Z 1007edf0 f i libucrtd:output.obj
 0001:0007dee0       ?process@?$output_processor@DV?$stream_output_adapter@D@__crt_stdio_output@@V?$format_validation_base@DV?$stream_output_adapter@D@__crt_stdio_output@@@2@@__crt_stdio_output@@QAEHXZ 1007eee0 f i libucrtd:output.obj
 0001:0007e270       ?process@?$output_processor@DV?$stream_output_adapter@D@__crt_stdio_output@@V?$positional_parameter_base@DV?$stream_output_adapter@D@__crt_stdio_output@@@2@@__crt_stdio_output@@QAEHXZ 1007f270 f i libucrtd:output.obj
 0001:0007e600       ?process@?$output_processor@DV?$stream_output_adapter@D@__crt_stdio_output@@V?$standard_base@DV?$stream_output_adapter@D@__crt_stdio_output@@@2@@__crt_stdio_output@@QAEHXZ 1007f600 f i libucrtd:output.obj
 0001:0007e990       ?process@?$output_processor@DV?$string_output_adapter@D@__crt_stdio_output@@V?$format_validation_base@DV?$string_output_adapter@D@__crt_stdio_output@@@2@@__crt_stdio_output@@QAEHXZ 1007f990 f i libucrtd:output.obj
 0001:0007ed20       ?process@?$output_processor@DV?$string_output_adapter@D@__crt_stdio_output@@V?$positional_parameter_base@DV?$string_output_adapter@D@__crt_stdio_output@@@2@@__crt_stdio_output@@QAEHXZ 1007fd20 f i libucrtd:output.obj
 0001:0007f0b0       ?process@?$output_processor@DV?$string_output_adapter@D@__crt_stdio_output@@V?$standard_base@DV?$string_output_adapter@D@__crt_stdio_output@@@2@@__crt_stdio_output@@QAEHXZ 100800b0 f i libucrtd:output.obj
 0001:0007f440       ?process@?$output_processor@_WV?$stream_output_adapter@_W@__crt_stdio_output@@V?$format_validation_base@_WV?$stream_output_adapter@_W@__crt_stdio_output@@@2@@__crt_stdio_output@@QAEHXZ 10080440 f i libucrtd:output.obj
 0001:0007f7e0       ?process@?$output_processor@_WV?$stream_output_adapter@_W@__crt_stdio_output@@V?$positional_parameter_base@_WV?$stream_output_adapter@_W@__crt_stdio_output@@@2@@__crt_stdio_output@@QAEHXZ 100807e0 f i libucrtd:output.obj
 0001:0007fb80       ?process@?$output_processor@_WV?$stream_output_adapter@_W@__crt_stdio_output@@V?$standard_base@_WV?$stream_output_adapter@_W@__crt_stdio_output@@@2@@__crt_stdio_output@@QAEHXZ 10080b80 f i libucrtd:output.obj
 0001:0007ff20       ?process@?$output_processor@_WV?$string_output_adapter@_W@__crt_stdio_output@@V?$format_validation_base@_WV?$string_output_adapter@_W@__crt_stdio_output@@@2@@__crt_stdio_output@@QAEHXZ 10080f20 f i libucrtd:output.obj
 0001:000802c0       ?process@?$output_processor@_WV?$string_output_adapter@_W@__crt_stdio_output@@V?$positional_parameter_base@_WV?$string_output_adapter@_W@__crt_stdio_output@@@2@@__crt_stdio_output@@QAEHXZ 100812c0 f i libucrtd:output.obj
 0001:00080660       ?process@?$output_processor@_WV?$string_output_adapter@_W@__crt_stdio_output@@V?$standard_base@_WV?$string_output_adapter@_W@__crt_stdio_output@@@2@@__crt_stdio_output@@QAEHXZ 10081660 f i libucrtd:output.obj
 0001:00080a00       ?public_stream@__crt_stdio_stream@@QBEPAU_iobuf@@XZ 10081a00 f i libucrtd:output.obj
 0001:00080a20       ?restore_state@?$c_string_character_source@D@__crt_strtox@@QAE_NQBD@Z 10081a20 f i libucrtd:output.obj
 0001:00080a40       ?restore_state@?$c_string_character_source@_W@__crt_strtox@@QAE_NQB_W@Z 10081a40 f i libucrtd:output.obj
 0001:00080a60       ?save_state@?$c_string_character_source@D@__crt_strtox@@QBEPBDXZ 10081a60 f i libucrtd:output.obj
 0001:00080a80       ?save_state@?$c_string_character_source@_W@__crt_strtox@@QBEPB_WXZ 10081a80 f i libucrtd:output.obj
 0001:00080aa0       ?set@?$cached@H@__crt_cached_ptd_host@@QAEHH@Z 10081aa0 f i libucrtd:output.obj
 0001:00080ad0       ?set_flag@?$output_processor@DV?$stream_output_adapter@D@__crt_stdio_output@@V?$format_validation_base@DV?$stream_output_adapter@D@__crt_stdio_output@@@2@@__crt_stdio_output@@AAEXI@Z 10081ad0 f i libucrtd:output.obj
 0001:00080b00       ?set_flag@?$output_processor@DV?$stream_output_adapter@D@__crt_stdio_output@@V?$positional_parameter_base@DV?$stream_output_adapter@D@__crt_stdio_output@@@2@@__crt_stdio_output@@AAEXI@Z 10081b00 f i libucrtd:output.obj
 0001:00080b30       ?set_flag@?$output_processor@DV?$stream_output_adapter@D@__crt_stdio_output@@V?$standard_base@DV?$stream_output_adapter@D@__crt_stdio_output@@@2@@__crt_stdio_output@@AAEXI@Z 10081b30 f i libucrtd:output.obj
 0001:00080b60       ?set_flag@?$output_processor@DV?$string_output_adapter@D@__crt_stdio_output@@V?$format_validation_base@DV?$string_output_adapter@D@__crt_stdio_output@@@2@@__crt_stdio_output@@AAEXI@Z 10081b60 f i libucrtd:output.obj
 0001:00080b90       ?set_flag@?$output_processor@DV?$string_output_adapter@D@__crt_stdio_output@@V?$positional_parameter_base@DV?$string_output_adapter@D@__crt_stdio_output@@@2@@__crt_stdio_output@@AAEXI@Z 10081b90 f i libucrtd:output.obj
 0001:00080bc0       ?set_flag@?$output_processor@DV?$string_output_adapter@D@__crt_stdio_output@@V?$standard_base@DV?$string_output_adapter@D@__crt_stdio_output@@@2@@__crt_stdio_output@@AAEXI@Z 10081bc0 f i libucrtd:output.obj
 0001:00080bf0       ?set_flag@?$output_processor@_WV?$stream_output_adapter@_W@__crt_stdio_output@@V?$format_validation_base@_WV?$stream_output_adapter@_W@__crt_stdio_output@@@2@@__crt_stdio_output@@AAEXI@Z 10081bf0 f i libucrtd:output.obj
 0001:00080c20       ?set_flag@?$output_processor@_WV?$stream_output_adapter@_W@__crt_stdio_output@@V?$positional_parameter_base@_WV?$stream_output_adapter@_W@__crt_stdio_output@@@2@@__crt_stdio_output@@AAEXI@Z 10081c20 f i libucrtd:output.obj
 0001:00080c50       ?set_flag@?$output_processor@_WV?$stream_output_adapter@_W@__crt_stdio_output@@V?$standard_base@_WV?$stream_output_adapter@_W@__crt_stdio_output@@@2@@__crt_stdio_output@@AAEXI@Z 10081c50 f i libucrtd:output.obj
 0001:00080c80       ?set_flag@?$output_processor@_WV?$string_output_adapter@_W@__crt_stdio_output@@V?$format_validation_base@_WV?$string_output_adapter@_W@__crt_stdio_output@@@2@@__crt_stdio_output@@AAEXI@Z 10081c80 f i libucrtd:output.obj
 0001:00080cb0       ?set_flag@?$output_processor@_WV?$string_output_adapter@_W@__crt_stdio_output@@V?$positional_parameter_base@_WV?$string_output_adapter@_W@__crt_stdio_output@@@2@@__crt_stdio_output@@AAEXI@Z 10081cb0 f i libucrtd:output.obj
 0001:00080ce0       ?set_flag@?$output_processor@_WV?$string_output_adapter@_W@__crt_stdio_output@@V?$standard_base@_WV?$string_output_adapter@_W@__crt_stdio_output@@@2@@__crt_stdio_output@@AAEXI@Z 10081ce0 f i libucrtd:output.obj
 0001:00080d10       ?should_format@?$positional_parameter_base@DV?$stream_output_adapter@D@__crt_stdio_output@@@__crt_stdio_output@@IAE_NXZ 10081d10 f i libucrtd:output.obj
 0001:00080d60       ?should_format@?$positional_parameter_base@DV?$string_output_adapter@D@__crt_stdio_output@@@__crt_stdio_output@@IAE_NXZ 10081d60 f i libucrtd:output.obj
 0001:00080db0       ?should_format@?$positional_parameter_base@_WV?$stream_output_adapter@_W@__crt_stdio_output@@@__crt_stdio_output@@IAE_NXZ 10081db0 f i libucrtd:output.obj
 0001:00080e00       ?should_format@?$positional_parameter_base@_WV?$string_output_adapter@_W@__crt_stdio_output@@@__crt_stdio_output@@IAE_NXZ 10081e00 f i libucrtd:output.obj
 0001:00080e50       ?should_format@?$standard_base@DV?$stream_output_adapter@D@__crt_stdio_output@@@__crt_stdio_output@@IAE_NXZ 10081e50 f i libucrtd:output.obj
 0001:00080e70       ?should_format@?$standard_base@DV?$string_output_adapter@D@__crt_stdio_output@@@__crt_stdio_output@@IAE_NXZ 10081e70 f i libucrtd:output.obj
 0001:00080e90       ?should_format@?$standard_base@_WV?$stream_output_adapter@_W@__crt_stdio_output@@@__crt_stdio_output@@IAE_NXZ 10081e90 f i libucrtd:output.obj
 0001:00080eb0       ?should_format@?$standard_base@_WV?$string_output_adapter@_W@__crt_stdio_output@@@__crt_stdio_output@@IAE_NXZ 10081eb0 f i libucrtd:output.obj
 0001:00080ed0       ?should_skip_normal_state_processing@?$positional_parameter_base@DV?$stream_output_adapter@D@__crt_stdio_output@@@__crt_stdio_output@@IAE_NXZ 10081ed0 f i libucrtd:output.obj
 0001:00080f30       ?should_skip_normal_state_processing@?$positional_parameter_base@DV?$string_output_adapter@D@__crt_stdio_output@@@__crt_stdio_output@@IAE_NXZ 10081f30 f i libucrtd:output.obj
 0001:00080f90       ?should_skip_normal_state_processing@?$positional_parameter_base@_WV?$stream_output_adapter@_W@__crt_stdio_output@@@__crt_stdio_output@@IAE_NXZ 10081f90 f i libucrtd:output.obj
 0001:00080ff0       ?should_skip_normal_state_processing@?$positional_parameter_base@_WV?$string_output_adapter@_W@__crt_stdio_output@@@__crt_stdio_output@@IAE_NXZ 10081ff0 f i libucrtd:output.obj
 0001:00081050       ?should_skip_normal_state_processing@?$standard_base@DV?$stream_output_adapter@D@__crt_stdio_output@@@__crt_stdio_output@@IAE_NXZ 10082050 f i libucrtd:output.obj
 0001:00081070       ?should_skip_normal_state_processing@?$standard_base@DV?$string_output_adapter@D@__crt_stdio_output@@@__crt_stdio_output@@IAE_NXZ 10082070 f i libucrtd:output.obj
 0001:00081090       ?should_skip_normal_state_processing@?$standard_base@_WV?$stream_output_adapter@_W@__crt_stdio_output@@@__crt_stdio_output@@IAE_NXZ 10082090 f i libucrtd:output.obj
 0001:000810b0       ?should_skip_normal_state_processing@?$standard_base@_WV?$string_output_adapter@_W@__crt_stdio_output@@@__crt_stdio_output@@IAE_NXZ 100820b0 f i libucrtd:output.obj
 0001:000810d0       ?should_skip_type_state_output@?$positional_parameter_base@DV?$stream_output_adapter@D@__crt_stdio_output@@@__crt_stdio_output@@IBE_NXZ 100820d0 f i libucrtd:output.obj
 0001:00081120       ?should_skip_type_state_output@?$positional_parameter_base@DV?$string_output_adapter@D@__crt_stdio_output@@@__crt_stdio_output@@IBE_NXZ 10082120 f i libucrtd:output.obj
 0001:00081170       ?should_skip_type_state_output@?$positional_parameter_base@_WV?$stream_output_adapter@_W@__crt_stdio_output@@@__crt_stdio_output@@IBE_NXZ 10082170 f i libucrtd:output.obj
 0001:000811c0       ?should_skip_type_state_output@?$positional_parameter_base@_WV?$string_output_adapter@_W@__crt_stdio_output@@@__crt_stdio_output@@IBE_NXZ 100821c0 f i libucrtd:output.obj
 0001:00081210       ?should_skip_type_state_output@?$standard_base@DV?$stream_output_adapter@D@__crt_stdio_output@@@__crt_stdio_output@@IBE_NXZ 10082210 f i libucrtd:output.obj
 0001:00081230       ?should_skip_type_state_output@?$standard_base@DV?$string_output_adapter@D@__crt_stdio_output@@@__crt_stdio_output@@IBE_NXZ 10082230 f i libucrtd:output.obj
 0001:00081250       ?should_skip_type_state_output@?$standard_base@_WV?$stream_output_adapter@_W@__crt_stdio_output@@@__crt_stdio_output@@IBE_NXZ 10082250 f i libucrtd:output.obj
 0001:00081270       ?should_skip_type_state_output@?$standard_base@_WV?$string_output_adapter@_W@__crt_stdio_output@@@__crt_stdio_output@@IBE_NXZ 10082270 f i libucrtd:output.obj
 0001:00081290       ?state_case_dot@?$output_processor@DV?$stream_output_adapter@D@__crt_stdio_output@@V?$format_validation_base@DV?$stream_output_adapter@D@__crt_stdio_output@@@2@@__crt_stdio_output@@AAE_NXZ 10082290 f i libucrtd:output.obj
 0001:000812b0       ?state_case_dot@?$output_processor@DV?$stream_output_adapter@D@__crt_stdio_output@@V?$positional_parameter_base@DV?$stream_output_adapter@D@__crt_stdio_output@@@2@@__crt_stdio_output@@AAE_NXZ 100822b0 f i libucrtd:output.obj
 0001:000812d0       ?state_case_dot@?$output_processor@DV?$stream_output_adapter@D@__crt_stdio_output@@V?$standard_base@DV?$stream_output_adapter@D@__crt_stdio_output@@@2@@__crt_stdio_output@@AAE_NXZ 100822d0 f i libucrtd:output.obj
 0001:000812f0       ?state_case_dot@?$output_processor@DV?$string_output_adapter@D@__crt_stdio_output@@V?$format_validation_base@DV?$string_output_adapter@D@__crt_stdio_output@@@2@@__crt_stdio_output@@AAE_NXZ 100822f0 f i libucrtd:output.obj
 0001:00081310       ?state_case_dot@?$output_processor@DV?$string_output_adapter@D@__crt_stdio_output@@V?$positional_parameter_base@DV?$string_output_adapter@D@__crt_stdio_output@@@2@@__crt_stdio_output@@AAE_NXZ 10082310 f i libucrtd:output.obj
 0001:00081330       ?state_case_dot@?$output_processor@DV?$string_output_adapter@D@__crt_stdio_output@@V?$standard_base@DV?$string_output_adapter@D@__crt_stdio_output@@@2@@__crt_stdio_output@@AAE_NXZ 10082330 f i libucrtd:output.obj
 0001:00081350       ?state_case_dot@?$output_processor@_WV?$stream_output_adapter@_W@__crt_stdio_output@@V?$format_validation_base@_WV?$stream_output_adapter@_W@__crt_stdio_output@@@2@@__crt_stdio_output@@AAE_NXZ 10082350 f i libucrtd:output.obj
 0001:00081370       ?state_case_dot@?$output_processor@_WV?$stream_output_adapter@_W@__crt_stdio_output@@V?$positional_parameter_base@_WV?$stream_output_adapter@_W@__crt_stdio_output@@@2@@__crt_stdio_output@@AAE_NXZ 10082370 f i libucrtd:output.obj
 0001:00081390       ?state_case_dot@?$output_processor@_WV?$stream_output_adapter@_W@__crt_stdio_output@@V?$standard_base@_WV?$stream_output_adapter@_W@__crt_stdio_output@@@2@@__crt_stdio_output@@AAE_NXZ 10082390 f i libucrtd:output.obj
 0001:000813b0       ?state_case_dot@?$output_processor@_WV?$string_output_adapter@_W@__crt_stdio_output@@V?$format_validation_base@_WV?$string_output_adapter@_W@__crt_stdio_output@@@2@@__crt_stdio_output@@AAE_NXZ 100823b0 f i libucrtd:output.obj
 0001:000813d0       ?state_case_dot@?$output_processor@_WV?$string_output_adapter@_W@__crt_stdio_output@@V?$positional_parameter_base@_WV?$string_output_adapter@_W@__crt_stdio_output@@@2@@__crt_stdio_output@@AAE_NXZ 100823d0 f i libucrtd:output.obj
 0001:000813f0       ?state_case_dot@?$output_processor@_WV?$string_output_adapter@_W@__crt_stdio_output@@V?$standard_base@_WV?$string_output_adapter@_W@__crt_stdio_output@@@2@@__crt_stdio_output@@AAE_NXZ 100823f0 f i libucrtd:output.obj
 0001:00081410       ?state_case_flag@?$output_processor@DV?$stream_output_adapter@D@__crt_stdio_output@@V?$format_validation_base@DV?$stream_output_adapter@D@__crt_stdio_output@@@2@@__crt_stdio_output@@AAE_NXZ 10082410 f i libucrtd:output.obj
 0001:000814e0       ?state_case_flag@?$output_processor@DV?$stream_output_adapter@D@__crt_stdio_output@@V?$positional_parameter_base@DV?$stream_output_adapter@D@__crt_stdio_output@@@2@@__crt_stdio_output@@AAE_NXZ 100824e0 f i libucrtd:output.obj
 0001:000815b0       ?state_case_flag@?$output_processor@DV?$stream_output_adapter@D@__crt_stdio_output@@V?$standard_base@DV?$stream_output_adapter@D@__crt_stdio_output@@@2@@__crt_stdio_output@@AAE_NXZ 100825b0 f i libucrtd:output.obj
 0001:00081680       ?state_case_flag@?$output_processor@DV?$string_output_adapter@D@__crt_stdio_output@@V?$format_validation_base@DV?$string_output_adapter@D@__crt_stdio_output@@@2@@__crt_stdio_output@@AAE_NXZ 10082680 f i libucrtd:output.obj
 0001:00081750       ?state_case_flag@?$output_processor@DV?$string_output_adapter@D@__crt_stdio_output@@V?$positional_parameter_base@DV?$string_output_adapter@D@__crt_stdio_output@@@2@@__crt_stdio_output@@AAE_NXZ 10082750 f i libucrtd:output.obj
 0001:00081820       ?state_case_flag@?$output_processor@DV?$string_output_adapter@D@__crt_stdio_output@@V?$standard_base@DV?$string_output_adapter@D@__crt_stdio_output@@@2@@__crt_stdio_output@@AAE_NXZ 10082820 f i libucrtd:output.obj
 0001:000818f0       ?state_case_flag@?$output_processor@_WV?$stream_output_adapter@_W@__crt_stdio_output@@V?$format_validation_base@_WV?$stream_output_adapter@_W@__crt_stdio_output@@@2@@__crt_stdio_output@@AAE_NXZ 100828f0 f i libucrtd:output.obj
 0001:000819c0       ?state_case_flag@?$output_processor@_WV?$stream_output_adapter@_W@__crt_stdio_output@@V?$positional_parameter_base@_WV?$stream_output_adapter@_W@__crt_stdio_output@@@2@@__crt_stdio_output@@AAE_NXZ 100829c0 f i libucrtd:output.obj
 0001:00081a90       ?state_case_flag@?$output_processor@_WV?$stream_output_adapter@_W@__crt_stdio_output@@V?$standard_base@_WV?$stream_output_adapter@_W@__crt_stdio_output@@@2@@__crt_stdio_output@@AAE_NXZ 10082a90 f i libucrtd:output.obj
 0001:00081b60       ?state_case_flag@?$output_processor@_WV?$string_output_adapter@_W@__crt_stdio_output@@V?$format_validation_base@_WV?$string_output_adapter@_W@__crt_stdio_output@@@2@@__crt_stdio_output@@AAE_NXZ 10082b60 f i libucrtd:output.obj
 0001:00081c30       ?state_case_flag@?$output_processor@_WV?$string_output_adapter@_W@__crt_stdio_output@@V?$positional_parameter_base@_WV?$string_output_adapter@_W@__crt_stdio_output@@@2@@__crt_stdio_output@@AAE_NXZ 10082c30 f i libucrtd:output.obj
 0001:00081d00       ?state_case_flag@?$output_processor@_WV?$string_output_adapter@_W@__crt_stdio_output@@V?$standard_base@_WV?$string_output_adapter@_W@__crt_stdio_output@@@2@@__crt_stdio_output@@AAE_NXZ 10082d00 f i libucrtd:output.obj
 0001:00081dd0       ?state_case_normal@?$output_processor@DV?$stream_output_adapter@D@__crt_stdio_output@@V?$format_validation_base@DV?$stream_output_adapter@D@__crt_stdio_output@@@2@@__crt_stdio_output@@AAE_NXZ 10082dd0 f i libucrtd:output.obj
 0001:00081ec0       ?state_case_normal@?$output_processor@DV?$stream_output_adapter@D@__crt_stdio_output@@V?$positional_parameter_base@DV?$stream_output_adapter@D@__crt_stdio_output@@@2@@__crt_stdio_output@@AAE_NXZ 10082ec0 f i libucrtd:output.obj
 0001:00081fb0       ?state_case_normal@?$output_processor@DV?$stream_output_adapter@D@__crt_stdio_output@@V?$standard_base@DV?$stream_output_adapter@D@__crt_stdio_output@@@2@@__crt_stdio_output@@AAE_NXZ 10082fb0 f i libucrtd:output.obj
 0001:000820a0       ?state_case_normal@?$output_processor@DV?$string_output_adapter@D@__crt_stdio_output@@V?$format_validation_base@DV?$string_output_adapter@D@__crt_stdio_output@@@2@@__crt_stdio_output@@AAE_NXZ 100830a0 f i libucrtd:output.obj
 0001:00082190       ?state_case_normal@?$output_processor@DV?$string_output_adapter@D@__crt_stdio_output@@V?$positional_parameter_base@DV?$string_output_adapter@D@__crt_stdio_output@@@2@@__crt_stdio_output@@AAE_NXZ 10083190 f i libucrtd:output.obj
 0001:00082280       ?state_case_normal@?$output_processor@DV?$string_output_adapter@D@__crt_stdio_output@@V?$standard_base@DV?$string_output_adapter@D@__crt_stdio_output@@@2@@__crt_stdio_output@@AAE_NXZ 10083280 f i libucrtd:output.obj
 0001:00082370       ?state_case_normal@?$output_processor@_WV?$stream_output_adapter@_W@__crt_stdio_output@@V?$format_validation_base@_WV?$stream_output_adapter@_W@__crt_stdio_output@@@2@@__crt_stdio_output@@AAE_NXZ 10083370 f i libucrtd:output.obj
 0001:00082460       ?state_case_normal@?$output_processor@_WV?$stream_output_adapter@_W@__crt_stdio_output@@V?$positional_parameter_base@_WV?$stream_output_adapter@_W@__crt_stdio_output@@@2@@__crt_stdio_output@@AAE_NXZ 10083460 f i libucrtd:output.obj
 0001:00082550       ?state_case_normal@?$output_processor@_WV?$stream_output_adapter@_W@__crt_stdio_output@@V?$standard_base@_WV?$stream_output_adapter@_W@__crt_stdio_output@@@2@@__crt_stdio_output@@AAE_NXZ 10083550 f i libucrtd:output.obj
 0001:00082640       ?state_case_normal@?$output_processor@_WV?$string_output_adapter@_W@__crt_stdio_output@@V?$format_validation_base@_WV?$string_output_adapter@_W@__crt_stdio_output@@@2@@__crt_stdio_output@@AAE_NXZ 10083640 f i libucrtd:output.obj
 0001:00082730       ?state_case_normal@?$output_processor@_WV?$string_output_adapter@_W@__crt_stdio_output@@V?$positional_parameter_base@_WV?$string_output_adapter@_W@__crt_stdio_output@@@2@@__crt_stdio_output@@AAE_NXZ 10083730 f i libucrtd:output.obj
 0001:00082820       ?state_case_normal@?$output_processor@_WV?$string_output_adapter@_W@__crt_stdio_output@@V?$standard_base@_WV?$string_output_adapter@_W@__crt_stdio_output@@@2@@__crt_stdio_output@@AAE_NXZ 10083820 f i libucrtd:output.obj
 0001:00082910       ?state_case_normal_common@?$output_processor@DV?$stream_output_adapter@D@__crt_stdio_output@@V?$format_validation_base@DV?$stream_output_adapter@D@__crt_stdio_output@@@2@@__crt_stdio_output@@AAE_NXZ 10083910 f i libucrtd:output.obj
 0001:00082980       ?state_case_normal_common@?$output_processor@DV?$stream_output_adapter@D@__crt_stdio_output@@V?$positional_parameter_base@DV?$stream_output_adapter@D@__crt_stdio_output@@@2@@__crt_stdio_output@@AAE_NXZ 10083980 f i libucrtd:output.obj
 0001:000829f0       ?state_case_normal_common@?$output_processor@DV?$stream_output_adapter@D@__crt_stdio_output@@V?$standard_base@DV?$stream_output_adapter@D@__crt_stdio_output@@@2@@__crt_stdio_output@@AAE_NXZ 100839f0 f i libucrtd:output.obj
 0001:00082a60       ?state_case_normal_common@?$output_processor@DV?$string_output_adapter@D@__crt_stdio_output@@V?$format_validation_base@DV?$string_output_adapter@D@__crt_stdio_output@@@2@@__crt_stdio_output@@AAE_NXZ 10083a60 f i libucrtd:output.obj
 0001:00082ad0       ?state_case_normal_common@?$output_processor@DV?$string_output_adapter@D@__crt_stdio_output@@V?$positional_parameter_base@DV?$string_output_adapter@D@__crt_stdio_output@@@2@@__crt_stdio_output@@AAE_NXZ 10083ad0 f i libucrtd:output.obj
 0001:00082b40       ?state_case_normal_common@?$output_processor@DV?$string_output_adapter@D@__crt_stdio_output@@V?$standard_base@DV?$string_output_adapter@D@__crt_stdio_output@@@2@@__crt_stdio_output@@AAE_NXZ 10083b40 f i libucrtd:output.obj
 0001:00082bb0       ?state_case_normal_common@?$output_processor@_WV?$stream_output_adapter@_W@__crt_stdio_output@@V?$format_validation_base@_WV?$stream_output_adapter@_W@__crt_stdio_output@@@2@@__crt_stdio_output@@AAE_NXZ 10083bb0 f i libucrtd:output.obj
 0001:00082c20       ?state_case_normal_common@?$output_processor@_WV?$stream_output_adapter@_W@__crt_stdio_output@@V?$positional_parameter_base@_WV?$stream_output_adapter@_W@__crt_stdio_output@@@2@@__crt_stdio_output@@AAE_NXZ 10083c20 f i libucrtd:output.obj
 0001:00082c90       ?state_case_normal_common@?$output_processor@_WV?$stream_output_adapter@_W@__crt_stdio_output@@V?$standard_base@_WV?$stream_output_adapter@_W@__crt_stdio_output@@@2@@__crt_stdio_output@@AAE_NXZ 10083c90 f i libucrtd:output.obj
 0001:00082d00       ?state_case_normal_common@?$output_processor@_WV?$string_output_adapter@_W@__crt_stdio_output@@V?$format_validation_base@_WV?$string_output_adapter@_W@__crt_stdio_output@@@2@@__crt_stdio_output@@AAE_NXZ 10083d00 f i libucrtd:output.obj
 0001:00082d70       ?state_case_normal_common@?$output_processor@_WV?$string_output_adapter@_W@__crt_stdio_output@@V?$positional_parameter_base@_WV?$string_output_adapter@_W@__crt_stdio_output@@@2@@__crt_stdio_output@@AAE_NXZ 10083d70 f i libucrtd:output.obj
 0001:00082de0       ?state_case_normal_common@?$output_processor@_WV?$string_output_adapter@_W@__crt_stdio_output@@V?$standard_base@_WV?$string_output_adapter@_W@__crt_stdio_output@@@2@@__crt_stdio_output@@AAE_NXZ 10083de0 f i libucrtd:output.obj
 0001:00082e50       ?state_case_normal_tchar@?$output_processor@DV?$stream_output_adapter@D@__crt_stdio_output@@V?$format_validation_base@DV?$stream_output_adapter@D@__crt_stdio_output@@@2@@__crt_stdio_output@@AAE_ND@Z 10083e50 f i libucrtd:output.obj
 0001:00082fd0       ?state_case_normal_tchar@?$output_processor@DV?$stream_output_adapter@D@__crt_stdio_output@@V?$positional_parameter_base@DV?$stream_output_adapter@D@__crt_stdio_output@@@2@@__crt_stdio_output@@AAE_ND@Z 10083fd0 f i libucrtd:output.obj
 0001:00083150       ?state_case_normal_tchar@?$output_processor@DV?$stream_output_adapter@D@__crt_stdio_output@@V?$standard_base@DV?$stream_output_adapter@D@__crt_stdio_output@@@2@@__crt_stdio_output@@AAE_ND@Z 10084150 f i libucrtd:output.obj
 0001:000832d0       ?state_case_normal_tchar@?$output_processor@DV?$string_output_adapter@D@__crt_stdio_output@@V?$format_validation_base@DV?$string_output_adapter@D@__crt_stdio_output@@@2@@__crt_stdio_output@@AAE_ND@Z 100842d0 f i libucrtd:output.obj
 0001:00083450       ?state_case_normal_tchar@?$output_processor@DV?$string_output_adapter@D@__crt_stdio_output@@V?$positional_parameter_base@DV?$string_output_adapter@D@__crt_stdio_output@@@2@@__crt_stdio_output@@AAE_ND@Z 10084450 f i libucrtd:output.obj
 0001:000835d0       ?state_case_normal_tchar@?$output_processor@DV?$string_output_adapter@D@__crt_stdio_output@@V?$standard_base@DV?$string_output_adapter@D@__crt_stdio_output@@@2@@__crt_stdio_output@@AAE_ND@Z 100845d0 f i libucrtd:output.obj
 0001:00083750       ?state_case_normal_tchar@?$output_processor@_WV?$stream_output_adapter@_W@__crt_stdio_output@@V?$format_validation_base@_WV?$stream_output_adapter@_W@__crt_stdio_output@@@2@@__crt_stdio_output@@AAE_N_W@Z 10084750 f i libucrtd:output.obj
 0001:00083770       ?state_case_normal_tchar@?$output_processor@_WV?$stream_output_adapter@_W@__crt_stdio_output@@V?$positional_parameter_base@_WV?$stream_output_adapter@_W@__crt_stdio_output@@@2@@__crt_stdio_output@@AAE_N_W@Z 10084770 f i libucrtd:output.obj
 0001:00083790       ?state_case_normal_tchar@?$output_processor@_WV?$stream_output_adapter@_W@__crt_stdio_output@@V?$standard_base@_WV?$stream_output_adapter@_W@__crt_stdio_output@@@2@@__crt_stdio_output@@AAE_N_W@Z 10084790 f i libucrtd:output.obj
 0001:000837b0       ?state_case_normal_tchar@?$output_processor@_WV?$string_output_adapter@_W@__crt_stdio_output@@V?$format_validation_base@_WV?$string_output_adapter@_W@__crt_stdio_output@@@2@@__crt_stdio_output@@AAE_N_W@Z 100847b0 f i libucrtd:output.obj
 0001:000837d0       ?state_case_normal_tchar@?$output_processor@_WV?$string_output_adapter@_W@__crt_stdio_output@@V?$positional_parameter_base@_WV?$string_output_adapter@_W@__crt_stdio_output@@@2@@__crt_stdio_output@@AAE_N_W@Z 100847d0 f i libucrtd:output.obj
 0001:000837f0       ?state_case_normal_tchar@?$output_processor@_WV?$string_output_adapter@_W@__crt_stdio_output@@V?$standard_base@_WV?$string_output_adapter@_W@__crt_stdio_output@@@2@@__crt_stdio_output@@AAE_N_W@Z 100847f0 f i libucrtd:output.obj
 0001:00083810       ?state_case_percent@?$output_processor@DV?$stream_output_adapter@D@__crt_stdio_output@@V?$format_validation_base@DV?$stream_output_adapter@D@__crt_stdio_output@@@2@@__crt_stdio_output@@AAE_NXZ 10084810 f i libucrtd:output.obj
 0001:00083870       ?state_case_percent@?$output_processor@DV?$stream_output_adapter@D@__crt_stdio_output@@V?$positional_parameter_base@DV?$stream_output_adapter@D@__crt_stdio_output@@@2@@__crt_stdio_output@@AAE_NXZ 10084870 f i libucrtd:output.obj
 0001:000838d0       ?state_case_percent@?$output_processor@DV?$stream_output_adapter@D@__crt_stdio_output@@V?$standard_base@DV?$stream_output_adapter@D@__crt_stdio_output@@@2@@__crt_stdio_output@@AAE_NXZ 100848d0 f i libucrtd:output.obj
 0001:00083930       ?state_case_percent@?$output_processor@DV?$string_output_adapter@D@__crt_stdio_output@@V?$format_validation_base@DV?$string_output_adapter@D@__crt_stdio_output@@@2@@__crt_stdio_output@@AAE_NXZ 10084930 f i libucrtd:output.obj
 0001:00083990       ?state_case_percent@?$output_processor@DV?$string_output_adapter@D@__crt_stdio_output@@V?$positional_parameter_base@DV?$string_output_adapter@D@__crt_stdio_output@@@2@@__crt_stdio_output@@AAE_NXZ 10084990 f i libucrtd:output.obj
 0001:000839f0       ?state_case_percent@?$output_processor@DV?$string_output_adapter@D@__crt_stdio_output@@V?$standard_base@DV?$string_output_adapter@D@__crt_stdio_output@@@2@@__crt_stdio_output@@AAE_NXZ 100849f0 f i libucrtd:output.obj
 0001:00083a50       ?state_case_percent@?$output_processor@_WV?$stream_output_adapter@_W@__crt_stdio_output@@V?$format_validation_base@_WV?$stream_output_adapter@_W@__crt_stdio_output@@@2@@__crt_stdio_output@@AAE_NXZ 10084a50 f i libucrtd:output.obj
 0001:00083ab0       ?state_case_percent@?$output_processor@_WV?$stream_output_adapter@_W@__crt_stdio_output@@V?$positional_parameter_base@_WV?$stream_output_adapter@_W@__crt_stdio_output@@@2@@__crt_stdio_output@@AAE_NXZ 10084ab0 f i libucrtd:output.obj
 0001:00083b10       ?state_case_percent@?$output_processor@_WV?$stream_output_adapter@_W@__crt_stdio_output@@V?$standard_base@_WV?$stream_output_adapter@_W@__crt_stdio_output@@@2@@__crt_stdio_output@@AAE_NXZ 10084b10 f i libucrtd:output.obj
 0001:00083b70       ?state_case_percent@?$output_processor@_WV?$string_output_adapter@_W@__crt_stdio_output@@V?$format_validation_base@_WV?$string_output_adapter@_W@__crt_stdio_output@@@2@@__crt_stdio_output@@AAE_NXZ 10084b70 f i libucrtd:output.obj
 0001:00083bd0       ?state_case_percent@?$output_processor@_WV?$string_output_adapter@_W@__crt_stdio_output@@V?$positional_parameter_base@_WV?$string_output_adapter@_W@__crt_stdio_output@@@2@@__crt_stdio_output@@AAE_NXZ 10084bd0 f i libucrtd:output.obj
 0001:00083c30       ?state_case_percent@?$output_processor@_WV?$string_output_adapter@_W@__crt_stdio_output@@V?$standard_base@_WV?$string_output_adapter@_W@__crt_stdio_output@@@2@@__crt_stdio_output@@AAE_NXZ 10084c30 f i libucrtd:output.obj
 0001:00083c90       ?state_case_precision@?$output_processor@DV?$stream_output_adapter@D@__crt_stdio_output@@V?$format_validation_base@DV?$stream_output_adapter@D@__crt_stdio_output@@@2@@__crt_stdio_output@@AAE_NXZ 10084c90 f i libucrtd:output.obj
 0001:00083d10       ?state_case_precision@?$output_processor@DV?$stream_output_adapter@D@__crt_stdio_output@@V?$positional_parameter_base@DV?$stream_output_adapter@D@__crt_stdio_output@@@2@@__crt_stdio_output@@AAE_NXZ 10084d10 f i libucrtd:output.obj
 0001:00083d90       ?state_case_precision@?$output_processor@DV?$stream_output_adapter@D@__crt_stdio_output@@V?$standard_base@DV?$stream_output_adapter@D@__crt_stdio_output@@@2@@__crt_stdio_output@@AAE_NXZ 10084d90 f i libucrtd:output.obj
 0001:00083e10       ?state_case_precision@?$output_processor@DV?$string_output_adapter@D@__crt_stdio_output@@V?$format_validation_base@DV?$string_output_adapter@D@__crt_stdio_output@@@2@@__crt_stdio_output@@AAE_NXZ 10084e10 f i libucrtd:output.obj
 0001:00083e90       ?state_case_precision@?$output_processor@DV?$string_output_adapter@D@__crt_stdio_output@@V?$positional_parameter_base@DV?$string_output_adapter@D@__crt_stdio_output@@@2@@__crt_stdio_output@@AAE_NXZ 10084e90 f i libucrtd:output.obj
 0001:00083f10       ?state_case_precision@?$output_processor@DV?$string_output_adapter@D@__crt_stdio_output@@V?$standard_base@DV?$string_output_adapter@D@__crt_stdio_output@@@2@@__crt_stdio_output@@AAE_NXZ 10084f10 f i libucrtd:output.obj
 0001:00083f90       ?state_case_precision@?$output_processor@_WV?$stream_output_adapter@_W@__crt_stdio_output@@V?$format_validation_base@_WV?$stream_output_adapter@_W@__crt_stdio_output@@@2@@__crt_stdio_output@@AAE_NXZ 10084f90 f i libucrtd:output.obj
 0001:00084010       ?state_case_precision@?$output_processor@_WV?$stream_output_adapter@_W@__crt_stdio_output@@V?$positional_parameter_base@_WV?$stream_output_adapter@_W@__crt_stdio_output@@@2@@__crt_stdio_output@@AAE_NXZ 10085010 f i libucrtd:output.obj
 0001:00084090       ?state_case_precision@?$output_processor@_WV?$stream_output_adapter@_W@__crt_stdio_output@@V?$standard_base@_WV?$stream_output_adapter@_W@__crt_stdio_output@@@2@@__crt_stdio_output@@AAE_NXZ 10085090 f i libucrtd:output.obj
 0001:00084110       ?state_case_precision@?$output_processor@_WV?$string_output_adapter@_W@__crt_stdio_output@@V?$format_validation_base@_WV?$string_output_adapter@_W@__crt_stdio_output@@@2@@__crt_stdio_output@@AAE_NXZ 10085110 f i libucrtd:output.obj
 0001:00084190       ?state_case_precision@?$output_processor@_WV?$string_output_adapter@_W@__crt_stdio_output@@V?$positional_parameter_base@_WV?$string_output_adapter@_W@__crt_stdio_output@@@2@@__crt_stdio_output@@AAE_NXZ 10085190 f i libucrtd:output.obj
 0001:00084210       ?state_case_precision@?$output_processor@_WV?$string_output_adapter@_W@__crt_stdio_output@@V?$standard_base@_WV?$string_output_adapter@_W@__crt_stdio_output@@@2@@__crt_stdio_output@@AAE_NXZ 10085210 f i libucrtd:output.obj
 0001:00084290       ?state_case_size@?$output_processor@DV?$stream_output_adapter@D@__crt_stdio_output@@V?$format_validation_base@DV?$stream_output_adapter@D@__crt_stdio_output@@@2@@__crt_stdio_output@@AAE_NXZ 10085290 f i libucrtd:output.obj
 0001:00084770       ?state_case_size@?$output_processor@DV?$stream_output_adapter@D@__crt_stdio_output@@V?$positional_parameter_base@DV?$stream_output_adapter@D@__crt_stdio_output@@@2@@__crt_stdio_output@@AAE_NXZ 10085770 f i libucrtd:output.obj
 0001:00084c50       ?state_case_size@?$output_processor@DV?$stream_output_adapter@D@__crt_stdio_output@@V?$standard_base@DV?$stream_output_adapter@D@__crt_stdio_output@@@2@@__crt_stdio_output@@AAE_NXZ 10085c50 f i libucrtd:output.obj
 0001:00085130       ?state_case_size@?$output_processor@DV?$string_output_adapter@D@__crt_stdio_output@@V?$format_validation_base@DV?$string_output_adapter@D@__crt_stdio_output@@@2@@__crt_stdio_output@@AAE_NXZ 10086130 f i libucrtd:output.obj
 0001:00085610       ?state_case_size@?$output_processor@DV?$string_output_adapter@D@__crt_stdio_output@@V?$positional_parameter_base@DV?$string_output_adapter@D@__crt_stdio_output@@@2@@__crt_stdio_output@@AAE_NXZ 10086610 f i libucrtd:output.obj
 0001:00085af0       ?state_case_size@?$output_processor@DV?$string_output_adapter@D@__crt_stdio_output@@V?$standard_base@DV?$string_output_adapter@D@__crt_stdio_output@@@2@@__crt_stdio_output@@AAE_NXZ 10086af0 f i libucrtd:output.obj
 0001:00085fd0       ?state_case_size@?$output_processor@_WV?$stream_output_adapter@_W@__crt_stdio_output@@V?$format_validation_base@_WV?$stream_output_adapter@_W@__crt_stdio_output@@@2@@__crt_stdio_output@@AAE_NXZ 10086fd0 f i libucrtd:output.obj
 0001:000864b0       ?state_case_size@?$output_processor@_WV?$stream_output_adapter@_W@__crt_stdio_output@@V?$positional_parameter_base@_WV?$stream_output_adapter@_W@__crt_stdio_output@@@2@@__crt_stdio_output@@AAE_NXZ 100874b0 f i libucrtd:output.obj
 0001:00086990       ?state_case_size@?$output_processor@_WV?$stream_output_adapter@_W@__crt_stdio_output@@V?$standard_base@_WV?$stream_output_adapter@_W@__crt_stdio_output@@@2@@__crt_stdio_output@@AAE_NXZ 10087990 f i libucrtd:output.obj
 0001:00086e70       ?state_case_size@?$output_processor@_WV?$string_output_adapter@_W@__crt_stdio_output@@V?$format_validation_base@_WV?$string_output_adapter@_W@__crt_stdio_output@@@2@@__crt_stdio_output@@AAE_NXZ 10087e70 f i libucrtd:output.obj
 0001:00087350       ?state_case_size@?$output_processor@_WV?$string_output_adapter@_W@__crt_stdio_output@@V?$positional_parameter_base@_WV?$string_output_adapter@_W@__crt_stdio_output@@@2@@__crt_stdio_output@@AAE_NXZ 10088350 f i libucrtd:output.obj
 0001:00087830       ?state_case_size@?$output_processor@_WV?$string_output_adapter@_W@__crt_stdio_output@@V?$standard_base@_WV?$string_output_adapter@_W@__crt_stdio_output@@@2@@__crt_stdio_output@@AAE_NXZ 10088830 f i libucrtd:output.obj
 0001:00087d10       ?state_case_type@?$output_processor@DV?$stream_output_adapter@D@__crt_stdio_output@@V?$format_validation_base@DV?$stream_output_adapter@D@__crt_stdio_output@@@2@@__crt_stdio_output@@AAE_NXZ 10088d10 f i libucrtd:output.obj
 0001:000881d0       ?state_case_type@?$output_processor@DV?$stream_output_adapter@D@__crt_stdio_output@@V?$positional_parameter_base@DV?$stream_output_adapter@D@__crt_stdio_output@@@2@@__crt_stdio_output@@AAE_NXZ 100891d0 f i libucrtd:output.obj
 0001:00088690       ?state_case_type@?$output_processor@DV?$stream_output_adapter@D@__crt_stdio_output@@V?$standard_base@DV?$stream_output_adapter@D@__crt_stdio_output@@@2@@__crt_stdio_output@@AAE_NXZ 10089690 f i libucrtd:output.obj
 0001:00088b50       ?state_case_type@?$output_processor@DV?$string_output_adapter@D@__crt_stdio_output@@V?$format_validation_base@DV?$string_output_adapter@D@__crt_stdio_output@@@2@@__crt_stdio_output@@AAE_NXZ 10089b50 f i libucrtd:output.obj
 0001:00089010       ?state_case_type@?$output_processor@DV?$string_output_adapter@D@__crt_stdio_output@@V?$positional_parameter_base@DV?$string_output_adapter@D@__crt_stdio_output@@@2@@__crt_stdio_output@@AAE_NXZ 1008a010 f i libucrtd:output.obj
 0001:000894d0       ?state_case_type@?$output_processor@DV?$string_output_adapter@D@__crt_stdio_output@@V?$standard_base@DV?$string_output_adapter@D@__crt_stdio_output@@@2@@__crt_stdio_output@@AAE_NXZ 1008a4d0 f i libucrtd:output.obj
 0001:00089990       ?state_case_type@?$output_processor@_WV?$stream_output_adapter@_W@__crt_stdio_output@@V?$format_validation_base@_WV?$stream_output_adapter@_W@__crt_stdio_output@@@2@@__crt_stdio_output@@AAE_NXZ 1008a990 f i libucrtd:output.obj
 0001:00089e90       ?state_case_type@?$output_processor@_WV?$stream_output_adapter@_W@__crt_stdio_output@@V?$positional_parameter_base@_WV?$stream_output_adapter@_W@__crt_stdio_output@@@2@@__crt_stdio_output@@AAE_NXZ 1008ae90 f i libucrtd:output.obj
 0001:0008a390       ?state_case_type@?$output_processor@_WV?$stream_output_adapter@_W@__crt_stdio_output@@V?$standard_base@_WV?$stream_output_adapter@_W@__crt_stdio_output@@@2@@__crt_stdio_output@@AAE_NXZ 1008b390 f i libucrtd:output.obj
 0001:0008a890       ?state_case_type@?$output_processor@_WV?$string_output_adapter@_W@__crt_stdio_output@@V?$format_validation_base@_WV?$string_output_adapter@_W@__crt_stdio_output@@@2@@__crt_stdio_output@@AAE_NXZ 1008b890 f i libucrtd:output.obj
 0001:0008ad90       ?state_case_type@?$output_processor@_WV?$string_output_adapter@_W@__crt_stdio_output@@V?$positional_parameter_base@_WV?$string_output_adapter@_W@__crt_stdio_output@@@2@@__crt_stdio_output@@AAE_NXZ 1008bd90 f i libucrtd:output.obj
 0001:0008b290       ?state_case_type@?$output_processor@_WV?$string_output_adapter@_W@__crt_stdio_output@@V?$standard_base@_WV?$string_output_adapter@_W@__crt_stdio_output@@@2@@__crt_stdio_output@@AAE_NXZ 1008c290 f i libucrtd:output.obj
 0001:0008b790       ?state_case_width@?$output_processor@DV?$stream_output_adapter@D@__crt_stdio_output@@V?$format_validation_base@DV?$stream_output_adapter@D@__crt_stdio_output@@@2@@__crt_stdio_output@@AAE_NXZ 1008c790 f i libucrtd:output.obj
 0001:0008b820       ?state_case_width@?$output_processor@DV?$stream_output_adapter@D@__crt_stdio_output@@V?$positional_parameter_base@DV?$stream_output_adapter@D@__crt_stdio_output@@@2@@__crt_stdio_output@@AAE_NXZ 1008c820 f i libucrtd:output.obj
 0001:0008b8b0       ?state_case_width@?$output_processor@DV?$stream_output_adapter@D@__crt_stdio_output@@V?$standard_base@DV?$stream_output_adapter@D@__crt_stdio_output@@@2@@__crt_stdio_output@@AAE_NXZ 1008c8b0 f i libucrtd:output.obj
 0001:0008b940       ?state_case_width@?$output_processor@DV?$string_output_adapter@D@__crt_stdio_output@@V?$format_validation_base@DV?$string_output_adapter@D@__crt_stdio_output@@@2@@__crt_stdio_output@@AAE_NXZ 1008c940 f i libucrtd:output.obj
 0001:0008b9d0       ?state_case_width@?$output_processor@DV?$string_output_adapter@D@__crt_stdio_output@@V?$positional_parameter_base@DV?$string_output_adapter@D@__crt_stdio_output@@@2@@__crt_stdio_output@@AAE_NXZ 1008c9d0 f i libucrtd:output.obj
 0001:0008ba60       ?state_case_width@?$output_processor@DV?$string_output_adapter@D@__crt_stdio_output@@V?$standard_base@DV?$string_output_adapter@D@__crt_stdio_output@@@2@@__crt_stdio_output@@AAE_NXZ 1008ca60 f i libucrtd:output.obj
 0001:0008baf0       ?state_case_width@?$output_processor@_WV?$stream_output_adapter@_W@__crt_stdio_output@@V?$format_validation_base@_WV?$stream_output_adapter@_W@__crt_stdio_output@@@2@@__crt_stdio_output@@AAE_NXZ 1008caf0 f i libucrtd:output.obj
 0001:0008bb80       ?state_case_width@?$output_processor@_WV?$stream_output_adapter@_W@__crt_stdio_output@@V?$positional_parameter_base@_WV?$stream_output_adapter@_W@__crt_stdio_output@@@2@@__crt_stdio_output@@AAE_NXZ 1008cb80 f i libucrtd:output.obj
 0001:0008bc10       ?state_case_width@?$output_processor@_WV?$stream_output_adapter@_W@__crt_stdio_output@@V?$standard_base@_WV?$stream_output_adapter@_W@__crt_stdio_output@@@2@@__crt_stdio_output@@AAE_NXZ 1008cc10 f i libucrtd:output.obj
 0001:0008bca0       ?state_case_width@?$output_processor@_WV?$string_output_adapter@_W@__crt_stdio_output@@V?$format_validation_base@_WV?$string_output_adapter@_W@__crt_stdio_output@@@2@@__crt_stdio_output@@AAE_NXZ 1008cca0 f i libucrtd:output.obj
 0001:0008bd30       ?state_case_width@?$output_processor@_WV?$string_output_adapter@_W@__crt_stdio_output@@V?$positional_parameter_base@_WV?$string_output_adapter@_W@__crt_stdio_output@@@2@@__crt_stdio_output@@AAE_NXZ 1008cd30 f i libucrtd:output.obj
 0001:0008bdc0       ?state_case_width@?$output_processor@_WV?$string_output_adapter@_W@__crt_stdio_output@@V?$standard_base@_WV?$string_output_adapter@_W@__crt_stdio_output@@@2@@__crt_stdio_output@@AAE_NXZ 1008cdc0 f i libucrtd:output.obj
 0001:0008be50       ?state_count@?$format_validation_base@DV?$stream_output_adapter@D@__crt_stdio_output@@@__crt_stdio_output@@KAIXZ 1008ce50 f i libucrtd:output.obj
 0001:0008be60       ?state_count@?$format_validation_base@DV?$string_output_adapter@D@__crt_stdio_output@@@__crt_stdio_output@@KAIXZ 1008ce60 f i libucrtd:output.obj
 0001:0008be70       ?state_count@?$format_validation_base@_WV?$stream_output_adapter@_W@__crt_stdio_output@@@__crt_stdio_output@@KAIXZ 1008ce70 f i libucrtd:output.obj
 0001:0008be80       ?state_count@?$format_validation_base@_WV?$string_output_adapter@_W@__crt_stdio_output@@@__crt_stdio_output@@KAIXZ 1008ce80 f i libucrtd:output.obj
 0001:0008be90       ?state_count@?$standard_base@DV?$stream_output_adapter@D@__crt_stdio_output@@@__crt_stdio_output@@KAIXZ 1008ce90 f i libucrtd:output.obj
 0001:0008bea0       ?state_count@?$standard_base@DV?$string_output_adapter@D@__crt_stdio_output@@@__crt_stdio_output@@KAIXZ 1008cea0 f i libucrtd:output.obj
 0001:0008beb0       ?state_count@?$standard_base@_WV?$stream_output_adapter@_W@__crt_stdio_output@@@__crt_stdio_output@@KAIXZ 1008ceb0 f i libucrtd:output.obj
 0001:0008bec0       ?state_count@?$standard_base@_WV?$string_output_adapter@_W@__crt_stdio_output@@@__crt_stdio_output@@KAIXZ 1008cec0 f i libucrtd:output.obj
 0001:0008bed0       ?state_transition_table@?$format_validation_base@DV?$stream_output_adapter@D@__crt_stdio_output@@@__crt_stdio_output@@KAABV?$spectre_mitigated_lookup_table@Ustate_transition_pair@__crt_stdio_output@@$0IA@@2@XZ 1008ced0 f i libucrtd:output.obj
 0001:0008bee0       ?state_transition_table@?$format_validation_base@DV?$string_output_adapter@D@__crt_stdio_output@@@__crt_stdio_output@@KAABV?$spectre_mitigated_lookup_table@Ustate_transition_pair@__crt_stdio_output@@$0IA@@2@XZ 1008cee0 f i libucrtd:output.obj
 0001:0008bef0       ?state_transition_table@?$format_validation_base@_WV?$stream_output_adapter@_W@__crt_stdio_output@@@__crt_stdio_output@@KAABV?$spectre_mitigated_lookup_table@Ustate_transition_pair@__crt_stdio_output@@$0IA@@2@XZ 1008cef0 f i libucrtd:output.obj
 0001:0008bf00       ?state_transition_table@?$format_validation_base@_WV?$string_output_adapter@_W@__crt_stdio_output@@@__crt_stdio_output@@KAABV?$spectre_mitigated_lookup_table@Ustate_transition_pair@__crt_stdio_output@@$0IA@@2@XZ 1008cf00 f i libucrtd:output.obj
 0001:0008bf10       ?state_transition_table@?$standard_base@DV?$stream_output_adapter@D@__crt_stdio_output@@@__crt_stdio_output@@KAABV?$spectre_mitigated_lookup_table@Ustate_transition_pair@__crt_stdio_output@@$0IA@@2@XZ 1008cf10 f i libucrtd:output.obj
 0001:0008bf20       ?state_transition_table@?$standard_base@DV?$string_output_adapter@D@__crt_stdio_output@@@__crt_stdio_output@@KAABV?$spectre_mitigated_lookup_table@Ustate_transition_pair@__crt_stdio_output@@$0IA@@2@XZ 1008cf20 f i libucrtd:output.obj
 0001:0008bf30       ?state_transition_table@?$standard_base@_WV?$stream_output_adapter@_W@__crt_stdio_output@@@__crt_stdio_output@@KAABV?$spectre_mitigated_lookup_table@Ustate_transition_pair@__crt_stdio_output@@$0IA@@2@XZ 1008cf30 f i libucrtd:output.obj
 0001:0008bf40       ?state_transition_table@?$standard_base@_WV?$string_output_adapter@_W@__crt_stdio_output@@@__crt_stdio_output@@KAABV?$spectre_mitigated_lookup_table@Ustate_transition_pair@__crt_stdio_output@@$0IA@@2@XZ 1008cf40 f i libucrtd:output.obj
 0001:0008bf50       ?tchar_string@?$common_data@D@__crt_stdio_output@@IAEAAPADD@Z 1008cf50 f i libucrtd:output.obj
 0001:0008bf70       ?tchar_string@?$common_data@D@__crt_stdio_output@@IAEAAPADXZ 1008cf70 f i libucrtd:output.obj
 0001:0008bf90       ?tchar_string@?$common_data@_W@__crt_stdio_output@@IAEAAPA_WXZ 1008cf90 f i libucrtd:output.obj
 0001:0008bfb0       ?tchar_string@?$common_data@_W@__crt_stdio_output@@IAEAAPA_W_W@Z 1008cfb0 f i libucrtd:output.obj
 0001:0008bfd0       ?to_integer_size@__crt_stdio_output@@YAIW4length_modifier@1@@Z 1008cfd0 f i libucrtd:output.obj
 0001:0008c0a0       ?type_case_X@?$output_processor@DV?$stream_output_adapter@D@__crt_stdio_output@@V?$format_validation_base@DV?$stream_output_adapter@D@__crt_stdio_output@@@2@@__crt_stdio_output@@AAE_NXZ 1008d0a0 f i libucrtd:output.obj
 0001:0008c0c0       ?type_case_X@?$output_processor@DV?$stream_output_adapter@D@__crt_stdio_output@@V?$positional_parameter_base@DV?$stream_output_adapter@D@__crt_stdio_output@@@2@@__crt_stdio_output@@AAE_NXZ 1008d0c0 f i libucrtd:output.obj
 0001:0008c0e0       ?type_case_X@?$output_processor@DV?$stream_output_adapter@D@__crt_stdio_output@@V?$standard_base@DV?$stream_output_adapter@D@__crt_stdio_output@@@2@@__crt_stdio_output@@AAE_NXZ 1008d0e0 f i libucrtd:output.obj
 0001:0008c100       ?type_case_X@?$output_processor@DV?$string_output_adapter@D@__crt_stdio_output@@V?$format_validation_base@DV?$string_output_adapter@D@__crt_stdio_output@@@2@@__crt_stdio_output@@AAE_NXZ 1008d100 f i libucrtd:output.obj
 0001:0008c120       ?type_case_X@?$output_processor@DV?$string_output_adapter@D@__crt_stdio_output@@V?$positional_parameter_base@DV?$string_output_adapter@D@__crt_stdio_output@@@2@@__crt_stdio_output@@AAE_NXZ 1008d120 f i libucrtd:output.obj
 0001:0008c140       ?type_case_X@?$output_processor@DV?$string_output_adapter@D@__crt_stdio_output@@V?$standard_base@DV?$string_output_adapter@D@__crt_stdio_output@@@2@@__crt_stdio_output@@AAE_NXZ 1008d140 f i libucrtd:output.obj
 0001:0008c160       ?type_case_X@?$output_processor@_WV?$stream_output_adapter@_W@__crt_stdio_output@@V?$format_validation_base@_WV?$stream_output_adapter@_W@__crt_stdio_output@@@2@@__crt_stdio_output@@AAE_NXZ 1008d160 f i libucrtd:output.obj
 0001:0008c180       ?type_case_X@?$output_processor@_WV?$stream_output_adapter@_W@__crt_stdio_output@@V?$positional_parameter_base@_WV?$stream_output_adapter@_W@__crt_stdio_output@@@2@@__crt_stdio_output@@AAE_NXZ 1008d180 f i libucrtd:output.obj
 0001:0008c1a0       ?type_case_X@?$output_processor@_WV?$stream_output_adapter@_W@__crt_stdio_output@@V?$standard_base@_WV?$stream_output_adapter@_W@__crt_stdio_output@@@2@@__crt_stdio_output@@AAE_NXZ 1008d1a0 f i libucrtd:output.obj
 0001:0008c1c0       ?type_case_X@?$output_processor@_WV?$string_output_adapter@_W@__crt_stdio_output@@V?$format_validation_base@_WV?$string_output_adapter@_W@__crt_stdio_output@@@2@@__crt_stdio_output@@AAE_NXZ 1008d1c0 f i libucrtd:output.obj
 0001:0008c1e0       ?type_case_X@?$output_processor@_WV?$string_output_adapter@_W@__crt_stdio_output@@V?$positional_parameter_base@_WV?$string_output_adapter@_W@__crt_stdio_output@@@2@@__crt_stdio_output@@AAE_NXZ 1008d1e0 f i libucrtd:output.obj
 0001:0008c200       ?type_case_X@?$output_processor@_WV?$string_output_adapter@_W@__crt_stdio_output@@V?$standard_base@_WV?$string_output_adapter@_W@__crt_stdio_output@@@2@@__crt_stdio_output@@AAE_NXZ 1008d200 f i libucrtd:output.obj
 0001:0008c220       ?type_case_Z@?$output_processor@DV?$stream_output_adapter@D@__crt_stdio_output@@V?$format_validation_base@DV?$stream_output_adapter@D@__crt_stdio_output@@@2@@__crt_stdio_output@@AAE_NXZ 1008d220 f i libucrtd:output.obj
 0001:0008c350       ?type_case_Z@?$output_processor@DV?$stream_output_adapter@D@__crt_stdio_output@@V?$positional_parameter_base@DV?$stream_output_adapter@D@__crt_stdio_output@@@2@@__crt_stdio_output@@AAE_NXZ 1008d350 f i libucrtd:output.obj
 0001:0008c480       ?type_case_Z@?$output_processor@DV?$stream_output_adapter@D@__crt_stdio_output@@V?$standard_base@DV?$stream_output_adapter@D@__crt_stdio_output@@@2@@__crt_stdio_output@@AAE_NXZ 1008d480 f i libucrtd:output.obj
 0001:0008c5b0       ?type_case_Z@?$output_processor@DV?$string_output_adapter@D@__crt_stdio_output@@V?$format_validation_base@DV?$string_output_adapter@D@__crt_stdio_output@@@2@@__crt_stdio_output@@AAE_NXZ 1008d5b0 f i libucrtd:output.obj
 0001:0008c6e0       ?type_case_Z@?$output_processor@DV?$string_output_adapter@D@__crt_stdio_output@@V?$positional_parameter_base@DV?$string_output_adapter@D@__crt_stdio_output@@@2@@__crt_stdio_output@@AAE_NXZ 1008d6e0 f i libucrtd:output.obj
 0001:0008c810       ?type_case_Z@?$output_processor@DV?$string_output_adapter@D@__crt_stdio_output@@V?$standard_base@DV?$string_output_adapter@D@__crt_stdio_output@@@2@@__crt_stdio_output@@AAE_NXZ 1008d810 f i libucrtd:output.obj
 0001:0008c940       ?type_case_Z@?$output_processor@_WV?$stream_output_adapter@_W@__crt_stdio_output@@V?$format_validation_base@_WV?$stream_output_adapter@_W@__crt_stdio_output@@@2@@__crt_stdio_output@@AAE_NXZ 1008d940 f i libucrtd:output.obj
 0001:0008ca70       ?type_case_Z@?$output_processor@_WV?$stream_output_adapter@_W@__crt_stdio_output@@V?$positional_parameter_base@_WV?$stream_output_adapter@_W@__crt_stdio_output@@@2@@__crt_stdio_output@@AAE_NXZ 1008da70 f i libucrtd:output.obj
 0001:0008cba0       ?type_case_Z@?$output_processor@_WV?$stream_output_adapter@_W@__crt_stdio_output@@V?$standard_base@_WV?$stream_output_adapter@_W@__crt_stdio_output@@@2@@__crt_stdio_output@@AAE_NXZ 1008dba0 f i libucrtd:output.obj
 0001:0008ccd0       ?type_case_Z@?$output_processor@_WV?$string_output_adapter@_W@__crt_stdio_output@@V?$format_validation_base@_WV?$string_output_adapter@_W@__crt_stdio_output@@@2@@__crt_stdio_output@@AAE_NXZ 1008dcd0 f i libucrtd:output.obj
 0001:0008ce00       ?type_case_Z@?$output_processor@_WV?$string_output_adapter@_W@__crt_stdio_output@@V?$positional_parameter_base@_WV?$string_output_adapter@_W@__crt_stdio_output@@@2@@__crt_stdio_output@@AAE_NXZ 1008de00 f i libucrtd:output.obj
 0001:0008cf30       ?type_case_Z@?$output_processor@_WV?$string_output_adapter@_W@__crt_stdio_output@@V?$standard_base@_WV?$string_output_adapter@_W@__crt_stdio_output@@@2@@__crt_stdio_output@@AAE_NXZ 1008df30 f i libucrtd:output.obj
 0001:0008d060       ?type_case_a@?$output_processor@DV?$stream_output_adapter@D@__crt_stdio_output@@V?$format_validation_base@DV?$stream_output_adapter@D@__crt_stdio_output@@@2@@__crt_stdio_output@@AAE_NXZ 1008e060 f i libucrtd:output.obj
 0001:0008d3e0       ?type_case_a@?$output_processor@DV?$stream_output_adapter@D@__crt_stdio_output@@V?$positional_parameter_base@DV?$stream_output_adapter@D@__crt_stdio_output@@@2@@__crt_stdio_output@@AAE_NXZ 1008e3e0 f i libucrtd:output.obj
 0001:0008d760       ?type_case_a@?$output_processor@DV?$stream_output_adapter@D@__crt_stdio_output@@V?$standard_base@DV?$stream_output_adapter@D@__crt_stdio_output@@@2@@__crt_stdio_output@@AAE_NXZ 1008e760 f i libucrtd:output.obj
 0001:0008dae0       ?type_case_a@?$output_processor@DV?$string_output_adapter@D@__crt_stdio_output@@V?$format_validation_base@DV?$string_output_adapter@D@__crt_stdio_output@@@2@@__crt_stdio_output@@AAE_NXZ 1008eae0 f i libucrtd:output.obj
 0001:0008de60       ?type_case_a@?$output_processor@DV?$string_output_adapter@D@__crt_stdio_output@@V?$positional_parameter_base@DV?$string_output_adapter@D@__crt_stdio_output@@@2@@__crt_stdio_output@@AAE_NXZ 1008ee60 f i libucrtd:output.obj
 0001:0008e1e0       ?type_case_a@?$output_processor@DV?$string_output_adapter@D@__crt_stdio_output@@V?$standard_base@DV?$string_output_adapter@D@__crt_stdio_output@@@2@@__crt_stdio_output@@AAE_NXZ 1008f1e0 f i libucrtd:output.obj
 0001:0008e560       ?type_case_a@?$output_processor@_WV?$stream_output_adapter@_W@__crt_stdio_output@@V?$format_validation_base@_WV?$stream_output_adapter@_W@__crt_stdio_output@@@2@@__crt_stdio_output@@AAE_NXZ 1008f560 f i libucrtd:output.obj
 0001:0008e8f0       ?type_case_a@?$output_processor@_WV?$stream_output_adapter@_W@__crt_stdio_output@@V?$positional_parameter_base@_WV?$stream_output_adapter@_W@__crt_stdio_output@@@2@@__crt_stdio_output@@AAE_NXZ 1008f8f0 f i libucrtd:output.obj
 0001:0008ec80       ?type_case_a@?$output_processor@_WV?$stream_output_adapter@_W@__crt_stdio_output@@V?$standard_base@_WV?$stream_output_adapter@_W@__crt_stdio_output@@@2@@__crt_stdio_output@@AAE_NXZ 1008fc80 f i libucrtd:output.obj
 0001:0008f010       ?type_case_a@?$output_processor@_WV?$string_output_adapter@_W@__crt_stdio_output@@V?$format_validation_base@_WV?$string_output_adapter@_W@__crt_stdio_output@@@2@@__crt_stdio_output@@AAE_NXZ 10090010 f i libucrtd:output.obj
 0001:0008f3a0       ?type_case_a@?$output_processor@_WV?$string_output_adapter@_W@__crt_stdio_output@@V?$positional_parameter_base@_WV?$string_output_adapter@_W@__crt_stdio_output@@@2@@__crt_stdio_output@@AAE_NXZ 100903a0 f i libucrtd:output.obj
 0001:0008f730       ?type_case_a@?$output_processor@_WV?$string_output_adapter@_W@__crt_stdio_output@@V?$standard_base@_WV?$string_output_adapter@_W@__crt_stdio_output@@@2@@__crt_stdio_output@@AAE_NXZ 10090730 f i libucrtd:output.obj
 0001:0008fac0       ?type_case_c@?$output_processor@DV?$stream_output_adapter@D@__crt_stdio_output@@V?$format_validation_base@DV?$stream_output_adapter@D@__crt_stdio_output@@@2@@__crt_stdio_output@@AAE_NXZ 10090ac0 f i libucrtd:output.obj
 0001:0008fae0       ?type_case_c@?$output_processor@DV?$stream_output_adapter@D@__crt_stdio_output@@V?$positional_parameter_base@DV?$stream_output_adapter@D@__crt_stdio_output@@@2@@__crt_stdio_output@@AAE_NXZ 10090ae0 f i libucrtd:output.obj
 0001:0008fb00       ?type_case_c@?$output_processor@DV?$stream_output_adapter@D@__crt_stdio_output@@V?$standard_base@DV?$stream_output_adapter@D@__crt_stdio_output@@@2@@__crt_stdio_output@@AAE_NXZ 10090b00 f i libucrtd:output.obj
 0001:0008fb20       ?type_case_c@?$output_processor@DV?$string_output_adapter@D@__crt_stdio_output@@V?$format_validation_base@DV?$string_output_adapter@D@__crt_stdio_output@@@2@@__crt_stdio_output@@AAE_NXZ 10090b20 f i libucrtd:output.obj
 0001:0008fb40       ?type_case_c@?$output_processor@DV?$string_output_adapter@D@__crt_stdio_output@@V?$positional_parameter_base@DV?$string_output_adapter@D@__crt_stdio_output@@@2@@__crt_stdio_output@@AAE_NXZ 10090b40 f i libucrtd:output.obj
 0001:0008fb60       ?type_case_c@?$output_processor@DV?$string_output_adapter@D@__crt_stdio_output@@V?$standard_base@DV?$string_output_adapter@D@__crt_stdio_output@@@2@@__crt_stdio_output@@AAE_NXZ 10090b60 f i libucrtd:output.obj
 0001:0008fb80       ?type_case_c@?$output_processor@_WV?$stream_output_adapter@_W@__crt_stdio_output@@V?$format_validation_base@_WV?$stream_output_adapter@_W@__crt_stdio_output@@@2@@__crt_stdio_output@@AAE_NXZ 10090b80 f i libucrtd:output.obj
 0001:0008fba0       ?type_case_c@?$output_processor@_WV?$stream_output_adapter@_W@__crt_stdio_output@@V?$positional_parameter_base@_WV?$stream_output_adapter@_W@__crt_stdio_output@@@2@@__crt_stdio_output@@AAE_NXZ 10090ba0 f i libucrtd:output.obj
 0001:0008fbc0       ?type_case_c@?$output_processor@_WV?$stream_output_adapter@_W@__crt_stdio_output@@V?$standard_base@_WV?$stream_output_adapter@_W@__crt_stdio_output@@@2@@__crt_stdio_output@@AAE_NXZ 10090bc0 f i libucrtd:output.obj
 0001:0008fbe0       ?type_case_c@?$output_processor@_WV?$string_output_adapter@_W@__crt_stdio_output@@V?$format_validation_base@_WV?$string_output_adapter@_W@__crt_stdio_output@@@2@@__crt_stdio_output@@AAE_NXZ 10090be0 f i libucrtd:output.obj
 0001:0008fc00       ?type_case_c@?$output_processor@_WV?$string_output_adapter@_W@__crt_stdio_output@@V?$positional_parameter_base@_WV?$string_output_adapter@_W@__crt_stdio_output@@@2@@__crt_stdio_output@@AAE_NXZ 10090c00 f i libucrtd:output.obj
 0001:0008fc20       ?type_case_c@?$output_processor@_WV?$string_output_adapter@_W@__crt_stdio_output@@V?$standard_base@_WV?$string_output_adapter@_W@__crt_stdio_output@@@2@@__crt_stdio_output@@AAE_NXZ 10090c20 f i libucrtd:output.obj
 0001:0008fc40       ?type_case_c_tchar@?$output_processor@DV?$stream_output_adapter@D@__crt_stdio_output@@V?$format_validation_base@DV?$stream_output_adapter@D@__crt_stdio_output@@@2@@__crt_stdio_output@@AAE_ND@Z 10090c40 f i libucrtd:output.obj
 0001:0008fdc0       ?type_case_c_tchar@?$output_processor@DV?$stream_output_adapter@D@__crt_stdio_output@@V?$positional_parameter_base@DV?$stream_output_adapter@D@__crt_stdio_output@@@2@@__crt_stdio_output@@AAE_ND@Z 10090dc0 f i libucrtd:output.obj
 0001:0008ff40       ?type_case_c_tchar@?$output_processor@DV?$stream_output_adapter@D@__crt_stdio_output@@V?$standard_base@DV?$stream_output_adapter@D@__crt_stdio_output@@@2@@__crt_stdio_output@@AAE_ND@Z 10090f40 f i libucrtd:output.obj
 0001:000900c0       ?type_case_c_tchar@?$output_processor@DV?$string_output_adapter@D@__crt_stdio_output@@V?$format_validation_base@DV?$string_output_adapter@D@__crt_stdio_output@@@2@@__crt_stdio_output@@AAE_ND@Z 100910c0 f i libucrtd:output.obj
 0001:00090240       ?type_case_c_tchar@?$output_processor@DV?$string_output_adapter@D@__crt_stdio_output@@V?$positional_parameter_base@DV?$string_output_adapter@D@__crt_stdio_output@@@2@@__crt_stdio_output@@AAE_ND@Z 10091240 f i libucrtd:output.obj
 0001:000903c0       ?type_case_c_tchar@?$output_processor@DV?$string_output_adapter@D@__crt_stdio_output@@V?$standard_base@DV?$string_output_adapter@D@__crt_stdio_output@@@2@@__crt_stdio_output@@AAE_ND@Z 100913c0 f i libucrtd:output.obj
 0001:00090540       ?type_case_c_tchar@?$output_processor@_WV?$stream_output_adapter@_W@__crt_stdio_output@@V?$format_validation_base@_WV?$stream_output_adapter@_W@__crt_stdio_output@@@2@@__crt_stdio_output@@AAE_N_W@Z 10091540 f i libucrtd:output.obj
 0001:000906b0       ?type_case_c_tchar@?$output_processor@_WV?$stream_output_adapter@_W@__crt_stdio_output@@V?$positional_parameter_base@_WV?$stream_output_adapter@_W@__crt_stdio_output@@@2@@__crt_stdio_output@@AAE_N_W@Z 100916b0 f i libucrtd:output.obj
 0001:00090820       ?type_case_c_tchar@?$output_processor@_WV?$stream_output_adapter@_W@__crt_stdio_output@@V?$standard_base@_WV?$stream_output_adapter@_W@__crt_stdio_output@@@2@@__crt_stdio_output@@AAE_N_W@Z 10091820 f i libucrtd:output.obj
 0001:00090990       ?type_case_c_tchar@?$output_processor@_WV?$string_output_adapter@_W@__crt_stdio_output@@V?$format_validation_base@_WV?$string_output_adapter@_W@__crt_stdio_output@@@2@@__crt_stdio_output@@AAE_N_W@Z 10091990 f i libucrtd:output.obj
 0001:00090b00       ?type_case_c_tchar@?$output_processor@_WV?$string_output_adapter@_W@__crt_stdio_output@@V?$positional_parameter_base@_WV?$string_output_adapter@_W@__crt_stdio_output@@@2@@__crt_stdio_output@@AAE_N_W@Z 10091b00 f i libucrtd:output.obj
 0001:00090c70       ?type_case_c_tchar@?$output_processor@_WV?$string_output_adapter@_W@__crt_stdio_output@@V?$standard_base@_WV?$string_output_adapter@_W@__crt_stdio_output@@@2@@__crt_stdio_output@@AAE_N_W@Z 10091c70 f i libucrtd:output.obj
 0001:00090de0       ?type_case_d@?$output_processor@DV?$stream_output_adapter@D@__crt_stdio_output@@V?$format_validation_base@DV?$stream_output_adapter@D@__crt_stdio_output@@@2@@__crt_stdio_output@@AAE_NXZ 10091de0 f i libucrtd:output.obj
 0001:00090e10       ?type_case_d@?$output_processor@DV?$stream_output_adapter@D@__crt_stdio_output@@V?$positional_parameter_base@DV?$stream_output_adapter@D@__crt_stdio_output@@@2@@__crt_stdio_output@@AAE_NXZ 10091e10 f i libucrtd:output.obj
 0001:00090e40       ?type_case_d@?$output_processor@DV?$stream_output_adapter@D@__crt_stdio_output@@V?$standard_base@DV?$stream_output_adapter@D@__crt_stdio_output@@@2@@__crt_stdio_output@@AAE_NXZ 10091e40 f i libucrtd:output.obj
 0001:00090e70       ?type_case_d@?$output_processor@DV?$string_output_adapter@D@__crt_stdio_output@@V?$format_validation_base@DV?$string_output_adapter@D@__crt_stdio_output@@@2@@__crt_stdio_output@@AAE_NXZ 10091e70 f i libucrtd:output.obj
 0001:00090ea0       ?type_case_d@?$output_processor@DV?$string_output_adapter@D@__crt_stdio_output@@V?$positional_parameter_base@DV?$string_output_adapter@D@__crt_stdio_output@@@2@@__crt_stdio_output@@AAE_NXZ 10091ea0 f i libucrtd:output.obj
 0001:00090ed0       ?type_case_d@?$output_processor@DV?$string_output_adapter@D@__crt_stdio_output@@V?$standard_base@DV?$string_output_adapter@D@__crt_stdio_output@@@2@@__crt_stdio_output@@AAE_NXZ 10091ed0 f i libucrtd:output.obj
 0001:00090f00       ?type_case_d@?$output_processor@_WV?$stream_output_adapter@_W@__crt_stdio_output@@V?$format_validation_base@_WV?$stream_output_adapter@_W@__crt_stdio_output@@@2@@__crt_stdio_output@@AAE_NXZ 10091f00 f i libucrtd:output.obj
 0001:00090f30       ?type_case_d@?$output_processor@_WV?$stream_output_adapter@_W@__crt_stdio_output@@V?$positional_parameter_base@_WV?$stream_output_adapter@_W@__crt_stdio_output@@@2@@__crt_stdio_output@@AAE_NXZ 10091f30 f i libucrtd:output.obj
 0001:00090f60       ?type_case_d@?$output_processor@_WV?$stream_output_adapter@_W@__crt_stdio_output@@V?$standard_base@_WV?$stream_output_adapter@_W@__crt_stdio_output@@@2@@__crt_stdio_output@@AAE_NXZ 10091f60 f i libucrtd:output.obj
 0001:00090f90       ?type_case_d@?$output_processor@_WV?$string_output_adapter@_W@__crt_stdio_output@@V?$format_validation_base@_WV?$string_output_adapter@_W@__crt_stdio_output@@@2@@__crt_stdio_output@@AAE_NXZ 10091f90 f i libucrtd:output.obj
 0001:00090fc0       ?type_case_d@?$output_processor@_WV?$string_output_adapter@_W@__crt_stdio_output@@V?$positional_parameter_base@_WV?$string_output_adapter@_W@__crt_stdio_output@@@2@@__crt_stdio_output@@AAE_NXZ 10091fc0 f i libucrtd:output.obj
 0001:00090ff0       ?type_case_d@?$output_processor@_WV?$string_output_adapter@_W@__crt_stdio_output@@V?$standard_base@_WV?$string_output_adapter@_W@__crt_stdio_output@@@2@@__crt_stdio_output@@AAE_NXZ 10091ff0 f i libucrtd:output.obj
 0001:00091020       ?type_case_n@?$output_processor@DV?$stream_output_adapter@D@__crt_stdio_output@@V?$format_validation_base@DV?$stream_output_adapter@D@__crt_stdio_output@@@2@@__crt_stdio_output@@AAE_NXZ 10092020 f i libucrtd:output.obj
 0001:000912c0       ?type_case_n@?$output_processor@DV?$stream_output_adapter@D@__crt_stdio_output@@V?$positional_parameter_base@DV?$stream_output_adapter@D@__crt_stdio_output@@@2@@__crt_stdio_output@@AAE_NXZ 100922c0 f i libucrtd:output.obj
 0001:00091560       ?type_case_n@?$output_processor@DV?$stream_output_adapter@D@__crt_stdio_output@@V?$standard_base@DV?$stream_output_adapter@D@__crt_stdio_output@@@2@@__crt_stdio_output@@AAE_NXZ 10092560 f i libucrtd:output.obj
 0001:00091800       ?type_case_n@?$output_processor@DV?$string_output_adapter@D@__crt_stdio_output@@V?$format_validation_base@DV?$string_output_adapter@D@__crt_stdio_output@@@2@@__crt_stdio_output@@AAE_NXZ 10092800 f i libucrtd:output.obj
 0001:00091aa0       ?type_case_n@?$output_processor@DV?$string_output_adapter@D@__crt_stdio_output@@V?$positional_parameter_base@DV?$string_output_adapter@D@__crt_stdio_output@@@2@@__crt_stdio_output@@AAE_NXZ 10092aa0 f i libucrtd:output.obj
 0001:00091d40       ?type_case_n@?$output_processor@DV?$string_output_adapter@D@__crt_stdio_output@@V?$standard_base@DV?$string_output_adapter@D@__crt_stdio_output@@@2@@__crt_stdio_output@@AAE_NXZ 10092d40 f i libucrtd:output.obj
 0001:00091fe0       ?type_case_n@?$output_processor@_WV?$stream_output_adapter@_W@__crt_stdio_output@@V?$format_validation_base@_WV?$stream_output_adapter@_W@__crt_stdio_output@@@2@@__crt_stdio_output@@AAE_NXZ 10092fe0 f i libucrtd:output.obj
 0001:00092280       ?type_case_n@?$output_processor@_WV?$stream_output_adapter@_W@__crt_stdio_output@@V?$positional_parameter_base@_WV?$stream_output_adapter@_W@__crt_stdio_output@@@2@@__crt_stdio_output@@AAE_NXZ 10093280 f i libucrtd:output.obj
 0001:00092520       ?type_case_n@?$output_processor@_WV?$stream_output_adapter@_W@__crt_stdio_output@@V?$standard_base@_WV?$stream_output_adapter@_W@__crt_stdio_output@@@2@@__crt_stdio_output@@AAE_NXZ 10093520 f i libucrtd:output.obj
 0001:000927c0       ?type_case_n@?$output_processor@_WV?$string_output_adapter@_W@__crt_stdio_output@@V?$format_validation_base@_WV?$string_output_adapter@_W@__crt_stdio_output@@@2@@__crt_stdio_output@@AAE_NXZ 100937c0 f i libucrtd:output.obj
 0001:00092a60       ?type_case_n@?$output_processor@_WV?$string_output_adapter@_W@__crt_stdio_output@@V?$positional_parameter_base@_WV?$string_output_adapter@_W@__crt_stdio_output@@@2@@__crt_stdio_output@@AAE_NXZ 10093a60 f i libucrtd:output.obj
 0001:00092d00       ?type_case_n@?$output_processor@_WV?$string_output_adapter@_W@__crt_stdio_output@@V?$standard_base@_WV?$string_output_adapter@_W@__crt_stdio_output@@@2@@__crt_stdio_output@@AAE_NXZ 10093d00 f i libucrtd:output.obj
 0001:00092fa0       ?type_case_o@?$output_processor@DV?$stream_output_adapter@D@__crt_stdio_output@@V?$format_validation_base@DV?$stream_output_adapter@D@__crt_stdio_output@@@2@@__crt_stdio_output@@AAE_NXZ 10093fa0 f i libucrtd:output.obj
 0001:00092ff0       ?type_case_o@?$output_processor@DV?$stream_output_adapter@D@__crt_stdio_output@@V?$positional_parameter_base@DV?$stream_output_adapter@D@__crt_stdio_output@@@2@@__crt_stdio_output@@AAE_NXZ 10093ff0 f i libucrtd:output.obj
 0001:00093040       ?type_case_o@?$output_processor@DV?$stream_output_adapter@D@__crt_stdio_output@@V?$standard_base@DV?$stream_output_adapter@D@__crt_stdio_output@@@2@@__crt_stdio_output@@AAE_NXZ 10094040 f i libucrtd:output.obj
 0001:00093090       ?type_case_o@?$output_processor@DV?$string_output_adapter@D@__crt_stdio_output@@V?$format_validation_base@DV?$string_output_adapter@D@__crt_stdio_output@@@2@@__crt_stdio_output@@AAE_NXZ 10094090 f i libucrtd:output.obj
 0001:000930e0       ?type_case_o@?$output_processor@DV?$string_output_adapter@D@__crt_stdio_output@@V?$positional_parameter_base@DV?$string_output_adapter@D@__crt_stdio_output@@@2@@__crt_stdio_output@@AAE_NXZ 100940e0 f i libucrtd:output.obj
 0001:00093130       ?type_case_o@?$output_processor@DV?$string_output_adapter@D@__crt_stdio_output@@V?$standard_base@DV?$string_output_adapter@D@__crt_stdio_output@@@2@@__crt_stdio_output@@AAE_NXZ 10094130 f i libucrtd:output.obj
 0001:00093180       ?type_case_o@?$output_processor@_WV?$stream_output_adapter@_W@__crt_stdio_output@@V?$format_validation_base@_WV?$stream_output_adapter@_W@__crt_stdio_output@@@2@@__crt_stdio_output@@AAE_NXZ 10094180 f i libucrtd:output.obj
 0001:000931d0       ?type_case_o@?$output_processor@_WV?$stream_output_adapter@_W@__crt_stdio_output@@V?$positional_parameter_base@_WV?$stream_output_adapter@_W@__crt_stdio_output@@@2@@__crt_stdio_output@@AAE_NXZ 100941d0 f i libucrtd:output.obj
 0001:00093220       ?type_case_o@?$output_processor@_WV?$stream_output_adapter@_W@__crt_stdio_output@@V?$standard_base@_WV?$stream_output_adapter@_W@__crt_stdio_output@@@2@@__crt_stdio_output@@AAE_NXZ 10094220 f i libucrtd:output.obj
 0001:00093270       ?type_case_o@?$output_processor@_WV?$string_output_adapter@_W@__crt_stdio_output@@V?$format_validation_base@_WV?$string_output_adapter@_W@__crt_stdio_output@@@2@@__crt_stdio_output@@AAE_NXZ 10094270 f i libucrtd:output.obj
 0001:000932c0       ?type_case_o@?$output_processor@_WV?$string_output_adapter@_W@__crt_stdio_output@@V?$positional_parameter_base@_WV?$string_output_adapter@_W@__crt_stdio_output@@@2@@__crt_stdio_output@@AAE_NXZ 100942c0 f i libucrtd:output.obj
 0001:00093310       ?type_case_o@?$output_processor@_WV?$string_output_adapter@_W@__crt_stdio_output@@V?$standard_base@_WV?$string_output_adapter@_W@__crt_stdio_output@@@2@@__crt_stdio_output@@AAE_NXZ 10094310 f i libucrtd:output.obj
 0001:00093360       ?type_case_p@?$output_processor@DV?$stream_output_adapter@D@__crt_stdio_output@@V?$format_validation_base@DV?$stream_output_adapter@D@__crt_stdio_output@@@2@@__crt_stdio_output@@AAE_NXZ 10094360 f i libucrtd:output.obj
 0001:000933a0       ?type_case_p@?$output_processor@DV?$stream_output_adapter@D@__crt_stdio_output@@V?$positional_parameter_base@DV?$stream_output_adapter@D@__crt_stdio_output@@@2@@__crt_stdio_output@@AAE_NXZ 100943a0 f i libucrtd:output.obj
 0001:000933e0       ?type_case_p@?$output_processor@DV?$stream_output_adapter@D@__crt_stdio_output@@V?$standard_base@DV?$stream_output_adapter@D@__crt_stdio_output@@@2@@__crt_stdio_output@@AAE_NXZ 100943e0 f i libucrtd:output.obj
 0001:00093420       ?type_case_p@?$output_processor@DV?$string_output_adapter@D@__crt_stdio_output@@V?$format_validation_base@DV?$string_output_adapter@D@__crt_stdio_output@@@2@@__crt_stdio_output@@AAE_NXZ 10094420 f i libucrtd:output.obj
 0001:00093460       ?type_case_p@?$output_processor@DV?$string_output_adapter@D@__crt_stdio_output@@V?$positional_parameter_base@DV?$string_output_adapter@D@__crt_stdio_output@@@2@@__crt_stdio_output@@AAE_NXZ 10094460 f i libucrtd:output.obj
 0001:000934a0       ?type_case_p@?$output_processor@DV?$string_output_adapter@D@__crt_stdio_output@@V?$standard_base@DV?$string_output_adapter@D@__crt_stdio_output@@@2@@__crt_stdio_output@@AAE_NXZ 100944a0 f i libucrtd:output.obj
 0001:000934e0       ?type_case_p@?$output_processor@_WV?$stream_output_adapter@_W@__crt_stdio_output@@V?$format_validation_base@_WV?$stream_output_adapter@_W@__crt_stdio_output@@@2@@__crt_stdio_output@@AAE_NXZ 100944e0 f i libucrtd:output.obj
 0001:00093520       ?type_case_p@?$output_processor@_WV?$stream_output_adapter@_W@__crt_stdio_output@@V?$positional_parameter_base@_WV?$stream_output_adapter@_W@__crt_stdio_output@@@2@@__crt_stdio_output@@AAE_NXZ 10094520 f i libucrtd:output.obj
 0001:00093560       ?type_case_p@?$output_processor@_WV?$stream_output_adapter@_W@__crt_stdio_output@@V?$standard_base@_WV?$stream_output_adapter@_W@__crt_stdio_output@@@2@@__crt_stdio_output@@AAE_NXZ 10094560 f i libucrtd:output.obj
 0001:000935a0       ?type_case_p@?$output_processor@_WV?$string_output_adapter@_W@__crt_stdio_output@@V?$format_validation_base@_WV?$string_output_adapter@_W@__crt_stdio_output@@@2@@__crt_stdio_output@@AAE_NXZ 100945a0 f i libucrtd:output.obj
 0001:000935e0       ?type_case_p@?$output_processor@_WV?$string_output_adapter@_W@__crt_stdio_output@@V?$positional_parameter_base@_WV?$string_output_adapter@_W@__crt_stdio_output@@@2@@__crt_stdio_output@@AAE_NXZ 100945e0 f i libucrtd:output.obj
 0001:00093620       ?type_case_p@?$output_processor@_WV?$string_output_adapter@_W@__crt_stdio_output@@V?$standard_base@_WV?$string_output_adapter@_W@__crt_stdio_output@@@2@@__crt_stdio_output@@AAE_NXZ 10094620 f i libucrtd:output.obj
 0001:00093660       ?type_case_s@?$output_processor@DV?$stream_output_adapter@D@__crt_stdio_output@@V?$format_validation_base@DV?$stream_output_adapter@D@__crt_stdio_output@@@2@@__crt_stdio_output@@AAE_NXZ 10094660 f i libucrtd:output.obj
 0001:00093790       ?type_case_s@?$output_processor@DV?$stream_output_adapter@D@__crt_stdio_output@@V?$positional_parameter_base@DV?$stream_output_adapter@D@__crt_stdio_output@@@2@@__crt_stdio_output@@AAE_NXZ 10094790 f i libucrtd:output.obj
 0001:000938c0       ?type_case_s@?$output_processor@DV?$stream_output_adapter@D@__crt_stdio_output@@V?$standard_base@DV?$stream_output_adapter@D@__crt_stdio_output@@@2@@__crt_stdio_output@@AAE_NXZ 100948c0 f i libucrtd:output.obj
 0001:000939f0       ?type_case_s@?$output_processor@DV?$string_output_adapter@D@__crt_stdio_output@@V?$format_validation_base@DV?$string_output_adapter@D@__crt_stdio_output@@@2@@__crt_stdio_output@@AAE_NXZ 100949f0 f i libucrtd:output.obj
 0001:00093b20       ?type_case_s@?$output_processor@DV?$string_output_adapter@D@__crt_stdio_output@@V?$positional_parameter_base@DV?$string_output_adapter@D@__crt_stdio_output@@@2@@__crt_stdio_output@@AAE_NXZ 10094b20 f i libucrtd:output.obj
 0001:00093c50       ?type_case_s@?$output_processor@DV?$string_output_adapter@D@__crt_stdio_output@@V?$standard_base@DV?$string_output_adapter@D@__crt_stdio_output@@@2@@__crt_stdio_output@@AAE_NXZ 10094c50 f i libucrtd:output.obj
 0001:00093d80       ?type_case_s@?$output_processor@_WV?$stream_output_adapter@_W@__crt_stdio_output@@V?$format_validation_base@_WV?$stream_output_adapter@_W@__crt_stdio_output@@@2@@__crt_stdio_output@@AAE_NXZ 10094d80 f i libucrtd:output.obj
 0001:00093eb0       ?type_case_s@?$output_processor@_WV?$stream_output_adapter@_W@__crt_stdio_output@@V?$positional_parameter_base@_WV?$stream_output_adapter@_W@__crt_stdio_output@@@2@@__crt_stdio_output@@AAE_NXZ 10094eb0 f i libucrtd:output.obj
 0001:00093fe0       ?type_case_s@?$output_processor@_WV?$stream_output_adapter@_W@__crt_stdio_output@@V?$standard_base@_WV?$stream_output_adapter@_W@__crt_stdio_output@@@2@@__crt_stdio_output@@AAE_NXZ 10094fe0 f i libucrtd:output.obj
 0001:00094110       ?type_case_s@?$output_processor@_WV?$string_output_adapter@_W@__crt_stdio_output@@V?$format_validation_base@_WV?$string_output_adapter@_W@__crt_stdio_output@@@2@@__crt_stdio_output@@AAE_NXZ 10095110 f i libucrtd:output.obj
 0001:00094240       ?type_case_s@?$output_processor@_WV?$string_output_adapter@_W@__crt_stdio_output@@V?$positional_parameter_base@_WV?$string_output_adapter@_W@__crt_stdio_output@@@2@@__crt_stdio_output@@AAE_NXZ 10095240 f i libucrtd:output.obj
 0001:00094370       ?type_case_s@?$output_processor@_WV?$string_output_adapter@_W@__crt_stdio_output@@V?$standard_base@_WV?$string_output_adapter@_W@__crt_stdio_output@@@2@@__crt_stdio_output@@AAE_NXZ 10095370 f i libucrtd:output.obj
 0001:000944a0       ?type_case_s_compute_narrow_string_length@?$output_processor@DV?$stream_output_adapter@D@__crt_stdio_output@@V?$format_validation_base@DV?$stream_output_adapter@D@__crt_stdio_output@@@2@@__crt_stdio_output@@AAEHHD@Z 100954a0 f i libucrtd:output.obj
 0001:000944d0       ?type_case_s_compute_narrow_string_length@?$output_processor@DV?$stream_output_adapter@D@__crt_stdio_output@@V?$positional_parameter_base@DV?$stream_output_adapter@D@__crt_stdio_output@@@2@@__crt_stdio_output@@AAEHHD@Z 100954d0 f i libucrtd:output.obj
 0001:00094500       ?type_case_s_compute_narrow_string_length@?$output_processor@DV?$stream_output_adapter@D@__crt_stdio_output@@V?$standard_base@DV?$stream_output_adapter@D@__crt_stdio_output@@@2@@__crt_stdio_output@@AAEHHD@Z 10095500 f i libucrtd:output.obj
 0001:00094530       ?type_case_s_compute_narrow_string_length@?$output_processor@DV?$string_output_adapter@D@__crt_stdio_output@@V?$format_validation_base@DV?$string_output_adapter@D@__crt_stdio_output@@@2@@__crt_stdio_output@@AAEHHD@Z 10095530 f i libucrtd:output.obj
 0001:00094560       ?type_case_s_compute_narrow_string_length@?$output_processor@DV?$string_output_adapter@D@__crt_stdio_output@@V?$positional_parameter_base@DV?$string_output_adapter@D@__crt_stdio_output@@@2@@__crt_stdio_output@@AAEHHD@Z 10095560 f i libucrtd:output.obj
 0001:00094590       ?type_case_s_compute_narrow_string_length@?$output_processor@DV?$string_output_adapter@D@__crt_stdio_output@@V?$standard_base@DV?$string_output_adapter@D@__crt_stdio_output@@@2@@__crt_stdio_output@@AAEHHD@Z 10095590 f i libucrtd:output.obj
 0001:000945c0       ?type_case_s_compute_narrow_string_length@?$output_processor@_WV?$stream_output_adapter@_W@__crt_stdio_output@@V?$format_validation_base@_WV?$stream_output_adapter@_W@__crt_stdio_output@@@2@@__crt_stdio_output@@AAEHH_W@Z 100955c0 f i libucrtd:output.obj
 0001:00094660       ?type_case_s_compute_narrow_string_length@?$output_processor@_WV?$stream_output_adapter@_W@__crt_stdio_output@@V?$positional_parameter_base@_WV?$stream_output_adapter@_W@__crt_stdio_output@@@2@@__crt_stdio_output@@AAEHH_W@Z 10095660 f i libucrtd:output.obj
 0001:00094700       ?type_case_s_compute_narrow_string_length@?$output_processor@_WV?$stream_output_adapter@_W@__crt_stdio_output@@V?$standard_base@_WV?$stream_output_adapter@_W@__crt_stdio_output@@@2@@__crt_stdio_output@@AAEHH_W@Z 10095700 f i libucrtd:output.obj
 0001:000947a0       ?type_case_s_compute_narrow_string_length@?$output_processor@_WV?$string_output_adapter@_W@__crt_stdio_output@@V?$format_validation_base@_WV?$string_output_adapter@_W@__crt_stdio_output@@@2@@__crt_stdio_output@@AAEHH_W@Z 100957a0 f i libucrtd:output.obj
 0001:00094840       ?type_case_s_compute_narrow_string_length@?$output_processor@_WV?$string_output_adapter@_W@__crt_stdio_output@@V?$positional_parameter_base@_WV?$string_output_adapter@_W@__crt_stdio_output@@@2@@__crt_stdio_output@@AAEHH_W@Z 10095840 f i libucrtd:output.obj
 0001:000948e0       ?type_case_s_compute_narrow_string_length@?$output_processor@_WV?$string_output_adapter@_W@__crt_stdio_output@@V?$standard_base@_WV?$string_output_adapter@_W@__crt_stdio_output@@@2@@__crt_stdio_output@@AAEHH_W@Z 100958e0 f i libucrtd:output.obj
 0001:00094980       ?type_case_u@?$output_processor@DV?$stream_output_adapter@D@__crt_stdio_output@@V?$format_validation_base@DV?$stream_output_adapter@D@__crt_stdio_output@@@2@@__crt_stdio_output@@AAE_NXZ 10095980 f i libucrtd:output.obj
 0001:000949a0       ?type_case_u@?$output_processor@DV?$stream_output_adapter@D@__crt_stdio_output@@V?$positional_parameter_base@DV?$stream_output_adapter@D@__crt_stdio_output@@@2@@__crt_stdio_output@@AAE_NXZ 100959a0 f i libucrtd:output.obj
 0001:000949c0       ?type_case_u@?$output_processor@DV?$stream_output_adapter@D@__crt_stdio_output@@V?$standard_base@DV?$stream_output_adapter@D@__crt_stdio_output@@@2@@__crt_stdio_output@@AAE_NXZ 100959c0 f i libucrtd:output.obj
 0001:000949e0       ?type_case_u@?$output_processor@DV?$string_output_adapter@D@__crt_stdio_output@@V?$format_validation_base@DV?$string_output_adapter@D@__crt_stdio_output@@@2@@__crt_stdio_output@@AAE_NXZ 100959e0 f i libucrtd:output.obj
 0001:00094a00       ?type_case_u@?$output_processor@DV?$string_output_adapter@D@__crt_stdio_output@@V?$positional_parameter_base@DV?$string_output_adapter@D@__crt_stdio_output@@@2@@__crt_stdio_output@@AAE_NXZ 10095a00 f i libucrtd:output.obj
 0001:00094a20       ?type_case_u@?$output_processor@DV?$string_output_adapter@D@__crt_stdio_output@@V?$standard_base@DV?$string_output_adapter@D@__crt_stdio_output@@@2@@__crt_stdio_output@@AAE_NXZ 10095a20 f i libucrtd:output.obj
 0001:00094a40       ?type_case_u@?$output_processor@_WV?$stream_output_adapter@_W@__crt_stdio_output@@V?$format_validation_base@_WV?$stream_output_adapter@_W@__crt_stdio_output@@@2@@__crt_stdio_output@@AAE_NXZ 10095a40 f i libucrtd:output.obj
 0001:00094a60       ?type_case_u@?$output_processor@_WV?$stream_output_adapter@_W@__crt_stdio_output@@V?$positional_parameter_base@_WV?$stream_output_adapter@_W@__crt_stdio_output@@@2@@__crt_stdio_output@@AAE_NXZ 10095a60 f i libucrtd:output.obj
 0001:00094a80       ?type_case_u@?$output_processor@_WV?$stream_output_adapter@_W@__crt_stdio_output@@V?$standard_base@_WV?$stream_output_adapter@_W@__crt_stdio_output@@@2@@__crt_stdio_output@@AAE_NXZ 10095a80 f i libucrtd:output.obj
 0001:00094aa0       ?type_case_u@?$output_processor@_WV?$string_output_adapter@_W@__crt_stdio_output@@V?$format_validation_base@_WV?$string_output_adapter@_W@__crt_stdio_output@@@2@@__crt_stdio_output@@AAE_NXZ 10095aa0 f i libucrtd:output.obj
 0001:00094ac0       ?type_case_u@?$output_processor@_WV?$string_output_adapter@_W@__crt_stdio_output@@V?$positional_parameter_base@_WV?$string_output_adapter@_W@__crt_stdio_output@@@2@@__crt_stdio_output@@AAE_NXZ 10095ac0 f i libucrtd:output.obj
 0001:00094ae0       ?type_case_u@?$output_processor@_WV?$string_output_adapter@_W@__crt_stdio_output@@V?$standard_base@_WV?$string_output_adapter@_W@__crt_stdio_output@@@2@@__crt_stdio_output@@AAE_NXZ 10095ae0 f i libucrtd:output.obj
 0001:00094b00       ?type_case_x@?$output_processor@DV?$stream_output_adapter@D@__crt_stdio_output@@V?$format_validation_base@DV?$stream_output_adapter@D@__crt_stdio_output@@@2@@__crt_stdio_output@@AAE_NXZ 10095b00 f i libucrtd:output.obj
 0001:00094b20       ?type_case_x@?$output_processor@DV?$stream_output_adapter@D@__crt_stdio_output@@V?$positional_parameter_base@DV?$stream_output_adapter@D@__crt_stdio_output@@@2@@__crt_stdio_output@@AAE_NXZ 10095b20 f i libucrtd:output.obj
 0001:00094b40       ?type_case_x@?$output_processor@DV?$stream_output_adapter@D@__crt_stdio_output@@V?$standard_base@DV?$stream_output_adapter@D@__crt_stdio_output@@@2@@__crt_stdio_output@@AAE_NXZ 10095b40 f i libucrtd:output.obj
 0001:00094b60       ?type_case_x@?$output_processor@DV?$string_output_adapter@D@__crt_stdio_output@@V?$format_validation_base@DV?$string_output_adapter@D@__crt_stdio_output@@@2@@__crt_stdio_output@@AAE_NXZ 10095b60 f i libucrtd:output.obj
 0001:00094b80       ?type_case_x@?$output_processor@DV?$string_output_adapter@D@__crt_stdio_output@@V?$positional_parameter_base@DV?$string_output_adapter@D@__crt_stdio_output@@@2@@__crt_stdio_output@@AAE_NXZ 10095b80 f i libucrtd:output.obj
 0001:00094ba0       ?type_case_x@?$output_processor@DV?$string_output_adapter@D@__crt_stdio_output@@V?$standard_base@DV?$string_output_adapter@D@__crt_stdio_output@@@2@@__crt_stdio_output@@AAE_NXZ 10095ba0 f i libucrtd:output.obj
 0001:00094bc0       ?type_case_x@?$output_processor@_WV?$stream_output_adapter@_W@__crt_stdio_output@@V?$format_validation_base@_WV?$stream_output_adapter@_W@__crt_stdio_output@@@2@@__crt_stdio_output@@AAE_NXZ 10095bc0 f i libucrtd:output.obj
 0001:00094be0       ?type_case_x@?$output_processor@_WV?$stream_output_adapter@_W@__crt_stdio_output@@V?$positional_parameter_base@_WV?$stream_output_adapter@_W@__crt_stdio_output@@@2@@__crt_stdio_output@@AAE_NXZ 10095be0 f i libucrtd:output.obj
 0001:00094c00       ?type_case_x@?$output_processor@_WV?$stream_output_adapter@_W@__crt_stdio_output@@V?$standard_base@_WV?$stream_output_adapter@_W@__crt_stdio_output@@@2@@__crt_stdio_output@@AAE_NXZ 10095c00 f i libucrtd:output.obj
 0001:00094c20       ?type_case_x@?$output_processor@_WV?$string_output_adapter@_W@__crt_stdio_output@@V?$format_validation_base@_WV?$string_output_adapter@_W@__crt_stdio_output@@@2@@__crt_stdio_output@@AAE_NXZ 10095c20 f i libucrtd:output.obj
 0001:00094c40       ?type_case_x@?$output_processor@_WV?$string_output_adapter@_W@__crt_stdio_output@@V?$positional_parameter_base@_WV?$string_output_adapter@_W@__crt_stdio_output@@@2@@__crt_stdio_output@@AAE_NXZ 10095c40 f i libucrtd:output.obj
 0001:00094c60       ?type_case_x@?$output_processor@_WV?$string_output_adapter@_W@__crt_stdio_output@@V?$standard_base@_WV?$string_output_adapter@_W@__crt_stdio_output@@@2@@__crt_stdio_output@@AAE_NXZ 10095c60 f i libucrtd:output.obj
 0001:00094c80       ?unget@?$c_string_character_source@D@__crt_strtox@@QAEXD@Z 10095c80 f i libucrtd:output.obj
 0001:00094d50       ?unget@?$c_string_character_source@_W@__crt_strtox@@QAEX_W@Z 10095d50 f i libucrtd:output.obj
 0001:00094e20       ?unsafe_value@?$cached@H@__crt_cached_ptd_host@@QAEHXZ 10095e20 f i libucrtd:output.obj
 0001:00094e40       ?unsafe_value@?$cached@K@__crt_cached_ptd_host@@QAEKXZ 10095e40 f i libucrtd:output.obj
 0001:00094e60       ?unset_flag@?$output_processor@DV?$stream_output_adapter@D@__crt_stdio_output@@V?$format_validation_base@DV?$stream_output_adapter@D@__crt_stdio_output@@@2@@__crt_stdio_output@@AAEXI@Z 10095e60 f i libucrtd:output.obj
 0001:00094e90       ?unset_flag@?$output_processor@DV?$stream_output_adapter@D@__crt_stdio_output@@V?$positional_parameter_base@DV?$stream_output_adapter@D@__crt_stdio_output@@@2@@__crt_stdio_output@@AAEXI@Z 10095e90 f i libucrtd:output.obj
 0001:00094ec0       ?unset_flag@?$output_processor@DV?$stream_output_adapter@D@__crt_stdio_output@@V?$standard_base@DV?$stream_output_adapter@D@__crt_stdio_output@@@2@@__crt_stdio_output@@AAEXI@Z 10095ec0 f i libucrtd:output.obj
 0001:00094ef0       ?unset_flag@?$output_processor@DV?$string_output_adapter@D@__crt_stdio_output@@V?$format_validation_base@DV?$string_output_adapter@D@__crt_stdio_output@@@2@@__crt_stdio_output@@AAEXI@Z 10095ef0 f i libucrtd:output.obj
 0001:00094f20       ?unset_flag@?$output_processor@DV?$string_output_adapter@D@__crt_stdio_output@@V?$positional_parameter_base@DV?$string_output_adapter@D@__crt_stdio_output@@@2@@__crt_stdio_output@@AAEXI@Z 10095f20 f i libucrtd:output.obj
 0001:00094f50       ?unset_flag@?$output_processor@DV?$string_output_adapter@D@__crt_stdio_output@@V?$standard_base@DV?$string_output_adapter@D@__crt_stdio_output@@@2@@__crt_stdio_output@@AAEXI@Z 10095f50 f i libucrtd:output.obj
 0001:00094f80       ?unset_flag@?$output_processor@_WV?$stream_output_adapter@_W@__crt_stdio_output@@V?$format_validation_base@_WV?$stream_output_adapter@_W@__crt_stdio_output@@@2@@__crt_stdio_output@@AAEXI@Z 10095f80 f i libucrtd:output.obj
 0001:00094fb0       ?unset_flag@?$output_processor@_WV?$stream_output_adapter@_W@__crt_stdio_output@@V?$positional_parameter_base@_WV?$stream_output_adapter@_W@__crt_stdio_output@@@2@@__crt_stdio_output@@AAEXI@Z 10095fb0 f i libucrtd:output.obj
 0001:00094fe0       ?unset_flag@?$output_processor@_WV?$stream_output_adapter@_W@__crt_stdio_output@@V?$standard_base@_WV?$stream_output_adapter@_W@__crt_stdio_output@@@2@@__crt_stdio_output@@AAEXI@Z 10095fe0 f i libucrtd:output.obj
 0001:00095010       ?unset_flag@?$output_processor@_WV?$string_output_adapter@_W@__crt_stdio_output@@V?$format_validation_base@_WV?$string_output_adapter@_W@__crt_stdio_output@@@2@@__crt_stdio_output@@AAEXI@Z 10096010 f i libucrtd:output.obj
 0001:00095040       ?unset_flag@?$output_processor@_WV?$string_output_adapter@_W@__crt_stdio_output@@V?$positional_parameter_base@_WV?$string_output_adapter@_W@__crt_stdio_output@@@2@@__crt_stdio_output@@AAEXI@Z 10096040 f i libucrtd:output.obj
 0001:00095070       ?unset_flag@?$output_processor@_WV?$string_output_adapter@_W@__crt_stdio_output@@V?$standard_base@_WV?$string_output_adapter@_W@__crt_stdio_output@@@2@@__crt_stdio_output@@AAEXI@Z 10096070 f i libucrtd:output.obj
 0001:000950a0       ?update_field_width@?$positional_parameter_base@DV?$stream_output_adapter@D@__crt_stdio_output@@@__crt_stdio_output@@IAE_NXZ 100960a0 f i libucrtd:output.obj
 0001:00095290       ?update_field_width@?$positional_parameter_base@DV?$string_output_adapter@D@__crt_stdio_output@@@__crt_stdio_output@@IAE_NXZ 10096290 f i libucrtd:output.obj
 0001:00095480       ?update_field_width@?$positional_parameter_base@_WV?$stream_output_adapter@_W@__crt_stdio_output@@@__crt_stdio_output@@IAE_NXZ 10096480 f i libucrtd:output.obj
 0001:00095670       ?update_field_width@?$positional_parameter_base@_WV?$string_output_adapter@_W@__crt_stdio_output@@@__crt_stdio_output@@IAE_NXZ 10096670 f i libucrtd:output.obj
 0001:00095860       ?update_field_width@?$standard_base@DV?$stream_output_adapter@D@__crt_stdio_output@@@__crt_stdio_output@@IAE_NXZ 10096860 f i libucrtd:output.obj
 0001:00095890       ?update_field_width@?$standard_base@DV?$string_output_adapter@D@__crt_stdio_output@@@__crt_stdio_output@@IAE_NXZ 10096890 f i libucrtd:output.obj
 0001:000958c0       ?update_field_width@?$standard_base@_WV?$stream_output_adapter@_W@__crt_stdio_output@@@__crt_stdio_output@@IAE_NXZ 100968c0 f i libucrtd:output.obj
 0001:000958f0       ?update_field_width@?$standard_base@_WV?$string_output_adapter@_W@__crt_stdio_output@@@__crt_stdio_output@@IAE_NXZ 100968f0 f i libucrtd:output.obj
 0001:00095920       ?update_locale@__crt_cached_ptd_host@@AAEXXZ 10096920 f i libucrtd:output.obj
 0001:00095950       ?update_locale_slow@__crt_cached_ptd_host@@AAEXXZ 10096950 f i libucrtd:output.obj
 0001:00095a00       ?update_precision@?$positional_parameter_base@DV?$stream_output_adapter@D@__crt_stdio_output@@@__crt_stdio_output@@IAE_NXZ 10096a00 f i libucrtd:output.obj
 0001:00095bf0       ?update_precision@?$positional_parameter_base@DV?$string_output_adapter@D@__crt_stdio_output@@@__crt_stdio_output@@IAE_NXZ 10096bf0 f i libucrtd:output.obj
 0001:00095de0       ?update_precision@?$positional_parameter_base@_WV?$stream_output_adapter@_W@__crt_stdio_output@@@__crt_stdio_output@@IAE_NXZ 10096de0 f i libucrtd:output.obj
 0001:00095fd0       ?update_precision@?$positional_parameter_base@_WV?$string_output_adapter@_W@__crt_stdio_output@@@__crt_stdio_output@@IAE_NXZ 10096fd0 f i libucrtd:output.obj
 0001:000961c0       ?update_precision@?$standard_base@DV?$stream_output_adapter@D@__crt_stdio_output@@@__crt_stdio_output@@IAE_NXZ 100971c0 f i libucrtd:output.obj
 0001:000961f0       ?update_precision@?$standard_base@DV?$string_output_adapter@D@__crt_stdio_output@@@__crt_stdio_output@@IAE_NXZ 100971f0 f i libucrtd:output.obj
 0001:00096220       ?update_precision@?$standard_base@_WV?$stream_output_adapter@_W@__crt_stdio_output@@@__crt_stdio_output@@IAE_NXZ 10097220 f i libucrtd:output.obj
 0001:00096250       ?update_precision@?$standard_base@_WV?$string_output_adapter@_W@__crt_stdio_output@@@__crt_stdio_output@@IAE_NXZ 10097250 f i libucrtd:output.obj
 0001:00096280       ?valid@?$cached@H@__crt_cached_ptd_host@@QBE_NXZ 10097280 f i libucrtd:output.obj
 0001:000962a0       ?valid@?$cached@K@__crt_cached_ptd_host@@QBE_NXZ 100972a0 f i libucrtd:output.obj
 0001:000962c0       ?valid@__crt_stdio_stream@@QBE_NXZ 100972c0 f i libucrtd:output.obj
 0001:00096300       ?validate@?$c_string_character_source@D@__crt_strtox@@QBE_NXZ 10097300 f i libucrtd:output.obj
 0001:000963c0       ?validate@?$c_string_character_source@_W@__crt_strtox@@QBE_NXZ 100973c0 f i libucrtd:output.obj
 0001:00096480       ?validate@?$stream_output_adapter@D@__crt_stdio_output@@QBE_NAAV__crt_cached_ptd_host@@@Z 10097480 f i libucrtd:output.obj
 0001:00096570       ?validate@?$stream_output_adapter@_W@__crt_stdio_output@@QBE_NAAV__crt_cached_ptd_host@@@Z 10097570 f i libucrtd:output.obj
 0001:00096660       ?validate@?$string_output_adapter@D@__crt_stdio_output@@QBE_NAAV__crt_cached_ptd_host@@@Z 10097660 f i libucrtd:output.obj
 0001:00096730       ?validate@?$string_output_adapter@_W@__crt_stdio_output@@QBE_NAAV__crt_cached_ptd_host@@@Z 10097730 f i libucrtd:output.obj
 0001:00096800       ?validate_and_store_parameter_data@?$positional_parameter_base@DV?$stream_output_adapter@D@__crt_stdio_output@@@__crt_stdio_output@@AAE_NAAUparameter_data@12@W4parameter_type@12@DW4length_modifier@2@@Z 10097800 f i libucrtd:output.obj
 0001:00096920       ?validate_and_store_parameter_data@?$positional_parameter_base@DV?$string_output_adapter@D@__crt_stdio_output@@@__crt_stdio_output@@AAE_NAAUparameter_data@12@W4parameter_type@12@DW4length_modifier@2@@Z 10097920 f i libucrtd:output.obj
 0001:00096a40       ?validate_and_store_parameter_data@?$positional_parameter_base@_WV?$stream_output_adapter@_W@__crt_stdio_output@@@__crt_stdio_output@@AAE_NAAUparameter_data@12@W4parameter_type@12@_WW4length_modifier@2@@Z 10097a40 f i libucrtd:output.obj
 0001:00096b60       ?validate_and_store_parameter_data@?$positional_parameter_base@_WV?$string_output_adapter@_W@__crt_stdio_output@@@__crt_stdio_output@@AAE_NAAUparameter_data@12@W4parameter_type@12@_WW4length_modifier@2@@Z 10097b60 f i libucrtd:output.obj
 0001:00096c80       ?validate_and_update_state_at_beginning_of_format_character@?$positional_parameter_base@DV?$stream_output_adapter@D@__crt_stdio_output@@@__crt_stdio_output@@IAE_NXZ 10097c80 f i libucrtd:output.obj
 0001:00096f30       ?validate_and_update_state_at_beginning_of_format_character@?$positional_parameter_base@DV?$string_output_adapter@D@__crt_stdio_output@@@__crt_stdio_output@@IAE_NXZ 10097f30 f i libucrtd:output.obj
 0001:000971e0       ?validate_and_update_state_at_beginning_of_format_character@?$positional_parameter_base@_WV?$stream_output_adapter@_W@__crt_stdio_output@@@__crt_stdio_output@@IAE_NXZ 100981e0 f i libucrtd:output.obj
 0001:00097490       ?validate_and_update_state_at_beginning_of_format_character@?$positional_parameter_base@_WV?$string_output_adapter@_W@__crt_stdio_output@@@__crt_stdio_output@@IAE_NXZ 10098490 f i libucrtd:output.obj
 0001:00097740       ?validate_and_update_state_at_beginning_of_format_character@?$standard_base@DV?$stream_output_adapter@D@__crt_stdio_output@@@__crt_stdio_output@@IAE_NXZ 10098740 f i libucrtd:output.obj
 0001:00097760       ?validate_and_update_state_at_beginning_of_format_character@?$standard_base@DV?$string_output_adapter@D@__crt_stdio_output@@@__crt_stdio_output@@IAE_NXZ 10098760 f i libucrtd:output.obj
 0001:00097780       ?validate_and_update_state_at_beginning_of_format_character@?$standard_base@_WV?$stream_output_adapter@_W@__crt_stdio_output@@@__crt_stdio_output@@IAE_NXZ 10098780 f i libucrtd:output.obj
 0001:000977a0       ?validate_and_update_state_at_beginning_of_format_character@?$standard_base@_WV?$string_output_adapter@_W@__crt_stdio_output@@@__crt_stdio_output@@IAE_NXZ 100987a0 f i libucrtd:output.obj
 0001:000977c0       ?validate_and_update_state_at_end_of_format_string@?$format_validation_base@DV?$stream_output_adapter@D@__crt_stdio_output@@@__crt_stdio_output@@IAE_NXZ 100987c0 f i libucrtd:output.obj
 0001:000978a0       ?validate_and_update_state_at_end_of_format_string@?$format_validation_base@DV?$string_output_adapter@D@__crt_stdio_output@@@__crt_stdio_output@@IAE_NXZ 100988a0 f i libucrtd:output.obj
 0001:00097980       ?validate_and_update_state_at_end_of_format_string@?$format_validation_base@_WV?$stream_output_adapter@_W@__crt_stdio_output@@@__crt_stdio_output@@IAE_NXZ 10098980 f i libucrtd:output.obj
 0001:00097a60       ?validate_and_update_state_at_end_of_format_string@?$format_validation_base@_WV?$string_output_adapter@_W@__crt_stdio_output@@@__crt_stdio_output@@IAE_NXZ 10098a60 f i libucrtd:output.obj
 0001:00097b40       ?validate_and_update_state_at_end_of_format_string@?$positional_parameter_base@DV?$stream_output_adapter@D@__crt_stdio_output@@@__crt_stdio_output@@IAE_NXZ 10098b40 f i libucrtd:output.obj
 0001:00097d60       ?validate_and_update_state_at_end_of_format_string@?$positional_parameter_base@DV?$string_output_adapter@D@__crt_stdio_output@@@__crt_stdio_output@@IAE_NXZ 10098d60 f i libucrtd:output.obj
 0001:00097f80       ?validate_and_update_state_at_end_of_format_string@?$positional_parameter_base@_WV?$stream_output_adapter@_W@__crt_stdio_output@@@__crt_stdio_output@@IAE_NXZ 10098f80 f i libucrtd:output.obj
 0001:000981a0       ?validate_and_update_state_at_end_of_format_string@?$positional_parameter_base@_WV?$string_output_adapter@_W@__crt_stdio_output@@@__crt_stdio_output@@IAE_NXZ 100991a0 f i libucrtd:output.obj
 0001:000983c0       ?validate_and_update_state_at_end_of_format_string@?$standard_base@DV?$stream_output_adapter@D@__crt_stdio_output@@@__crt_stdio_output@@IBE_NXZ 100993c0 f i libucrtd:output.obj
 0001:000983e0       ?validate_and_update_state_at_end_of_format_string@?$standard_base@DV?$string_output_adapter@D@__crt_stdio_output@@@__crt_stdio_output@@IBE_NXZ 100993e0 f i libucrtd:output.obj
 0001:00098400       ?validate_and_update_state_at_end_of_format_string@?$standard_base@_WV?$stream_output_adapter@_W@__crt_stdio_output@@@__crt_stdio_output@@IBE_NXZ 10099400 f i libucrtd:output.obj
 0001:00098420       ?validate_and_update_state_at_end_of_format_string@?$standard_base@_WV?$string_output_adapter@_W@__crt_stdio_output@@@__crt_stdio_output@@IBE_NXZ 10099420 f i libucrtd:output.obj
 0001:00098440       ?validate_state_for_type_case_a@?$positional_parameter_base@DV?$stream_output_adapter@D@__crt_stdio_output@@@__crt_stdio_output@@IAE_NXZ 10099440 f i libucrtd:output.obj
 0001:00098590       ?validate_state_for_type_case_a@?$positional_parameter_base@DV?$string_output_adapter@D@__crt_stdio_output@@@__crt_stdio_output@@IAE_NXZ 10099590 f i libucrtd:output.obj
 0001:000986e0       ?validate_state_for_type_case_a@?$positional_parameter_base@_WV?$stream_output_adapter@_W@__crt_stdio_output@@@__crt_stdio_output@@IAE_NXZ 100996e0 f i libucrtd:output.obj
 0001:00098830       ?validate_state_for_type_case_a@?$positional_parameter_base@_WV?$string_output_adapter@_W@__crt_stdio_output@@@__crt_stdio_output@@IAE_NXZ 10099830 f i libucrtd:output.obj
 0001:00098980       ?validate_state_for_type_case_a@?$standard_base@DV?$stream_output_adapter@D@__crt_stdio_output@@@__crt_stdio_output@@IBE_NXZ 10099980 f i libucrtd:output.obj
 0001:000989a0       ?validate_state_for_type_case_a@?$standard_base@DV?$string_output_adapter@D@__crt_stdio_output@@@__crt_stdio_output@@IBE_NXZ 100999a0 f i libucrtd:output.obj
 0001:000989c0       ?validate_state_for_type_case_a@?$standard_base@_WV?$stream_output_adapter@_W@__crt_stdio_output@@@__crt_stdio_output@@IBE_NXZ 100999c0 f i libucrtd:output.obj
 0001:000989e0       ?validate_state_for_type_case_a@?$standard_base@_WV?$string_output_adapter@_W@__crt_stdio_output@@@__crt_stdio_output@@IBE_NXZ 100999e0 f i libucrtd:output.obj
 0001:00098a00       ?validate_stream_is_ansi_if_required@?$__acrt_stdio_char_traits@D@@SA_NQAU_iobuf@@@Z 10099a00 f i libucrtd:output.obj
 0001:00098b80       ?validate_stream_is_ansi_if_required@?$__acrt_stdio_char_traits@_W@@SA_NQAU_iobuf@@@Z 10099b80 f i libucrtd:output.obj
 0001:00098b90       ?wide_character_to_digit@__crt_strtox@@YAH_W@Z 10099b90 f i libucrtd:output.obj
 0001:00098f80       ?wide_null_string@?$output_processor@DV?$stream_output_adapter@D@__crt_stdio_output@@V?$format_validation_base@DV?$stream_output_adapter@D@__crt_stdio_output@@@2@@__crt_stdio_output@@CAPA_WXZ 10099f80 f i libucrtd:output.obj
 0001:00098f90       ?wide_null_string@?$output_processor@DV?$stream_output_adapter@D@__crt_stdio_output@@V?$positional_parameter_base@DV?$stream_output_adapter@D@__crt_stdio_output@@@2@@__crt_stdio_output@@CAPA_WXZ 10099f90 f i libucrtd:output.obj
 0001:00098fa0       ?wide_null_string@?$output_processor@DV?$stream_output_adapter@D@__crt_stdio_output@@V?$standard_base@DV?$stream_output_adapter@D@__crt_stdio_output@@@2@@__crt_stdio_output@@CAPA_WXZ 10099fa0 f i libucrtd:output.obj
 0001:00098fb0       ?wide_null_string@?$output_processor@DV?$string_output_adapter@D@__crt_stdio_output@@V?$format_validation_base@DV?$string_output_adapter@D@__crt_stdio_output@@@2@@__crt_stdio_output@@CAPA_WXZ 10099fb0 f i libucrtd:output.obj
 0001:00098fc0       ?wide_null_string@?$output_processor@DV?$string_output_adapter@D@__crt_stdio_output@@V?$positional_parameter_base@DV?$string_output_adapter@D@__crt_stdio_output@@@2@@__crt_stdio_output@@CAPA_WXZ 10099fc0 f i libucrtd:output.obj
 0001:00098fd0       ?wide_null_string@?$output_processor@DV?$string_output_adapter@D@__crt_stdio_output@@V?$standard_base@DV?$string_output_adapter@D@__crt_stdio_output@@@2@@__crt_stdio_output@@CAPA_WXZ 10099fd0 f i libucrtd:output.obj
 0001:00098fe0       ?wide_null_string@?$output_processor@_WV?$stream_output_adapter@_W@__crt_stdio_output@@V?$format_validation_base@_WV?$stream_output_adapter@_W@__crt_stdio_output@@@2@@__crt_stdio_output@@CAPA_WXZ 10099fe0 f i libucrtd:output.obj
 0001:00098ff0       ?wide_null_string@?$output_processor@_WV?$stream_output_adapter@_W@__crt_stdio_output@@V?$positional_parameter_base@_WV?$stream_output_adapter@_W@__crt_stdio_output@@@2@@__crt_stdio_output@@CAPA_WXZ 10099ff0 f i libucrtd:output.obj
 0001:00099000       ?wide_null_string@?$output_processor@_WV?$stream_output_adapter@_W@__crt_stdio_output@@V?$standard_base@_WV?$stream_output_adapter@_W@__crt_stdio_output@@@2@@__crt_stdio_output@@CAPA_WXZ 1009a000 f i libucrtd:output.obj
 0001:00099010       ?wide_null_string@?$output_processor@_WV?$string_output_adapter@_W@__crt_stdio_output@@V?$format_validation_base@_WV?$string_output_adapter@_W@__crt_stdio_output@@@2@@__crt_stdio_output@@CAPA_WXZ 1009a010 f i libucrtd:output.obj
 0001:00099020       ?wide_null_string@?$output_processor@_WV?$string_output_adapter@_W@__crt_stdio_output@@V?$positional_parameter_base@_WV?$string_output_adapter@_W@__crt_stdio_output@@@2@@__crt_stdio_output@@CAPA_WXZ 1009a020 f i libucrtd:output.obj
 0001:00099030       ?wide_null_string@?$output_processor@_WV?$string_output_adapter@_W@__crt_stdio_output@@V?$standard_base@_WV?$string_output_adapter@_W@__crt_stdio_output@@@2@@__crt_stdio_output@@CAPA_WXZ 1009a030 f i libucrtd:output.obj
 0001:00099040       ?write_character@?$output_adapter_common@DV?$stream_output_adapter@D@__crt_stdio_output@@@__crt_stdio_output@@QBEXDQAHAAV__crt_cached_ptd_host@@@Z 1009a040 f i libucrtd:output.obj
 0001:00099090       ?write_character@?$output_adapter_common@_WV?$stream_output_adapter@_W@__crt_stdio_output@@@__crt_stdio_output@@QBEX_WQAHAAV__crt_cached_ptd_host@@@Z 1009a090 f i libucrtd:output.obj
 0001:000990e0       ?write_character@?$string_output_adapter@D@__crt_stdio_output@@QBE_NDQAHAAV__crt_cached_ptd_host@@@Z 1009a0e0 f i libucrtd:output.obj
 0001:000991a0       ?write_character@?$string_output_adapter@_W@__crt_stdio_output@@QBE_N_WQAHAAV__crt_cached_ptd_host@@@Z 1009a1a0 f i libucrtd:output.obj
 0001:00099260       ?write_character_without_count_update@?$stream_output_adapter@D@__crt_stdio_output@@QBE_NDAAV__crt_cached_ptd_host@@@Z 1009a260 f i libucrtd:output.obj
 0001:000992f0       ?write_character_without_count_update@?$stream_output_adapter@_W@__crt_stdio_output@@QBE_N_WAAV__crt_cached_ptd_host@@@Z 1009a2f0 f i libucrtd:output.obj
 0001:00099380       ?write_stored_string_tchar@?$output_processor@DV?$stream_output_adapter@D@__crt_stdio_output@@V?$format_validation_base@DV?$stream_output_adapter@D@__crt_stdio_output@@@2@@__crt_stdio_output@@AAE_ND@Z 1009a380 f i libucrtd:output.obj
 0001:000994f0       ?write_stored_string_tchar@?$output_processor@DV?$stream_output_adapter@D@__crt_stdio_output@@V?$positional_parameter_base@DV?$stream_output_adapter@D@__crt_stdio_output@@@2@@__crt_stdio_output@@AAE_ND@Z 1009a4f0 f i libucrtd:output.obj
 0001:00099660       ?write_stored_string_tchar@?$output_processor@DV?$stream_output_adapter@D@__crt_stdio_output@@V?$standard_base@DV?$stream_output_adapter@D@__crt_stdio_output@@@2@@__crt_stdio_output@@AAE_ND@Z 1009a660 f i libucrtd:output.obj
 0001:000997d0       ?write_stored_string_tchar@?$output_processor@DV?$string_output_adapter@D@__crt_stdio_output@@V?$format_validation_base@DV?$string_output_adapter@D@__crt_stdio_output@@@2@@__crt_stdio_output@@AAE_ND@Z 1009a7d0 f i libucrtd:output.obj
 0001:00099940       ?write_stored_string_tchar@?$output_processor@DV?$string_output_adapter@D@__crt_stdio_output@@V?$positional_parameter_base@DV?$string_output_adapter@D@__crt_stdio_output@@@2@@__crt_stdio_output@@AAE_ND@Z 1009a940 f i libucrtd:output.obj
 0001:00099ab0       ?write_stored_string_tchar@?$output_processor@DV?$string_output_adapter@D@__crt_stdio_output@@V?$standard_base@DV?$string_output_adapter@D@__crt_stdio_output@@@2@@__crt_stdio_output@@AAE_ND@Z 1009aab0 f i libucrtd:output.obj
 0001:00099c20       ?write_stored_string_tchar@?$output_processor@_WV?$stream_output_adapter@_W@__crt_stdio_output@@V?$format_validation_base@_WV?$stream_output_adapter@_W@__crt_stdio_output@@@2@@__crt_stdio_output@@AAE_N_W@Z 1009ac20 f i libucrtd:output.obj
 0001:00099d70       ?write_stored_string_tchar@?$output_processor@_WV?$stream_output_adapter@_W@__crt_stdio_output@@V?$positional_parameter_base@_WV?$stream_output_adapter@_W@__crt_stdio_output@@@2@@__crt_stdio_output@@AAE_N_W@Z 1009ad70 f i libucrtd:output.obj
 0001:00099ec0       ?write_stored_string_tchar@?$output_processor@_WV?$stream_output_adapter@_W@__crt_stdio_output@@V?$standard_base@_WV?$stream_output_adapter@_W@__crt_stdio_output@@@2@@__crt_stdio_output@@AAE_N_W@Z 1009aec0 f i libucrtd:output.obj
 0001:0009a010       ?write_stored_string_tchar@?$output_processor@_WV?$string_output_adapter@_W@__crt_stdio_output@@V?$format_validation_base@_WV?$string_output_adapter@_W@__crt_stdio_output@@@2@@__crt_stdio_output@@AAE_N_W@Z 1009b010 f i libucrtd:output.obj
 0001:0009a160       ?write_stored_string_tchar@?$output_processor@_WV?$string_output_adapter@_W@__crt_stdio_output@@V?$positional_parameter_base@_WV?$string_output_adapter@_W@__crt_stdio_output@@@2@@__crt_stdio_output@@AAE_N_W@Z 1009b160 f i libucrtd:output.obj
 0001:0009a2b0       ?write_stored_string_tchar@?$output_processor@_WV?$string_output_adapter@_W@__crt_stdio_output@@V?$standard_base@_WV?$string_output_adapter@_W@__crt_stdio_output@@@2@@__crt_stdio_output@@AAE_N_W@Z 1009b2b0 f i libucrtd:output.obj
 0001:0009a400       ?write_string@?$stream_output_adapter@D@__crt_stdio_output@@QBEXQBDHQAHAAV__crt_cached_ptd_host@@@Z 1009b400 f i libucrtd:output.obj
 0001:0009a470       ?write_string@?$stream_output_adapter@_W@__crt_stdio_output@@QBEXQB_WHQAHAAV__crt_cached_ptd_host@@@Z 1009b470 f i libucrtd:output.obj
 0001:0009a4e0       ?write_string@?$string_output_adapter@D@__crt_stdio_output@@QBEXQBDHQAHAAV__crt_cached_ptd_host@@@Z 1009b4e0 f i libucrtd:output.obj
 0001:0009a620       ?write_string@?$string_output_adapter@_W@__crt_stdio_output@@QBEXQB_WHQAHAAV__crt_cached_ptd_host@@@Z 1009b620 f i libucrtd:output.obj
 0001:0009a770       ?write_string_impl@?$output_adapter_common@DV?$stream_output_adapter@D@__crt_stdio_output@@@__crt_stdio_output@@IBEXQBDHQAHAAV__crt_cached_ptd_host@@@Z 1009b770 f i libucrtd:output.obj
 0001:0009a860       ?write_string_impl@?$output_adapter_common@_WV?$stream_output_adapter@_W@__crt_stdio_output@@@__crt_stdio_output@@IBEXQB_WHQAHAAV__crt_cached_ptd_host@@@Z 1009b860 f i libucrtd:output.obj
 0001:0009a950       ___acrt_disable_global_locale_sync 1009b950 f i libucrtd:output.obj
 0001:0009a980       ___acrt_enable_global_locale_sync 1009b980 f i libucrtd:output.obj
 0001:0009a9b0       ___acrt_isleadbyte_l_noupdate 1009b9b0 f i libucrtd:output.obj
 0001:0009a9e0       ___acrt_locale_changed     1009b9e0 f i libucrtd:output.obj
 0001:0009aa10       ___acrt_locale_get_ctype_array_value 1009ba10 f i libucrtd:output.obj
 0001:0009aa40       ___ascii_iswalpha          1009ba40 f i libucrtd:output.obj
 0001:0009aa90       ___ascii_toupper           1009ba90 f i libucrtd:output.obj
 0001:0009aac0       ___ascii_towupper          1009bac0 f i libucrtd:output.obj
 0001:0009aae0       ___stdio_common_vfprintf   1009bae0 f   libucrtd:output.obj
 0001:0009ab40       ___stdio_common_vfprintf_p 1009bb40 f   libucrtd:output.obj
 0001:0009aba0       ___stdio_common_vfprintf_s 1009bba0 f   libucrtd:output.obj
 0001:0009ac00       ___stdio_common_vfwprintf  1009bc00 f   libucrtd:output.obj
 0001:0009ac60       ___stdio_common_vfwprintf_p 1009bc60 f   libucrtd:output.obj
 0001:0009acc0       ___stdio_common_vfwprintf_s 1009bcc0 f   libucrtd:output.obj
 0001:0009ad20       ___stdio_common_vsnprintf_s 1009bd20 f   libucrtd:output.obj
 0001:0009ad90       ___stdio_common_vsnwprintf_s 1009bd90 f   libucrtd:output.obj
 0001:0009ae00       ___stdio_common_vsprintf   1009be00 f   libucrtd:output.obj
 0001:0009ae60       ___stdio_common_vsprintf_p 1009be60 f   libucrtd:output.obj
 0001:0009aec0       ___stdio_common_vsprintf_s 1009bec0 f   libucrtd:output.obj
 0001:0009af20       ___stdio_common_vswprintf  1009bf20 f   libucrtd:output.obj
 0001:0009af80       ___stdio_common_vswprintf_p 1009bf80 f   libucrtd:output.obj
 0001:0009afe0       ___stdio_common_vswprintf_s 1009bfe0 f   libucrtd:output.obj
 0001:0009b040       __ctype_fast_check_internal 1009c040 f i libucrtd:output.obj
 0001:0009b060       __isdigit_fast_internal    1009c060 f i libucrtd:output.obj
 0001:0009b080       __tolower_fast_internal    1009c080 f i libucrtd:output.obj
 0001:0009b0a0       _cos                       1009c0a0 f   libucrtd:cos.obj
 0001:0009b100       _sin                       1009c100 f   libucrtd:sin.obj
 0001:0009b160       _atan2                     1009c160 f   libucrtd:atan2.obj
 0001:0009b170       _floor                     1009c170 f   libucrtd:floor_pentium4.obj
 0001:0009b1b0       __floor_pentium4           1009c1b0 f   libucrtd:floor_pentium4.obj
 0001:0009b2b0       ?should_round_up@__crt_strtox@@YA_N_N000@Z 1009c2b0 f i libucrtd:fpexcept.obj
 0001:0009b3e0       __errcode                  1009c3e0 f   libucrtd:fpexcept.obj
 0001:0009b470       __except1                  1009c470 f   libucrtd:fpexcept.obj
 0001:0009b5b0       __except2                  1009c5b0 f   libucrtd:fpexcept.obj
 0001:0009b760       __handle_exc               1009c760 f   libucrtd:fpexcept.obj
 0001:0009bbd0       __handle_qnan2             1009cbd0 f   libucrtd:fpexcept.obj
 0001:0009bbf0       __raise_exc                1009cbf0 f   libucrtd:fpexcept.obj
 0001:0009bc30       __raise_exc_ex             1009cc30 f   libucrtd:fpexcept.obj
 0001:0009c310       __raise_excf               1009d310 f   libucrtd:fpexcept.obj
 0001:0009c350       __set_errno_from_matherr   1009d350 f   libucrtd:fpexcept.obj
 0001:0009c3a0       __umatherr                 1009d3a0 f   libucrtd:fpexcept.obj
 0001:0009c470       __initterm                 1009d470 f   libucrtd:initterm.obj
 0001:0009c4d0       __initterm_e               1009d4d0 f   libucrtd:initterm.obj
 0001:0009c540       ??$?B$$A6AHI@Z@__crt_fast_encoded_nullptr_t@@QBEP6AHI@ZXZ 1009d540 f i libucrtd:new_handler.obj
 0001:0009c560       ??$__crt_fast_decode_pointer@P6AHI@Z@@YAP6AHI@ZQ6AHI@Z@Z 1009d560 f i libucrtd:new_handler.obj
 0001:0009c5a0       ??$__crt_fast_encode_pointer@P6AHI@Z@@YAP6AHI@ZQ6AHI@Z@Z 1009d5a0 f i libucrtd:new_handler.obj
 0001:0009c5e0       ?__crt_fast_encode_pointer@@YA?AU__crt_fast_encoded_nullptr_t@@$$T@Z 1009d5e0 f i libucrtd:new_handler.obj
 0001:0009c5f0       ?__crt_rotate_pointer_value@@YAIIH@Z 1009d5f0 f i libucrtd:new_handler.obj
 0001:0009c610       ?_set_new_handler@@YAP6AHI@ZH@Z 1009d610 f   libucrtd:new_handler.obj
 0001:0009c680       ?get_current_state_index@__crt_state_management@@YAIXZ 1009d680 f i libucrtd:new_handler.obj
 0001:0009c690       ?initialize@?$dual_state_global@P6AHI@Z@__crt_state_management@@QAEXQ6AHI@Z@Z 1009d690 f i libucrtd:new_handler.obj
 0001:0009c6e0       ?value@?$dual_state_global@P6AHI@Z@__crt_state_management@@QAEAAP6AHI@ZXZ 1009d6e0 f i libucrtd:new_handler.obj
 0001:0009c700       ___acrt_initialize_new_handler 1009d700 f   libucrtd:new_handler.obj
 0001:0009c720       __callnewh                 1009d720 f   libucrtd:new_handler.obj
 0001:0009c780       __query_new_handler        1009d780 f   libucrtd:new_handler.obj
 0001:0009c840       __set_new_handler          1009d840 f   libucrtd:new_handler.obj
 0001:0009c920       _malloc                    1009d920 f   libucrtd:malloc.obj
 0001:0009c940       ??0_LocaleUpdate@@QAE@QAU__crt_locale_pointers@@@Z 1009d940 f i libucrtd:debug_heap.obj
 0001:0009ca50       ??1_LocaleUpdate@@QAE@XZ   1009da50 f i libucrtd:debug_heap.obj
 0001:0009ca90       ?GetLocaleT@_LocaleUpdate@@QAEPAU__crt_locale_pointers@@XZ 1009da90 f i libucrtd:debug_heap.obj
 0001:0009eb60       __CrtCheckMemory           1009fb60 f   libucrtd:debug_heap.obj
 0001:0009ed50       __CrtDoForAllClientObjects 1009fd50 f   libucrtd:debug_heap.obj
 0001:0009ef00       __CrtDumpMemoryLeaks       1009ff00 f   libucrtd:debug_heap.obj
 0001:0009efc0       __CrtGetAllocHook          1009ffc0 f   libucrtd:debug_heap.obj
 0001:0009efd0       __CrtGetDumpClient         1009ffd0 f   libucrtd:debug_heap.obj
 0001:0009efe0       __CrtIsMemoryBlock         1009ffe0 f   libucrtd:debug_heap.obj
 0001:0009f180       __CrtIsValidHeapPointer    100a0180 f   libucrtd:debug_heap.obj
 0001:0009f1d0       __CrtIsValidPointer        100a01d0 f   libucrtd:debug_heap.obj
 0001:0009f200       __CrtMemCheckpoint         100a0200 f   libucrtd:debug_heap.obj
 0001:0009f4c0       __CrtMemDifference         100a04c0 f   libucrtd:debug_heap.obj
 0001:0009f7d0       __CrtMemDumpAllObjectsSince 100a07d0 f   libucrtd:debug_heap.obj
 0001:0009f890       __CrtMemDumpStatistics     100a0890 f   libucrtd:debug_heap.obj
 0001:0009fa00       __CrtReportBlockType       100a0a00 f   libucrtd:debug_heap.obj
 0001:0009fa40       __CrtSetAllocHook          100a0a40 f   libucrtd:debug_heap.obj
 0001:0009fa70       __CrtSetBreakAlloc         100a0a70 f   libucrtd:debug_heap.obj
 0001:0009faa0       __CrtSetDbgBlockType       100a0aa0 f   libucrtd:debug_heap.obj
 0001:0009fbb0       __CrtSetDbgFlag            100a0bb0 f   libucrtd:debug_heap.obj
 0001:0009fd80       __CrtSetDumpClient         100a0d80 f   libucrtd:debug_heap.obj
 0001:0009fdb0       ___acrt_get_locale_data_prefix 100a0db0 f i libucrtd:debug_heap.obj
 0001:0009fdd0       ___p__crtBreakAlloc        100a0dd0 f   libucrtd:debug_heap.obj
 0001:0009fde0       ___p__crtDbgFlag           100a0de0 f   libucrtd:debug_heap.obj
 0001:0009fdf0       __aligned_free_dbg         100a0df0 f   libucrtd:debug_heap.obj
 0001:0009fed0       __aligned_malloc_dbg       100a0ed0 f   libucrtd:debug_heap.obj
 0001:0009ff00       __aligned_msize_dbg        100a0f00 f   libucrtd:debug_heap.obj
 0001:000a0070       __aligned_offset_malloc_dbg 100a1070 f   libucrtd:debug_heap.obj
 0001:000a02c0       __aligned_offset_realloc_dbg 100a12c0 f   libucrtd:debug_heap.obj
 0001:000a0690       __aligned_offset_recalloc_dbg 100a1690 f   libucrtd:debug_heap.obj
 0001:000a0780       __aligned_realloc_dbg      100a1780 f   libucrtd:debug_heap.obj
 0001:000a07b0       __aligned_recalloc_dbg     100a17b0 f   libucrtd:debug_heap.obj
 0001:000a07f0       __calloc_dbg               100a17f0 f   libucrtd:debug_heap.obj
 0001:000a0880       __chvalidchk_l             100a1880 f i libucrtd:debug_heap.obj
 0001:000a08b0       __expand_dbg               100a18b0 f   libucrtd:debug_heap.obj
 0001:000a0a30       __free_dbg                 100a1a30 f   libucrtd:debug_heap.obj
 0001:000a0b10       __invoke_watson_if_oneof   100a1b10 f i libucrtd:debug_heap.obj
 0001:000a0b60       __ischartype_l             100a1b60 f i libucrtd:debug_heap.obj
 0001:000a0c00       __malloc_dbg               100a1c00 f   libucrtd:debug_heap.obj
 0001:000a0c30       __msize_dbg                100a1c30 f   libucrtd:debug_heap.obj
 0001:000a0e20       __realloc_dbg              100a1e20 f   libucrtd:debug_heap.obj
 0001:000a0ef0       __recalloc_dbg             100a1ef0 f   libucrtd:debug_heap.obj
 0001:000a1030       __seh_filter_dll           100a2030 f   libucrtd:exception_filter.obj
 0001:000a1060       __seh_filter_exe           100a2060 f   libucrtd:exception_filter.obj
 0001:000a1300       ??$?B$$A6GXPAXK0@Z@__crt_fast_encoded_nullptr_t@@QBEP6GXPAXK0@ZXZ 100a2300 f i libucrtd:exit.obj
 0001:000a1450       ??$__crt_fast_decode_pointer@P6GXPAXK0@Z@@YAP6GXPAXK0@ZQ6GX0K0@Z@Z 100a2450 f i libucrtd:exit.obj
 0001:000a1490       ??$__crt_fast_encode_pointer@P6GXPAXK0@Z@@YAP6GXPAXK0@ZQ6GX0K0@Z@Z 100a2490 f i libucrtd:exit.obj
 0001:000a14d0       ??$__crt_get_proc_address@P6GXI@Z@@YAP6GXI@ZQAUHINSTANCE__@@QBD@Z 100a24d0 f i libucrtd:exit.obj
 0001:000a1590       ??0?$__crt_unique_handle_t@U__crt_hmodule_traits@@@@QAE@QAUHINSTANCE__@@@Z 100a2590 f i libucrtd:exit.obj
 0001:000a15b0       ??1?$__crt_unique_handle_t@U__crt_hmodule_traits@@@@QAE@XZ 100a25b0 f i libucrtd:exit.obj
 0001:000a17f0       ?__acrt_select_exit_lock@@YA?AW4__acrt_lock_id@@XZ 100a27f0 f i libucrtd:exit.obj
 0001:000a1820       ?close@?$__crt_unique_handle_t@U__crt_hmodule_traits@@@@QAEXXZ 100a2820 f i libucrtd:exit.obj
 0001:000a1860       ?close@__crt_hmodule_traits@@SA_NPAUHINSTANCE__@@@Z 100a2860 f i libucrtd:exit.obj
 0001:000a19d0       ?get@?$__crt_unique_handle_t@U__crt_hmodule_traits@@@@QBEPAUHINSTANCE__@@XZ 100a29d0 f i libucrtd:exit.obj
 0001:000a19f0       ?get_address_of@?$__crt_unique_handle_t@U__crt_hmodule_traits@@@@QAEPAPAUHINSTANCE__@@XZ 100a29f0 f i libucrtd:exit.obj
 0001:000a1a10       ?get_invalid_value@__crt_hmodule_traits@@SAPAUHINSTANCE__@@XZ 100a2a10 f i libucrtd:exit.obj
 0001:000a1bf0       __Exit                     100a2bf0 f   libucrtd:exit.obj
 0001:000a1c10       ___acrt_initialize_thread_local_exit_callback 100a2c10 f   libucrtd:exit.obj
 0001:000a1c30       __c_exit                   100a2c30 f   libucrtd:exit.obj
 0001:000a1c50       __cexit                    100a2c50 f   libucrtd:exit.obj
 0001:000a1c70       __exit                     100a2c70 f   libucrtd:exit.obj
 0001:000a1c90       __is_c_termination_complete 100a2c90 f   libucrtd:exit.obj
 0001:000a1cb0       __register_thread_local_exe_atexit_callback 100a2cb0 f   libucrtd:exit.obj
 0001:000a1d00       _exit                      100a2d00 f   libucrtd:exit.obj
 0001:000a1d20       _quick_exit                100a2d20 f   libucrtd:exit.obj
 0001:000a1d40       ??$?RE@__crt_internal_free_policy@@QBEXQBE@Z 100a2d40 f i libucrtd:argv_parsing.obj
 0001:000a1d70       ??$?RPAD@__crt_internal_free_policy@@QBEXQBQAD@Z 100a2d70 f i libucrtd:argv_parsing.obj
 0001:000a1da0       ??$?RPA_W@__crt_internal_free_policy@@QBEXQBQA_W@Z 100a2da0 f i libucrtd:argv_parsing.obj
 0001:000a24f0       ??$get_module_file_name@$$TAAY0BAF@DH@?$__crt_char_traits@D@@SAK$$QA$$TAAY0BAF@D$$QAH@Z 100a34f0 f i libucrtd:argv_parsing.obj
 0001:000a2520       ??$get_module_file_name@$$TAAY0BAF@_WH@?$__crt_char_traits@_W@@SAK$$QA$$TAAY0BAF@_W$$QAH@Z 100a3520 f i libucrtd:argv_parsing.obj
 0001:000a2e30       ??$set_program_name@PAD@?$__crt_char_traits@D@@SAX$$QAPAD@Z 100a3e30 f i libucrtd:argv_parsing.obj
 0001:000a2e50       ??$set_program_name@PA_W@?$__crt_char_traits@_W@@SAX$$QAPA_W@Z 100a3e50 f i libucrtd:argv_parsing.obj
 0001:000a2eb0       ??0?$__crt_unique_heap_ptr@EU__crt_internal_free_policy@@@@QAE@QAE@Z 100a3eb0 f i libucrtd:argv_parsing.obj
 0001:000a2ed0       ??0?$__crt_unique_heap_ptr@PADU__crt_internal_free_policy@@@@QAE@QAPAD@Z 100a3ed0 f i libucrtd:argv_parsing.obj
 0001:000a2ef0       ??0?$__crt_unique_heap_ptr@PA_WU__crt_internal_free_policy@@@@QAE@QAPA_W@Z 100a3ef0 f i libucrtd:argv_parsing.obj
 0001:000a2f10       ??1?$__crt_unique_heap_ptr@EU__crt_internal_free_policy@@@@QAE@XZ 100a3f10 f i libucrtd:argv_parsing.obj
 0001:000a2f30       ??1?$__crt_unique_heap_ptr@PADU__crt_internal_free_policy@@@@QAE@XZ 100a3f30 f i libucrtd:argv_parsing.obj
 0001:000a2f50       ??1?$__crt_unique_heap_ptr@PA_WU__crt_internal_free_policy@@@@QAE@XZ 100a3f50 f i libucrtd:argv_parsing.obj
 0001:000a2f70       ??B?$__crt_unique_heap_ptr@EU__crt_internal_free_policy@@@@QBE_NXZ 100a3f70 f i libucrtd:argv_parsing.obj
 0001:000a3050       ?detach@?$__crt_unique_heap_ptr@EU__crt_internal_free_policy@@@@QAEPAEXZ 100a4050 f i libucrtd:argv_parsing.obj
 0001:000a3080       ?detach@?$__crt_unique_heap_ptr@PADU__crt_internal_free_policy@@@@QAEPAPADXZ 100a4080 f i libucrtd:argv_parsing.obj
 0001:000a30b0       ?detach@?$__crt_unique_heap_ptr@PA_WU__crt_internal_free_policy@@@@QAEPAPA_WXZ 100a40b0 f i libucrtd:argv_parsing.obj
 0001:000a3140       ?get@?$__crt_unique_heap_ptr@EU__crt_internal_free_policy@@@@QBEPAEXZ 100a4140 f i libucrtd:argv_parsing.obj
 0001:000a3160       ?get@?$__crt_unique_heap_ptr@PADU__crt_internal_free_policy@@@@QBEPAPADXZ 100a4160 f i libucrtd:argv_parsing.obj
 0001:000a3180       ?get@?$__crt_unique_heap_ptr@PA_WU__crt_internal_free_policy@@@@QBEPAPA_WXZ 100a4180 f i libucrtd:argv_parsing.obj
 0001:000a31a0       ?get_address_of@?$__crt_unique_heap_ptr@PADU__crt_internal_free_policy@@@@QAEPAPAPADXZ 100a41a0 f i libucrtd:argv_parsing.obj
 0001:000a31c0       ?get_address_of@?$__crt_unique_heap_ptr@PA_WU__crt_internal_free_policy@@@@QAEPAPAPA_WXZ 100a41c0 f i libucrtd:argv_parsing.obj
 0001:000a3220       ?is_valid@?$__crt_unique_heap_ptr@EU__crt_internal_free_policy@@@@QBE_NXZ 100a4220 f i libucrtd:argv_parsing.obj
 0001:000a3260       ?release@?$__crt_unique_heap_ptr@EU__crt_internal_free_policy@@@@QAEXXZ 100a4260 f i libucrtd:argv_parsing.obj
 0001:000a3290       ?release@?$__crt_unique_heap_ptr@PADU__crt_internal_free_policy@@@@QAEXXZ 100a4290 f i libucrtd:argv_parsing.obj
 0001:000a32c0       ?release@?$__crt_unique_heap_ptr@PA_WU__crt_internal_free_policy@@@@QAEXXZ 100a42c0 f i libucrtd:argv_parsing.obj
 0001:000a3340       ___acrt_allocate_buffer_for_argv 100a4340 f   libucrtd:argv_parsing.obj
 0001:000a3430       __configure_narrow_argv    100a4430 f   libucrtd:argv_parsing.obj
 0001:000a3450       __configure_wide_argv      100a4450 f   libucrtd:argv_parsing.obj
 0001:000a3470       __set_pgmptr               100a4470 f i libucrtd:argv_parsing.obj
 0001:000a3490       __set_wpgmptr              100a4490 f i libucrtd:argv_parsing.obj
 0001:000a34b0       ??$?R_W@__crt_internal_free_policy@@QBEXQB_W@Z 100a44b0 f i libucrtd:environment_initialization.obj
 0001:000a3e80       ??$get_environment_from_os@$$V@?$__crt_char_traits@D@@SAPADXZ 100a4e80 f i libucrtd:environment_initialization.obj
 0001:000a3e90       ??$get_environment_from_os@$$V@?$__crt_char_traits@_W@@SAPA_WXZ 100a4e90 f i libucrtd:environment_initialization.obj
 0001:000a4200       ??$set_variable_in_environment_nolock@PADH@?$__crt_char_traits@D@@SAH$$QAPAD$$QAH@Z 100a5200 f i libucrtd:environment_initialization.obj
 0001:000a4230       ??$set_variable_in_environment_nolock@PA_WH@?$__crt_char_traits@_W@@SAH$$QAPA_W$$QAH@Z 100a5230 f i libucrtd:environment_initialization.obj
 0001:000a4260       ??$tcscpy_s@PADABIAAPAD@?$__crt_char_traits@D@@SAH$$QAPADABIAAPAD@Z 100a5260 f i libucrtd:environment_initialization.obj
 0001:000a4290       ??$tcscpy_s@PA_WABIAAPA_W@?$__crt_char_traits@_W@@SAH$$QAPA_WABIAAPA_W@Z 100a5290 f i libucrtd:environment_initialization.obj
 0001:000a42c0       ??$tcslen@AAPAD@?$__crt_char_traits@D@@SAIAAPAD@Z 100a52c0 f i libucrtd:environment_initialization.obj
 0001:000a42e0       ??$tcslen@AAPA_W@?$__crt_char_traits@_W@@SAIAAPA_W@Z 100a52e0 f i libucrtd:environment_initialization.obj
 0001:000a4300       ??$uninitialize@A6AXAAPAPAD@_E@?$dual_state_global@PAPAD@__crt_state_management@@QAEXA6AXAAPAPAD@_E@Z 100a5300 f i libucrtd:environment_initialization.obj
 0001:000a43a0       ??$uninitialize@A6AXAAPAPA_W@_E@?$dual_state_global@PAPA_W@__crt_state_management@@QAEXA6AXAAPAPA_W@_E@Z 100a53a0 f i libucrtd:environment_initialization.obj
 0001:000a44c0       ??0?$__crt_unique_heap_ptr@_WU__crt_internal_free_policy@@@@QAE@QA_W@Z 100a54c0 f i libucrtd:environment_initialization.obj
 0001:000a44e0       ??1?$__crt_unique_heap_ptr@_WU__crt_internal_free_policy@@@@QAE@XZ 100a54e0 f i libucrtd:environment_initialization.obj
 0001:000a4500       ??B?$__crt_unique_heap_ptr@PADU__crt_internal_free_policy@@@@QBE_NXZ 100a5500 f i libucrtd:environment_initialization.obj
 0001:000a4520       ??B?$__crt_unique_heap_ptr@PA_WU__crt_internal_free_policy@@@@QBE_NXZ 100a5520 f i libucrtd:environment_initialization.obj
 0001:000a4540       ??B?$__crt_unique_heap_ptr@_WU__crt_internal_free_policy@@@@QBE_NXZ 100a5540 f i libucrtd:environment_initialization.obj
 0001:000a4560       ?__crt_compute_required_transform_buffer_count@@YAIIQBD@Z 100a5560 f i libucrtd:environment_initialization.obj
 0001:000a4590       ?__crt_compute_required_transform_buffer_count@@YAIIQB_W@Z 100a5590 f i libucrtd:environment_initialization.obj
 0001:000a45c0       ?__crt_transform_string@@YAIIQBDQA_WI@Z 100a55c0 f i libucrtd:environment_initialization.obj
 0001:000a4600       ?__crt_transform_string@@YAIIQB_WQADI@Z 100a5600 f i libucrtd:environment_initialization.obj
 0001:000a4640       ?detach@?$__crt_unique_heap_ptr@DU__crt_internal_free_policy@@@@QAEPADXZ 100a5640 f i libucrtd:environment_initialization.obj
 0001:000a4670       ?detach@?$__crt_unique_heap_ptr@_WU__crt_internal_free_policy@@@@QAEPA_WXZ 100a5670 f i libucrtd:environment_initialization.obj
 0001:000a46a0       ?get@?$__crt_unique_heap_ptr@_WU__crt_internal_free_policy@@@@QBEPA_WXZ 100a56a0 f i libucrtd:environment_initialization.obj
 0001:000a4740       ?initialize@?$dual_state_global@PAPAD@__crt_state_management@@QAEXQAPAD@Z 100a5740 f i libucrtd:environment_initialization.obj
 0001:000a4790       ?initialize@?$dual_state_global@PAPA_W@__crt_state_management@@QAEXQAPA_W@Z 100a5790 f i libucrtd:environment_initialization.obj
 0001:000a47e0       ?is_valid@?$__crt_unique_heap_ptr@PADU__crt_internal_free_policy@@@@QBE_NXZ 100a57e0 f i libucrtd:environment_initialization.obj
 0001:000a4820       ?is_valid@?$__crt_unique_heap_ptr@PA_WU__crt_internal_free_policy@@@@QBE_NXZ 100a5820 f i libucrtd:environment_initialization.obj
 0001:000a4860       ?is_valid@?$__crt_unique_heap_ptr@_WU__crt_internal_free_policy@@@@QBE_NXZ 100a5860 f i libucrtd:environment_initialization.obj
 0001:000a48c0       ?release@?$__crt_unique_heap_ptr@_WU__crt_internal_free_policy@@@@QAEXXZ 100a58c0 f i libucrtd:environment_initialization.obj
 0001:000a48f0       ?value@?$dual_state_global@PAPAD@__crt_state_management@@QAEAAPAPADXZ 100a58f0 f i libucrtd:environment_initialization.obj
 0001:000a4910       ?value@?$dual_state_global@PAPA_W@__crt_state_management@@QAEAAPAPA_WXZ 100a5910 f i libucrtd:environment_initialization.obj
 0001:000a4930       ___dcrt_get_or_create_narrow_environment_nolock 100a5930 f   libucrtd:environment_initialization.obj
 0001:000a4940       ___dcrt_get_or_create_wide_environment_nolock 100a5940 f   libucrtd:environment_initialization.obj
 0001:000a4950       ___dcrt_uninitialize_environments_nolock 100a5950 f   libucrtd:environment_initialization.obj
 0001:000a49b0       ___p__environ              100a59b0 f   libucrtd:environment_initialization.obj
 0001:000a49d0       ___p__wenviron             100a59d0 f   libucrtd:environment_initialization.obj
 0001:000a49f0       __get_initial_narrow_environment 100a59f0 f   libucrtd:environment_initialization.obj
 0001:000a4a00       __get_initial_wide_environment 100a5a00 f   libucrtd:environment_initialization.obj
 0001:000a4a10       __initialize_narrow_environment 100a5a10 f   libucrtd:environment_initialization.obj
 0001:000a4a20       __initialize_wide_environment 100a5a20 f   libucrtd:environment_initialization.obj
 0001:000a4a30       __invoke_watson_if_error   100a5a30 f i libucrtd:environment_initialization.obj
 0001:000a4a70       ??$?B$$A6AXXZ@__crt_fast_encoded_nullptr_t@@QBEP6AXXZXZ 100a5a70 f i libucrtd:onexit.obj
 0001:000a4a90       ??$?BP6AXXZ@__crt_fast_encoded_nullptr_t@@QBEPAP6AXXZXZ 100a5a90 f i libucrtd:onexit.obj
 0001:000a4ab0       ??$?RP6AXXZ@__crt_internal_free_policy@@QBEXQBQ6AXXZ@Z 100a5ab0 f i libucrtd:onexit.obj
 0001:000a4d60       ??$__crt_fast_decode_pointer@P6AXXZ@@YAP6AXXZQ6AXXZ@Z 100a5d60 f i libucrtd:onexit.obj
 0001:000a4da0       ??$__crt_fast_decode_pointer@PAP6AXXZ@@YAPAP6AXXZQAP6AXXZ@Z 100a5da0 f i libucrtd:onexit.obj
 0001:000a4de0       ??$__crt_fast_encode_pointer@P6AHXZ@@YAP6AHXZQ6AHXZ@Z 100a5de0 f i libucrtd:onexit.obj
 0001:000a4e20       ??$__crt_fast_encode_pointer@P6AXXZ@@YAP6AXXZQ6AXXZ@Z 100a5e20 f i libucrtd:onexit.obj
 0001:000a4e60       ??$__crt_fast_encode_pointer@PAP6AXXZ@@YAPAP6AXXZQAP6AXXZ@Z 100a5e60 f i libucrtd:onexit.obj
 0001:000a4fb0       ??0?$__crt_unique_heap_ptr@P6AXXZU__crt_internal_free_policy@@@@QAE@QAP6AXXZ@Z 100a5fb0 f i libucrtd:onexit.obj
 0001:000a4fd0       ??1?$__crt_unique_heap_ptr@P6AXXZU__crt_internal_free_policy@@@@QAE@XZ 100a5fd0 f i libucrtd:onexit.obj
 0001:000a4ff0       ??1scoped_global_state_reset@__crt_state_management@@QAE@XZ 100a5ff0 f i libucrtd:onexit.obj
 0001:000a55a0       ?detach@?$__crt_unique_heap_ptr@P6AXXZU__crt_internal_free_policy@@@@QAEPAP6AXXZXZ 100a65a0 f i libucrtd:onexit.obj
 0001:000a55d0       ?release@?$__crt_unique_heap_ptr@P6AXXZU__crt_internal_free_policy@@@@QAEXXZ 100a65d0 f i libucrtd:onexit.obj
 0001:000a5600       __crt_at_quick_exit        100a6600 f   libucrtd:onexit.obj
 0001:000a5620       __crt_atexit               100a6620 f   libucrtd:onexit.obj
 0001:000a5640       __execute_onexit_table     100a6640 f   libucrtd:onexit.obj
 0001:000a5680       __initialize_onexit_table  100a6680 f   libucrtd:onexit.obj
 0001:000a5700       __register_onexit_function 100a6700 f   libucrtd:onexit.obj
 0001:000a5990       ??$?BX@__crt_fast_encoded_nullptr_t@@QBEPAXXZ 100a6990 f i libucrtd:initialization.obj
 0001:000a59b0       ??$__crt_fast_encode_pointer@PAX@@YAPAXQAX@Z 100a69b0 f i libucrtd:initialization.obj
 0001:000a5ae0       ?initialize@?$dual_state_global@PAU__crt_locale_data@@@__crt_state_management@@QAEXQAU__crt_locale_data@@@Z 100a6ae0 f i libucrtd:initialization.obj
 0001:000a5b30       ___acrt_initialize         100a6b30 f   libucrtd:initialization.obj
 0001:000a5b50       ___acrt_thread_attach      100a6b50 f   libucrtd:initialization.obj
 0001:000a5b70       ___acrt_thread_detach      100a6b70 f   libucrtd:initialization.obj
 0001:000a5b90       ___acrt_uninitialize       100a6b90 f   libucrtd:initialization.obj
 0001:000a5bb0       ___acrt_uninitialize_critical 100a6bb0 f   libucrtd:initialization.obj
 0001:000a5c10       __get_terminate            100a6c10 f   libucrtd:terminate.obj
 0001:000a5c30       _set_terminate             100a6c30 f   libucrtd:terminate.obj
 0001:000a5c70       _terminate                 100a6c70 f   libucrtd:terminate.obj
 0001:000a6100       _strcpy_s                  100a7100 f   libucrtd:strcpy_s.obj
 0001:000a6130       _strlen                    100a7130 f   libucrtd:strlen.obj
 0001:000a61e0       __set_abort_behavior       100a71e0 f   libucrtd:abort.obj
 0001:000a6220       _abort                     100a7220 f   libucrtd:abort.obj
 0001:000a62b0       ??$?RU?$__crt_report_hook_node@D@@@__crt_internal_free_policy@@QBEXQBU?$__crt_report_hook_node@D@@@Z 100a72b0 f i libucrtd:dbgrpt.obj
 0001:000a62e0       ??$?RU?$__crt_report_hook_node@_W@@@__crt_internal_free_policy@@QBEXQBU?$__crt_report_hook_node@_W@@@Z 100a72e0 f i libucrtd:dbgrpt.obj
 0001:000a7580       ??$get_module_file_name@AAPAUHINSTANCE__@@AAY0BAF@DK@?$__crt_char_traits@D@@SAKAAPAUHINSTANCE__@@AAY0BAF@D$$QAK@Z 100a8580 f i libucrtd:dbgrpt.obj
 0001:000a75b0       ??$get_module_file_name@AAPAUHINSTANCE__@@AAY0BAF@_WK@?$__crt_char_traits@_W@@SAKAAPAUHINSTANCE__@@AAY0BAF@_W$$QAK@Z 100a85b0 f i libucrtd:dbgrpt.obj
 0001:000a75e0       ??$tcscpy_s@AAY0BAF@DIPBD@?$__crt_char_traits@D@@SAHAAY0BAF@D$$QAI$$QAPBD@Z 100a85e0 f i libucrtd:dbgrpt.obj
 0001:000a7610       ??$tcscpy_s@AAY0BAF@_WIPB_W@?$__crt_char_traits@_W@@SAHAAY0BAF@_W$$QAI$$QAPB_W@Z 100a8610 f i libucrtd:dbgrpt.obj
 0001:000a7640       ??$tcslen@AAY0BAF@D@?$__crt_char_traits@D@@SAIAAY0BAF@D@Z 100a8640 f i libucrtd:dbgrpt.obj
 0001:000a7660       ??$tcslen@AAY0BAF@_W@?$__crt_char_traits@_W@@SAIAAY0BAF@_W@Z 100a8660 f i libucrtd:dbgrpt.obj
 0001:000a7680       ??$tcslen@ABQBD@?$__crt_char_traits@D@@SAIABQBD@Z 100a8680 f i libucrtd:dbgrpt.obj
 0001:000a76a0       ??$tcslen@ABQB_W@?$__crt_char_traits@_W@@SAIABQB_W@Z 100a86a0 f i libucrtd:dbgrpt.obj
 0001:000a77e0       ??0?$__crt_unique_heap_ptr@U?$__crt_report_hook_node@D@@U__crt_internal_free_policy@@@@QAE@QAU?$__crt_report_hook_node@D@@@Z 100a87e0 f i libucrtd:dbgrpt.obj
 0001:000a7800       ??0?$__crt_unique_heap_ptr@U?$__crt_report_hook_node@_W@@U__crt_internal_free_policy@@@@QAE@QAU?$__crt_report_hook_node@_W@@@Z 100a8800 f i libucrtd:dbgrpt.obj
 0001:000a7820       ??1?$__crt_unique_heap_ptr@U?$__crt_report_hook_node@D@@U__crt_internal_free_policy@@@@QAE@XZ 100a8820 f i libucrtd:dbgrpt.obj
 0001:000a7840       ??1?$__crt_unique_heap_ptr@U?$__crt_report_hook_node@_W@@U__crt_internal_free_policy@@@@QAE@XZ 100a8840 f i libucrtd:dbgrpt.obj
 0001:000a7860       ??B?$__crt_unique_heap_ptr@U?$__crt_report_hook_node@D@@U__crt_internal_free_policy@@@@QBE_NXZ 100a8860 f i libucrtd:dbgrpt.obj
 0001:000a7880       ??B?$__crt_unique_heap_ptr@U?$__crt_report_hook_node@_W@@U__crt_internal_free_policy@@@@QBE_NXZ 100a8880 f i libucrtd:dbgrpt.obj
 0001:000a7f40       ?detach@?$__crt_unique_heap_ptr@U?$__crt_report_hook_node@D@@U__crt_internal_free_policy@@@@QAEPAU?$__crt_report_hook_node@D@@XZ 100a8f40 f i libucrtd:dbgrpt.obj
 0001:000a7f70       ?detach@?$__crt_unique_heap_ptr@U?$__crt_report_hook_node@_W@@U__crt_internal_free_policy@@@@QAEPAU?$__crt_report_hook_node@_W@@XZ 100a8f70 f i libucrtd:dbgrpt.obj
 0001:000a7fa0       ?get@?$__crt_unique_heap_ptr@U?$__crt_report_hook_node@D@@U__crt_internal_free_policy@@@@QBEPAU?$__crt_report_hook_node@D@@XZ 100a8fa0 f i libucrtd:dbgrpt.obj
 0001:000a7fc0       ?get@?$__crt_unique_heap_ptr@U?$__crt_report_hook_node@_W@@U__crt_internal_free_policy@@@@QBEPAU?$__crt_report_hook_node@_W@@XZ 100a8fc0 f i libucrtd:dbgrpt.obj
 0001:000a8040       ?is_valid@?$__crt_unique_heap_ptr@U?$__crt_report_hook_node@D@@U__crt_internal_free_policy@@@@QBE_NXZ 100a9040 f i libucrtd:dbgrpt.obj
 0001:000a8080       ?is_valid@?$__crt_unique_heap_ptr@U?$__crt_report_hook_node@_W@@U__crt_internal_free_policy@@@@QBE_NXZ 100a9080 f i libucrtd:dbgrpt.obj
 0001:000a80c0       ?release@?$__crt_unique_heap_ptr@U?$__crt_report_hook_node@D@@U__crt_internal_free_policy@@@@QAEXXZ 100a90c0 f i libucrtd:dbgrpt.obj
 0001:000a80f0       ?release@?$__crt_unique_heap_ptr@U?$__crt_report_hook_node@_W@@U__crt_internal_free_policy@@@@QAEXXZ 100a90f0 f i libucrtd:dbgrpt.obj
 0001:000a8120       __CrtDbgReport             100a9120 f   libucrtd:dbgrpt.obj
 0001:000a8180       __CrtDbgReportW            100a9180 f   libucrtd:dbgrpt.obj
 0001:000a81e0       __CrtSetReportHook2        100a91e0 f   libucrtd:dbgrpt.obj
 0001:000a8200       __CrtSetReportHookW2       100a9200 f   libucrtd:dbgrpt.obj
 0001:000a8220       ___acrt_MessageWindowA     100a9220 f   libucrtd:dbgrpt.obj
 0001:000a8250       ___acrt_MessageWindowW     100a9250 f   libucrtd:dbgrpt.obj
 0001:000a8280       __snwprintf_s              100a9280 f i libucrtd:dbgrpt.obj
 0001:000a82d0       __vsnwprintf_s_l           100a92d0 f i libucrtd:dbgrpt.obj
 0001:000a8340       _free                      100a9340 f   libucrtd:free.obj
 0001:000a8370       ??$__crt_fast_decode_pointer@P6AXPB_W00II@Z@@YAP6AXPB_W00II@ZQ6AX000II@Z@Z 100a9370 f i libucrtd:invalid_parameter.obj
 0001:000a83b0       ??$__crt_fast_encode_pointer@P6AXPB_W00II@Z@@YAP6AXPB_W00II@ZQ6AX000II@Z@Z 100a93b0 f i libucrtd:invalid_parameter.obj
 0001:000a83f0       ??$initialize_from_array@$$BY00Q6AXPB_W00II@Z@?$dual_state_global@P6AXPB_W00II@Z@__crt_state_management@@QAAXAAY00Q6AXPB_W00II@Z@Z 100a93f0 f i libucrtd:invalid_parameter.obj
 0001:000a8450       ?check_synchronize_global_state_index@__crt_cached_ptd_host@@AAEIXZ 100a9450 f i libucrtd:invalid_parameter.obj
 0001:000a84b0       ?dangerous_get_state_array@?$dual_state_global@P6AXPB_W00II@Z@__crt_state_management@@QAEPAP6AXPB_W00II@ZXZ 100a94b0 f i libucrtd:invalid_parameter.obj
 0001:000a84d0       ?get_current_global_state_index@__crt_cached_ptd_host@@QAEIXZ 100a94d0 f i libucrtd:invalid_parameter.obj
 0001:000a84f0       ?get_raw_ptd_noexit@__crt_cached_ptd_host@@QAEPAU__acrt_ptd@@XZ 100a94f0 f i libucrtd:invalid_parameter.obj
 0001:000a8510       ?try_synchronize_per_thread_data@__crt_cached_ptd_host@@AAEPAU__acrt_ptd@@XZ 100a9510 f i libucrtd:invalid_parameter.obj
 0001:000a8540       ?value@?$dual_state_global@P6AXPB_W00II@Z@__crt_state_management@@QAEAAP6AXPB_W00II@ZAAV__crt_cached_ptd_host@@@Z 100a9540 f i libucrtd:invalid_parameter.obj
 0001:000a8570       ?value@?$dual_state_global@P6AXPB_W00II@Z@__crt_state_management@@QAEAAP6AXPB_W00II@ZXZ 100a9570 f i libucrtd:invalid_parameter.obj
 0001:000a8590       ___acrt_call_reportfault   100a9590 f   libucrtd:invalid_parameter.obj
 0001:000a8740       ___acrt_initialize_invalid_parameter_handler 100a9740 f   libucrtd:invalid_parameter.obj
 0001:000a8770       __get_invalid_parameter_handler 100a9770 f   libucrtd:invalid_parameter.obj
 0001:000a87a0       __get_thread_local_invalid_parameter_handler 100a97a0 f   libucrtd:invalid_parameter.obj
 0001:000a87d0       __invalid_parameter        100a97d0 f   libucrtd:invalid_parameter.obj
 0001:000a8820       __invalid_parameter_internal 100a9820 f   libucrtd:invalid_parameter.obj
 0001:000a8920       __invalid_parameter_noinfo 100a9920 f   libucrtd:invalid_parameter.obj
 0001:000a8940       __invalid_parameter_noinfo_noreturn 100a9940 f   libucrtd:invalid_parameter.obj
 0001:000a8980       __invoke_watson            100a9980 f   libucrtd:invalid_parameter.obj
 0001:000a89d0       __set_invalid_parameter_handler 100a99d0 f   libucrtd:invalid_parameter.obj
 0001:000a8a30       __set_thread_local_invalid_parameter_handler 100a9a30 f   libucrtd:invalid_parameter.obj
 0001:000a8a70       ??$is_overflow_condition@_K@__crt_strtox@@YA_NI_K@Z 100a9a70 f i libucrtd:atox.obj
 0001:000a8b20       ??$make_c_string_character_source@D$$T@__crt_strtox@@YA?AV?$c_string_character_source@D@0@QBD$$T@Z 100a9b20 f i libucrtd:atox.obj
 0001:000a8b40       ??$make_c_string_character_source@_W$$T@__crt_strtox@@YA?AV?$c_string_character_source@_W@0@QB_W$$T@Z 100a9b40 f i libucrtd:atox.obj
 0001:000a8b60       ??$parse_integer@KV?$c_string_character_source@D@__crt_strtox@@$00@__crt_strtox@@YAKAAV__crt_cached_ptd_host@@V?$c_string_character_source@D@0@H_N@Z 100a9b60 f i libucrtd:atox.obj
 0001:000a8fa0       ??$parse_integer@KV?$c_string_character_source@_W@__crt_strtox@@$00@__crt_strtox@@YAKAAV__crt_cached_ptd_host@@V?$c_string_character_source@_W@0@H_N@Z 100a9fa0 f i libucrtd:atox.obj
 0001:000a93e0       ??$parse_integer@_KV?$c_string_character_source@D@__crt_strtox@@$00@__crt_strtox@@YA_KAAV__crt_cached_ptd_host@@V?$c_string_character_source@D@0@H_N@Z 100aa3e0 f i libucrtd:atox.obj
 0001:000a98c0       ??$parse_integer@_KV?$c_string_character_source@_W@__crt_strtox@@$00@__crt_strtox@@YA_KAAV__crt_cached_ptd_host@@V?$c_string_character_source@_W@0@H_N@Z 100aa8c0 f i libucrtd:atox.obj
 0001:000a9db0       ??$parse_integer_from_string@JD$$T@__crt_strtox@@YAJQBD$$THQAU__crt_locale_pointers@@@Z 100aadb0 f i libucrtd:atox.obj
 0001:000a9e20       ??$parse_integer_from_string@J_W$$T@__crt_strtox@@YAJQB_W$$THQAU__crt_locale_pointers@@@Z 100aae20 f i libucrtd:atox.obj
 0001:000a9e90       ??$parse_integer_from_string@_JD$$T@__crt_strtox@@YA_JQBD$$THQAU__crt_locale_pointers@@@Z 100aae90 f i libucrtd:atox.obj
 0001:000a9f00       ??$parse_integer_from_string@_J_W$$T@__crt_strtox@@YA_JQB_W$$THQAU__crt_locale_pointers@@@Z 100aaf00 f i libucrtd:atox.obj
 0001:000a9f70       ?is_space@__crt_strtox@@YA_NDQAU__crt_locale_pointers@@@Z 100aaf70 f i libucrtd:atox.obj
 0001:000a9fc0       ?is_space@__crt_strtox@@YA_N_WPAU__crt_locale_pointers@@@Z 100aafc0 f i libucrtd:atox.obj
 0001:000aa000       ?maximum_signed_value@__crt_strtox@@YA_J_K@Z 100ab000 f i libucrtd:atox.obj
 0001:000aa020       ?minimum_signed_value@__crt_strtox@@YA_J_K@Z 100ab020 f i libucrtd:atox.obj
 0001:000aa040       __atoi64                   100ab040 f   libucrtd:atox.obj
 0001:000aa060       __atoi64_l                 100ab060 f   libucrtd:atox.obj
 0001:000aa090       __atoi_l                   100ab090 f   libucrtd:atox.obj
 0001:000aa0c0       __atol_l                   100ab0c0 f   libucrtd:atox.obj
 0001:000aa0f0       __atoll_l                  100ab0f0 f   libucrtd:atox.obj
 0001:000aa120       __wtoi                     100ab120 f   libucrtd:atox.obj
 0001:000aa140       __wtoi64                   100ab140 f   libucrtd:atox.obj
 0001:000aa160       __wtoi64_l                 100ab160 f   libucrtd:atox.obj
 0001:000aa190       __wtoi_l                   100ab190 f   libucrtd:atox.obj
 0001:000aa1c0       __wtol                     100ab1c0 f   libucrtd:atox.obj
 0001:000aa1e0       __wtol_l                   100ab1e0 f   libucrtd:atox.obj
 0001:000aa210       __wtoll                    100ab210 f   libucrtd:atox.obj
 0001:000aa230       __wtoll_l                  100ab230 f   libucrtd:atox.obj
 0001:000aa260       _atoi                      100ab260 f   libucrtd:atox.obj
 0001:000aa280       _atol                      100ab280 f   libucrtd:atox.obj
 0001:000aa2a0       _atoll                     100ab2a0 f   libucrtd:atox.obj
 0001:000aa2c0       _strncmp                   100ab2c0 f   libucrtd:strncmp.obj
 0001:000aa360       _wcsncmp                   100ab360 f   libucrtd:wcsncmp.obj
 0001:000aa3d0       __add_exp                  100ab3d0 f   libucrtd:util.obj
 0001:000aa410       __decomp                   100ab410 f   libucrtd:util.obj
 0001:000aa580       __get_exp                  100ab580 f   libucrtd:util.obj
 0001:000aa5c0       __set_bexp                 100ab5c0 f   libucrtd:util.obj
 0001:000aa600       __set_exp                  100ab600 f   libucrtd:util.obj
 0001:000aa650       __sptype                   100ab650 f   libucrtd:util.obj
 0001:000aa6f0       ___clrfp_sse2              100ab6f0 f   libucrtd:fpctrl.obj
 0001:000aa740       ___ctrlfp_sse2             100ab740 f   libucrtd:fpctrl.obj
 0001:000aa7b0       ___fclrf_sse2              100ab7b0 f   libucrtd:fpctrl.obj
 0001:000aa7e0       ___get_fpsr_sse2           100ab7e0 f   libucrtd:fpctrl.obj
 0001:000aa810       ___set_fpsr_sse2           100ab810 f   libucrtd:fpctrl.obj
 0001:000aa920       ___set_statfp_sse2         100ab920 f   libucrtd:fpctrl.obj
 0001:000aa960       ___statfp_sse2             100ab960 f   libucrtd:fpctrl.obj
 0001:000aa9a0       __clrfp                    100ab9a0 f   libucrtd:fpctrl.obj
 0001:000aa9c0       __ctrlfp                   100ab9c0 f   libucrtd:fpctrl.obj
 0001:000aaa00       __set_statfp               100aba00 f   libucrtd:fpctrl.obj
 0001:000aaa80       __statfp                   100aba80 f   libucrtd:fpctrl.obj
 0001:000aaaa0       _ldexp                     100abaa0 f   libucrtd:ldexp.obj
 0001:000aae50       _nextafter                 100abe50 f   libucrtd:nextafter.obj
 0001:000aae80       ___acrt_initialize_sse2    100abe80 f   libucrtd:mathfcns.obj
 0001:000aaea0       __set_SSE2_enable          100abea0 f   libucrtd:mathfcns.obj
 0001:000aaf00       __CIpow                    100abf00 f   libucrtd:pow_impl.obj
 0001:000aaf3b       __CIpow_default            100abf3b f   libucrtd:pow_impl.obj
 0001:000aaf54       __pow_default              100abf54     libucrtd:pow_impl.obj
 0001:000ab1e0       __CIpow_pentium4           100ac1e0 f   libucrtd:pow_pentium4.obj
 0001:000ab1f9       __pow_pentium4             100ac1f9     libucrtd:pow_pentium4.obj
 0001:000abfd0       __twoToTOS                 100acfd0 f   libucrtd:common.obj
 0001:000abfe5       __load_CW                  100acfe5 f   libucrtd:common.obj
 0001:000abffc       __convertTOStoQNaN         100acffc f   libucrtd:common.obj
 0001:000ac015       __fload_withFB             100ad015 f   libucrtd:common.obj
 0001:000ac058       __checkTOS_withFB          100ad058 f   libucrtd:common.obj
 0001:000ac06e       __fast_exit                100ad06e f   libucrtd:common.obj
 0001:000ac07b       __math_exit                100ad07b f   libucrtd:common.obj
 0001:000ac0a5       __check_overflow_exit      100ad0a5 f   libucrtd:common.obj
 0001:000ac0b9       __check_range_exit         100ad0b9 f   libucrtd:common.obj
 0001:000ac1c0       __CIsqrt                   100ad1c0 f   libucrtd:sqrt_impl.obj
 0001:000ac1d4       __sqrt_common              100ad1d4     libucrtd:sqrt_impl.obj
 0001:000ac2a0       ?get_doserrno@__crt_cached_ptd_host@@QAE@XZ 100ad2a0 f i libucrtd:errno.obj
 0001:000ac2c0       ?set@?$cached@K@__crt_cached_ptd_host@@QAEKK@Z 100ad2c0 f i libucrtd:errno.obj
 0001:000ac2f0       ___acrt_errno_from_os_error 100ad2f0 f   libucrtd:errno.obj
 0001:000ac390       ___acrt_errno_map_os_error 100ad390 f   libucrtd:errno.obj
 0001:000ac3d0       ___acrt_errno_map_os_error_ptd 100ad3d0 f   libucrtd:errno.obj
 0001:000ac430       ___doserrno                100ad430 f   libucrtd:errno.obj
 0001:000ac460       __errno                    100ad460 f   libucrtd:errno.obj
 0001:000ac490       __get_doserrno             100ad490 f   libucrtd:errno.obj
 0001:000ac540       __get_errno                100ad540 f   libucrtd:errno.obj
 0001:000ac5f0       __set_doserrno             100ad5f0 f   libucrtd:errno.obj
 0001:000ac630       __set_errno                100ad630 f   libucrtd:errno.obj
 0001:000ac690       ??$?B$$A6GHPA_WKJ@Z@__crt_fast_encoded_nullptr_t@@QBEP6GHPA_WKJ@ZXZ 100ad690 f i libucrtd:winapi_thunks.obj
 0001:000ac7f0       ??$__crt_fast_decode_pointer@P6GHPA_WKJ@Z@@YAP6GHPA_WKJ@ZQ6GH0KJ@Z@Z 100ad7f0 f i libucrtd:winapi_thunks.obj
 0001:000ac830       ??$__crt_fast_decode_pointer@PAX@@YAPAXQAX@Z 100ad830 f i libucrtd:winapi_thunks.obj
 0001:000ac870       ??$__crt_fast_encode_pointer@P6GHPA_WKJ@Z@@YAP6GHPA_WKJ@ZQ6GH0KJ@Z@Z 100ad870 f i libucrtd:winapi_thunks.obj
 0001:000ad560       _GetCurrentThreadEffectiveToken 100ae560 f i libucrtd:winapi_thunks.obj
 0001:000ad570       ___acrt_AppPolicyGetProcessTerminationMethodInternal@4 100ae570 f   libucrtd:winapi_thunks.obj
 0001:000ad5d0       ___acrt_AppPolicyGetShowDeveloperDiagnosticInternal@4 100ae5d0 f   libucrtd:winapi_thunks.obj
 0001:000ad630       ___acrt_AppPolicyGetThreadInitializationTypeInternal@4 100ae630 f   libucrtd:winapi_thunks.obj
 0001:000ad690       ___acrt_AppPolicyGetWindowingModelInternal@4 100ae690 f   libucrtd:winapi_thunks.obj
 0001:000ad6f0       ___acrt_AreFileApisANSI@0  100ae6f0 f   libucrtd:winapi_thunks.obj
 0001:000ad730       ___acrt_CompareStringEx@36 100ae730 f   libucrtd:winapi_thunks.obj
 0001:000ad7f0       ___acrt_EnumSystemLocalesEx@16 100ae7f0 f   libucrtd:winapi_thunks.obj
 0001:000ad870       ___acrt_FlsAlloc@4         100ae870 f   libucrtd:winapi_thunks.obj
 0001:000ad8c0       ___acrt_FlsFree@4          100ae8c0 f   libucrtd:winapi_thunks.obj
 0001:000ad920       ___acrt_FlsGetValue@4      100ae920 f   libucrtd:winapi_thunks.obj
 0001:000ad980       ___acrt_FlsSetValue@8      100ae980 f   libucrtd:winapi_thunks.obj
 0001:000ad9e0       ___acrt_GetDateFormatEx@28 100ae9e0 f   libucrtd:winapi_thunks.obj
 0001:000ada80       ___acrt_GetEnabledXStateFeatures@0 100aea80 f   libucrtd:winapi_thunks.obj
 0001:000adac0       ___acrt_GetLocaleInfoEx@16 100aeac0 f   libucrtd:winapi_thunks.obj
 0001:000adb40       ___acrt_GetSystemTimePreciseAsFileTime@4 100aeb40 f   libucrtd:winapi_thunks.obj
 0001:000adba0       ___acrt_GetTempPath2W@8    100aeba0 f   libucrtd:winapi_thunks.obj
 0001:000adc00       ___acrt_GetTimeFormatEx@24 100aec00 f   libucrtd:winapi_thunks.obj
 0001:000adca0       ___acrt_GetUserDefaultLocaleName@8 100aeca0 f   libucrtd:winapi_thunks.obj
 0001:000add10       ___acrt_GetXStateFeaturesMask@8 100aed10 f   libucrtd:winapi_thunks.obj
 0001:000add70       ___acrt_InitializeCriticalSectionEx@12 100aed70 f   libucrtd:winapi_thunks.obj
 0001:000adde0       ___acrt_IsValidLocaleName@4 100aede0 f   libucrtd:winapi_thunks.obj
 0001:000ade50       ___acrt_LCIDToLocaleName@16 100aee50 f   libucrtd:winapi_thunks.obj
 0001:000adec0       ___acrt_LCMapStringEx@36   100aeec0 f   libucrtd:winapi_thunks.obj
 0001:000adf60       ___acrt_LocaleNameToLCID@8 100aef60 f   libucrtd:winapi_thunks.obj
 0001:000adfc0       ___acrt_LocateXStateFeature@12 100aefc0 f   libucrtd:winapi_thunks.obj
 0001:000ae020       ___acrt_MessageBoxA@16     100af020 f   libucrtd:winapi_thunks.obj
 0001:000ae080       ___acrt_MessageBoxW@16     100af080 f   libucrtd:winapi_thunks.obj
 0001:000ae0e0       ___acrt_RoInitialize@4     100af0e0 f   libucrtd:winapi_thunks.obj
 0001:000ae130       ___acrt_RoUninitialize@0   100af130 f   libucrtd:winapi_thunks.obj
 0001:000ae170       ___acrt_RtlGenRandom@8     100af170 f   libucrtd:winapi_thunks.obj
 0001:000ae1d0       ___acrt_SetThreadStackGuarantee@4 100af1d0 f   libucrtd:winapi_thunks.obj
 0001:000ae220       ___acrt_can_show_message_box 100af220 f   libucrtd:winapi_thunks.obj
 0001:000ae260       ___acrt_can_use_vista_locale_apis 100af260 f   libucrtd:winapi_thunks.obj
 0001:000ae290       ___acrt_can_use_xstate_apis 100af290 f   libucrtd:winapi_thunks.obj
 0001:000ae2c0       ___acrt_eagerly_load_locale_apis 100af2c0 f   libucrtd:winapi_thunks.obj
 0001:000ae310       ___acrt_get_parent_window  100af310 f   libucrtd:winapi_thunks.obj
 0001:000ae3a0       ___acrt_initialize_winapi_thunks 100af3a0 f   libucrtd:winapi_thunks.obj
 0001:000ae420       ___acrt_is_interactive     100af420 f   libucrtd:winapi_thunks.obj
 0001:000ae500       ___acrt_uninitialize_winapi_thunks 100af500 f   libucrtd:winapi_thunks.obj
 0001:000ae590       ??0__crt_stdio_stream@@QAE@QAU__crt_stdio_stream_data@@@Z 100af590 f i libucrtd:closeall.obj
 0001:000ae5b0       ?is_in_use@__crt_stdio_stream@@QBE_NXZ 100af5b0 f i libucrtd:closeall.obj
 0001:000ae5f0       __fcloseall                100af5f0 f   libucrtd:closeall.obj
 0001:000aefd0       ?__acrt_stdio_reset_buffer@@YAXV__crt_stdio_stream@@@Z 100affd0 f i libucrtd:fflush.obj
 0001:000af200       ?has_all_of@__crt_stdio_stream@@QBE_NJ@Z 100b0200 f i libucrtd:fflush.obj
 0001:000af2f0       ?set_flags@__crt_stdio_stream@@QBE_NJ@Z 100b02f0 f i libucrtd:fflush.obj
 0001:000af350       ?unset_flags@__crt_stdio_stream@@QBE_NJ@Z 100b0350 f i libucrtd:fflush.obj
 0001:000af3b0       ___acrt_stdio_flush_nolock 100b03b0 f   libucrtd:fflush.obj
 0001:000af4c0       __fflush_nolock            100b04c0 f   libucrtd:fflush.obj
 0001:000af510       __flushall                 100b0510 f   libucrtd:fflush.obj
 0001:000af530       _fflush                    100b0530 f   libucrtd:fflush.obj
 0001:000af5d0       ?has_any_of@__crt_stdio_stream@@QBE_NJ@Z 100b05d0 f i libucrtd:_freebuf.obj
 0001:000af610       ?has_crt_buffer@__crt_stdio_stream@@QBE_NXZ 100b0610 f i libucrtd:_freebuf.obj
 0001:000af630       ___acrt_stdio_free_buffer_nolock 100b0630 f   libucrtd:_freebuf.obj
 0001:000afa80       ___acrt_initialize_lowio   100b0a80 f   libucrtd:ioinit.obj
 0001:000afb40       ___acrt_uninitialize_lowio 100b0b40 f   libucrtd:ioinit.obj
 0001:000afbb0       __CrtGetDebugFillThreshold 100b0bb0 f   libucrtd:debug_fill_threshold.obj
 0001:000afbc0       __CrtSetDebugFillThreshold 100b0bc0 f   libucrtd:debug_fill_threshold.obj
 0001:000b0bc0       ??1?$__crt_simd_cleanup_guard@$00@@QAE@XZ 100b1bc0 f i libucrtd:strnlen.obj
 0001:000b0be0       ??1?$__crt_simd_cleanup_guard@$0A@@@QAE@XZ 100b1be0 f i libucrtd:strnlen.obj
 0001:000b0bf0       ?compare_equals@?$__crt_simd_traits@$00E@@SA?AT__m256i@@T2@0@Z 100b1bf0 f i libucrtd:strnlen.obj
 0001:000b0c40       ?compare_equals@?$__crt_simd_traits@$00G@@SA?AT__m256i@@T2@0@Z 100b1c40 f i libucrtd:strnlen.obj
 0001:000b0c90       ?compare_equals@?$__crt_simd_traits@$0A@E@@SA?AT__m128i@@T2@0@Z 100b1c90 f i libucrtd:strnlen.obj
 0001:000b0ce0       ?compare_equals@?$__crt_simd_traits@$0A@G@@SA?AT__m128i@@T2@0@Z 100b1ce0 f i libucrtd:strnlen.obj
 0001:000b0d30       ?compute_byte_mask@?$__crt_simd_pack_traits@$00@@SAHT__m256i@@@Z 100b1d30 f i libucrtd:strnlen.obj
 0001:000b0d70       ?compute_byte_mask@?$__crt_simd_pack_traits@$0A@@@SAHT__m128i@@@Z 100b1d70 f i libucrtd:strnlen.obj
 0001:000b0db0       ?get_zero_pack@?$__crt_simd_pack_traits@$00@@SA?AT__m256i@@XZ 100b1db0 f i libucrtd:strnlen.obj
 0001:000b0df0       ?get_zero_pack@?$__crt_simd_pack_traits@$0A@@@SA?AT__m128i@@XZ 100b1df0 f i libucrtd:strnlen.obj
 0001:000b0e30       _strnlen                   100b1e30 f   libucrtd:strnlen.obj
 0001:000b0e50       _wcslen                    100b1e50 f   libucrtd:strnlen.obj
 0001:000b0e70       _wcsnlen                   100b1e70 f   libucrtd:strnlen.obj
 0001:000b0e90       ?value@?$dual_state_global@PAU__crt_locale_data@@@__crt_state_management@@QAEAAPAU__crt_locale_data@@XZ 100b1e90 f i libucrtd:locale_update.obj
 0001:000b0eb0       ?value@?$dual_state_global@PAU__crt_multibyte_data@@@__crt_state_management@@QAEAAPAU__crt_multibyte_data@@XZ 100b1eb0 f i libucrtd:locale_update.obj
 0001:000b0ed0       ?value_explicit@?$dual_state_global@PAU__crt_locale_data@@@__crt_state_management@@QAEAAPAU__crt_locale_data@@I@Z 100b1ed0 f i libucrtd:locale_update.obj
 0001:000b0ef0       ?value_explicit@?$dual_state_global@PAU__crt_multibyte_data@@@__crt_state_management@@QAEAAPAU__crt_multibyte_data@@I@Z 100b1ef0 f i libucrtd:locale_update.obj
 0001:000b0f10       ___acrt_should_sync_with_global_locale 100b1f10 f i libucrtd:locale_update.obj
 0001:000b0f50       ___acrt_update_locale_info 100b1f50 f   libucrtd:locale_update.obj
 0001:000b0fa0       ___acrt_update_locale_info_explicit 100b1fa0 f   libucrtd:locale_update.obj
 0001:000b0ff0       ___acrt_update_multibyte_info 100b1ff0 f   libucrtd:locale_update.obj
 0001:000b1040       ___acrt_update_multibyte_info_explicit 100b2040 f   libucrtd:locale_update.obj
 0001:000b1090       ?__acrt_fp_classify@@YA?AW4__acrt_fp_class@@ABN@Z 100b2090 f i libucrtd:cvt.obj
 0001:000b11f0       ?__acrt_fp_is_negative@@YA_NABN@Z 100b21f0 f i libucrtd:cvt.obj
 0001:000b2870       ?strrchr@@YAPADQADH@Z      100b3870 f i libucrtd:cvt.obj
 0001:000b2890       ___acrt_fp_format          100b3890 f   libucrtd:cvt.obj
 0001:000b2e30       ?value_or@?$cached@H@__crt_cached_ptd_host@@QBEHH@Z 100b3e30 f i libucrtd:wctomb.obj
 0001:000b2e60       __wctomb_internal          100b3e60 f   libucrtd:wctomb.obj
 0001:000b32c0       __wctomb_l                 100b42c0 f   libucrtd:wctomb.obj
 0001:000b3360       __wctomb_s_l               100b4360 f   libucrtd:wctomb.obj
 0001:000b33c0       _wctomb                    100b43c0 f   libucrtd:wctomb.obj
 0001:000b3450       _wctomb_s                  100b4450 f   libucrtd:wctomb.obj
 0001:000b34b0       __isleadbyte_fast_internal 100b44b0 f i libucrtd:mbtowc.obj
 0001:000b34e0       __mbtowc_internal          100b44e0 f   libucrtd:mbtowc.obj
 0001:000b3810       __mbtowc_l                 100b4810 f   libucrtd:mbtowc.obj
 0001:000b3860       _mbtowc                    100b4860 f   libucrtd:mbtowc.obj
 0001:000b38b0       ?lowio_handle@__crt_stdio_stream@@QBEHXZ 100b48b0 f i libucrtd:fileno.obj
 0001:000b38e0       __fileno                   100b48e0 f   libucrtd:fileno.obj
 0001:000b39b0       __get_printf_count_output  100b49b0 f   libucrtd:printf_count_output.obj
 0001:000b39f0       __set_printf_count_output  100b49f0 f   libucrtd:printf_count_output.obj
 0001:000b3c70       __fputwc_nolock            100b4c70 f   libucrtd:fputwc.obj
 0001:000b3cc0       __fputwc_nolock_internal   100b4cc0 f   libucrtd:fputwc.obj
 0001:000b3f50       __fputwchar                100b4f50 f   libucrtd:fputwc.obj
 0001:000b3f80       __putwc_nolock             100b4f80 f   libucrtd:fputwc.obj
 0001:000b3fa0       _fputwc                    100b4fa0 f   libucrtd:fputwc.obj
 0001:000b3ff0       _putwc                     100b4ff0 f   libucrtd:fputwc.obj
 0001:000b4010       _putwchar                  100b5010 f   libucrtd:fputwc.obj
 0001:000b4320       __fputc_nolock             100b5320 f   libucrtd:fputc.obj
 0001:000b4370       __fputc_nolock_internal    100b5370 f   libucrtd:fputc.obj
 0001:000b4420       __fputchar                 100b5420 f   libucrtd:fputc.obj
 0001:000b4450       __putc_nolock              100b5450 f   libucrtd:fputc.obj
 0001:000b4470       _fputc                     100b5470 f   libucrtd:fputc.obj
 0001:000b44c0       _putc                      100b54c0 f   libucrtd:fputc.obj
 0001:000b44e0       _putchar                   100b54e0 f   libucrtd:fputc.obj
 0001:000b4500       ?has_any_buffer@__crt_stdio_stream@@QBE_NXZ 100b5500 f i libucrtd:_sftbuf.obj
 0001:000b4520       ?has_temporary_buffer@__crt_stdio_stream@@QBE_NXZ 100b5520 f i libucrtd:_sftbuf.obj
 0001:000b4540       ___acrt_should_use_temporary_buffer 100b5540 f   libucrtd:_sftbuf.obj
 0001:000b45a0       ___acrt_stdio_begin_temporary_buffering_nolock 100b55a0 f   libucrtd:_sftbuf.obj
 0001:000b47e0       ___acrt_stdio_end_temporary_buffering_nolock 100b57e0 f   libucrtd:_sftbuf.obj
 0001:000b4880       ??$?RU__acrt_ptd@@@__crt_internal_free_policy@@QBEXQBU__acrt_ptd@@@Z 100b5880 f i libucrtd:per_thread_data.obj
 0001:000b4f80       ??0?$__crt_unique_heap_ptr@U__acrt_ptd@@U__crt_internal_free_policy@@@@QAE@QAU__acrt_ptd@@@Z 100b5f80 f i libucrtd:per_thread_data.obj
 0001:000b4fa0       ??1?$__crt_unique_heap_ptr@U__acrt_ptd@@U__crt_internal_free_policy@@@@QAE@XZ 100b5fa0 f i libucrtd:per_thread_data.obj
 0001:000b4fc0       ??B?$__crt_unique_heap_ptr@U__acrt_ptd@@U__crt_internal_free_policy@@@@QBE_NXZ 100b5fc0 f i libucrtd:per_thread_data.obj
 0001:000b53c0       ?dangerous_get_state_array@?$dual_state_global@PAU__crt_locale_data@@@__crt_state_management@@QAEPAPAU__crt_locale_data@@XZ 100b63c0 f i libucrtd:per_thread_data.obj
 0001:000b55e0       ?detach@?$__crt_unique_heap_ptr@U__acrt_ptd@@U__crt_internal_free_policy@@@@QAEPAU__acrt_ptd@@XZ 100b65e0 f i libucrtd:per_thread_data.obj
 0001:000b5610       ?get@?$__crt_unique_heap_ptr@U__acrt_ptd@@U__crt_internal_free_policy@@@@QBEPAU__acrt_ptd@@XZ 100b6610 f i libucrtd:per_thread_data.obj
 0001:000b5800       ?is_valid@?$__crt_unique_heap_ptr@U__acrt_ptd@@U__crt_internal_free_policy@@@@QBE_NXZ 100b6800 f i libucrtd:per_thread_data.obj
 0001:000b5840       ?release@?$__crt_unique_heap_ptr@U__acrt_ptd@@U__crt_internal_free_policy@@@@QAEXXZ 100b6840 f i libucrtd:per_thread_data.obj
 0001:000b5950       ___acrt_freeptd            100b6950 f   libucrtd:per_thread_data.obj
 0001:000b5990       ___acrt_getptd             100b6990 f   libucrtd:per_thread_data.obj
 0001:000b59c0       ___acrt_getptd_head        100b69c0 f   libucrtd:per_thread_data.obj
 0001:000b59f0       ___acrt_getptd_noexit      100b69f0 f   libucrtd:per_thread_data.obj
 0001:000b5a00       ___acrt_getptd_noexit_explicit 100b6a00 f   libucrtd:per_thread_data.obj
 0001:000b5a20       ___acrt_initialize_ptd     100b6a20 f   libucrtd:per_thread_data.obj
 0001:000b5a70       ___acrt_uninitialize_ptd   100b6a70 f   libucrtd:per_thread_data.obj
 0001:000b5aa0       ___threadhandle            100b6aa0 f   libucrtd:per_thread_data.obj
 0001:000b5ab0       ___threadid                100b6ab0 f   libucrtd:per_thread_data.obj
 0001:000b5ad0       ??$?RU__crt_locale_data@@@__crt_internal_free_policy@@QBEXQBU__crt_locale_data@@@Z 100b6ad0 f i libucrtd:wsetlocale.obj
 0001:000b5b00       ??$?RU__crt_locale_pointers@@@__crt_internal_free_policy@@QBEXQBU__crt_locale_pointers@@@Z 100b6b00 f i libucrtd:wsetlocale.obj
 0001:000b5b30       ??$?RU__crt_multibyte_data@@@__crt_internal_free_policy@@QBEXQBU__crt_multibyte_data@@@Z 100b6b30 f i libucrtd:wsetlocale.obj
 0001:000b6400       ??0?$__crt_unique_heap_ptr@U__crt_locale_data@@U__crt_internal_free_policy@@@@QAE@QAU__crt_locale_data@@@Z 100b7400 f i libucrtd:wsetlocale.obj
 0001:000b6420       ??0?$__crt_unique_heap_ptr@U__crt_locale_pointers@@U__crt_internal_free_policy@@@@QAE@QAU__crt_locale_pointers@@@Z 100b7420 f i libucrtd:wsetlocale.obj
 0001:000b6440       ??0?$__crt_unique_heap_ptr@U__crt_multibyte_data@@U__crt_internal_free_policy@@@@QAE@QAU__crt_multibyte_data@@@Z 100b7440 f i libucrtd:wsetlocale.obj
 0001:000b6460       ??0_expandlocale_locale_name_cache@@QAE@QA_WIQAU__crt_qualified_locale_data@@@Z 100b7460 f i libucrtd:wsetlocale.obj
 0001:000b64f0       ??1?$__crt_unique_heap_ptr@U__crt_locale_data@@U__crt_internal_free_policy@@@@QAE@XZ 100b74f0 f i libucrtd:wsetlocale.obj
 0001:000b6510       ??1?$__crt_unique_heap_ptr@U__crt_locale_pointers@@U__crt_internal_free_policy@@@@QAE@XZ 100b7510 f i libucrtd:wsetlocale.obj
 0001:000b6530       ??1?$__crt_unique_heap_ptr@U__crt_multibyte_data@@U__crt_internal_free_policy@@@@QAE@XZ 100b7530 f i libucrtd:wsetlocale.obj
 0001:000b6550       ??1_expandlocale_locale_name_cache@@QAE@XZ 100b7550 f i libucrtd:wsetlocale.obj
 0001:000b65d0       ??B?$__crt_unique_heap_ptr@U__crt_locale_data@@U__crt_internal_free_policy@@@@QBE_NXZ 100b75d0 f i libucrtd:wsetlocale.obj
 0001:000b65f0       ??B?$__crt_unique_heap_ptr@U__crt_locale_pointers@@U__crt_internal_free_policy@@@@QBE_NXZ 100b75f0 f i libucrtd:wsetlocale.obj
 0001:000b6610       ??B?$__crt_unique_heap_ptr@U__crt_multibyte_data@@U__crt_internal_free_policy@@@@QBE_NXZ 100b7610 f i libucrtd:wsetlocale.obj
 0001:000b6b20       ?commit_locale_name@_expandlocale_locale_name_cache@@QAEXQB_WI@Z 100b7b20 f i libucrtd:wsetlocale.obj
 0001:000b6ba0       ?commit_locale_name_cache_already_updated@_expandlocale_locale_name_cache@@QAEXQB_WI@Z 100b7ba0 f i libucrtd:wsetlocale.obj
 0001:000b6c10       ?detach@?$__crt_unique_heap_ptr@U__crt_locale_data@@U__crt_internal_free_policy@@@@QAEPAU__crt_locale_data@@XZ 100b7c10 f i libucrtd:wsetlocale.obj
 0001:000b6c40       ?detach@?$__crt_unique_heap_ptr@U__crt_locale_pointers@@U__crt_internal_free_policy@@@@QAEPAU__crt_locale_pointers@@XZ 100b7c40 f i libucrtd:wsetlocale.obj
 0001:000b6c70       ?detach@?$__crt_unique_heap_ptr@U__crt_multibyte_data@@U__crt_internal_free_policy@@@@QAEPAU__crt_multibyte_data@@XZ 100b7c70 f i libucrtd:wsetlocale.obj
 0001:000b6ca0       ?get@?$__crt_unique_heap_ptr@U__crt_locale_data@@U__crt_internal_free_policy@@@@QBEPAU__crt_locale_data@@XZ 100b7ca0 f i libucrtd:wsetlocale.obj
 0001:000b6cc0       ?get@?$__crt_unique_heap_ptr@U__crt_locale_pointers@@U__crt_internal_free_policy@@@@QBEPAU__crt_locale_pointers@@XZ 100b7cc0 f i libucrtd:wsetlocale.obj
 0001:000b6ce0       ?get@?$__crt_unique_heap_ptr@U__crt_multibyte_data@@U__crt_internal_free_policy@@@@QBEPAU__crt_multibyte_data@@XZ 100b7ce0 f i libucrtd:wsetlocale.obj
 0001:000b6d00       ?is_valid@?$__crt_unique_heap_ptr@U__crt_locale_data@@U__crt_internal_free_policy@@@@QBE_NXZ 100b7d00 f i libucrtd:wsetlocale.obj
 0001:000b6d40       ?is_valid@?$__crt_unique_heap_ptr@U__crt_locale_pointers@@U__crt_internal_free_policy@@@@QBE_NXZ 100b7d40 f i libucrtd:wsetlocale.obj
 0001:000b6d80       ?is_valid@?$__crt_unique_heap_ptr@U__crt_multibyte_data@@U__crt_internal_free_policy@@@@QBE_NXZ 100b7d80 f i libucrtd:wsetlocale.obj
 0001:000b6dc0       ?release@?$__crt_unique_heap_ptr@U__crt_locale_data@@U__crt_internal_free_policy@@@@QAEXXZ 100b7dc0 f i libucrtd:wsetlocale.obj
 0001:000b6df0       ?release@?$__crt_unique_heap_ptr@U__crt_locale_pointers@@U__crt_internal_free_policy@@@@QAEXXZ 100b7df0 f i libucrtd:wsetlocale.obj
 0001:000b6e20       ?release@?$__crt_unique_heap_ptr@U__crt_multibyte_data@@U__crt_internal_free_policy@@@@QAEXXZ 100b7e20 f i libucrtd:wsetlocale.obj
 0001:000b6e50       ___acrt_copy_locale_name   100b7e50 f   libucrtd:wsetlocale.obj
 0001:000b6f20       ___acrt_set_locale_changed 100b7f20 f   libucrtd:wsetlocale.obj
 0001:000b6f40       ___acrt_uninitialize_locale 100b7f40 f   libucrtd:wsetlocale.obj
 0001:000b6f70       ___ascii_tolower           100b7f70 f i libucrtd:wsetlocale.obj
 0001:000b6fa0       ___ascii_towlower          100b7fa0 f i libucrtd:wsetlocale.obj
 0001:000b6fc0       ___lc_lctowcs              100b7fc0 f   libucrtd:wsetlocale.obj
 0001:000b70a0       ___lc_wcstolc              100b80a0 f   libucrtd:wsetlocale.obj
 0001:000b7360       __configthreadlocale       100b8360 f   libucrtd:wsetlocale.obj
 0001:000b7530       __create_locale            100b8530 f   libucrtd:wsetlocale.obj
 0001:000b7cf0       __free_locale              100b8cf0 f   libucrtd:wsetlocale.obj
 0001:000b7e70       __get_current_locale       100b8e70 f   libucrtd:wsetlocale.obj
 0001:000b7f80       __wcreate_locale           100b8f80 f   libucrtd:wsetlocale.obj
 0001:000b8260       __wcscats                  100b9260 f   libucrtd:wsetlocale.obj
 0001:000b8300       __wsetlocale               100b9300 f   libucrtd:wsetlocale.obj
 0001:000ba040       ___p___mb_cur_max          100bb040 f   libucrtd:nlsdata.obj
 0001:000ba080       __CIcos                    100bb080 f   libucrtd:cos_impl.obj
 0001:000ba0bb       __CIcos_default            100bb0bb f   libucrtd:cos_impl.obj
 0001:000ba0cf       __cos_default              100bb0cf     libucrtd:cos_impl.obj
 0001:000ba1a0       __CIcos_pentium4           100bb1a0 f   libucrtd:cos_pentium4.obj
 0001:000ba1b8       __cos_pentium4             100bb1b8     libucrtd:cos_pentium4.obj
 0001:000ba3c0       __CIsin                    100bb3c0 f   libucrtd:sin_impl.obj
 0001:000ba3fb       __CIsin_default            100bb3fb f   libucrtd:sin_impl.obj
 0001:000ba40f       __sin_default              100bb40f     libucrtd:sin_impl.obj
 0001:000ba4e0       __CIsin_pentium4           100bb4e0 f   libucrtd:sin_pentium4.obj
 0001:000ba4f8       __sin_pentium4             100bb4f8     libucrtd:sin_pentium4.obj
 0001:000ba740       __fFATN2                   100bb740 f   libucrtd:87triga.obj
 0001:000ba790       __rtpiby2                  100bb790     libucrtd:87triga.obj
 0001:000ba7a0       __rtforatn20               100bb7a0 f   libucrtd:87triga.obj
 0001:000ba7d0       __rtforatnby0              100bb7d0 f   libucrtd:87triga.obj
 0001:000ba810       __cintrindisp2             100bb810 f   libucrtd:87cdisp.obj
 0001:000ba860       __cintrindisp1             100bb860 f   libucrtd:87cdisp.obj
 0001:000ba8a9       __ctrandisp2               100bb8a9 f   libucrtd:87cdisp.obj
 0001:000baa38       __ctrandisp1               100bba38 f   libucrtd:87cdisp.obj
 0001:000baa6b       __fload                    100bba6b f   libucrtd:87cdisp.obj
 0001:000bab50       ___libm_error_support      100bbb50 f   libucrtd:libm_error.obj
 0001:000bb280       ___libm_setusermatherr     100bc280 f   libucrtd:libm_error.obj
 0001:000bb2c0       __floor_default            100bc2c0 f   libucrtd:floor.obj
 0001:000bb430       ??$__crt_fast_decode_pointer@P6AHPAU_exception@@@Z@@YAP6AHPAU_exception@@@ZQ6AH0@Z@Z 100bc430 f i libucrtd:matherr.obj
 0001:000bb470       ??$__crt_fast_encode_pointer@P6AHPAU_exception@@@Z@@YAP6AHPAU_exception@@@ZQ6AH0@Z@Z 100bc470 f i libucrtd:matherr.obj
 0001:000bb4b0       ?initialize@?$dual_state_global@P6AHPAU_exception@@@Z@__crt_state_management@@QAEXQ6AHPAU_exception@@@Z@Z 100bc4b0 f i libucrtd:matherr.obj
 0001:000bb500       ?value@?$dual_state_global@P6AHPAU_exception@@@Z@__crt_state_management@@QAEAAP6AHPAU_exception@@@ZXZ 100bc500 f i libucrtd:matherr.obj
 0001:000bb520       ___acrt_has_user_matherr   100bc520 f   libucrtd:matherr.obj
 0001:000bb570       ___acrt_initialize_user_matherr 100bc570 f   libucrtd:matherr.obj
 0001:000bb590       ___acrt_invoke_user_matherr 100bc590 f   libucrtd:matherr.obj
 0001:000bb5f0       ___setusermatherr          100bc5f0 f   libucrtd:matherr.obj
 0001:000bb630       ___fpe_flt_rounds          100bc630 f   libucrtd:fegetround.obj
 0001:000bb6b0       _fegetround                100bc6b0 f   libucrtd:fegetround.obj
 0001:000bb6d0       ___acrt_initialize_locks   100bc6d0 f   libucrtd:locks.obj
 0001:000bb750       ___acrt_lock               100bc750 f   libucrtd:locks.obj
 0001:000bb770       ___acrt_uninitialize_locks 100bc770 f   libucrtd:locks.obj
 0001:000bb7d0       ___acrt_unlock             100bc7d0 f   libucrtd:locks.obj
 0001:000bb7f0       __lock_locales             100bc7f0 f   libucrtd:locks.obj
 0001:000bb810       __unlock_locales           100bc810 f   libucrtd:locks.obj
 0001:000bb830       __chvalidator              100bc830 f   libucrtd:isctype.obj
 0001:000bb890       __chvalidator_l            100bc890 f   libucrtd:isctype.obj
 0001:000bb930       __isctype                  100bc930 f   libucrtd:isctype.obj
 0001:000bb980       __isctype_l                100bc980 f   libucrtd:isctype.obj
 0001:000bbb80       __free_base                100bcb80 f   libucrtd:free_base.obj
 0001:000bbbe0       __realloc_base             100bcbe0 f   libucrtd:realloc_base.obj
 0001:000bbd10       __expand                   100bcd10 f   libucrtd:expand.obj
 0001:000bbd40       __expand_base              100bcd40 f   libucrtd:expand.obj
 0001:000bbec0       ?value@?$dual_state_global@J@__crt_state_management@@QAEAAJXZ 100bcec0 f i libucrtd:new_mode.obj
 0001:000bbee0       __query_new_mode           100bcee0 f   libucrtd:new_mode.obj
 0001:000bbf00       __set_new_mode             100bcf00 f   libucrtd:new_mode.obj
 0001:000bbfd0       __CrtDefaultAllocHook      100bcfd0 f   libucrtd:debug_heap_hook.obj
 0001:000bbfe0       ___acrt_getheap            100bcfe0 f   libucrtd:heap_handle.obj
 0001:000bc030       ___acrt_initialize_heap    100bd030 f   libucrtd:heap_handle.obj
 0001:000bc060       ___acrt_uninitialize_heap  100bd060 f   libucrtd:heap_handle.obj
 0001:000bc080       __get_heap_handle          100bd080 f   libucrtd:heap_handle.obj
 0001:000bc0d0       ___acrt_app_verifier_enabled 100bd0d0 f   libucrtd:peb_access.obj
 0001:000bc110       ___acrt_is_secure_process  100bd110 f   libucrtd:peb_access.obj
 0001:000bc540       ___acrt_get_begin_thread_init_policy 100bd540 f   libucrtd:win_policies.obj
 0001:000bc560       ___acrt_get_developer_information_policy 100bd560 f   libucrtd:win_policies.obj
 0001:000bc580       ___acrt_get_process_end_policy 100bd580 f   libucrtd:win_policies.obj
 0001:000bc5a0       ___acrt_get_windowing_model_policy 100bd5a0 f   libucrtd:win_policies.obj
 0001:000bc600       ??$__acrt_convert_wcs_mbs_cp@D_WV<lambda_62f6974d9771e494a5ea317cc32e971c>@@U__crt_win32_buffer_internal_dynamic_resizing@@@@YAHQBDAAV?$__crt_win32_buffer@_WU__crt_win32_buffer_internal_dynamic_resizing@@@@ABV<lambda_62f6974d9771e494a5ea317cc32e971c>@@I@Z 100bd600 f i libucrtd:argv_wildcards.obj
 0001:000bc7a0       ??$__acrt_convert_wcs_mbs_cp@_WDV<lambda_28bda7af82a03b66c1cb3803a755f95d>@@U__crt_win32_buffer_internal_dynamic_resizing@@@@YAHQB_WAAV?$__crt_win32_buffer@DU__crt_win32_buffer_internal_dynamic_resizing@@@@ABV<lambda_28bda7af82a03b66c1cb3803a755f95d>@@I@Z 100bd7a0 f i libucrtd:argv_wildcards.obj
 0001:000bc930       ??$__acrt_mbs_to_wcs_cp@U__crt_win32_buffer_internal_dynamic_resizing@@@@YAHQBDAAV?$__crt_win32_buffer@_WU__crt_win32_buffer_internal_dynamic_resizing@@@@I@Z 100bd930 f i libucrtd:argv_wildcards.obj
 0001:000bc960       ??$__acrt_wcs_to_mbs_cp@U__crt_win32_buffer_internal_dynamic_resizing@@@@YAHQB_WAAV?$__crt_win32_buffer@DU__crt_win32_buffer_internal_dynamic_resizing@@@@I@Z 100bd960 f i libucrtd:argv_wildcards.obj
 0001:000bdd10       ??$tcsncpy_s@AAPADIAAPADABI@?$__crt_char_traits@D@@SAHAAPAD$$QAI0ABI@Z 100bed10 f i libucrtd:argv_wildcards.obj
 0001:000bdd40       ??$tcsncpy_s@AAPA_WIAAPA_WABI@?$__crt_char_traits@_W@@SAHAAPA_W$$QAI0ABI@Z 100bed40 f i libucrtd:argv_wildcards.obj
 0001:000bdd70       ??$tcsncpy_s@PADABIABQBDABI@?$__crt_char_traits@D@@SAH$$QAPADABIABQBD1@Z 100bed70 f i libucrtd:argv_wildcards.obj
 0001:000bdda0       ??$tcsncpy_s@PADIABQBDABI@?$__crt_char_traits@D@@SAH$$QAPAD$$QAIABQBDABI@Z 100beda0 f i libucrtd:argv_wildcards.obj
 0001:000bddd0       ??$tcsncpy_s@PA_WABIABQB_WABI@?$__crt_char_traits@_W@@SAH$$QAPA_WABIABQB_W1@Z 100bedd0 f i libucrtd:argv_wildcards.obj
 0001:000bde00       ??$tcsncpy_s@PA_WIABQB_WABI@?$__crt_char_traits@_W@@SAH$$QAPA_W$$QAIABQB_WABI@Z 100bee00 f i libucrtd:argv_wildcards.obj
 0001:000bde30       ??$tcspbrk@AAPADAAY02$$CBD@?$__crt_char_traits@D@@SAPADAAPADAAY02$$CBD@Z 100bee30 f i libucrtd:argv_wildcards.obj
 0001:000bde90       ??$tcspbrk@AAPA_WAAY02$$CB_W@?$__crt_char_traits@_W@@SAPA_WAAPA_WAAY02$$CB_W@Z 100bee90 f i libucrtd:argv_wildcards.obj
 0001:000bdef0       ??0?$__crt_unique_handle_t@U__crt_findfile_traits@@@@QAE@QAX@Z 100beef0 f i libucrtd:argv_wildcards.obj
 0001:000bdf10       ??0?$__crt_win32_buffer@DU__crt_win32_buffer_internal_dynamic_resizing@@@@QAE@XZ 100bef10 f i libucrtd:argv_wildcards.obj
 0001:000bdf70       ??0?$__crt_win32_buffer@_WU__crt_win32_buffer_internal_dynamic_resizing@@@@QAE@XZ 100bef70 f i libucrtd:argv_wildcards.obj
 0001:000be050       ??1?$__crt_unique_handle_t@U__crt_findfile_traits@@@@QAE@XZ 100bf050 f i libucrtd:argv_wildcards.obj
 0001:000be070       ??1?$__crt_win32_buffer@DU__crt_win32_buffer_internal_dynamic_resizing@@@@QAE@XZ 100bf070 f i libucrtd:argv_wildcards.obj
 0001:000be0d0       ??1?$__crt_win32_buffer@_WU__crt_win32_buffer_internal_dynamic_resizing@@@@QAE@XZ 100bf0d0 f i libucrtd:argv_wildcards.obj
 0001:000be250       ??R<lambda_28bda7af82a03b66c1cb3803a755f95d>@@QBE@IQB_WQADI@Z 100bf250 f i libucrtd:argv_wildcards.obj
 0001:000be2e0       ??R<lambda_62f6974d9771e494a5ea317cc32e971c>@@QBE@IQBDQA_WI@Z 100bf2e0 f i libucrtd:argv_wildcards.obj
 0001:000be3f0       ?__acrt_get_utf8_acp_compatibility_codepage@@YAIXZ 100bf3f0 f i libucrtd:argv_wildcards.obj
 0001:000be4a0       ?_deallocate@?$__crt_win32_buffer@DU__crt_win32_buffer_internal_dynamic_resizing@@@@AAEXXZ 100bf4a0 f i libucrtd:argv_wildcards.obj
 0001:000be500       ?_deallocate@?$__crt_win32_buffer@_WU__crt_win32_buffer_internal_dynamic_resizing@@@@AAEXXZ 100bf500 f i libucrtd:argv_wildcards.obj
 0001:000be560       ?allocate@?$__crt_win32_buffer@DU__crt_win32_buffer_internal_dynamic_resizing@@@@QAEHI@Z 100bf560 f i libucrtd:argv_wildcards.obj
 0001:000be5e0       ?allocate@?$__crt_win32_buffer@_WU__crt_win32_buffer_internal_dynamic_resizing@@@@QAEHI@Z 100bf5e0 f i libucrtd:argv_wildcards.obj
 0001:000be670       ?allocate@__crt_win32_buffer_internal_dynamic_resizing@@SAHQAPAXIABV__crt_win32_buffer_empty_debug_info@@@Z 100bf670 f i libucrtd:argv_wildcards.obj
 0001:000be7e0       ?capacity@?$__crt_win32_buffer@DU__crt_win32_buffer_internal_dynamic_resizing@@@@QBEIXZ 100bf7e0 f i libucrtd:argv_wildcards.obj
 0001:000be800       ?capacity@?$__crt_win32_buffer@_WU__crt_win32_buffer_internal_dynamic_resizing@@@@QBEIXZ 100bf800 f i libucrtd:argv_wildcards.obj
 0001:000be820       ?close@?$__crt_unique_handle_t@U__crt_findfile_traits@@@@QAEXXZ 100bf820 f i libucrtd:argv_wildcards.obj
 0001:000be860       ?close@__crt_findfile_traits@@SA_NPAX@Z 100bf860 f i libucrtd:argv_wildcards.obj
 0001:000be8a0       ?data@?$__crt_win32_buffer@DU__crt_win32_buffer_internal_dynamic_resizing@@@@QAEPADXZ 100bf8a0 f i libucrtd:argv_wildcards.obj
 0001:000be8c0       ?data@?$__crt_win32_buffer@_WU__crt_win32_buffer_internal_dynamic_resizing@@@@QAEPA_WXZ 100bf8c0 f i libucrtd:argv_wildcards.obj
 0001:000be8e0       ?deallocate@__crt_win32_buffer_internal_dynamic_resizing@@SAXQAXABV__crt_win32_buffer_empty_debug_info@@@Z 100bf8e0 f i libucrtd:argv_wildcards.obj
 0001:000be900       ?debug_info@?$__crt_win32_buffer@DU__crt_win32_buffer_internal_dynamic_resizing@@@@QBEABV__crt_win32_buffer_empty_debug_info@@XZ 100bf900 f i libucrtd:argv_wildcards.obj
 0001:000be920       ?debug_info@?$__crt_win32_buffer@_WU__crt_win32_buffer_internal_dynamic_resizing@@@@QBEABV__crt_win32_buffer_empty_debug_info@@XZ 100bf920 f i libucrtd:argv_wildcards.obj
 0001:000bece0       ?get@?$__crt_unique_handle_t@U__crt_findfile_traits@@@@QBEPAXXZ 100bfce0 f i libucrtd:argv_wildcards.obj
 0001:000bed60       ?get_invalid_value@__crt_findfile_traits@@SAPAXXZ 100bfd60 f i libucrtd:argv_wildcards.obj
 0001:000bee00       ?set_to_nullptr@?$__crt_win32_buffer@DU__crt_win32_buffer_internal_dynamic_resizing@@@@QAEXXZ 100bfe00 f i libucrtd:argv_wildcards.obj
 0001:000bee40       ?set_to_nullptr@?$__crt_win32_buffer@_WU__crt_win32_buffer_internal_dynamic_resizing@@@@QAEXXZ 100bfe40 f i libucrtd:argv_wildcards.obj
 0001:000bee80       ?size@?$__crt_win32_buffer@DU__crt_win32_buffer_internal_dynamic_resizing@@@@QAEXI@Z 100bfe80 f i libucrtd:argv_wildcards.obj
 0001:000beea0       ?size@?$__crt_win32_buffer@_WU__crt_win32_buffer_internal_dynamic_resizing@@@@QAEXI@Z 100bfea0 f i libucrtd:argv_wildcards.obj
 0001:000bef20       ?strpbrk@@YAPADQADQBD@Z    100bff20 f i libucrtd:argv_wildcards.obj
 0001:000bef40       ?wcspbrk@@YAPA_WPA_WPB_W@Z 100bff40 f i libucrtd:argv_wildcards.obj
 0001:000bef60       ___acrt_expand_narrow_argv_wildcards 100bff60 f   libucrtd:argv_wildcards.obj
 0001:000bef80       ___acrt_expand_wide_argv_wildcards 100bff80 f   libucrtd:argv_wildcards.obj
 0001:000befa0       ??$__acrt_convert_wcs_mbs_cp@_WDV<lambda_0fec1a7b3f42a53036604e18c2d5e07e>@@U__crt_win32_buffer_no_resizing@@@@YAHQB_WAAV?$__crt_win32_buffer@DU__crt_win32_buffer_no_resizing@@@@ABV<lambda_0fec1a7b3f42a53036604e18c2d5e07e>@@I@Z 100bffa0 f i libucrtd:getmodulefilenamea.obj
 0001:000bf130       ??$__acrt_wcs_to_mbs_cp@U__crt_win32_buffer_no_resizing@@@@YAHQB_WAAV?$__crt_win32_buffer@DU__crt_win32_buffer_no_resizing@@@@I@Z 100c0130 f i libucrtd:getmodulefilenamea.obj
 0001:000bf160       ??0?$__crt_win32_buffer@DU__crt_win32_buffer_no_resizing@@@@QAE@QADI@Z 100c0160 f i libucrtd:getmodulefilenamea.obj
 0001:000bf1c0       ??1?$__crt_win32_buffer@DU__crt_win32_buffer_no_resizing@@@@QAE@XZ 100c01c0 f i libucrtd:getmodulefilenamea.obj
 0001:000bf220       ??R<lambda_0fec1a7b3f42a53036604e18c2d5e07e>@@QBE@IQB_WQADI@Z 100c0220 f i libucrtd:getmodulefilenamea.obj
 0001:000bf260       ?_deallocate@?$__crt_win32_buffer@DU__crt_win32_buffer_no_resizing@@@@AAEXXZ 100c0260 f i libucrtd:getmodulefilenamea.obj
 0001:000bf2c0       ?allocate@?$__crt_win32_buffer@DU__crt_win32_buffer_no_resizing@@@@QAEHI@Z 100c02c0 f i libucrtd:getmodulefilenamea.obj
 0001:000bf340       ?allocate@__crt_win32_buffer_no_resizing@@SAHQAPAXIABV__crt_win32_buffer_empty_debug_info@@@Z 100c0340 f i libucrtd:getmodulefilenamea.obj
 0001:000bf360       ?capacity@?$__crt_win32_buffer@DU__crt_win32_buffer_no_resizing@@@@QBEIXZ 100c0360 f i libucrtd:getmodulefilenamea.obj
 0001:000bf380       ?data@?$__crt_win32_buffer@DU__crt_win32_buffer_no_resizing@@@@QAEPADXZ 100c0380 f i libucrtd:getmodulefilenamea.obj
 0001:000bf3a0       ?deallocate@__crt_win32_buffer_no_resizing@@SAXQAXABV__crt_win32_buffer_empty_debug_info@@@Z 100c03a0 f i libucrtd:getmodulefilenamea.obj
 0001:000bf3b0       ?debug_info@?$__crt_win32_buffer@DU__crt_win32_buffer_no_resizing@@@@QBEABV__crt_win32_buffer_empty_debug_info@@XZ 100c03b0 f i libucrtd:getmodulefilenamea.obj
 0001:000bf3d0       ?set_to_nullptr@?$__crt_win32_buffer@DU__crt_win32_buffer_no_resizing@@@@QAEXXZ 100c03d0 f i libucrtd:getmodulefilenamea.obj
 0001:000bf410       ?size@?$__crt_win32_buffer@DU__crt_win32_buffer_no_resizing@@@@QAEXI@Z 100c0410 f i libucrtd:getmodulefilenamea.obj
 0001:000bf430       ?size@?$__crt_win32_buffer@DU__crt_win32_buffer_no_resizing@@@@QBEIXZ 100c0430 f i libucrtd:getmodulefilenamea.obj
 0001:000bf450       ___acrt_GetModuleFileNameA 100c0450 f   libucrtd:getmodulefilenamea.obj
 0001:000bf670       ??$initialize_from_array@$$BY10BAA@E@?$dual_state_global@PAE@__crt_state_management@@QAAXAAY10BAA@E@Z 100c0670 f i libucrtd:mbctype.obj
 0001:000bf6d0       ??$initialize_from_array@$$BY10BAB@E@?$dual_state_global@PAE@__crt_state_management@@QAAXAAY10BAB@E@Z 100c06d0 f i libucrtd:mbctype.obj
 0001:000bfa10       ?dangerous_get_state_array@?$dual_state_global@PAE@__crt_state_management@@QAEPAPAEXZ 100c0a10 f i libucrtd:mbctype.obj
 0001:000bfa30       ?dangerous_get_state_array@?$dual_state_global@PAU__crt_multibyte_data@@@__crt_state_management@@QAEPAPAU__crt_multibyte_data@@XZ 100c0a30 f i libucrtd:mbctype.obj
 0001:000bfb40       ?initialize@?$dual_state_global@PAU__crt_multibyte_data@@@__crt_state_management@@QAEXQAU__crt_multibyte_data@@@Z 100c0b40 f i libucrtd:mbctype.obj
 0001:000c04e0       ?value@?$dual_state_global@PAE@__crt_state_management@@QAEAAPAEXZ 100c14e0 f i libucrtd:mbctype.obj
 0001:000c0500       ___acrt_initialize_multibyte 100c1500 f   libucrtd:mbctype.obj
 0001:000c05d0       ___acrt_update_thread_multibyte_data 100c15d0 f   libucrtd:mbctype.obj
 0001:000c0610       ___p__mbcasemap            100c1610 f   libucrtd:mbctype.obj
 0001:000c0630       ___p__mbctype              100c1630 f   libucrtd:mbctype.obj
 0001:000c0650       __getmbcp                  100c1650 f   libucrtd:mbctype.obj
 0001:000c06e0       __setmbcp                  100c16e0 f   libucrtd:mbctype.obj
 0001:000c0730       __setmbcp_nolock           100c1730 f   libucrtd:mbctype.obj
 0001:000c0e40       __ismbbalnum               100c1e40 f   libucrtd:ismbbyte.obj
 0001:000c0e70       __ismbbalnum_l             100c1e70 f   libucrtd:ismbbyte.obj
 0001:000c0ea0       __ismbbalpha               100c1ea0 f   libucrtd:ismbbyte.obj
 0001:000c0ed0       __ismbbalpha_l             100c1ed0 f   libucrtd:ismbbyte.obj
 0001:000c0f00       __ismbbblank               100c1f00 f   libucrtd:ismbbyte.obj
 0001:000c0f40       __ismbbblank_l             100c1f40 f   libucrtd:ismbbyte.obj
 0001:000c0f80       __ismbbgraph               100c1f80 f   libucrtd:ismbbyte.obj
 0001:000c0fb0       __ismbbgraph_l             100c1fb0 f   libucrtd:ismbbyte.obj
 0001:000c0fe0       __ismbbkalnum              100c1fe0 f   libucrtd:ismbbyte.obj
 0001:000c1000       __ismbbkalnum_l            100c2000 f   libucrtd:ismbbyte.obj
 0001:000c1030       __ismbbkana                100c2030 f   libucrtd:ismbbyte.obj
 0001:000c1050       __ismbbkana_l              100c2050 f   libucrtd:ismbbyte.obj
 0001:000c10e0       __ismbbkprint              100c20e0 f   libucrtd:ismbbyte.obj
 0001:000c1100       __ismbbkprint_l            100c2100 f   libucrtd:ismbbyte.obj
 0001:000c1130       __ismbbkpunct              100c2130 f   libucrtd:ismbbyte.obj
 0001:000c1150       __ismbbkpunct_l            100c2150 f   libucrtd:ismbbyte.obj
 0001:000c1180       __ismbblead                100c2180 f   libucrtd:ismbbyte.obj
 0001:000c11a0       __ismbblead_l              100c21a0 f   libucrtd:ismbbyte.obj
 0001:000c11d0       __ismbbprint               100c21d0 f   libucrtd:ismbbyte.obj
 0001:000c1200       __ismbbprint_l             100c2200 f   libucrtd:ismbbyte.obj
 0001:000c1230       __ismbbpunct               100c2230 f   libucrtd:ismbbyte.obj
 0001:000c1250       __ismbbpunct_l             100c2250 f   libucrtd:ismbbyte.obj
 0001:000c1280       __ismbbtrail               100c2280 f   libucrtd:ismbbyte.obj
 0001:000c12a0       __ismbbtrail_l             100c22a0 f   libucrtd:ismbbyte.obj
 0001:000c12d0       ___acrt_initialize_command_line 100c22d0 f   libucrtd:argv_data.obj
 0001:000c1300       ___acrt_uninitialize_command_line 100c2300 f   libucrtd:argv_data.obj
 0001:000c1310       ___p___argc                100c2310 f   libucrtd:argv_data.obj
 0001:000c1320       ___p___argv                100c2320 f   libucrtd:argv_data.obj
 0001:000c1330       ___p___wargv               100c2330 f   libucrtd:argv_data.obj
 0001:000c1340       ___p__acmdln               100c2340 f   libucrtd:argv_data.obj
 0001:000c1350       ___p__pgmptr               100c2350 f   libucrtd:argv_data.obj
 0001:000c1360       ___p__wcmdln               100c2360 f   libucrtd:argv_data.obj
 0001:000c1370       ___p__wpgmptr              100c2370 f   libucrtd:argv_data.obj
 0001:000c1380       __get_pgmptr               100c2380 f   libucrtd:argv_data.obj
 0001:000c14e0       __get_wpgmptr              100c24e0 f   libucrtd:argv_data.obj
 0001:000c1a20       _wcscpy_s                  100c2a20 f   libucrtd:wcscpy_s.obj
 0001:000c1b90       ___acrt_MultiByteToWideChar 100c2b90 f   libucrtd:multibytetowidechar.obj
 0001:000c1d30       ___acrt_WideCharToMultiByte 100c2d30 f   libucrtd:widechartomultibyte.obj
 0001:000c1fa0       ___dcrt_get_narrow_environment_from_os 100c2fa0 f   libucrtd:get_environment_from_os.obj
 0001:000c2170       ___dcrt_get_wide_environment_from_os 100c3170 f   libucrtd:get_environment_from_os.obj
 0001:000c37b0       ??$get_or_create_environment_nolock@$$V@?$__crt_char_traits@D@@SAPAPADXZ 100c47b0 f i libucrtd:setenv.obj
 0001:000c37c0       ??$get_or_create_environment_nolock@$$V@?$__crt_char_traits@_W@@SAPAPA_WXZ 100c47c0 f i libucrtd:setenv.obj
 0001:000c37d0       ??$set_environment_variable@ABQADQAD@?$__crt_char_traits@D@@SAHABQAD$$QBQAD@Z 100c47d0 f i libucrtd:setenv.obj
 0001:000c3800       ??$set_environment_variable@ABQA_WQA_W@?$__crt_char_traits@_W@@SAHABQA_W$$QBQA_W@Z 100c4800 f i libucrtd:setenv.obj
 0001:000c3820       ??$tcschr@ABQADD@?$__crt_char_traits@D@@SAPADABQAD$$QAD@Z 100c4820 f i libucrtd:setenv.obj
 0001:000c3880       ??$tcschr@ABQA_WD@?$__crt_char_traits@_W@@SAPA_WABQA_W$$QAD@Z 100c4880 f i libucrtd:setenv.obj
 0001:000c38f0       ??$tcscpy_s@AAPADABIAAPAD@?$__crt_char_traits@D@@SAHAAPADABI0@Z 100c48f0 f i libucrtd:setenv.obj
 0001:000c3920       ??$tcscpy_s@AAPA_WABIAAPA_W@?$__crt_char_traits@_W@@SAHAAPA_WABI0@Z 100c4920 f i libucrtd:setenv.obj
 0001:000c3950       ??$tcscpy_s@ABQADABIABQAD@?$__crt_char_traits@D@@SAHABQADABI0@Z 100c4950 f i libucrtd:setenv.obj
 0001:000c3980       ??$tcscpy_s@ABQA_WABIABQA_W@?$__crt_char_traits@_W@@SAHABQA_WABI0@Z 100c4980 f i libucrtd:setenv.obj
 0001:000c39b0       ??$tcslen@ABQAD@?$__crt_char_traits@D@@SAIABQAD@Z 100c49b0 f i libucrtd:setenv.obj
 0001:000c39d0       ??$tcslen@ABQA_W@?$__crt_char_traits@_W@@SAIABQA_W@Z 100c49d0 f i libucrtd:setenv.obj
 0001:000c39f0       ??$tcsnicoll@ABQBDAAPADABI@?$__crt_char_traits@D@@SAHABQBDAAPADABI@Z 100c49f0 f i libucrtd:setenv.obj
 0001:000c3a20       ??$tcsnicoll@ABQB_WAAPA_WABI@?$__crt_char_traits@_W@@SAHABQB_WAAPA_WABI@Z 100c4a20 f i libucrtd:setenv.obj
 0001:000c3a50       ??$tcsnlen@PADH@?$__crt_char_traits@D@@SAI$$QAPAD$$QAH@Z 100c4a50 f i libucrtd:setenv.obj
 0001:000c3a80       ??$tcsnlen@PA_WH@?$__crt_char_traits@_W@@SAI$$QAPA_W$$QAH@Z 100c4a80 f i libucrtd:setenv.obj
 0001:000c3b50       ?strchr@@YAPADQADH@Z       100c4b50 f i libucrtd:setenv.obj
 0001:000c3b70       ?wcschr@@YAPA_WPA_W_W@Z    100c4b70 f i libucrtd:setenv.obj
 0001:000c3b90       ___dcrt_set_variable_in_narrow_environment_nolock 100c4b90 f   libucrtd:setenv.obj
 0001:000c3bb0       ___dcrt_set_variable_in_wide_environment_nolock 100c4bb0 f   libucrtd:setenv.obj
 0001:000c3bd0       ___acrt_execute_initializers 100c4bd0 f   libucrtd:shared_initialization.obj
 0001:000c3cc0       ___acrt_execute_uninitializers 100c4cc0 f   libucrtd:shared_initialization.obj
 0001:000c3d40       ??$?B$$A6AXH@Z@__crt_fast_encoded_nullptr_t@@QBEP6AXH@ZXZ 100c4d40 f i libucrtd:signal.obj
 0001:000c3ea0       ??$__crt_fast_decode_pointer@P6AXH@Z@@YAP6AXH@ZQ6AXH@Z@Z 100c4ea0 f i libucrtd:signal.obj
 0001:000c3ee0       ??$__crt_fast_encode_pointer@P6AXH@Z@@YAP6AXH@ZQ6AXH@Z@Z 100c4ee0 f i libucrtd:signal.obj
 0001:000c4260       ?initialize@?$dual_state_global@P6AXH@Z@__crt_state_management@@QAEXQ6AXH@Z@Z 100c5260 f i libucrtd:signal.obj
 0001:000c4400       ?value@?$dual_state_global@P6AXH@Z@__crt_state_management@@QAEAAP6AXH@ZXZ 100c5400 f i libucrtd:signal.obj
 0001:000c4420       ___acrt_get_sigabrt_handler 100c5420 f   libucrtd:signal.obj
 0001:000c4450       ___acrt_initialize_signal_handlers 100c5450 f   libucrtd:signal.obj
 0001:000c44a0       ___fpecode                 100c54a0 f   libucrtd:signal.obj
 0001:000c44c0       ___pxcptinfoptrs           100c54c0 f   libucrtd:signal.obj
 0001:000c44e0       _raise                     100c54e0 f   libucrtd:signal.obj
 0001:000c49b0       _signal                    100c59b0 f   libucrtd:signal.obj
 0001:000c4ef0       ___acrt_report_runtime_error 100c5ef0 f   libucrtd:report_runtime_error.obj
 0001:000c5160       __query_app_type           100c6160 f   libucrtd:report_runtime_error.obj
 0001:000c5170       __set_app_type             100c6170 f   libucrtd:report_runtime_error.obj
 0001:000c5190       __CrtGetReportHook         100c6190 f   libucrtd:dbgrptt.obj
 0001:000c51a0       __CrtSetReportFile         100c61a0 f   libucrtd:dbgrptt.obj
 0001:000c52d0       __CrtSetReportHook         100c62d0 f   libucrtd:dbgrptt.obj
 0001:000c5300       __CrtSetReportMode         100c6300 f   libucrtd:dbgrptt.obj
 0001:000c5490       __VCrtDbgReportA           100c6490 f   libucrtd:dbgrptt.obj
 0001:000c5f90       __VCrtDbgReportW           100c6f90 f   libucrtd:dbgrptt.obj
 0001:000c6c30       __snprintf_s               100c7c30 f i libucrtd:dbgrptt.obj
 0001:000c6c80       __vsnprintf_s              100c7c80 f i libucrtd:dbgrptt.obj
 0001:000c6cb0       __vsnprintf_s_l            100c7cb0 f i libucrtd:dbgrptt.obj
 0001:000c6fe0       ??$message_box@$$TABQBDABQBDK@?$__crt_char_traits@D@@SAH$$QA$$TABQBD1$$QAK@Z 100c7fe0 f i libucrtd:crtmbox.obj
 0001:000c7010       ??$message_box@$$TABQB_WABQB_WK@?$__crt_char_traits@_W@@SAH$$QA$$TABQB_W1$$QAK@Z 100c8010 f i libucrtd:crtmbox.obj
 0001:000c7040       ??$message_box@PAUHWND__@@ABQBDABQBDABI@?$__crt_char_traits@D@@SAH$$QAPAUHWND__@@ABQBD1ABI@Z 100c8040 f i libucrtd:crtmbox.obj
 0001:000c7070       ??$message_box@PAUHWND__@@ABQB_WABQB_WABI@?$__crt_char_traits@_W@@SAH$$QAPAUHWND__@@ABQB_W1ABI@Z 100c8070 f i libucrtd:crtmbox.obj
 0001:000c70a0       ??$output_debug_string@ABQBD@?$__crt_char_traits@D@@SAXABQBD@Z 100c80a0 f i libucrtd:crtmbox.obj
 0001:000c70c0       ??$output_debug_string@ABQB_W@?$__crt_char_traits@_W@@SAXABQB_W@Z 100c80c0 f i libucrtd:crtmbox.obj
 0001:000c70e0       ___acrt_show_narrow_message_box 100c80e0 f   libucrtd:crtmbox.obj
 0001:000c7110       ___acrt_show_wide_message_box 100c8110 f   libucrtd:crtmbox.obj
 0001:000c7140       __iswctype_l               100c8140 f   libucrtd:iswctype.obj
 0001:000c7160       _iswctype                  100c8160 f   libucrtd:iswctype.obj
 0001:000c71f0       _nexttoward                100c81f0 f   libucrtd:nexttoward.obj
 0001:000c7630       __fFEXP                    100c8630 f   libucrtd:87tran.obj
 0001:000c7687       __rtinfpopse               100c8687     libucrtd:87tran.obj
 0001:000c7689       __rtinfnpopse              100c8689     libucrtd:87tran.obj
 0001:000c7699       __fFLN                     100c8699     libucrtd:87tran.obj
 0001:000c774e       __rtinfpop                 100c874e     libucrtd:87tran.obj
 0001:000c7750       __rtinfnpop                100c8750     libucrtd:87tran.obj
 0001:000c7760       __rtforexpinf              100c8760 f   libucrtd:87tran.obj
 0001:000c776d       __ffexpm1                  100c876d     libucrtd:87tran.obj
 0001:000c78a0       __trandisp1                100c88a0 f   libucrtd:87disp.obj
 0001:000c7915       __trandisp2                100c8915 f   libucrtd:87disp.obj
 0001:000c79af       __rttospopde               100c89af     libucrtd:87disp.obj
 0001:000c79b4       __rttospop                 100c89b4     libucrtd:87disp.obj
 0001:000c79c0       __rtnospop                 100c89c0 f   libucrtd:87disp.obj
 0001:000c79d0       __rttosnpop                100c89d0 f   libucrtd:87disp.obj
 0001:000c79d1       __rtnospopde               100c89d1     libucrtd:87disp.obj
 0001:000c79d8       __rtzeropop                100c89d8     libucrtd:87disp.obj
 0001:000c79da       __rtzeronpop               100c89da     libucrtd:87disp.obj
 0001:000c79e0       __rtzerospop               100c89e0 f   libucrtd:87disp.obj
 0001:000c79ed       __rtonepop                 100c89ed     libucrtd:87disp.obj
 0001:000c79f0       __rtonenpop                100c89f0 f   libucrtd:87disp.obj
 0001:000c7a00       __tosnan1                  100c8a00 f   libucrtd:87disp.obj
 0001:000c7a30       __nosnan2                  100c8a30 f   libucrtd:87disp.obj
 0001:000c7a40       __tosnan2                  100c8a40 f   libucrtd:87disp.obj
 0001:000c7a70       __nan2                     100c8a70 f   libucrtd:87disp.obj
 0001:000c7ab0       __rtindfpop                100c8ab0 f   libucrtd:87disp.obj
 0001:000c7ab2       __rtindfnpop               100c8ab2     libucrtd:87disp.obj
 0001:000c7ac3       __rttosnpopde              100c8ac3     libucrtd:87disp.obj
 0001:000c7ad0       __rtatan2inf               100c8ad0 f   libucrtd:87disp.obj
 0001:000c7aed       __rtchsifneg               100c8aed     libucrtd:87disp.obj
 0001:000c7b90       ___setfflag                100c8b90 f   libucrtd:fp_flags.obj
 0001:000c7bc0       __startTwoArgErrorHandling 100c8bc0 f   libucrtd:genexcep.obj
 0001:000c7bd7       __startOneArgErrorHandling 100c8bd7 f   libucrtd:genexcep.obj
 0001:000c7c30       __d_inttype                100c8c30 f   libucrtd:powhlp.obj
 0001:000c7ce0       __powhlp                   100c8ce0 f   libucrtd:powhlp.obj
 0001:000c8020       ___acrt_DownlevelLCIDToLocaleName 100c9020 f   libucrtd:lcidtoname_downlevel.obj
 0001:000c8120       ___acrt_DownlevelLocaleNameToLCID 100c9120 f   libucrtd:lcidtoname_downlevel.obj
 0001:000c84d0       __fclose_nolock            100c94d0 f   libucrtd:fclose.obj
 0001:000c8520       _fclose                    100c9520 f   libucrtd:fclose.obj
 0001:000c8860       __commit                   100c9860 f   libucrtd:commit.obj
 0001:000ca0d0       __utf8_no_of_trailbytes    100cb0d0 f i libucrtd:write.obj
 0001:000ca0f0       __write                    100cb0f0 f   libucrtd:write.obj
 0001:000ca140       __write_internal           100cb140 f   libucrtd:write.obj
 0001:000ca490       __write_nolock             100cb490 f   libucrtd:write.obj
 0001:000caaa0       ??$?RU__crt_lowio_handle_data@@@__crt_internal_free_policy@@QBEXQBU__crt_lowio_handle_data@@@Z 100cbaa0 f i libucrtd:osfinfo.obj
 0001:000caad0       ??0?$__crt_unique_heap_ptr@U__crt_lowio_handle_data@@U__crt_internal_free_policy@@@@QAE@QAU__crt_lowio_handle_data@@@Z 100cbad0 f i libucrtd:osfinfo.obj
 0001:000caaf0       ??1?$__crt_unique_heap_ptr@U__crt_lowio_handle_data@@U__crt_internal_free_policy@@@@QAE@XZ 100cbaf0 f i libucrtd:osfinfo.obj
 0001:000cab10       ??B?$__crt_unique_heap_ptr@U__crt_lowio_handle_data@@U__crt_internal_free_policy@@@@QBE_NXZ 100cbb10 f i libucrtd:osfinfo.obj
 0001:000cab30       ?detach@?$__crt_unique_heap_ptr@U__crt_lowio_handle_data@@U__crt_internal_free_policy@@@@QAEPAU__crt_lowio_handle_data@@XZ 100cbb30 f i libucrtd:osfinfo.obj
 0001:000cab60       ?get@?$__crt_unique_heap_ptr@U__crt_lowio_handle_data@@U__crt_internal_free_policy@@@@QBEPAU__crt_lowio_handle_data@@XZ 100cbb60 f i libucrtd:osfinfo.obj
 0001:000cab80       ?is_valid@?$__crt_unique_heap_ptr@U__crt_lowio_handle_data@@U__crt_internal_free_policy@@@@QBE_NXZ 100cbb80 f i libucrtd:osfinfo.obj
 0001:000cabc0       ?release@?$__crt_unique_heap_ptr@U__crt_lowio_handle_data@@U__crt_internal_free_policy@@@@QAEXXZ 100cbbc0 f i libucrtd:osfinfo.obj
 0001:000cabf0       ___acrt_lowio_create_handle_array 100cbbf0 f   libucrtd:osfinfo.obj
 0001:000cada0       ___acrt_lowio_destroy_handle_array 100cbda0 f   libucrtd:osfinfo.obj
 0001:000cae10       ___acrt_lowio_ensure_fh_exists 100cbe10 f   libucrtd:osfinfo.obj
 0001:000cafc0       ___acrt_lowio_lock_fh      100cbfc0 f   libucrtd:osfinfo.obj
 0001:000caff0       ___acrt_lowio_set_os_handle 100cbff0 f   libucrtd:osfinfo.obj
 0001:000cb100       ___acrt_lowio_unlock_fh    100cc100 f   libucrtd:osfinfo.obj
 0001:000cb130       __alloc_osfhnd             100cc130 f   libucrtd:osfinfo.obj
 0001:000cb380       __free_osfhnd              100cc380 f   libucrtd:osfinfo.obj
 0001:000cb4a0       __get_osfhandle            100cc4a0 f   libucrtd:osfinfo.obj
 0001:000cb680       __open_osfhandle           100cc680 f   libucrtd:osfinfo.obj
 0001:000cb900       ___acrt_add_locale_ref     100cc900 f   libucrtd:locale_refcounting.obj
 0001:000cba50       ___acrt_free_locale        100cca50 f   libucrtd:locale_refcounting.obj
 0001:000cbdd0       ___acrt_locale_add_lc_time_reference 100ccdd0 f   libucrtd:locale_refcounting.obj
 0001:000cbe10       ___acrt_locale_free_lc_time_if_unreferenced 100cce10 f   libucrtd:locale_refcounting.obj
 0001:000cbe70       ___acrt_locale_release_lc_time_reference 100cce70 f   libucrtd:locale_refcounting.obj
 0001:000cbeb0       ___acrt_release_locale_ref 100cceb0 f   libucrtd:locale_refcounting.obj
 0001:000cc000       ___acrt_update_thread_locale_data 100cd000 f   libucrtd:locale_refcounting.obj
 0001:000cc110       __updatetlocinfoEx_nolock  100cd110 f   libucrtd:locale_refcounting.obj
 0001:000cc390       ___acrt_fp_strflt_to_string 100cd390 f   libucrtd:_fptostr.obj
 0001:000cd010       ??0big_integer@__crt_strtox@@QAE@ABU01@@Z 100ce010 f i libucrtd:cfout.obj
 0001:000cd060       ??0big_integer@__crt_strtox@@QAE@XZ 100ce060 f i libucrtd:cfout.obj
 0001:000cd1d0       ??4big_integer@__crt_strtox@@QAEAAU01@ABU01@@Z 100ce1d0 f i libucrtd:cfout.obj
 0001:000cd220       ??8__crt_strtox@@YA_NABUbig_integer@0@0@Z 100ce220 f i libucrtd:cfout.obj
 0001:000cd290       ??9__crt_strtox@@YA_NABUbig_integer@0@0@Z 100ce290 f i libucrtd:cfout.obj
 0001:000cd2e0       ?add_carry@__crt_strtox@@YAIAAIII@Z 100ce2e0 f i libucrtd:cfout.obj
 0001:000cd330       ?add_multiply_carry@__crt_strtox@@YAIAAIIII@Z 100ce330 f i libucrtd:cfout.obj
 0001:000cd380       ?bit_scan_reverse@__crt_strtox@@YAII@Z 100ce380 f i libucrtd:cfout.obj
 0001:000cd3c0       ?count_sequential_high_zeroes@__crt_strtox@@YAII@Z 100ce3c0 f i libucrtd:cfout.obj
 0001:000cd410       ?divide@__crt_strtox@@YA_KAAUbig_integer@1@ABU21@@Z 100ce410 f i libucrtd:cfout.obj
 0001:000ce110       ?is_zero@__crt_strtox@@YA_NABUbig_integer@1@@Z 100cf110 f i libucrtd:cfout.obj
 0001:000ce140       ?make_big_integer@__crt_strtox@@YA?AUbig_integer@1@_K@Z 100cf140 f i libucrtd:cfout.obj
 0001:000ce210       ?make_big_integer_power_of_two@__crt_strtox@@YA?AUbig_integer@1@I@Z 100cf210 f i libucrtd:cfout.obj
 0001:000ce2f0       ?multiply@__crt_strtox@@YA_NAAUbig_integer@1@ABU21@@Z 100cf2f0 f i libucrtd:cfout.obj
 0001:000ce750       ?multiply@__crt_strtox@@YA_NAAUbig_integer@1@I@Z 100cf750 f i libucrtd:cfout.obj
 0001:000ce850       ?multiply_64_32@__crt_strtox@@YA_K_KI@Z 100cf850 f i libucrtd:cfout.obj
 0001:000ce870       ?multiply_by_power_of_ten@__crt_strtox@@YA_NAAUbig_integer@1@I@Z 100cf870 f i libucrtd:cfout.obj
 0001:000cea70       ?multiply_core@__crt_strtox@@YAIQAIII@Z 100cfa70 f i libucrtd:cfout.obj
 0001:000ceaf0       ?shift_left@__crt_strtox@@YA_NAAUbig_integer@1@I@Z 100cfaf0 f i libucrtd:cfout.obj
 0001:000cee90       ___acrt_fltout             100cfe90 f   libucrtd:cfout.obj
 0001:000cf3b0       ??$?RG@__crt_internal_free_policy@@QBEXQBG@Z 100d03b0 f i libucrtd:initctype.obj
 0001:000cf3e0       ??$?RJ@__crt_internal_free_policy@@QBEXQBJ@Z 100d03e0 f i libucrtd:initctype.obj
 0001:000cf410       ??0?$__crt_unique_heap_ptr@GU__crt_internal_free_policy@@@@QAE@QAG@Z 100d0410 f i libucrtd:initctype.obj
 0001:000cf430       ??0?$__crt_unique_heap_ptr@JU__crt_internal_free_policy@@@@QAE@QAJ@Z 100d0430 f i libucrtd:initctype.obj
 0001:000cf450       ??1?$__crt_unique_heap_ptr@GU__crt_internal_free_policy@@@@QAE@XZ 100d0450 f i libucrtd:initctype.obj
 0001:000cf470       ??1?$__crt_unique_heap_ptr@JU__crt_internal_free_policy@@@@QAE@XZ 100d0470 f i libucrtd:initctype.obj
 0001:000cf490       ?detach@?$__crt_unique_heap_ptr@GU__crt_internal_free_policy@@@@QAEPAGXZ 100d0490 f i libucrtd:initctype.obj
 0001:000cf4c0       ?detach@?$__crt_unique_heap_ptr@JU__crt_internal_free_policy@@@@QAEPAJXZ 100d04c0 f i libucrtd:initctype.obj
 0001:000cf4f0       ?release@?$__crt_unique_heap_ptr@GU__crt_internal_free_policy@@@@QAEXXZ 100d04f0 f i libucrtd:initctype.obj
 0001:000cf520       ?release@?$__crt_unique_heap_ptr@JU__crt_internal_free_policy@@@@QAEXXZ 100d0520 f i libucrtd:initctype.obj
 0001:000cf550       ____lc_codepage_func       100d0550 f   libucrtd:initctype.obj
 0001:000cf590       ____lc_collate_cp_func     100d0590 f   libucrtd:initctype.obj
 0001:000cf5d0       ____lc_locale_name_func    100d05d0 f   libucrtd:initctype.obj
 0001:000cf620       ____mb_cur_max_func        100d0620 f   libucrtd:initctype.obj
 0001:000cf660       ____mb_cur_max_l_func      100d0660 f   libucrtd:initctype.obj
 0001:000cf6a0       ___acrt_locale_initialize_ctype 100d06a0 f   libucrtd:initctype.obj
 0001:000d0000       ?__c32rtomb_utf8@__crt_mbstring@@YAIPAD_UPAU_Mbstatet@@AAV__crt_cached_ptd_host@@@Z 100d1000 f   libucrtd:c32rtomb.obj
 0001:000d0260       _c32rtomb                  100d1260 f   libucrtd:c32rtomb.obj
 0001:000d0330       ?__mbrtowc_utf8@__crt_mbstring@@YAIPA_WPBDIPAU_Mbstatet@@AAV__crt_cached_ptd_host@@@Z 100d1330 f   libucrtd:mbrtowc.obj
 0001:000d03a0       ?__mbsrtowcs_utf8@__crt_mbstring@@YAIPA_WPAPBDIPAU_Mbstatet@@AAV__crt_cached_ptd_host@@@Z 100d13a0 f   libucrtd:mbrtowc.obj
 0001:000d1250       _btowc                     100d2250 f   libucrtd:mbrtowc.obj
 0001:000d1300       _mbrlen                    100d2300 f   libucrtd:mbrtowc.obj
 0001:000d1380       _mbrtowc                   100d2380 f   libucrtd:mbrtowc.obj
 0001:000d1450       _mbsrtowcs                 100d2450 f   libucrtd:mbrtowc.obj
 0001:000d14a0       _mbsrtowcs_s               100d24a0 f   libucrtd:mbrtowc.obj
 0001:000d1e30       ?has_big_buffer@__crt_stdio_stream@@QBE_NXZ 100d2e30 f i libucrtd:_flsbuf.obj
 0001:000d1f60       ___acrt_stdio_flush_and_write_narrow_nolock 100d2f60 f   libucrtd:_flsbuf.obj
 0001:000d1fa0       ___acrt_stdio_flush_and_write_wide_nolock 100d2fa0 f   libucrtd:_flsbuf.obj
 0001:000d1fe0       __isatty                   100d2fe0 f   libucrtd:isatty.obj
 0001:000d20e0       ??$?RUlconv@@@__crt_internal_free_policy@@QBEXQBUlconv@@@Z 100d30e0 f i libucrtd:initmon.obj
 0001:000d2110       ??0?$__crt_unique_heap_ptr@Ulconv@@U__crt_internal_free_policy@@@@QAE@QAUlconv@@@Z 100d3110 f i libucrtd:initmon.obj
 0001:000d2130       ??1?$__crt_unique_heap_ptr@Ulconv@@U__crt_internal_free_policy@@@@QAE@XZ 100d3130 f i libucrtd:initmon.obj
 0001:000d2150       ?detach@?$__crt_unique_heap_ptr@Ulconv@@U__crt_internal_free_policy@@@@QAEPAUlconv@@XZ 100d3150 f i libucrtd:initmon.obj
 0001:000d2180       ?release@?$__crt_unique_heap_ptr@Ulconv@@U__crt_internal_free_policy@@@@QAEXXZ 100d3180 f i libucrtd:initmon.obj
 0001:000d21b0       ___acrt_locale_free_monetary 100d31b0 f   libucrtd:initmon.obj
 0001:000d23c0       ___acrt_locale_initialize_monetary 100d33c0 f   libucrtd:initmon.obj
 0001:000d2c10       ___acrt_locale_free_numeric 100d3c10 f   libucrtd:initnum.obj
 0001:000d2cf0       ___acrt_locale_initialize_numeric 100d3cf0 f   libucrtd:initnum.obj
 0001:000d3250       ??$?RU__crt_lc_time_data@@@__crt_internal_free_policy@@QBEXQBU__crt_lc_time_data@@@Z 100d4250 f i libucrtd:inittime.obj
 0001:000d3340       ??0?$__crt_unique_heap_ptr@U__crt_lc_time_data@@U__crt_internal_free_policy@@@@QAE@QAU__crt_lc_time_data@@@Z 100d4340 f i libucrtd:inittime.obj
 0001:000d3360       ??1?$__crt_unique_heap_ptr@U__crt_lc_time_data@@U__crt_internal_free_policy@@@@QAE@XZ 100d4360 f i libucrtd:inittime.obj
 0001:000d3380       ??B?$__crt_unique_heap_ptr@U__crt_lc_time_data@@U__crt_internal_free_policy@@@@QBE_NXZ 100d4380 f i libucrtd:inittime.obj
 0001:000d33a0       ?detach@?$__crt_unique_heap_ptr@U__crt_lc_time_data@@U__crt_internal_free_policy@@@@QAEPAU__crt_lc_time_data@@XZ 100d43a0 f i libucrtd:inittime.obj
 0001:000d3420       ?get@?$__crt_unique_heap_ptr@U__crt_lc_time_data@@U__crt_internal_free_policy@@@@QBEPAU__crt_lc_time_data@@XZ 100d4420 f i libucrtd:inittime.obj
 0001:000d3a10       ?is_valid@?$__crt_unique_heap_ptr@U__crt_lc_time_data@@U__crt_internal_free_policy@@@@QBE_NXZ 100d4a10 f i libucrtd:inittime.obj
 0001:000d3a50       ?release@?$__crt_unique_heap_ptr@U__crt_lc_time_data@@U__crt_internal_free_policy@@@@QAEXXZ 100d4a50 f i libucrtd:inittime.obj
 0001:000d3a80       ___acrt_locale_free_time   100d4a80 f   libucrtd:inittime.obj
 0001:000d3c20       ___acrt_locale_initialize_time 100d4c20 f   libucrtd:inittime.obj
 0001:000d3cb0       ___pctype_func             100d4cb0 f   libucrtd:ctype.obj
 0001:000d3cf0       ___pwctype_func            100d4cf0 f   libucrtd:ctype.obj
 0001:000d4230       _wcscat_s                  100d5230 f   libucrtd:wcscat_s.obj
 0001:000d4870       _wcsncat_s                 100d5870 f   libucrtd:wcsncat_s.obj
 0001:000d4de0       _wcsncpy_s                 100d5de0 f   libucrtd:wcsncpy_s.obj
 0001:000d4e10       _wcscmp                    100d5e10 f   libucrtd:wcscmp.obj
 0001:000d4eb0       _wcscspn                   100d5eb0 f   libucrtd:wcscspn.obj
 0001:000d4f40       _wcspbrk                   100d5f40 f   libucrtd:wcspbrk.obj
 0001:000d4fc0       ??0?$__crt_scoped_stack_ptr@_W@@QAE@U?$__crt_scoped_stack_ptr_tag@_W@@@Z 100d5fc0 f i libucrtd:getstringtypea.obj
 0001:000d4fe0       ??0?$__crt_scoped_stack_ptr_tag@_W@@QAE@QA_W@Z 100d5fe0 f i libucrtd:getstringtypea.obj
 0001:000d5000       ??1?$__crt_scoped_stack_ptr@_W@@QAE@XZ 100d6000 f i libucrtd:getstringtypea.obj
 0001:000d5030       ?get@?$__crt_scoped_stack_ptr@_W@@QBEPA_WXZ 100d6030 f i libucrtd:getstringtypea.obj
 0001:000d5050       __MallocaComputeSize       100d6050 f i libucrtd:getstringtypea.obj
 0001:000d5090       __MarkAllocaS              100d6090 f i libucrtd:getstringtypea.obj
 0001:000d50c0       ___acrt_GetStringTypeA     100d60c0 f   libucrtd:getstringtypea.obj
 0001:000d52f0       __freea_crt                100d62f0 f i libucrtd:getstringtypea.obj
 0001:000d61a0       ___acrt_get_qualified_locale 100d71a0 f   libucrtd:get_qualified_locale.obj
 0001:000d75d0       ___acrt_get_qualified_locale_downlevel 100d85d0 f   libucrtd:getqloc_downlevel.obj
 0001:000d7930       _localeconv                100d8930 f   libucrtd:localeconv.obj
 0001:000d7980       __87except                 100d8980 f   libucrtd:87except.obj
 0001:000d7bf0       __frnd                     100d8bf0 f   libucrtd:frnd.obj
 0001:000d7c10       ??$__acrt_fenv_shift_bits@W4__acrt_fenv_abstract_control@@@@YA?AW4__acrt_fenv_abstract_control@@W40@0I@Z 100d8c10 f i libucrtd:_fenvutils.obj
 0001:000d7c40       ??$__acrt_fenv_shift_bits@W4__acrt_fenv_abstract_status@@@@YA?AW4__acrt_fenv_abstract_status@@W40@0I@Z 100d8c40 f i libucrtd:_fenvutils.obj
 0001:000d7c70       ??$__acrt_fenv_translate_bit@W4__acrt_fenv_abstract_control@@W4__acrt_fenv_machine_sse_control@@@@YA?AW4__acrt_fenv_abstract_control@@W4__acrt_fenv_machine_sse_control@@0W40@1@Z 100d8c70 f i libucrtd:_fenvutils.obj
 0001:000d7cc0       ??$__acrt_fenv_translate_bit@W4__acrt_fenv_abstract_control@@W4__acrt_fenv_machine_x87_control@@@@YA?AW4__acrt_fenv_abstract_control@@W4__acrt_fenv_machine_x87_control@@0W40@1@Z 100d8cc0 f i libucrtd:_fenvutils.obj
 0001:000d7d10       ??$__acrt_fenv_translate_bit@W4__acrt_fenv_abstract_status@@W4__acrt_fenv_machine_sse_status@@@@YA?AW4__acrt_fenv_abstract_status@@W4__acrt_fenv_machine_sse_status@@0W40@1@Z 100d8d10 f i libucrtd:_fenvutils.obj
 0001:000d7d60       ??$__acrt_fenv_translate_bit@W4__acrt_fenv_abstract_status@@W4__acrt_fenv_machine_x87_status@@@@YA?AW4__acrt_fenv_abstract_status@@W4__acrt_fenv_machine_x87_status@@0W40@1@Z 100d8d60 f i libucrtd:_fenvutils.obj
 0001:000d7db0       ??$__acrt_fenv_translate_bit@W4__acrt_fenv_machine_sse_control@@W4__acrt_fenv_abstract_control@@@@YA?AW4__acrt_fenv_machine_sse_control@@W4__acrt_fenv_abstract_control@@0W40@1@Z 100d8db0 f i libucrtd:_fenvutils.obj
 0001:000d7e00       ??$__acrt_fenv_translate_bit@W4__acrt_fenv_machine_sse_status@@W4__acrt_fenv_abstract_status@@@@YA?AW4__acrt_fenv_machine_sse_status@@W4__acrt_fenv_abstract_status@@0W40@1@Z 100d8e00 f i libucrtd:_fenvutils.obj
 0001:000d7e50       ??$__acrt_fenv_translate_bit@W4__acrt_fenv_machine_x87_control@@W4__acrt_fenv_abstract_control@@@@YA?AW4__acrt_fenv_machine_x87_control@@W4__acrt_fenv_abstract_control@@0W40@1@Z 100d8e50 f i libucrtd:_fenvutils.obj
 0001:000d7ea0       ??$__acrt_fenv_translate_bit@W4__acrt_fenv_machine_x87_status@@W4__acrt_fenv_abstract_status@@@@YA?AW4__acrt_fenv_machine_x87_status@@W4__acrt_fenv_abstract_status@@0W40@1@Z 100d8ea0 f i libucrtd:_fenvutils.obj
 0001:000d7ef0       ??$__acrt_fenv_unshift_bits@W4__acrt_fenv_abstract_control@@@@YA?AW4__acrt_fenv_abstract_control@@W40@0I@Z 100d8ef0 f i libucrtd:_fenvutils.obj
 0001:000d7f20       ??$__acrt_fenv_unshift_bits@W4__acrt_fenv_abstract_status@@@@YA?AW4__acrt_fenv_abstract_status@@W40@0I@Z 100d8f20 f i libucrtd:_fenvutils.obj
 0001:000d8be0       ??I@YA?AW4__acrt_fenv_abstract_control@@W40@0@Z 100d9be0 f i libucrtd:_fenvutils.obj
 0001:000d8bf0       ??I@YA?AW4__acrt_fenv_abstract_status@@W40@0@Z 100d9bf0 f i libucrtd:_fenvutils.obj
 0001:000d8c00       ??I@YA?AW4__acrt_fenv_machine_sse_control@@W40@0@Z 100d9c00 f i libucrtd:_fenvutils.obj
 0001:000d8c20       ??I@YA?AW4__acrt_fenv_machine_sse_status@@W40@0@Z 100d9c20 f i libucrtd:_fenvutils.obj
 0001:000d8c30       ??I@YA?AW4__acrt_fenv_machine_x87_control@@W40@0@Z 100d9c30 f i libucrtd:_fenvutils.obj
 0001:000d8c50       ??I@YA?AW4__acrt_fenv_machine_x87_status@@W40@0@Z 100d9c50 f i libucrtd:_fenvutils.obj
 0001:000d8c60       ??U@YA?AW4__acrt_fenv_abstract_control@@W40@0@Z 100d9c60 f i libucrtd:_fenvutils.obj
 0001:000d8c70       ??U@YA?AW4__acrt_fenv_abstract_status@@W40@0@Z 100d9c70 f i libucrtd:_fenvutils.obj
 0001:000d8c80       ??U@YA?AW4__acrt_fenv_machine_sse_control@@W40@0@Z 100d9c80 f i libucrtd:_fenvutils.obj
 0001:000d8ca0       ??U@YA?AW4__acrt_fenv_machine_x87_control@@W40@0@Z 100d9ca0 f i libucrtd:_fenvutils.obj
 0001:000d8cc0       ??_5@YAAAW4__acrt_fenv_abstract_control@@AAW40@W40@@Z 100d9cc0 f i libucrtd:_fenvutils.obj
 0001:000d8ce0       ??_5@YAAAW4__acrt_fenv_abstract_status@@AAW40@W40@@Z 100d9ce0 f i libucrtd:_fenvutils.obj
 0001:000d8d00       ??_5@YAAAW4__acrt_fenv_machine_sse_control@@AAW40@W40@@Z 100d9d00 f i libucrtd:_fenvutils.obj
 0001:000d8d30       ??_5@YAAAW4__acrt_fenv_machine_sse_status@@AAW40@W40@@Z 100d9d30 f i libucrtd:_fenvutils.obj
 0001:000d8d50       ??_5@YAAAW4__acrt_fenv_machine_x87_control@@AAW40@W40@@Z 100d9d50 f i libucrtd:_fenvutils.obj
 0001:000d8d80       ??_5@YAAAW4__acrt_fenv_machine_x87_status@@AAW40@W40@@Z 100d9d80 f i libucrtd:_fenvutils.obj
 0001:000d8da0       ?__acrt_fenv_shift_abstract_sse_control@@YA?AW4__acrt_fenv_abstract_control@@W41@@Z 100d9da0 f i libucrtd:_fenvutils.obj
 0001:000d8e00       ?__acrt_fenv_shift_abstract_sse_status@@YA?AW4__acrt_fenv_abstract_status@@W41@@Z 100d9e00 f i libucrtd:_fenvutils.obj
 0001:000d8e20       ?__acrt_fenv_shift_abstract_x87_control@@YA?AW4__acrt_fenv_abstract_control@@W41@@Z 100d9e20 f i libucrtd:_fenvutils.obj
 0001:000d8e80       ?__acrt_fenv_shift_abstract_x87_status@@YA?AW4__acrt_fenv_abstract_status@@W41@@Z 100d9e80 f i libucrtd:_fenvutils.obj
 0001:000d8ea0       ?__acrt_fenv_unshift_abstract_sse_control@@YA?AW4__acrt_fenv_abstract_control@@W41@@Z 100d9ea0 f i libucrtd:_fenvutils.obj
 0001:000d8f00       ?__acrt_fenv_unshift_abstract_sse_status@@YA?AW4__acrt_fenv_abstract_status@@W41@@Z 100d9f00 f i libucrtd:_fenvutils.obj
 0001:000d8f20       ?__acrt_fenv_unshift_abstract_x87_control@@YA?AW4__acrt_fenv_abstract_control@@W41@@Z 100d9f20 f i libucrtd:_fenvutils.obj
 0001:000d8f80       ?__acrt_fenv_unshift_abstract_x87_status@@YA?AW4__acrt_fenv_abstract_status@@W41@@Z 100d9f80 f i libucrtd:_fenvutils.obj
 0001:000d9670       ___acrt_fenv_expand_round_control 100da670 f   libucrtd:_fenvutils.obj
 0001:000d96d0       ___acrt_fenv_get_common_round_control 100da6d0 f   libucrtd:_fenvutils.obj
 0001:000d9740       ___acrt_fenv_get_control   100da740 f   libucrtd:_fenvutils.obj
 0001:000d97f0       ___acrt_fenv_get_fp_status_word_from_exception_mask 100da7f0 f   libucrtd:_fenvutils.obj
 0001:000d9850       ___acrt_fenv_get_status    100da850 f   libucrtd:_fenvutils.obj
 0001:000d98f0       ___acrt_fenv_set_control   100da8f0 f   libucrtd:_fenvutils.obj
 0001:000d9940       ___acrt_fenv_set_status    100da940 f   libucrtd:_fenvutils.obj
 0001:000d9980       __malloc_base              100da980 f   libucrtd:malloc_base.obj
 0001:000d9ba0       _qsort                     100daba0 f   libucrtd:qsort.obj
 0001:000da960       _strncpy_s                 100db960 f   libucrtd:strncpy_s.obj
 0001:000da990       _strpbrk                   100db990 f   libucrtd:strpbrk.obj
 0001:000da9e0       __mbsdec                   100db9e0 f   libucrtd:mbsdec.obj
 0001:000daa00       __mbsdec_l                 100dba00 f   libucrtd:mbsdec.obj
 0001:000dac10       ??B?$__crt_scoped_stack_ptr@_W@@QBE_NXZ 100dbc10 f i libucrtd:lcmapstringa.obj
 0001:000db120       ___acrt_LCMapStringA       100dc120 f   libucrtd:lcmapstringa.obj
 0001:000db1d0       __wcsnicoll                100dc1d0 f   libucrtd:wcsnicol.obj
 0001:000db400       __wcsnicoll_l              100dc400 f   libucrtd:wcsnicol.obj
 0001:000db6e0       __strnicoll                100dc6e0 f   libucrtd:strnicol.obj
 0001:000db740       __strnicoll_l              100dc740 f   libucrtd:strnicol.obj
 0001:000dbab0       ___acrt_SetEnvironmentVariableA 100dcab0 f   libucrtd:setenvironmentvariablea.obj
 0001:000dbbb0       __set_error_mode           100dcbb0 f   libucrtd:set_error_mode.obj
 0001:000dd1e0       __i64toa                   100de1e0 f   libucrtd:xtoa.obj
 0001:000dd250       __i64toa_s                 100de250 f   libucrtd:xtoa.obj
 0001:000dd2c0       __i64tow                   100de2c0 f   libucrtd:xtoa.obj
 0001:000dd330       __i64tow_s                 100de330 f   libucrtd:xtoa.obj
